ARM GAS  /tmp/ccUG1mDy.s 			page 1


   1              		.cpu cortex-m4
   2              		.eabi_attribute 27, 1
   3              		.eabi_attribute 28, 1
   4              		.eabi_attribute 20, 1
   5              		.eabi_attribute 21, 1
   6              		.eabi_attribute 23, 3
   7              		.eabi_attribute 24, 1
   8              		.eabi_attribute 25, 1
   9              		.eabi_attribute 26, 1
  10              		.eabi_attribute 30, 2
  11              		.eabi_attribute 34, 1
  12              		.eabi_attribute 18, 4
  13              		.file	"adc.c"
  14              		.text
  15              		.section	.text.MX_ADC3_Init,"ax",%progbits
  16              		.align	1
  17              		.p2align 2,,3
  18              		.global	MX_ADC3_Init
  19              		.arch armv7e-m
  20              		.syntax unified
  21              		.thumb
  22              		.thumb_func
  23              		.fpu fpv4-sp-d16
  25              	MX_ADC3_Init:
  26              		@ args = 0, pretend = 0, frame = 24
  27              		@ frame_needed = 0, uses_anonymous_args = 0
  28 0000 10B5     		push	{r4, lr}
  29 0002 1C48     		ldr	r0, .L14
  30 0004 1C49     		ldr	r1, .L14+4
  31 0006 0023     		movs	r3, #0
  32 0008 0422     		movs	r2, #4
  33 000a 86B0     		sub	sp, sp, #24
  34 000c C0E90432 		strd	r3, r2, [r0, #16]
  35 0010 0383     		strh	r3, [r0, #24]	@ movhi
  36 0012 0122     		movs	r2, #1
  37 0014 CDE90033 		strd	r3, r3, [sp]
  38 0018 CDE90233 		strd	r3, r3, [sp, #8]
  39 001c CDE90433 		strd	r3, r3, [sp, #16]
  40 0020 C0E90013 		strd	r1, r3, [r0]
  41 0024 C0E90233 		strd	r3, r3, [r0, #8]
  42 0028 C0E90A33 		strd	r3, r3, [r0, #40]
  43 002c C261     		str	r2, [r0, #28]
  44 002e 80F82030 		strb	r3, [r0, #32]
  45 0032 80F83030 		strb	r3, [r0, #48]
  46 0036 4363     		str	r3, [r0, #52]
  47 0038 80F83830 		strb	r3, [r0, #56]
  48 003c FFF7FEFF 		bl	HAL_ADC_Init
  49 0040 88B9     		cbnz	r0, .L12
  50              	.L2:
  51 0042 0E4A     		ldr	r2, .L14+8
  52 0044 0092     		str	r2, [sp]
  53 0046 7F22     		movs	r2, #127
  54 0048 0023     		movs	r3, #0
  55 004a 0624     		movs	r4, #6
  56 004c 0392     		str	r2, [sp, #12]
  57 004e 0948     		ldr	r0, .L14
  58 0050 0422     		movs	r2, #4
ARM GAS  /tmp/ccUG1mDy.s 			page 2


  59 0052 6946     		mov	r1, sp
  60 0054 CDE90143 		strd	r4, r3, [sp, #4]
  61 0058 CDE90423 		strd	r2, r3, [sp, #16]
  62 005c FFF7FEFF 		bl	HAL_ADC_ConfigChannel
  63 0060 20B9     		cbnz	r0, .L13
  64 0062 06B0     		add	sp, sp, #24
  65              		@ sp needed
  66 0064 10BD     		pop	{r4, pc}
  67              	.L12:
  68 0066 FFF7FEFF 		bl	Error_Handler
  69 006a EAE7     		b	.L2
  70              	.L13:
  71 006c FFF7FEFF 		bl	Error_Handler
  72 0070 06B0     		add	sp, sp, #24
  73              		@ sp needed
  74 0072 10BD     		pop	{r4, pc}
  75              	.L15:
  76              		.align	2
  77              	.L14:
  78 0074 00000000 		.word	.LANCHOR0
  79 0078 00020450 		.word	1342439936
  80 007c 02003004 		.word	70254594
  82              		.section	.text.HAL_ADC_MspInit,"ax",%progbits
  83              		.align	1
  84              		.p2align 2,,3
  85              		.global	HAL_ADC_MspInit
  86              		.syntax unified
  87              		.thumb
  88              		.thumb_func
  89              		.fpu fpv4-sp-d16
  91              	HAL_ADC_MspInit:
  92              		@ args = 0, pretend = 0, frame = 168
  93              		@ frame_needed = 0, uses_anonymous_args = 0
  94 0000 10B5     		push	{r4, lr}
  95 0002 0446     		mov	r4, r0
  96 0004 AAB0     		sub	sp, sp, #168
  97 0006 0021     		movs	r1, #0
  98 0008 8822     		movs	r2, #136
  99 000a 08A8     		add	r0, sp, #32
 100 000c CDE90211 		strd	r1, r1, [sp, #8]
 101 0010 CDE90411 		strd	r1, r1, [sp, #16]
 102 0014 0691     		str	r1, [sp, #24]
 103 0016 FFF7FEFF 		bl	memset
 104 001a 234B     		ldr	r3, .L25
 105 001c 2268     		ldr	r2, [r4]
 106 001e 9A42     		cmp	r2, r3
 107 0020 01D0     		beq	.L23
 108 0022 2AB0     		add	sp, sp, #168
 109              		@ sp needed
 110 0024 10BD     		pop	{r4, pc}
 111              	.L23:
 112 0026 4FF48041 		mov	r1, #16384
 113 002a 4FF08052 		mov	r2, #268435456
 114 002e 0223     		movs	r3, #2
 115 0030 0891     		str	r1, [sp, #32]
 116 0032 2692     		str	r2, [sp, #152]
 117 0034 0121     		movs	r1, #1
ARM GAS  /tmp/ccUG1mDy.s 			page 3


 118 0036 0822     		movs	r2, #8
 119 0038 CDE90931 		strd	r3, r1, [sp, #36]
 120 003c 0B92     		str	r2, [sp, #44]
 121 003e 0721     		movs	r1, #7
 122 0040 4FF08072 		mov	r2, #16777216
 123 0044 08A8     		add	r0, sp, #32
 124 0046 CDE90C13 		strd	r1, r3, [sp, #48]
 125 004a CDE90E32 		strd	r3, r2, [sp, #56]
 126 004e FFF7FEFF 		bl	HAL_RCCEx_PeriphCLKConfig
 127 0052 30BB     		cbnz	r0, .L24
 128              	.L18:
 129 0054 154B     		ldr	r3, .L25+4
 130 0056 1648     		ldr	r0, .L25+8
 131 0058 DA6C     		ldr	r2, [r3, #76]
 132 005a 42F40052 		orr	r2, r2, #8192
 133 005e DA64     		str	r2, [r3, #76]
 134 0060 DA6C     		ldr	r2, [r3, #76]
 135 0062 02F40052 		and	r2, r2, #8192
 136 0066 0092     		str	r2, [sp]
 137 0068 009A     		ldr	r2, [sp]
 138 006a DA6C     		ldr	r2, [r3, #76]
 139 006c 42F00402 		orr	r2, r2, #4
 140 0070 DA64     		str	r2, [r3, #76]
 141 0072 DB6C     		ldr	r3, [r3, #76]
 142 0074 03F00403 		and	r3, r3, #4
 143 0078 0193     		str	r3, [sp, #4]
 144 007a 0024     		movs	r4, #0
 145 007c 02A9     		add	r1, sp, #8
 146 007e 0122     		movs	r2, #1
 147 0080 0B23     		movs	r3, #11
 148 0082 CDE90223 		strd	r2, [sp, #8]
 149 0086 0494     		str	r4, [sp, #16]
 150 0088 019B     		ldr	r3, [sp, #4]
 151 008a FFF7FEFF 		bl	HAL_GPIO_Init
 152 008e 2246     		mov	r2, r4
 153 0090 2146     		mov	r1, r4
 154 0092 2F20     		movs	r0, #47
 155 0094 FFF7FEFF 		bl	HAL_NVIC_SetPriority
 156 0098 2F20     		movs	r0, #47
 157 009a FFF7FEFF 		bl	HAL_NVIC_EnableIRQ
 158 009e 2AB0     		add	sp, sp, #168
 159              		@ sp needed
 160 00a0 10BD     		pop	{r4, pc}
 161              	.L24:
 162 00a2 FFF7FEFF 		bl	Error_Handler
 163 00a6 D5E7     		b	.L18
 164              	.L26:
 165              		.align	2
 166              	.L25:
 167 00a8 00020450 		.word	1342439936
 168 00ac 00100240 		.word	1073876992
 169 00b0 00080048 		.word	1207961600
 171              		.section	.text.HAL_ADC_MspDeInit,"ax",%progbits
 172              		.align	1
 173              		.p2align 2,,3
 174              		.global	HAL_ADC_MspDeInit
 175              		.syntax unified
ARM GAS  /tmp/ccUG1mDy.s 			page 4


 176              		.thumb
 177              		.thumb_func
 178              		.fpu fpv4-sp-d16
 180              	HAL_ADC_MspDeInit:
 181              		@ args = 0, pretend = 0, frame = 0
 182              		@ frame_needed = 0, uses_anonymous_args = 0
 183 0000 08B5     		push	{r3, lr}
 184 0002 0268     		ldr	r2, [r0]
 185 0004 084B     		ldr	r3, .L31
 186 0006 9A42     		cmp	r2, r3
 187 0008 00D0     		beq	.L30
 188 000a 08BD     		pop	{r3, pc}
 189              	.L30:
 190 000c 074A     		ldr	r2, .L31+4
 191 000e 0848     		ldr	r0, .L31+8
 192 0010 D36C     		ldr	r3, [r2, #76]
 193 0012 23F40053 		bic	r3, r3, #8192
 194 0016 D364     		str	r3, [r2, #76]
 195 0018 0121     		movs	r1, #1
 196 001a FFF7FEFF 		bl	HAL_GPIO_DeInit
 197 001e BDE80840 		pop	{r3, lr}
 198 0022 2F20     		movs	r0, #47
 199 0024 FFF7FEBF 		b	HAL_NVIC_DisableIRQ
 200              	.L32:
 201              		.align	2
 202              	.L31:
 203 0028 00020450 		.word	1342439936
 204 002c 00100240 		.word	1073876992
 205 0030 00080048 		.word	1207961600
 207              		.section	.text.HAL_ADC_ConvCpltCallback,"ax",%progbits
 208              		.align	1
 209              		.p2align 2,,3
 210              		.global	HAL_ADC_ConvCpltCallback
 211              		.syntax unified
 212              		.thumb
 213              		.thumb_func
 214              		.fpu fpv4-sp-d16
 216              	HAL_ADC_ConvCpltCallback:
 217              		@ args = 0, pretend = 0, frame = 0
 218              		@ frame_needed = 0, uses_anonymous_args = 0
 219 0000 F8B5     		push	{r3, r4, r5, r6, r7, lr}
 220 0002 4248     		ldr	r0, .L63
 221 0004 424C     		ldr	r4, .L63+4
 222 0006 FFF7FEFF 		bl	HAL_ADC_GetValue
 223 000a 424A     		ldr	r2, .L63+8
 224 000c 1368     		ldr	r3, [r2]
 225 000e 6BBB     		cbnz	r3, .L34
 226 0010 40F6C413 		movw	r3, #2500
 227 0014 9842     		cmp	r0, r3
 228 0016 2178     		ldrb	r1, [r4]	@ zero_extendqisi2
 229 0018 1FD8     		bhi	.L55
 230              	.L59:
 231 001a 3F4D     		ldr	r5, .L63+12
 232              	.L35:
 233 001c 2B68     		ldr	r3, [r5]
 234 001e 012B     		cmp	r3, #1
 235 0020 49D0     		beq	.L60
ARM GAS  /tmp/ccUG1mDy.s 			page 5


 236 0022 11B1     		cbz	r1, .L46
 237              	.L33:
 238 0024 F8BD     		pop	{r3, r4, r5, r6, r7, pc}
 239              	.L38:
 240 0026 012B     		cmp	r3, #1
 241 0028 47D0     		beq	.L45
 242              	.L46:
 243 002a 022B     		cmp	r3, #2
 244 002c 4ED0     		beq	.L61
 245 002e 032B     		cmp	r3, #3
 246 0030 F8D1     		bne	.L33
 247 0032 0823     		movs	r3, #8
 248 0034 3949     		ldr	r1, .L63+16
 249 0036 2370     		strb	r3, [r4]
 250 0038 394B     		ldr	r3, .L63+20
 251 003a 0A78     		ldrb	r2, [r1]	@ zero_extendqisi2
 252 003c 1B78     		ldrb	r3, [r3]	@ zero_extendqisi2
 253 003e 3948     		ldr	r0, .L63+24
 254 0040 E92B     		cmp	r3, #233
 255 0042 8354     		strb	r3, [r0, r2]
 256 0044 02F10100 		add	r0, r2, #1
 257 0048 0870     		strb	r0, [r1]
 258 004a 3748     		ldr	r0, .L63+28
 259 004c 4CD0     		beq	.L57
 260              	.L44:
 261 004e 0370     		strb	r3, [r0]
 262 0050 F8BD     		pop	{r3, r4, r5, r6, r7, pc}
 263              	.L62:
 264 0052 40F6C413 		movw	r3, #2500
 265 0056 9842     		cmp	r0, r3
 266 0058 DFD9     		bls	.L59
 267              	.L55:
 268 005a 3449     		ldr	r1, .L63+32
 269 005c 344B     		ldr	r3, .L63+36
 270 005e 0968     		ldr	r1, [r1]
 271 0060 0220     		movs	r0, #2
 272 0062 496A     		ldr	r1, [r1, #36]
 273 0064 1960     		str	r1, [r3]
 274 0066 1060     		str	r0, [r2]
 275 0068 2178     		ldrb	r1, [r4]	@ zero_extendqisi2
 276 006a D6E7     		b	.L59
 277              	.L34:
 278 006c 012B     		cmp	r3, #1
 279 006e 2178     		ldrb	r1, [r4]	@ zero_extendqisi2
 280 0070 EFD0     		beq	.L62
 281 0072 022B     		cmp	r3, #2
 282 0074 284D     		ldr	r5, .L63+12
 283 0076 D1D1     		bne	.L35
 284 0078 40F6C316 		movw	r6, #2499
 285 007c B042     		cmp	r0, r6
 286 007e 2B68     		ldr	r3, [r5]
 287 0080 CCD8     		bhi	.L35
 288 0082 2A48     		ldr	r0, .L63+32
 289 0084 2A4F     		ldr	r7, .L63+36
 290 0086 0068     		ldr	r0, [r0]
 291 0088 254E     		ldr	r6, .L63+20
 292 008a 406A     		ldr	r0, [r0, #36]
ARM GAS  /tmp/ccUG1mDy.s 			page 6


 293 008c 3F68     		ldr	r7, [r7]
 294 008e A0EB070C 		sub	ip, r0, r7
 295 0092 3078     		ldrb	r0, [r6]	@ zero_extendqisi2
 296 0094 41F2883E 		movw	lr, #5000
 297 0098 4000     		lsls	r0, r0, #1
 298 009a F445     		cmp	ip, lr
 299 009c D8BF     		it	le
 300 009e 40F00100 		orrle	r0, r0, #1
 301 00a2 C0B2     		uxtb	r0, r0
 302 00a4 3070     		strb	r0, [r6]
 303 00a6 0126     		movs	r6, #1
 304 00a8 1660     		str	r6, [r2]
 305 00aa 0029     		cmp	r1, #0
 306 00ac BBD0     		beq	.L38
 307 00ae 0139     		subs	r1, r1, #1
 308 00b0 C9B2     		uxtb	r1, r1
 309 00b2 2170     		strb	r1, [r4]
 310 00b4 B2E7     		b	.L35
 311              	.L60:
 312 00b6 1A4B     		ldr	r3, .L63+20
 313 00b8 1878     		ldrb	r0, [r3]	@ zero_extendqisi2
 314              	.L45:
 315 00ba 3F28     		cmp	r0, #63
 316 00bc B2D1     		bne	.L33
 317 00be 1A4B     		ldr	r3, .L63+28
 318 00c0 0822     		movs	r2, #8
 319 00c2 2270     		strb	r2, [r4]
 320 00c4 1870     		strb	r0, [r3]
 321 00c6 0222     		movs	r2, #2
 322 00c8 2A60     		str	r2, [r5]
 323 00ca F8BD     		pop	{r3, r4, r5, r6, r7, pc}
 324              	.L61:
 325 00cc 144B     		ldr	r3, .L63+20
 326 00ce 1B78     		ldrb	r3, [r3]	@ zero_extendqisi2
 327 00d0 7D2B     		cmp	r3, #125
 328 00d2 A7D1     		bne	.L33
 329 00d4 0820     		movs	r0, #8
 330 00d6 1149     		ldr	r1, .L63+16
 331 00d8 134A     		ldr	r2, .L63+28
 332 00da 2070     		strb	r0, [r4]
 333 00dc 0320     		movs	r0, #3
 334 00de 2860     		str	r0, [r5]
 335 00e0 0020     		movs	r0, #0
 336 00e2 0870     		strb	r0, [r1]
 337 00e4 1370     		strb	r3, [r2]
 338 00e6 F8BD     		pop	{r3, r4, r5, r6, r7, pc}
 339              	.L57:
 340 00e8 0678     		ldrb	r6, [r0]	@ zero_extendqisi2
 341 00ea F72E     		cmp	r6, #247
 342 00ec AFD1     		bne	.L44
 343 00ee 4FF09040 		mov	r0, #1207959552
 344 00f2 013A     		subs	r2, r2, #1
 345 00f4 4369     		ldr	r3, [r0, #20]
 346 00f6 43F02003 		orr	r3, r3, #32
 347 00fa 4361     		str	r3, [r0, #20]
 348 00fc 0A70     		strb	r2, [r1]
 349 00fe FFF7FEFF 		bl	recv2uart
ARM GAS  /tmp/ccUG1mDy.s 			page 7


 350 0102 0022     		movs	r2, #0
 351 0104 0123     		movs	r3, #1
 352 0106 2270     		strb	r2, [r4]
 353 0108 2B60     		str	r3, [r5]
 354 010a F8BD     		pop	{r3, r4, r5, r6, r7, pc}
 355              	.L64:
 356              		.align	2
 357              	.L63:
 358 010c 00000000 		.word	.LANCHOR0
 359 0110 00000000 		.word	.LANCHOR2
 360 0114 00000000 		.word	.LANCHOR1
 361 0118 00000000 		.word	.LANCHOR4
 362 011c 00000000 		.word	recvidx
 363 0120 00000000 		.word	.LANCHOR5
 364 0124 00000000 		.word	recvbuf
 365 0128 00000000 		.word	.LANCHOR6
 366 012c 00000000 		.word	htim2
 367 0130 00000000 		.word	.LANCHOR3
 369              		.global	hadc3
 370              		.section	.bss.bitcnt.2,"aw",%nobits
 371              		.set	.LANCHOR2,. + 0
 374              	bitcnt.2:
 375 0000 00       		.space	1
 376              		.section	.bss.data.3,"aw",%nobits
 377              		.set	.LANCHOR5,. + 0
 380              	data.3:
 381 0000 00       		.space	1
 382              		.section	.bss.hadc3,"aw",%nobits
 383              		.align	2
 384              		.set	.LANCHOR0,. + 0
 387              	hadc3:
 388 0000 00000000 		.space	100
 388      00000000 
 388      00000000 
 388      00000000 
 388      00000000 
 389              		.section	.bss.last_data.0,"aw",%nobits
 390              		.set	.LANCHOR6,. + 0
 393              	last_data.0:
 394 0000 00       		.space	1
 395              		.section	.bss.start.5,"aw",%nobits
 396              		.align	2
 397              		.set	.LANCHOR3,. + 0
 400              	start.5:
 401 0000 00000000 		.space	4
 402              		.section	.bss.state.6,"aw",%nobits
 403              		.align	2
 404              		.set	.LANCHOR1,. + 0
 407              	state.6:
 408 0000 00000000 		.space	4
 409              		.section	.data.byte_state.1,"aw"
 410              		.align	2
 411              		.set	.LANCHOR4,. + 0
 414              	byte_state.1:
 415 0000 01000000 		.word	1
 416              		.ident	"GCC: (Arch Repository) 11.2.0"
ARM GAS  /tmp/ccUG1mDy.s 			page 8

