ARM GAS  /tmp/ccJZYCGE.s 			page 1


   1              		.cpu cortex-m4
   2              		.eabi_attribute 27, 1
   3              		.eabi_attribute 28, 1
   4              		.eabi_attribute 20, 1
   5              		.eabi_attribute 21, 1
   6              		.eabi_attribute 23, 3
   7              		.eabi_attribute 24, 1
   8              		.eabi_attribute 25, 1
   9              		.eabi_attribute 26, 1
  10              		.eabi_attribute 30, 2
  11              		.eabi_attribute 34, 1
  12              		.eabi_attribute 18, 4
  13              		.file	"adc.c"
  14              		.text
  15              		.section	.text.MX_ADC3_Init,"ax",%progbits
  16              		.align	1
  17              		.p2align 2,,3
  18              		.global	MX_ADC3_Init
  19              		.arch armv7e-m
  20              		.syntax unified
  21              		.thumb
  22              		.thumb_func
  23              		.fpu fpv4-sp-d16
  25              	MX_ADC3_Init:
  26              		@ args = 0, pretend = 0, frame = 24
  27              		@ frame_needed = 0, uses_anonymous_args = 0
  28 0000 10B5     		push	{r4, lr}
  29 0002 1C48     		ldr	r0, .L14
  30 0004 1C49     		ldr	r1, .L14+4
  31 0006 0023     		movs	r3, #0
  32 0008 0422     		movs	r2, #4
  33 000a 86B0     		sub	sp, sp, #24
  34 000c C0E90432 		strd	r3, r2, [r0, #16]
  35 0010 0383     		strh	r3, [r0, #24]	@ movhi
  36 0012 0122     		movs	r2, #1
  37 0014 CDE90033 		strd	r3, r3, [sp]
  38 0018 CDE90233 		strd	r3, r3, [sp, #8]
  39 001c CDE90433 		strd	r3, r3, [sp, #16]
  40 0020 C0E90013 		strd	r1, r3, [r0]
  41 0024 C0E90233 		strd	r3, r3, [r0, #8]
  42 0028 C0E90A33 		strd	r3, r3, [r0, #40]
  43 002c C261     		str	r2, [r0, #28]
  44 002e 80F82030 		strb	r3, [r0, #32]
  45 0032 80F83030 		strb	r3, [r0, #48]
  46 0036 4363     		str	r3, [r0, #52]
  47 0038 80F83830 		strb	r3, [r0, #56]
  48 003c FFF7FEFF 		bl	HAL_ADC_Init
  49 0040 88B9     		cbnz	r0, .L12
  50              	.L2:
  51 0042 0E4A     		ldr	r2, .L14+8
  52 0044 0092     		str	r2, [sp]
  53 0046 7F22     		movs	r2, #127
  54 0048 0023     		movs	r3, #0
  55 004a 0624     		movs	r4, #6
  56 004c 0392     		str	r2, [sp, #12]
  57 004e 0948     		ldr	r0, .L14
  58 0050 0422     		movs	r2, #4
ARM GAS  /tmp/ccJZYCGE.s 			page 2


  59 0052 6946     		mov	r1, sp
  60 0054 CDE90143 		strd	r4, r3, [sp, #4]
  61 0058 CDE90423 		strd	r2, r3, [sp, #16]
  62 005c FFF7FEFF 		bl	HAL_ADC_ConfigChannel
  63 0060 20B9     		cbnz	r0, .L13
  64 0062 06B0     		add	sp, sp, #24
  65              		@ sp needed
  66 0064 10BD     		pop	{r4, pc}
  67              	.L12:
  68 0066 FFF7FEFF 		bl	Error_Handler
  69 006a EAE7     		b	.L2
  70              	.L13:
  71 006c FFF7FEFF 		bl	Error_Handler
  72 0070 06B0     		add	sp, sp, #24
  73              		@ sp needed
  74 0072 10BD     		pop	{r4, pc}
  75              	.L15:
  76              		.align	2
  77              	.L14:
  78 0074 00000000 		.word	.LANCHOR0
  79 0078 00020450 		.word	1342439936
  80 007c 02003004 		.word	70254594
  82              		.section	.text.HAL_ADC_MspInit,"ax",%progbits
  83              		.align	1
  84              		.p2align 2,,3
  85              		.global	HAL_ADC_MspInit
  86              		.syntax unified
  87              		.thumb
  88              		.thumb_func
  89              		.fpu fpv4-sp-d16
  91              	HAL_ADC_MspInit:
  92              		@ args = 0, pretend = 0, frame = 168
  93              		@ frame_needed = 0, uses_anonymous_args = 0
  94 0000 10B5     		push	{r4, lr}
  95 0002 0446     		mov	r4, r0
  96 0004 AAB0     		sub	sp, sp, #168
  97 0006 0021     		movs	r1, #0
  98 0008 8822     		movs	r2, #136
  99 000a 08A8     		add	r0, sp, #32
 100 000c CDE90211 		strd	r1, r1, [sp, #8]
 101 0010 CDE90411 		strd	r1, r1, [sp, #16]
 102 0014 0691     		str	r1, [sp, #24]
 103 0016 FFF7FEFF 		bl	memset
 104 001a 234B     		ldr	r3, .L25
 105 001c 2268     		ldr	r2, [r4]
 106 001e 9A42     		cmp	r2, r3
 107 0020 01D0     		beq	.L23
 108 0022 2AB0     		add	sp, sp, #168
 109              		@ sp needed
 110 0024 10BD     		pop	{r4, pc}
 111              	.L23:
 112 0026 4FF48041 		mov	r1, #16384
 113 002a 4FF08052 		mov	r2, #268435456
 114 002e 0223     		movs	r3, #2
 115 0030 0891     		str	r1, [sp, #32]
 116 0032 2692     		str	r2, [sp, #152]
 117 0034 0121     		movs	r1, #1
ARM GAS  /tmp/ccJZYCGE.s 			page 3


 118 0036 0822     		movs	r2, #8
 119 0038 CDE90931 		strd	r3, r1, [sp, #36]
 120 003c 0B92     		str	r2, [sp, #44]
 121 003e 0721     		movs	r1, #7
 122 0040 4FF08072 		mov	r2, #16777216
 123 0044 08A8     		add	r0, sp, #32
 124 0046 CDE90C13 		strd	r1, r3, [sp, #48]
 125 004a CDE90E32 		strd	r3, r2, [sp, #56]
 126 004e FFF7FEFF 		bl	HAL_RCCEx_PeriphCLKConfig
 127 0052 30BB     		cbnz	r0, .L24
 128              	.L18:
 129 0054 154B     		ldr	r3, .L25+4
 130 0056 1648     		ldr	r0, .L25+8
 131 0058 DA6C     		ldr	r2, [r3, #76]
 132 005a 42F40052 		orr	r2, r2, #8192
 133 005e DA64     		str	r2, [r3, #76]
 134 0060 DA6C     		ldr	r2, [r3, #76]
 135 0062 02F40052 		and	r2, r2, #8192
 136 0066 0092     		str	r2, [sp]
 137 0068 009A     		ldr	r2, [sp]
 138 006a DA6C     		ldr	r2, [r3, #76]
 139 006c 42F00402 		orr	r2, r2, #4
 140 0070 DA64     		str	r2, [r3, #76]
 141 0072 DB6C     		ldr	r3, [r3, #76]
 142 0074 03F00403 		and	r3, r3, #4
 143 0078 0193     		str	r3, [sp, #4]
 144 007a 0024     		movs	r4, #0
 145 007c 02A9     		add	r1, sp, #8
 146 007e 0122     		movs	r2, #1
 147 0080 0B23     		movs	r3, #11
 148 0082 CDE90223 		strd	r2, [sp, #8]
 149 0086 0494     		str	r4, [sp, #16]
 150 0088 019B     		ldr	r3, [sp, #4]
 151 008a FFF7FEFF 		bl	HAL_GPIO_Init
 152 008e 2246     		mov	r2, r4
 153 0090 2146     		mov	r1, r4
 154 0092 2F20     		movs	r0, #47
 155 0094 FFF7FEFF 		bl	HAL_NVIC_SetPriority
 156 0098 2F20     		movs	r0, #47
 157 009a FFF7FEFF 		bl	HAL_NVIC_EnableIRQ
 158 009e 2AB0     		add	sp, sp, #168
 159              		@ sp needed
 160 00a0 10BD     		pop	{r4, pc}
 161              	.L24:
 162 00a2 FFF7FEFF 		bl	Error_Handler
 163 00a6 D5E7     		b	.L18
 164              	.L26:
 165              		.align	2
 166              	.L25:
 167 00a8 00020450 		.word	1342439936
 168 00ac 00100240 		.word	1073876992
 169 00b0 00080048 		.word	1207961600
 171              		.section	.text.HAL_ADC_MspDeInit,"ax",%progbits
 172              		.align	1
 173              		.p2align 2,,3
 174              		.global	HAL_ADC_MspDeInit
 175              		.syntax unified
ARM GAS  /tmp/ccJZYCGE.s 			page 4


 176              		.thumb
 177              		.thumb_func
 178              		.fpu fpv4-sp-d16
 180              	HAL_ADC_MspDeInit:
 181              		@ args = 0, pretend = 0, frame = 0
 182              		@ frame_needed = 0, uses_anonymous_args = 0
 183 0000 08B5     		push	{r3, lr}
 184 0002 0268     		ldr	r2, [r0]
 185 0004 084B     		ldr	r3, .L31
 186 0006 9A42     		cmp	r2, r3
 187 0008 00D0     		beq	.L30
 188 000a 08BD     		pop	{r3, pc}
 189              	.L30:
 190 000c 074A     		ldr	r2, .L31+4
 191 000e 0848     		ldr	r0, .L31+8
 192 0010 D36C     		ldr	r3, [r2, #76]
 193 0012 23F40053 		bic	r3, r3, #8192
 194 0016 D364     		str	r3, [r2, #76]
 195 0018 0121     		movs	r1, #1
 196 001a FFF7FEFF 		bl	HAL_GPIO_DeInit
 197 001e BDE80840 		pop	{r3, lr}
 198 0022 2F20     		movs	r0, #47
 199 0024 FFF7FEBF 		b	HAL_NVIC_DisableIRQ
 200              	.L32:
 201              		.align	2
 202              	.L31:
 203 0028 00020450 		.word	1342439936
 204 002c 00100240 		.word	1073876992
 205 0030 00080048 		.word	1207961600
 207              		.section	.rodata.HAL_ADC_ConvCpltCallback.str1.4,"aMS",%progbits,1
 208              		.align	2
 209              	.LC0:
 210 0000 6269743A 		.ascii	"bit::%d \000"
 210      3A256420 
 210      00
 211 0009 000000   		.align	2
 212              	.LC1:
 213 000c 62797465 		.ascii	"byte_state::%d\015\012\000"
 213      5F737461 
 213      74653A3A 
 213      25640D0A 
 213      00
 214              		.section	.text.HAL_ADC_ConvCpltCallback,"ax",%progbits
 215              		.align	1
 216              		.p2align 2,,3
 217              		.global	HAL_ADC_ConvCpltCallback
 218              		.syntax unified
 219              		.thumb
 220              		.thumb_func
 221              		.fpu fpv4-sp-d16
 223              	HAL_ADC_ConvCpltCallback:
 224              		@ args = 0, pretend = 0, frame = 8
 225              		@ frame_needed = 0, uses_anonymous_args = 0
 226 0000 30B5     		push	{r4, r5, lr}
 227 0002 524C     		ldr	r4, .L63
 228 0004 5248     		ldr	r0, .L63+4
 229 0006 83B0     		sub	sp, sp, #12
ARM GAS  /tmp/ccJZYCGE.s 			page 5


 230 0008 FFF7FEFF 		bl	HAL_ADC_GetValue
 231 000c 2368     		ldr	r3, [r4]
 232 000e F3B1     		cbz	r3, .L56
 233 0010 012B     		cmp	r3, #1
 234 0012 1CD0     		beq	.L56
 235 0014 022B     		cmp	r3, #2
 236 0016 57D0     		beq	.L58
 237              	.L36:
 238 0018 4E4C     		ldr	r4, .L63+8
 239 001a 2268     		ldr	r2, [r4]
 240 001c 012A     		cmp	r2, #1
 241 001e 25D0     		beq	.L59
 242              	.L41:
 243 0020 4D4D     		ldr	r5, .L63+12
 244 0022 2B78     		ldrb	r3, [r5]	@ zero_extendqisi2
 245 0024 8BB9     		cbnz	r3, .L33
 246 0026 022A     		cmp	r2, #2
 247 0028 2BD0     		beq	.L60
 248 002a 032A     		cmp	r2, #3
 249 002c 3BD1     		bne	.L45
 250 002e 4B4B     		ldr	r3, .L63+16
 251 0030 4B4A     		ldr	r2, .L63+20
 252 0032 1978     		ldrb	r1, [r3]	@ zero_extendqisi2
 253 0034 4B48     		ldr	r0, .L63+24
 254 0036 F729     		cmp	r1, #247
 255 0038 04BF     		itt	eq
 256 003a 0423     		moveq	r3, #4
 257 003c 2360     		streq	r3, [r4]
 258 003e 1378     		ldrb	r3, [r2]	@ zero_extendqisi2
 259 0040 C154     		strb	r1, [r0, r3]
 260 0042 0821     		movs	r1, #8
 261 0044 0133     		adds	r3, r3, #1
 262 0046 2970     		strb	r1, [r5]
 263 0048 1370     		strb	r3, [r2]
 264              	.L33:
 265 004a 03B0     		add	sp, sp, #12
 266              		@ sp needed
 267 004c 30BD     		pop	{r4, r5, pc}
 268              	.L56:
 269 004e 40F6C413 		movw	r3, #2500
 270 0052 9842     		cmp	r0, r3
 271 0054 E0D9     		bls	.L36
 272 0056 444A     		ldr	r2, .L63+28
 273 0058 444B     		ldr	r3, .L63+32
 274 005a 1268     		ldr	r2, [r2]
 275 005c 0221     		movs	r1, #2
 276 005e 526A     		ldr	r2, [r2, #36]
 277 0060 2160     		str	r1, [r4]
 278 0062 3C4C     		ldr	r4, .L63+8
 279 0064 1A60     		str	r2, [r3]
 280 0066 2268     		ldr	r2, [r4]
 281 0068 012A     		cmp	r2, #1
 282 006a D9D1     		bne	.L41
 283              	.L59:
 284 006c 3B4B     		ldr	r3, .L63+16
 285 006e 1B78     		ldrb	r3, [r3]	@ zero_extendqisi2
 286 0070 3F2B     		cmp	r3, #63
ARM GAS  /tmp/ccJZYCGE.s 			page 6


 287 0072 EAD1     		bne	.L33
 288 0074 384A     		ldr	r2, .L63+12
 289 0076 0821     		movs	r1, #8
 290 0078 0223     		movs	r3, #2
 291 007a 1170     		strb	r1, [r2]
 292 007c 2360     		str	r3, [r4]
 293 007e 03B0     		add	sp, sp, #12
 294              		@ sp needed
 295 0080 30BD     		pop	{r4, r5, pc}
 296              	.L60:
 297 0082 3649     		ldr	r1, .L63+16
 298 0084 0978     		ldrb	r1, [r1]	@ zero_extendqisi2
 299 0086 7D29     		cmp	r1, #125
 300 0088 58D0     		beq	.L61
 301              	.L44:
 302 008a 0023     		movs	r3, #0
 303 008c 3849     		ldr	r1, .L63+36
 304 008e 6846     		mov	r0, sp
 305 0090 CDE90033 		strd	r3, r3, [sp]
 306 0094 FFF7FEFF 		bl	sprintf
 307 0098 0822     		movs	r2, #8
 308 009a 6946     		mov	r1, sp
 309 009c 3548     		ldr	r0, .L63+40
 310 009e FFF7FEFF 		bl	HAL_UART_Transmit_IT
 311 00a2 03B0     		add	sp, sp, #12
 312              		@ sp needed
 313 00a4 30BD     		pop	{r4, r5, pc}
 314              	.L45:
 315 00a6 042A     		cmp	r2, #4
 316 00a8 EFD1     		bne	.L44
 317 00aa 2C4B     		ldr	r3, .L63+16
 318 00ac 2C4A     		ldr	r2, .L63+20
 319 00ae 1978     		ldrb	r1, [r3]	@ zero_extendqisi2
 320 00b0 1378     		ldrb	r3, [r2]	@ zero_extendqisi2
 321 00b2 E929     		cmp	r1, #233
 322 00b4 34D0     		beq	.L62
 323 00b6 2B48     		ldr	r0, .L63+24
 324 00b8 C154     		strb	r1, [r0, r3]
 325 00ba 0133     		adds	r3, r3, #1
 326 00bc 1370     		strb	r3, [r2]
 327 00be 0822     		movs	r2, #8
 328 00c0 0323     		movs	r3, #3
 329 00c2 2A70     		strb	r2, [r5]
 330 00c4 2360     		str	r3, [r4]
 331 00c6 C0E7     		b	.L33
 332              	.L58:
 333 00c8 40F6C313 		movw	r3, #2499
 334 00cc 9842     		cmp	r0, r3
 335 00ce A3D8     		bhi	.L36
 336 00d0 254B     		ldr	r3, .L63+28
 337 00d2 264A     		ldr	r2, .L63+32
 338 00d4 1B68     		ldr	r3, [r3]
 339 00d6 1268     		ldr	r2, [r2]
 340 00d8 5D6A     		ldr	r5, [r3, #36]
 341 00da 2749     		ldr	r1, .L63+44
 342 00dc AD1A     		subs	r5, r5, r2
 343 00de 41F28833 		movw	r3, #5000
ARM GAS  /tmp/ccJZYCGE.s 			page 7


 344 00e2 9D42     		cmp	r5, r3
 345 00e4 CCBF     		ite	gt
 346 00e6 0025     		movgt	r5, #0
 347 00e8 0125     		movle	r5, #1
 348 00ea 0122     		movs	r2, #1
 349 00ec 0023     		movs	r3, #0
 350 00ee 2260     		str	r2, [r4]
 351 00f0 6846     		mov	r0, sp
 352 00f2 2A46     		mov	r2, r5
 353 00f4 CDE90033 		strd	r3, r3, [sp]
 354 00f8 FFF7FEFF 		bl	sprintf
 355 00fc 0822     		movs	r2, #8
 356 00fe 6946     		mov	r1, sp
 357 0100 1C48     		ldr	r0, .L63+40
 358 0102 FFF7FEFF 		bl	HAL_UART_Transmit_IT
 359 0106 154A     		ldr	r2, .L63+16
 360 0108 1349     		ldr	r1, .L63+12
 361 010a 1078     		ldrb	r0, [r2]	@ zero_extendqisi2
 362 010c 0B78     		ldrb	r3, [r1]	@ zero_extendqisi2
 363 010e 45EA4005 		orr	r5, r5, r0, lsl #1
 364 0112 1570     		strb	r5, [r2]
 365 0114 002B     		cmp	r3, #0
 366 0116 3FF47FAF 		beq	.L36
 367 011a 013B     		subs	r3, r3, #1
 368 011c 0B70     		strb	r3, [r1]
 369 011e 7BE7     		b	.L36
 370              	.L62:
 371 0120 013B     		subs	r3, r3, #1
 372 0122 0121     		movs	r1, #1
 373 0124 1370     		strb	r3, [r2]
 374 0126 2160     		str	r1, [r4]
 375 0128 FFF7FEFF 		bl	recv2uart
 376 012c 2B78     		ldrb	r3, [r5]	@ zero_extendqisi2
 377 012e 002B     		cmp	r3, #0
 378 0130 8BD1     		bne	.L33
 379 0132 2268     		ldr	r2, [r4]
 380 0134 012A     		cmp	r2, #1
 381 0136 A8D1     		bne	.L44
 382 0138 03B0     		add	sp, sp, #12
 383              		@ sp needed
 384 013a 30BD     		pop	{r4, r5, pc}
 385              	.L61:
 386 013c 0821     		movs	r1, #8
 387 013e 084A     		ldr	r2, .L63+20
 388 0140 2970     		strb	r1, [r5]
 389 0142 0321     		movs	r1, #3
 390 0144 2160     		str	r1, [r4]
 391 0146 1370     		strb	r3, [r2]
 392 0148 7FE7     		b	.L33
 393              	.L64:
 394 014a 00BF     		.align	2
 395              	.L63:
 396 014c 00000000 		.word	.LANCHOR1
 397 0150 00000000 		.word	.LANCHOR0
 398 0154 00000000 		.word	.LANCHOR5
 399 0158 00000000 		.word	.LANCHOR4
 400 015c 00000000 		.word	.LANCHOR3
ARM GAS  /tmp/ccJZYCGE.s 			page 8


 401 0160 00000000 		.word	recvidx
 402 0164 00000000 		.word	recvbuf
 403 0168 00000000 		.word	htim2
 404 016c 00000000 		.word	.LANCHOR2
 405 0170 0C000000 		.word	.LC1
 406 0174 00000000 		.word	huart2
 407 0178 00000000 		.word	.LC0
 409              		.global	hadc3
 410              		.section	.bss.bitcnt.1,"aw",%nobits
 411              		.set	.LANCHOR4,. + 0
 414              	bitcnt.1:
 415 0000 00       		.space	1
 416              		.section	.bss.data.2,"aw",%nobits
 417              		.set	.LANCHOR3,. + 0
 420              	data.2:
 421 0000 00       		.space	1
 422              		.section	.bss.hadc3,"aw",%nobits
 423              		.align	2
 424              		.set	.LANCHOR0,. + 0
 427              	hadc3:
 428 0000 00000000 		.space	100
 428      00000000 
 428      00000000 
 428      00000000 
 428      00000000 
 429              		.section	.bss.start.4,"aw",%nobits
 430              		.align	2
 431              		.set	.LANCHOR2,. + 0
 434              	start.4:
 435 0000 00000000 		.space	4
 436              		.section	.bss.state.5,"aw",%nobits
 437              		.align	2
 438              		.set	.LANCHOR1,. + 0
 441              	state.5:
 442 0000 00000000 		.space	4
 443              		.section	.data.byte_state.0,"aw"
 444              		.align	2
 445              		.set	.LANCHOR5,. + 0
 448              	byte_state.0:
 449 0000 01000000 		.word	1
 450              		.ident	"GCC: (Arch Repository) 11.2.0"
ARM GAS  /tmp/ccJZYCGE.s 			page 9


DEFINED SYMBOLS
                            *ABS*:0000000000000000 adc.c
     /tmp/ccJZYCGE.s:16     .text.MX_ADC3_Init:0000000000000000 $t
     /tmp/ccJZYCGE.s:25     .text.MX_ADC3_Init:0000000000000000 MX_ADC3_Init
     /tmp/ccJZYCGE.s:78     .text.MX_ADC3_Init:0000000000000074 $d
     /tmp/ccJZYCGE.s:83     .text.HAL_ADC_MspInit:0000000000000000 $t
     /tmp/ccJZYCGE.s:91     .text.HAL_ADC_MspInit:0000000000000000 HAL_ADC_MspInit
     /tmp/ccJZYCGE.s:167    .text.HAL_ADC_MspInit:00000000000000a8 $d
     /tmp/ccJZYCGE.s:172    .text.HAL_ADC_MspDeInit:0000000000000000 $t
     /tmp/ccJZYCGE.s:180    .text.HAL_ADC_MspDeInit:0000000000000000 HAL_ADC_MspDeInit
     /tmp/ccJZYCGE.s:203    .text.HAL_ADC_MspDeInit:0000000000000028 $d
     /tmp/ccJZYCGE.s:208    .rodata.HAL_ADC_ConvCpltCallback.str1.4:0000000000000000 $d
     /tmp/ccJZYCGE.s:215    .text.HAL_ADC_ConvCpltCallback:0000000000000000 $t
     /tmp/ccJZYCGE.s:223    .text.HAL_ADC_ConvCpltCallback:0000000000000000 HAL_ADC_ConvCpltCallback
     /tmp/ccJZYCGE.s:396    .text.HAL_ADC_ConvCpltCallback:000000000000014c $d
     /tmp/ccJZYCGE.s:427    .bss.hadc3:0000000000000000 hadc3
     /tmp/ccJZYCGE.s:414    .bss.bitcnt.1:0000000000000000 bitcnt.1
     /tmp/ccJZYCGE.s:415    .bss.bitcnt.1:0000000000000000 $d
     /tmp/ccJZYCGE.s:420    .bss.data.2:0000000000000000 data.2
     /tmp/ccJZYCGE.s:421    .bss.data.2:0000000000000000 $d
     /tmp/ccJZYCGE.s:423    .bss.hadc3:0000000000000000 $d
     /tmp/ccJZYCGE.s:430    .bss.start.4:0000000000000000 $d
     /tmp/ccJZYCGE.s:434    .bss.start.4:0000000000000000 start.4
     /tmp/ccJZYCGE.s:437    .bss.state.5:0000000000000000 $d
     /tmp/ccJZYCGE.s:441    .bss.state.5:0000000000000000 state.5
     /tmp/ccJZYCGE.s:444    .data.byte_state.0:0000000000000000 $d
     /tmp/ccJZYCGE.s:448    .data.byte_state.0:0000000000000000 byte_state.0

UNDEFINED SYMBOLS
HAL_ADC_Init
HAL_ADC_ConfigChannel
Error_Handler
memset
HAL_RCCEx_PeriphCLKConfig
HAL_GPIO_Init
HAL_NVIC_SetPriority
HAL_NVIC_EnableIRQ
HAL_GPIO_DeInit
HAL_NVIC_DisableIRQ
HAL_ADC_GetValue
sprintf
HAL_UART_Transmit_IT
recv2uart
recvidx
recvbuf
htim2
huart2
