ARM GAS  /tmp/ccJAYdMT.s 			page 1


   1              		.cpu cortex-m4
   2              		.eabi_attribute 27, 1
   3              		.eabi_attribute 28, 1
   4              		.eabi_attribute 20, 1
   5              		.eabi_attribute 21, 1
   6              		.eabi_attribute 23, 3
   7              		.eabi_attribute 24, 1
   8              		.eabi_attribute 25, 1
   9              		.eabi_attribute 26, 1
  10              		.eabi_attribute 30, 2
  11              		.eabi_attribute 34, 1
  12              		.eabi_attribute 18, 4
  13              		.file	"main.c"
  14              		.text
  15              		.section	.text.delay_us,"ax",%progbits
  16              		.align	1
  17              		.p2align 2,,3
  18              		.global	delay_us
  19              		.arch armv7e-m
  20              		.syntax unified
  21              		.thumb
  22              		.thumb_func
  23              		.fpu fpv4-sp-d16
  25              	delay_us:
  26              		@ args = 0, pretend = 0, frame = 0
  27              		@ frame_needed = 0, uses_anonymous_args = 0
  28              		@ link register save eliminated.
  29 0000 034B     		ldr	r3, .L5
  30 0002 1A68     		ldr	r2, [r3]
  31 0004 0023     		movs	r3, #0
  32 0006 5362     		str	r3, [r2, #36]
  33              	.L2:
  34 0008 536A     		ldr	r3, [r2, #36]
  35 000a 8342     		cmp	r3, r0
  36 000c FCD3     		bcc	.L2
  37 000e 7047     		bx	lr
  38              	.L6:
  39              		.align	2
  40              	.L5:
  41 0010 00000000 		.word	htim2
  43              		.section	.rodata.recv2uart.str1.4,"aMS",%progbits,1
  44              		.align	2
  45              	.LC0:
  46 0000 20253032 		.ascii	" %02X\000"
  46      5800
  47 0006 0000     		.align	2
  48              	.LC1:
  49 0008 0D0A00   		.ascii	"\015\012\000"
  50              		.section	.text.recv2uart,"ax",%progbits
  51              		.align	1
  52              		.p2align 2,,3
  53              		.global	recv2uart
  54              		.syntax unified
  55              		.thumb
  56              		.thumb_func
  57              		.fpu fpv4-sp-d16
  59              	recv2uart:
ARM GAS  /tmp/ccJAYdMT.s 			page 2


  60              		@ args = 0, pretend = 0, frame = 128
  61              		@ frame_needed = 0, uses_anonymous_args = 0
  62 0000 2DE9F043 		push	{r4, r5, r6, r7, r8, r9, lr}
  63 0004 0024     		movs	r4, #0
  64 0006 A1B0     		sub	sp, sp, #132
  65 0008 164E     		ldr	r6, .L13
  66 000a 0094     		str	r4, [sp]
  67 000c 7C22     		movs	r2, #124
  68 000e 2146     		mov	r1, r4
  69 0010 01A8     		add	r0, sp, #4
  70 0012 FFF7FEFF 		bl	memset
  71 0016 3378     		ldrb	r3, [r6]	@ zero_extendqisi2
  72 0018 E946     		mov	r9, sp
  73 001a 03B3     		cbz	r3, .L10
  74 001c DFF85480 		ldr	r8, .L13+16
  75 0020 114F     		ldr	r7, .L13+4
  76 0022 4D46     		mov	r5, r9
  77 0024 2346     		mov	r3, r4
  78              	.L9:
  79 0026 18F80320 		ldrb	r2, [r8, r3]	@ zero_extendqisi2
  80 002a 2846     		mov	r0, r5
  81 002c 3946     		mov	r1, r7
  82 002e FFF7FEFF 		bl	sprintf
  83 0032 0134     		adds	r4, r4, #1
  84 0034 3278     		ldrb	r2, [r6]	@ zero_extendqisi2
  85 0036 E3B2     		uxtb	r3, r4
  86 0038 9A42     		cmp	r2, r3
  87 003a 05F10305 		add	r5, r5, #3
  88 003e F2D8     		bhi	.L9
  89              	.L8:
  90 0040 0A4B     		ldr	r3, .L13+8
  91 0042 0B48     		ldr	r0, .L13+12
  92 0044 1A88     		ldrh	r2, [r3]	@ unaligned
  93 0046 9B78     		ldrb	r3, [r3, #2]	@ zero_extendqisi2
  94 0048 2A80     		strh	r2, [r5]	@ unaligned
  95 004a AB70     		strb	r3, [r5, #2]
  96 004c 4946     		mov	r1, r9
  97 004e 8022     		movs	r2, #128
  98 0050 FFF7FEFF 		bl	HAL_UART_Transmit_IT
  99 0054 0023     		movs	r3, #0
 100 0056 3370     		strb	r3, [r6]
 101 0058 21B0     		add	sp, sp, #132
 102              		@ sp needed
 103 005a BDE8F083 		pop	{r4, r5, r6, r7, r8, r9, pc}
 104              	.L10:
 105 005e 4D46     		mov	r5, r9
 106 0060 EEE7     		b	.L8
 107              	.L14:
 108 0062 00BF     		.align	2
 109              	.L13:
 110 0064 00000000 		.word	.LANCHOR0
 111 0068 00000000 		.word	.LC0
 112 006c 08000000 		.word	.LC1
 113 0070 00000000 		.word	huart2
 114 0074 00000000 		.word	.LANCHOR1
 116              		.section	.text.SystemClock_Config,"ax",%progbits
 117              		.align	1
ARM GAS  /tmp/ccJAYdMT.s 			page 3


 118              		.p2align 2,,3
 119              		.global	SystemClock_Config
 120              		.syntax unified
 121              		.thumb
 122              		.thumb_func
 123              		.fpu fpv4-sp-d16
 125              	SystemClock_Config:
 126              		@ args = 0, pretend = 0, frame = 96
 127              		@ frame_needed = 0, uses_anonymous_args = 0
 128 0000 10B5     		push	{r4, lr}
 129 0002 98B0     		sub	sp, sp, #96
 130 0004 4422     		movs	r2, #68
 131 0006 0021     		movs	r1, #0
 132 0008 06A8     		add	r0, sp, #24
 133 000a FFF7FEFF 		bl	memset
 134 000e 0023     		movs	r3, #0
 135 0010 4FF40070 		mov	r0, #512
 136 0014 CDE90133 		strd	r3, r3, [sp, #4]
 137 0018 CDE90333 		strd	r3, r3, [sp, #12]
 138 001c 0593     		str	r3, [sp, #20]
 139 001e FFF7FEFF 		bl	HAL_PWREx_ControlVoltageScaling
 140 0022 08B1     		cbz	r0, .L16
 141              		.syntax unified
 142              	@ 209 "Drivers/CMSIS/Include/cmsis_gcc.h" 1
 143 0024 72B6     		cpsid i
 144              	@ 0 "" 2
 145              		.thumb
 146              		.syntax unified
 147              	.L17:
 148 0026 FEE7     		b	.L17
 149              	.L16:
 150 0028 9FED157B 		vldr.64	d7, .L23	@ int
 151 002c 4FF48071 		mov	r1, #256
 152 0030 1022     		movs	r2, #16
 153 0032 0223     		movs	r3, #2
 154 0034 CDE90912 		strd	r1, r2, [sp, #36]
 155 0038 06A8     		add	r0, sp, #24
 156 003a 0121     		movs	r1, #1
 157 003c 0A22     		movs	r2, #10
 158 003e CDE91033 		strd	r3, r3, [sp, #64]
 159 0042 0693     		str	r3, [sp, #24]
 160 0044 1693     		str	r3, [sp, #88]
 161 0046 8DED147B 		vstr.64	d7, [sp, #80]	@ int
 162 004a 1291     		str	r1, [sp, #72]
 163 004c 1392     		str	r2, [sp, #76]
 164 004e FFF7FEFF 		bl	HAL_RCC_OscConfig
 165 0052 0346     		mov	r3, r0
 166 0054 08B1     		cbz	r0, .L18
 167              		.syntax unified
 168              	@ 209 "Drivers/CMSIS/Include/cmsis_gcc.h" 1
 169 0056 72B6     		cpsid i
 170              	@ 0 "" 2
 171              		.thumb
 172              		.syntax unified
 173              	.L19:
 174 0058 FEE7     		b	.L19
 175              	.L18:
ARM GAS  /tmp/ccJAYdMT.s 			page 4


 176 005a 0421     		movs	r1, #4
 177 005c 0F24     		movs	r4, #15
 178 005e 0322     		movs	r2, #3
 179 0060 0DEB0100 		add	r0, sp, r1
 180 0064 CDE90142 		strd	r4, r2, [sp, #4]
 181 0068 CDE90333 		strd	r3, r3, [sp, #12]
 182 006c 0593     		str	r3, [sp, #20]
 183 006e FFF7FEFF 		bl	HAL_RCC_ClockConfig
 184 0072 08B1     		cbz	r0, .L15
 185              		.syntax unified
 186              	@ 209 "Drivers/CMSIS/Include/cmsis_gcc.h" 1
 187 0074 72B6     		cpsid i
 188              	@ 0 "" 2
 189              		.thumb
 190              		.syntax unified
 191              	.L21:
 192 0076 FEE7     		b	.L21
 193              	.L15:
 194 0078 18B0     		add	sp, sp, #96
 195              		@ sp needed
 196 007a 10BD     		pop	{r4, pc}
 197              	.L24:
 198 007c AFF30080 		.align	3
 199              	.L23:
 200 0080 07000000 		.word	7
 201 0084 02000000 		.word	2
 203              		.section	.text.startup.main,"ax",%progbits
 204              		.align	1
 205              		.p2align 2,,3
 206              		.global	main
 207              		.syntax unified
 208              		.thumb
 209              		.thumb_func
 210              		.fpu fpv4-sp-d16
 212              	main:
 213              		@ Volatile: function does not return.
 214              		@ args = 0, pretend = 0, frame = 16
 215              		@ frame_needed = 0, uses_anonymous_args = 0
 216 0000 2DE98048 		push	{r7, fp, lr}
 217 0004 85B0     		sub	sp, sp, #20
 218 0006 FFF7FEFF 		bl	HAL_Init
 219 000a FFF7FEFF 		bl	SystemClock_Config
 220 000e FFF7FEFF 		bl	MX_GPIO_Init
 221 0012 FFF7FEFF 		bl	MX_USART2_UART_Init
 222 0016 FFF7FEFF 		bl	MX_ADC3_Init
 223 001a FFF7FEFF 		bl	MX_TIM2_Init
 224 001e 4FF09042 		mov	r2, #1207959552
 225 0022 4FF4FA60 		mov	r0, #2000
 226 0026 5369     		ldr	r3, [r2, #20]
 227 0028 43F48063 		orr	r3, r3, #1024
 228 002c 5361     		str	r3, [r2, #20]
 229 002e FFF7FEFF 		bl	HAL_Delay
 230 0032 3148     		ldr	r0, .L28
 231 0034 314B     		ldr	r3, .L28+4
 232 0036 0178     		ldrb	r1, [r0]	@ zero_extendqisi2
 233 0038 3F22     		movs	r2, #63
 234 003a 5A54     		strb	r2, [r3, r1]
ARM GAS  /tmp/ccJAYdMT.s 			page 5


 235 003c 01F10109 		add	r9, r1, #1
 236 0040 01F10902 		add	r2, r1, #9
 237 0044 01F10A0A 		add	r10, r1, #10
 238 0048 5FFA89F9 		uxtb	r9, r9
 239 004c 01F10208 		add	r8, r1, #2
 240 0050 D2B2     		uxtb	r2, r2
 241 0052 0092     		str	r2, [sp]
 242 0054 5FFA88F8 		uxtb	r8, r8
 243 0058 5FFA8AF2 		uxtb	r2, r10
 244 005c CF1C     		adds	r7, r1, #3
 245 005e 01F10B0A 		add	r10, r1, #11
 246 0062 4FF07D0B 		mov	fp, #125
 247 0066 03F809B0 		strb	fp, [r3, r9]
 248 006a 0192     		str	r2, [sp, #4]
 249 006c FFB2     		uxtb	r7, r7
 250 006e 5FFA8AF2 		uxtb	r2, r10
 251 0072 0E1D     		adds	r6, r1, #4
 252 0074 4D1D     		adds	r5, r1, #5
 253 0076 8C1D     		adds	r4, r1, #6
 254 0078 01F10C0A 		add	r10, r1, #12
 255 007c 4FF01109 		mov	r9, #17
 256 0080 03F80890 		strb	r9, [r3, r8]
 257 0084 E4B2     		uxtb	r4, r4
 258 0086 01F1070E 		add	lr, r1, #7
 259 008a 5FFA8AFA 		uxtb	r10, r10
 260 008e F6B2     		uxtb	r6, r6
 261 0090 EDB2     		uxtb	r5, r5
 262 0092 4FF04508 		mov	r8, #69
 263 0096 03F80780 		strb	r8, [r3, r7]
 264 009a 5FFA8EFE 		uxtb	lr, lr
 265 009e CDF80CA0 		str	r10, [sp, #12]
 266 00a2 01F1080C 		add	ip, r1, #8
 267 00a6 4FF0190A 		mov	r10, #25
 268 00aa 1427     		movs	r7, #20
 269 00ac 9F55     		strb	r7, [r3, r6]
 270 00ae 5FFA8CFC 		uxtb	ip, ip
 271 00b2 03F805A0 		strb	r10, [r3, r5]
 272 00b6 0292     		str	r2, [sp, #8]
 273 00b8 03F804A0 		strb	r10, [r3, r4]
 274 00bc 009A     		ldr	r2, [sp]
 275 00be 0D31     		adds	r1, r1, #13
 276 00c0 8124     		movs	r4, #129
 277 00c2 03F80E40 		strb	r4, [r3, lr]
 278 00c6 0170     		strb	r1, [r0]
 279 00c8 F724     		movs	r4, #247
 280 00ca 0021     		movs	r1, #0
 281 00cc 03F80C10 		strb	r1, [r3, ip]
 282 00d0 9C54     		strb	r4, [r3, r2]
 283 00d2 019C     		ldr	r4, [sp, #4]
 284 00d4 0A48     		ldr	r0, .L28+8
 285 00d6 E922     		movs	r2, #233
 286 00d8 1A55     		strb	r2, [r3, r4]
 287 00da 029A     		ldr	r2, [sp, #8]
 288 00dc 094C     		ldr	r4, .L28+12
 289 00de 9954     		strb	r1, [r3, r2]
 290 00e0 039A     		ldr	r2, [sp, #12]
 291 00e2 9954     		strb	r1, [r3, r2]
ARM GAS  /tmp/ccJAYdMT.s 			page 6


 292 00e4 FFF7FEFF 		bl	HAL_TIM_PWM_Start
 293 00e8 0548     		ldr	r0, .L28+8
 294 00ea FFF7FEFF 		bl	HAL_TIM_Base_Start_IT
 295              	.L26:
 296 00ee 2046     		mov	r0, r4
 297 00f0 FFF7FEFF 		bl	HAL_ADC_Start_IT
 298 00f4 FBE7     		b	.L26
 299              	.L29:
 300 00f6 00BF     		.align	2
 301              	.L28:
 302 00f8 00000000 		.word	.LANCHOR2
 303 00fc 00000000 		.word	.LANCHOR3
 304 0100 00000000 		.word	htim2
 305 0104 00000000 		.word	hadc3
 307              		.section	.text.Error_Handler,"ax",%progbits
 308              		.align	1
 309              		.p2align 2,,3
 310              		.global	Error_Handler
 311              		.syntax unified
 312              		.thumb
 313              		.thumb_func
 314              		.fpu fpv4-sp-d16
 316              	Error_Handler:
 317              		@ Volatile: function does not return.
 318              		@ args = 0, pretend = 0, frame = 0
 319              		@ frame_needed = 0, uses_anonymous_args = 0
 320              		@ link register save eliminated.
 321              		.syntax unified
 322              	@ 209 "Drivers/CMSIS/Include/cmsis_gcc.h" 1
 323 0000 72B6     		cpsid i
 324              	@ 0 "" 2
 325              		.thumb
 326              		.syntax unified
 327              	.L31:
 328 0002 FEE7     		b	.L31
 330              		.global	recvidx
 331              		.global	recvtmp
 332              		.global	recvbuf
 333              		.global	qback
 334              		.global	qfront
 335              		.global	queue
 336              		.section	.bss.qback,"aw",%nobits
 337              		.set	.LANCHOR2,. + 0
 340              	qback:
 341 0000 00       		.space	1
 342              		.section	.bss.qfront,"aw",%nobits
 345              	qfront:
 346 0000 00       		.space	1
 347              		.section	.bss.queue,"aw",%nobits
 348              		.align	2
 349              		.set	.LANCHOR3,. + 0
 352              	queue:
 353 0000 00000000 		.space	64
 353      00000000 
 353      00000000 
 353      00000000 
 353      00000000 
ARM GAS  /tmp/ccJAYdMT.s 			page 7


 354              		.section	.bss.recvbuf,"aw",%nobits
 355              		.align	2
 356              		.set	.LANCHOR1,. + 0
 359              	recvbuf:
 360 0000 00000000 		.space	64
 360      00000000 
 360      00000000 
 360      00000000 
 360      00000000 
 361              		.section	.bss.recvidx,"aw",%nobits
 362              		.set	.LANCHOR0,. + 0
 365              	recvidx:
 366 0000 00       		.space	1
 367              		.section	.bss.recvtmp,"aw",%nobits
 368              		.align	2
 371              	recvtmp:
 372 0000 00000000 		.space	68
 372      00000000 
 372      00000000 
 372      00000000 
 372      00000000 
 373              		.ident	"GCC: (Arch Repository) 11.2.0"
ARM GAS  /tmp/ccJAYdMT.s 			page 8


DEFINED SYMBOLS
                            *ABS*:0000000000000000 main.c
     /tmp/ccJAYdMT.s:16     .text.delay_us:0000000000000000 $t
     /tmp/ccJAYdMT.s:25     .text.delay_us:0000000000000000 delay_us
     /tmp/ccJAYdMT.s:41     .text.delay_us:0000000000000010 $d
     /tmp/ccJAYdMT.s:44     .rodata.recv2uart.str1.4:0000000000000000 $d
     /tmp/ccJAYdMT.s:51     .text.recv2uart:0000000000000000 $t
     /tmp/ccJAYdMT.s:59     .text.recv2uart:0000000000000000 recv2uart
     /tmp/ccJAYdMT.s:110    .text.recv2uart:0000000000000064 $d
     /tmp/ccJAYdMT.s:117    .text.SystemClock_Config:0000000000000000 $t
     /tmp/ccJAYdMT.s:125    .text.SystemClock_Config:0000000000000000 SystemClock_Config
     /tmp/ccJAYdMT.s:200    .text.SystemClock_Config:0000000000000080 $d
     /tmp/ccJAYdMT.s:204    .text.startup.main:0000000000000000 $t
     /tmp/ccJAYdMT.s:212    .text.startup.main:0000000000000000 main
     /tmp/ccJAYdMT.s:302    .text.startup.main:00000000000000f8 $d
     /tmp/ccJAYdMT.s:308    .text.Error_Handler:0000000000000000 $t
     /tmp/ccJAYdMT.s:316    .text.Error_Handler:0000000000000000 Error_Handler
     /tmp/ccJAYdMT.s:365    .bss.recvidx:0000000000000000 recvidx
     /tmp/ccJAYdMT.s:371    .bss.recvtmp:0000000000000000 recvtmp
     /tmp/ccJAYdMT.s:359    .bss.recvbuf:0000000000000000 recvbuf
     /tmp/ccJAYdMT.s:340    .bss.qback:0000000000000000 qback
     /tmp/ccJAYdMT.s:345    .bss.qfront:0000000000000000 qfront
     /tmp/ccJAYdMT.s:352    .bss.queue:0000000000000000 queue
     /tmp/ccJAYdMT.s:341    .bss.qback:0000000000000000 $d
     /tmp/ccJAYdMT.s:346    .bss.qfront:0000000000000000 $d
     /tmp/ccJAYdMT.s:348    .bss.queue:0000000000000000 $d
     /tmp/ccJAYdMT.s:355    .bss.recvbuf:0000000000000000 $d
     /tmp/ccJAYdMT.s:366    .bss.recvidx:0000000000000000 $d
     /tmp/ccJAYdMT.s:368    .bss.recvtmp:0000000000000000 $d

UNDEFINED SYMBOLS
htim2
memset
sprintf
HAL_UART_Transmit_IT
huart2
HAL_PWREx_ControlVoltageScaling
HAL_RCC_OscConfig
HAL_RCC_ClockConfig
HAL_Init
MX_GPIO_Init
MX_USART2_UART_Init
MX_ADC3_Init
MX_TIM2_Init
HAL_Delay
HAL_TIM_PWM_Start
HAL_TIM_Base_Start_IT
HAL_ADC_Start_IT
hadc3
