ARM GAS  /tmp/cc8v9Aqs.s 			page 1


   1              		.cpu cortex-m4
   2              		.eabi_attribute 27, 1
   3              		.eabi_attribute 28, 1
   4              		.eabi_attribute 20, 1
   5              		.eabi_attribute 21, 1
   6              		.eabi_attribute 23, 3
   7              		.eabi_attribute 24, 1
   8              		.eabi_attribute 25, 1
   9              		.eabi_attribute 26, 1
  10              		.eabi_attribute 30, 2
  11              		.eabi_attribute 34, 1
  12              		.eabi_attribute 18, 4
  13              		.file	"main.c"
  14              		.text
  15              		.section	.text.delay_us,"ax",%progbits
  16              		.align	1
  17              		.p2align 2,,3
  18              		.global	delay_us
  19              		.arch armv7e-m
  20              		.syntax unified
  21              		.thumb
  22              		.thumb_func
  23              		.fpu fpv4-sp-d16
  25              	delay_us:
  26              		@ args = 0, pretend = 0, frame = 0
  27              		@ frame_needed = 0, uses_anonymous_args = 0
  28              		@ link register save eliminated.
  29 0000 034B     		ldr	r3, .L5
  30 0002 1A68     		ldr	r2, [r3]
  31 0004 0023     		movs	r3, #0
  32 0006 5362     		str	r3, [r2, #36]
  33              	.L2:
  34 0008 536A     		ldr	r3, [r2, #36]
  35 000a 8342     		cmp	r3, r0
  36 000c FCD3     		bcc	.L2
  37 000e 7047     		bx	lr
  38              	.L6:
  39              		.align	2
  40              	.L5:
  41 0010 00000000 		.word	htim2
  43              		.section	.rodata.recv2uart.str1.4,"aMS",%progbits,1
  44              		.align	2
  45              	.LC0:
  46 0000 20253032 		.ascii	" %02x\000"
  46      7800
  47 0006 0000     		.align	2
  48              	.LC1:
  49 0008 0D0A00   		.ascii	"\015\012\000"
  50              		.section	.text.recv2uart,"ax",%progbits
  51              		.align	1
  52              		.p2align 2,,3
  53              		.global	recv2uart
  54              		.syntax unified
  55              		.thumb
  56              		.thumb_func
  57              		.fpu fpv4-sp-d16
  59              	recv2uart:
ARM GAS  /tmp/cc8v9Aqs.s 			page 2


  60              		@ args = 0, pretend = 0, frame = 128
  61              		@ frame_needed = 0, uses_anonymous_args = 0
  62 0000 2DE9F043 		push	{r4, r5, r6, r7, r8, r9, lr}
  63 0004 0024     		movs	r4, #0
  64 0006 A1B0     		sub	sp, sp, #132
  65 0008 164E     		ldr	r6, .L13
  66 000a 0094     		str	r4, [sp]
  67 000c 7C22     		movs	r2, #124
  68 000e 2146     		mov	r1, r4
  69 0010 01A8     		add	r0, sp, #4
  70 0012 FFF7FEFF 		bl	memset
  71 0016 3378     		ldrb	r3, [r6]	@ zero_extendqisi2
  72 0018 E946     		mov	r9, sp
  73 001a 03B3     		cbz	r3, .L10
  74 001c DFF85480 		ldr	r8, .L13+16
  75 0020 114F     		ldr	r7, .L13+4
  76 0022 4D46     		mov	r5, r9
  77 0024 2346     		mov	r3, r4
  78              	.L9:
  79 0026 18F80320 		ldrb	r2, [r8, r3]	@ zero_extendqisi2
  80 002a 2846     		mov	r0, r5
  81 002c 3946     		mov	r1, r7
  82 002e FFF7FEFF 		bl	sprintf
  83 0032 0134     		adds	r4, r4, #1
  84 0034 3278     		ldrb	r2, [r6]	@ zero_extendqisi2
  85 0036 E3B2     		uxtb	r3, r4
  86 0038 9A42     		cmp	r2, r3
  87 003a 05F10305 		add	r5, r5, #3
  88 003e F2D8     		bhi	.L9
  89              	.L8:
  90 0040 0A4B     		ldr	r3, .L13+8
  91 0042 0B48     		ldr	r0, .L13+12
  92 0044 1A88     		ldrh	r2, [r3]	@ unaligned
  93 0046 9B78     		ldrb	r3, [r3, #2]	@ zero_extendqisi2
  94 0048 2A80     		strh	r2, [r5]	@ unaligned
  95 004a AB70     		strb	r3, [r5, #2]
  96 004c 4946     		mov	r1, r9
  97 004e 8022     		movs	r2, #128
  98 0050 FFF7FEFF 		bl	HAL_UART_Transmit_IT
  99 0054 0023     		movs	r3, #0
 100 0056 3370     		strb	r3, [r6]
 101 0058 21B0     		add	sp, sp, #132
 102              		@ sp needed
 103 005a BDE8F083 		pop	{r4, r5, r6, r7, r8, r9, pc}
 104              	.L10:
 105 005e 4D46     		mov	r5, r9
 106 0060 EEE7     		b	.L8
 107              	.L14:
 108 0062 00BF     		.align	2
 109              	.L13:
 110 0064 00000000 		.word	.LANCHOR0
 111 0068 00000000 		.word	.LC0
 112 006c 08000000 		.word	.LC1
 113 0070 00000000 		.word	huart2
 114 0074 00000000 		.word	.LANCHOR1
 116              		.section	.text.SystemClock_Config,"ax",%progbits
 117              		.align	1
ARM GAS  /tmp/cc8v9Aqs.s 			page 3


 118              		.p2align 2,,3
 119              		.global	SystemClock_Config
 120              		.syntax unified
 121              		.thumb
 122              		.thumb_func
 123              		.fpu fpv4-sp-d16
 125              	SystemClock_Config:
 126              		@ args = 0, pretend = 0, frame = 96
 127              		@ frame_needed = 0, uses_anonymous_args = 0
 128 0000 10B5     		push	{r4, lr}
 129 0002 98B0     		sub	sp, sp, #96
 130 0004 4422     		movs	r2, #68
 131 0006 0021     		movs	r1, #0
 132 0008 06A8     		add	r0, sp, #24
 133 000a FFF7FEFF 		bl	memset
 134 000e 0023     		movs	r3, #0
 135 0010 4FF40070 		mov	r0, #512
 136 0014 CDE90133 		strd	r3, r3, [sp, #4]
 137 0018 CDE90333 		strd	r3, r3, [sp, #12]
 138 001c 0593     		str	r3, [sp, #20]
 139 001e FFF7FEFF 		bl	HAL_PWREx_ControlVoltageScaling
 140 0022 08B1     		cbz	r0, .L16
 141              		.syntax unified
 142              	@ 209 "Drivers/CMSIS/Include/cmsis_gcc.h" 1
 143 0024 72B6     		cpsid i
 144              	@ 0 "" 2
 145              		.thumb
 146              		.syntax unified
 147              	.L17:
 148 0026 FEE7     		b	.L17
 149              	.L16:
 150 0028 9FED157B 		vldr.64	d7, .L23	@ int
 151 002c 4FF48071 		mov	r1, #256
 152 0030 1022     		movs	r2, #16
 153 0032 0223     		movs	r3, #2
 154 0034 CDE90912 		strd	r1, r2, [sp, #36]
 155 0038 06A8     		add	r0, sp, #24
 156 003a 0121     		movs	r1, #1
 157 003c 0A22     		movs	r2, #10
 158 003e CDE91033 		strd	r3, r3, [sp, #64]
 159 0042 0693     		str	r3, [sp, #24]
 160 0044 1693     		str	r3, [sp, #88]
 161 0046 8DED147B 		vstr.64	d7, [sp, #80]	@ int
 162 004a 1291     		str	r1, [sp, #72]
 163 004c 1392     		str	r2, [sp, #76]
 164 004e FFF7FEFF 		bl	HAL_RCC_OscConfig
 165 0052 0346     		mov	r3, r0
 166 0054 08B1     		cbz	r0, .L18
 167              		.syntax unified
 168              	@ 209 "Drivers/CMSIS/Include/cmsis_gcc.h" 1
 169 0056 72B6     		cpsid i
 170              	@ 0 "" 2
 171              		.thumb
 172              		.syntax unified
 173              	.L19:
 174 0058 FEE7     		b	.L19
 175              	.L18:
ARM GAS  /tmp/cc8v9Aqs.s 			page 4


 176 005a 0421     		movs	r1, #4
 177 005c 0F24     		movs	r4, #15
 178 005e 0322     		movs	r2, #3
 179 0060 0DEB0100 		add	r0, sp, r1
 180 0064 CDE90142 		strd	r4, r2, [sp, #4]
 181 0068 CDE90333 		strd	r3, r3, [sp, #12]
 182 006c 0593     		str	r3, [sp, #20]
 183 006e FFF7FEFF 		bl	HAL_RCC_ClockConfig
 184 0072 08B1     		cbz	r0, .L15
 185              		.syntax unified
 186              	@ 209 "Drivers/CMSIS/Include/cmsis_gcc.h" 1
 187 0074 72B6     		cpsid i
 188              	@ 0 "" 2
 189              		.thumb
 190              		.syntax unified
 191              	.L21:
 192 0076 FEE7     		b	.L21
 193              	.L15:
 194 0078 18B0     		add	sp, sp, #96
 195              		@ sp needed
 196 007a 10BD     		pop	{r4, pc}
 197              	.L24:
 198 007c AFF30080 		.align	3
 199              	.L23:
 200 0080 07000000 		.word	7
 201 0084 02000000 		.word	2
 203              		.section	.text.startup.main,"ax",%progbits
 204              		.align	1
 205              		.p2align 2,,3
 206              		.global	main
 207              		.syntax unified
 208              		.thumb
 209              		.thumb_func
 210              		.fpu fpv4-sp-d16
 212              	main:
 213              		@ args = 0, pretend = 0, frame = 472
 214              		@ frame_needed = 0, uses_anonymous_args = 0
 215 0000 2DE9F04F 		push	{r4, r5, r6, r7, r8, r9, r10, fp, lr}
 216 0004 F7B0     		sub	sp, sp, #476
 217 0006 FFF7FEFF 		bl	HAL_Init
 218 000a FFF7FEFF 		bl	SystemClock_Config
 219 000e FFF7FEFF 		bl	MX_GPIO_Init
 220 0012 FFF7FEFF 		bl	MX_USART2_UART_Init
 221 0016 FFF7FEFF 		bl	MX_ADC3_Init
 222 001a FFF7FEFF 		bl	MX_TIM2_Init
 223 001e 4FF09042 		mov	r2, #1207959552
 224 0022 4FF4FA60 		mov	r0, #2000
 225 0026 5369     		ldr	r3, [r2, #20]
 226 0028 43F48063 		orr	r3, r3, #1024
 227 002c 5361     		str	r3, [r2, #20]
 228 002e FFF7FEFF 		bl	HAL_Delay
 229 0032 F14A     		ldr	r2, .L28
 230 0034 F14B     		ldr	r3, .L28+4
 231 0036 1278     		ldrb	r2, [r2]	@ zero_extendqisi2
 232 0038 911C     		adds	r1, r2, #2
 233 003a 5FFA81F9 		uxtb	r9, r1
 234 003e D11C     		adds	r1, r2, #3
ARM GAS  /tmp/cc8v9Aqs.s 			page 5


 235 0040 C9B2     		uxtb	r1, r1
 236 0042 8A46     		mov	r10, r1
 237 0044 111D     		adds	r1, r2, #4
 238 0046 C8B2     		uxtb	r0, r1
 239 0048 511D     		adds	r1, r2, #5
 240 004a CCB2     		uxtb	r4, r1
 241 004c 911D     		adds	r1, r2, #6
 242 004e CDB2     		uxtb	r5, r1
 243 0050 D11D     		adds	r1, r2, #7
 244 0052 CEB2     		uxtb	r6, r1
 245 0054 02F10801 		add	r1, r2, #8
 246 0058 CFB2     		uxtb	r7, r1
 247 005a 02F10901 		add	r1, r2, #9
 248 005e C9B2     		uxtb	r1, r1
 249 0060 0591     		str	r1, [sp, #20]
 250 0062 02F10A01 		add	r1, r2, #10
 251 0066 0090     		str	r0, [sp]
 252 0068 C8B2     		uxtb	r0, r1
 253 006a 02F10B01 		add	r1, r2, #11
 254 006e 0194     		str	r4, [sp, #4]
 255 0070 CCB2     		uxtb	r4, r1
 256 0072 02F10C01 		add	r1, r2, #12
 257 0076 0295     		str	r5, [sp, #8]
 258 0078 CDB2     		uxtb	r5, r1
 259 007a 02F10D01 		add	r1, r2, #13
 260 007e 0396     		str	r6, [sp, #12]
 261 0080 CEB2     		uxtb	r6, r1
 262 0082 02F10E01 		add	r1, r2, #14
 263 0086 0497     		str	r7, [sp, #16]
 264 0088 CFB2     		uxtb	r7, r1
 265 008a 02F10F01 		add	r1, r2, #15
 266 008e 5FFA81FC 		uxtb	ip, r1
 267 0092 02F11001 		add	r1, r2, #16
 268 0096 CDF82CC0 		str	ip, [sp, #44]
 269 009a 5FFA81FC 		uxtb	ip, r1
 270 009e 02F11101 		add	r1, r2, #17
 271 00a2 CDF830C0 		str	ip, [sp, #48]
 272 00a6 5FFA81FC 		uxtb	ip, r1
 273 00aa 02F11201 		add	r1, r2, #18
 274 00ae CDF834C0 		str	ip, [sp, #52]
 275 00b2 5FFA81FC 		uxtb	ip, r1
 276 00b6 02F11301 		add	r1, r2, #19
 277 00ba CDF838C0 		str	ip, [sp, #56]
 278 00be 5FFA81FC 		uxtb	ip, r1
 279 00c2 02F11401 		add	r1, r2, #20
 280 00c6 CDF83CC0 		str	ip, [sp, #60]
 281 00ca 5FFA81FC 		uxtb	ip, r1
 282 00ce 02F11501 		add	r1, r2, #21
 283 00d2 CDF840C0 		str	ip, [sp, #64]
 284 00d6 5FFA81FC 		uxtb	ip, r1
 285 00da 02F11601 		add	r1, r2, #22
 286 00de CDF844C0 		str	ip, [sp, #68]
 287 00e2 5FFA81FC 		uxtb	ip, r1
 288 00e6 02F11701 		add	r1, r2, #23
 289 00ea CDF848C0 		str	ip, [sp, #72]
 290 00ee 5FFA81FC 		uxtb	ip, r1
 291 00f2 02F11801 		add	r1, r2, #24
ARM GAS  /tmp/cc8v9Aqs.s 			page 6


 292 00f6 CDF84CC0 		str	ip, [sp, #76]
 293 00fa 5FFA81FC 		uxtb	ip, r1
 294 00fe 02F11901 		add	r1, r2, #25
 295 0102 CDF850C0 		str	ip, [sp, #80]
 296 0106 5FFA81FC 		uxtb	ip, r1
 297 010a 02F11A01 		add	r1, r2, #26
 298 010e CDF854C0 		str	ip, [sp, #84]
 299 0112 5FFA81FC 		uxtb	ip, r1
 300 0116 02F11B01 		add	r1, r2, #27
 301 011a CDF858C0 		str	ip, [sp, #88]
 302 011e 5FFA81FC 		uxtb	ip, r1
 303 0122 02F11C01 		add	r1, r2, #28
 304 0126 CDF85CC0 		str	ip, [sp, #92]
 305 012a 5FFA81FC 		uxtb	ip, r1
 306 012e 02F11D01 		add	r1, r2, #29
 307 0132 CDF860C0 		str	ip, [sp, #96]
 308 0136 5FFA81FC 		uxtb	ip, r1
 309 013a 02F11E01 		add	r1, r2, #30
 310 013e CDF864C0 		str	ip, [sp, #100]
 311 0142 5FFA81FC 		uxtb	ip, r1
 312 0146 02F11F01 		add	r1, r2, #31
 313 014a CDF868C0 		str	ip, [sp, #104]
 314 014e 5FFA81FC 		uxtb	ip, r1
 315 0152 02F12001 		add	r1, r2, #32
 316 0156 CDF86CC0 		str	ip, [sp, #108]
 317 015a 5FFA81FC 		uxtb	ip, r1
 318 015e 02F12101 		add	r1, r2, #33
 319 0162 CDF870C0 		str	ip, [sp, #112]
 320 0166 5FFA81FC 		uxtb	ip, r1
 321 016a 02F12201 		add	r1, r2, #34
 322 016e 4FF03F0B 		mov	fp, #63
 323 0172 CDF874C0 		str	ip, [sp, #116]
 324 0176 5FFA81FC 		uxtb	ip, r1
 325 017a 02F12301 		add	r1, r2, #35
 326 017e 03F802B0 		strb	fp, [r3, r2]
 327 0182 0690     		str	r0, [sp, #24]
 328 0184 0794     		str	r4, [sp, #28]
 329 0186 0895     		str	r5, [sp, #32]
 330 0188 0996     		str	r6, [sp, #36]
 331 018a 0A97     		str	r7, [sp, #40]
 332 018c CDF878C0 		str	ip, [sp, #120]
 333 0190 5FFA81FC 		uxtb	ip, r1
 334 0194 02F12401 		add	r1, r2, #36
 335 0198 CDF87CC0 		str	ip, [sp, #124]
 336 019c 5FFA81FC 		uxtb	ip, r1
 337 01a0 02F12501 		add	r1, r2, #37
 338 01a4 CDF880C0 		str	ip, [sp, #128]
 339 01a8 5FFA81FC 		uxtb	ip, r1
 340 01ac 02F12601 		add	r1, r2, #38
 341 01b0 CDF884C0 		str	ip, [sp, #132]
 342 01b4 5FFA81FC 		uxtb	ip, r1
 343 01b8 02F12701 		add	r1, r2, #39
 344 01bc CDF888C0 		str	ip, [sp, #136]
 345 01c0 5FFA81FC 		uxtb	ip, r1
 346 01c4 02F12801 		add	r1, r2, #40
 347 01c8 CDF88CC0 		str	ip, [sp, #140]
 348 01cc 5FFA81FC 		uxtb	ip, r1
ARM GAS  /tmp/cc8v9Aqs.s 			page 7


 349 01d0 02F12901 		add	r1, r2, #41
 350 01d4 CDF890C0 		str	ip, [sp, #144]
 351 01d8 5FFA81FC 		uxtb	ip, r1
 352 01dc 02F12A01 		add	r1, r2, #42
 353 01e0 CDF894C0 		str	ip, [sp, #148]
 354 01e4 5FFA81FC 		uxtb	ip, r1
 355 01e8 02F12B01 		add	r1, r2, #43
 356 01ec CDF898C0 		str	ip, [sp, #152]
 357 01f0 5FFA81FC 		uxtb	ip, r1
 358 01f4 02F12C01 		add	r1, r2, #44
 359 01f8 CDF89CC0 		str	ip, [sp, #156]
 360 01fc 5FFA81FC 		uxtb	ip, r1
 361 0200 02F12D01 		add	r1, r2, #45
 362 0204 CDF8A0C0 		str	ip, [sp, #160]
 363 0208 5FFA81FC 		uxtb	ip, r1
 364 020c 02F12E01 		add	r1, r2, #46
 365 0210 CDF8A4C0 		str	ip, [sp, #164]
 366 0214 5FFA81FC 		uxtb	ip, r1
 367 0218 02F12F01 		add	r1, r2, #47
 368 021c CDF8A8C0 		str	ip, [sp, #168]
 369 0220 5FFA81FC 		uxtb	ip, r1
 370 0224 02F13001 		add	r1, r2, #48
 371 0228 CDF8ACC0 		str	ip, [sp, #172]
 372 022c 5FFA81FC 		uxtb	ip, r1
 373 0230 02F13101 		add	r1, r2, #49
 374 0234 CDF8B0C0 		str	ip, [sp, #176]
 375 0238 5FFA81FC 		uxtb	ip, r1
 376 023c 02F13201 		add	r1, r2, #50
 377 0240 CDF8B4C0 		str	ip, [sp, #180]
 378 0244 5FFA81FC 		uxtb	ip, r1
 379 0248 02F13301 		add	r1, r2, #51
 380 024c CDF8B8C0 		str	ip, [sp, #184]
 381 0250 5FFA81FC 		uxtb	ip, r1
 382 0254 02F13401 		add	r1, r2, #52
 383 0258 CDF8BCC0 		str	ip, [sp, #188]
 384 025c 5FFA81FC 		uxtb	ip, r1
 385 0260 02F13501 		add	r1, r2, #53
 386 0264 CDF8C0C0 		str	ip, [sp, #192]
 387 0268 5FFA81FC 		uxtb	ip, r1
 388 026c 02F13601 		add	r1, r2, #54
 389 0270 CDF8C4C0 		str	ip, [sp, #196]
 390 0274 5FFA81FC 		uxtb	ip, r1
 391 0278 02F13701 		add	r1, r2, #55
 392 027c CDF8C8C0 		str	ip, [sp, #200]
 393 0280 5FFA81FC 		uxtb	ip, r1
 394 0284 02F13801 		add	r1, r2, #56
 395 0288 CDF8CCC0 		str	ip, [sp, #204]
 396 028c 5FFA81FC 		uxtb	ip, r1
 397 0290 02F13901 		add	r1, r2, #57
 398 0294 CDF8D0C0 		str	ip, [sp, #208]
 399 0298 5FFA81FC 		uxtb	ip, r1
 400 029c 02F13A01 		add	r1, r2, #58
 401 02a0 CDF8D4C0 		str	ip, [sp, #212]
 402 02a4 5FFA81FC 		uxtb	ip, r1
 403 02a8 02F13B01 		add	r1, r2, #59
 404 02ac CDF8D8C0 		str	ip, [sp, #216]
 405 02b0 5FFA81FC 		uxtb	ip, r1
ARM GAS  /tmp/cc8v9Aqs.s 			page 8


 406 02b4 02F13C01 		add	r1, r2, #60
 407 02b8 CDF8DCC0 		str	ip, [sp, #220]
 408 02bc 5FFA81FC 		uxtb	ip, r1
 409 02c0 02F13D01 		add	r1, r2, #61
 410 02c4 CDF8E0C0 		str	ip, [sp, #224]
 411 02c8 5FFA81FC 		uxtb	ip, r1
 412 02cc 02F13E01 		add	r1, r2, #62
 413 02d0 CDF8E4C0 		str	ip, [sp, #228]
 414 02d4 5FFA81FC 		uxtb	ip, r1
 415 02d8 02EB0B01 		add	r1, r2, fp
 416 02dc CDF8E8C0 		str	ip, [sp, #232]
 417 02e0 5FFA81FC 		uxtb	ip, r1
 418 02e4 02F14001 		add	r1, r2, #64
 419 02e8 CDF8ECC0 		str	ip, [sp, #236]
 420 02ec 5FFA81FC 		uxtb	ip, r1
 421 02f0 02F14101 		add	r1, r2, #65
 422 02f4 CDF8F0C0 		str	ip, [sp, #240]
 423 02f8 5FFA81FC 		uxtb	ip, r1
 424 02fc 02F14201 		add	r1, r2, #66
 425 0300 CDF8F4C0 		str	ip, [sp, #244]
 426 0304 5FFA81FC 		uxtb	ip, r1
 427 0308 02F14301 		add	r1, r2, #67
 428 030c CDF8F8C0 		str	ip, [sp, #248]
 429 0310 5FFA81FC 		uxtb	ip, r1
 430 0314 02F14401 		add	r1, r2, #68
 431 0318 CDF8FCC0 		str	ip, [sp, #252]
 432 031c 5FFA81FC 		uxtb	ip, r1
 433 0320 02F14501 		add	r1, r2, #69
 434 0324 CDF800C1 		str	ip, [sp, #256]
 435 0328 5FFA81FC 		uxtb	ip, r1
 436 032c 02F14601 		add	r1, r2, #70
 437 0330 CDF804C1 		str	ip, [sp, #260]
 438 0334 5FFA81FC 		uxtb	ip, r1
 439 0338 02F14701 		add	r1, r2, #71
 440 033c CDF808C1 		str	ip, [sp, #264]
 441 0340 5FFA81FC 		uxtb	ip, r1
 442 0344 02F14801 		add	r1, r2, #72
 443 0348 CDF80CC1 		str	ip, [sp, #268]
 444 034c 5FFA81FC 		uxtb	ip, r1
 445 0350 02F14901 		add	r1, r2, #73
 446 0354 CDF810C1 		str	ip, [sp, #272]
 447 0358 5FFA81FC 		uxtb	ip, r1
 448 035c 02F14A01 		add	r1, r2, #74
 449 0360 CDF814C1 		str	ip, [sp, #276]
 450 0364 5FFA81FC 		uxtb	ip, r1
 451 0368 02F14B01 		add	r1, r2, #75
 452 036c CDF818C1 		str	ip, [sp, #280]
 453 0370 5FFA81FC 		uxtb	ip, r1
 454 0374 02F14C01 		add	r1, r2, #76
 455 0378 CDF81CC1 		str	ip, [sp, #284]
 456 037c 5FFA81FC 		uxtb	ip, r1
 457 0380 02F14D01 		add	r1, r2, #77
 458 0384 CDF820C1 		str	ip, [sp, #288]
 459 0388 5FFA81FC 		uxtb	ip, r1
 460 038c 02F14E01 		add	r1, r2, #78
 461 0390 CDF824C1 		str	ip, [sp, #292]
 462 0394 5FFA81FC 		uxtb	ip, r1
ARM GAS  /tmp/cc8v9Aqs.s 			page 9


 463 0398 02F14F01 		add	r1, r2, #79
 464 039c CDF828C1 		str	ip, [sp, #296]
 465 03a0 5FFA81FC 		uxtb	ip, r1
 466 03a4 02F15001 		add	r1, r2, #80
 467 03a8 CDF82CC1 		str	ip, [sp, #300]
 468 03ac 5FFA81FC 		uxtb	ip, r1
 469 03b0 02F15101 		add	r1, r2, #81
 470 03b4 CDF830C1 		str	ip, [sp, #304]
 471 03b8 5FFA81FC 		uxtb	ip, r1
 472 03bc 02F15201 		add	r1, r2, #82
 473 03c0 CDF834C1 		str	ip, [sp, #308]
 474 03c4 5FFA81FC 		uxtb	ip, r1
 475 03c8 02F15301 		add	r1, r2, #83
 476 03cc CDF838C1 		str	ip, [sp, #312]
 477 03d0 5FFA81FC 		uxtb	ip, r1
 478 03d4 02F15401 		add	r1, r2, #84
 479 03d8 CDF83CC1 		str	ip, [sp, #316]
 480 03dc 5FFA81FC 		uxtb	ip, r1
 481 03e0 02F15501 		add	r1, r2, #85
 482 03e4 CDF840C1 		str	ip, [sp, #320]
 483 03e8 5FFA81FC 		uxtb	ip, r1
 484 03ec 02F15601 		add	r1, r2, #86
 485 03f0 CDF844C1 		str	ip, [sp, #324]
 486 03f4 04E0     		b	.L29
 487              	.L30:
 488 03f6 00BF     		.align	2
 489              	.L28:
 490 03f8 00000000 		.word	.LANCHOR2
 491 03fc 00000000 		.word	.LANCHOR3
 492              	.L29:
 493 0400 5FFA81FC 		uxtb	ip, r1
 494 0404 02F15701 		add	r1, r2, #87
 495 0408 CDF848C1 		str	ip, [sp, #328]
 496 040c 5FFA81FC 		uxtb	ip, r1
 497 0410 02F15801 		add	r1, r2, #88
 498 0414 CDF84CC1 		str	ip, [sp, #332]
 499 0418 5FFA81FC 		uxtb	ip, r1
 500 041c 02F15901 		add	r1, r2, #89
 501 0420 CDF850C1 		str	ip, [sp, #336]
 502 0424 5FFA81FC 		uxtb	ip, r1
 503 0428 02F15A01 		add	r1, r2, #90
 504 042c CDF854C1 		str	ip, [sp, #340]
 505 0430 5FFA81FC 		uxtb	ip, r1
 506 0434 02F15B01 		add	r1, r2, #91
 507 0438 CDF858C1 		str	ip, [sp, #344]
 508 043c 5FFA81FC 		uxtb	ip, r1
 509 0440 02F15C01 		add	r1, r2, #92
 510 0444 CDF85CC1 		str	ip, [sp, #348]
 511 0448 5FFA81FC 		uxtb	ip, r1
 512 044c 02F15D01 		add	r1, r2, #93
 513 0450 CDF860C1 		str	ip, [sp, #352]
 514 0454 5FFA81FC 		uxtb	ip, r1
 515 0458 02F15E01 		add	r1, r2, #94
 516 045c CDF864C1 		str	ip, [sp, #356]
 517 0460 5FFA81FC 		uxtb	ip, r1
 518 0464 02F15F01 		add	r1, r2, #95
 519 0468 CDF868C1 		str	ip, [sp, #360]
ARM GAS  /tmp/cc8v9Aqs.s 			page 10


 520 046c 5FFA81FC 		uxtb	ip, r1
 521 0470 02F16001 		add	r1, r2, #96
 522 0474 CDF86CC1 		str	ip, [sp, #364]
 523 0478 5FFA81FC 		uxtb	ip, r1
 524 047c 02F16101 		add	r1, r2, #97
 525 0480 CDF870C1 		str	ip, [sp, #368]
 526 0484 5FFA81FC 		uxtb	ip, r1
 527 0488 02F16201 		add	r1, r2, #98
 528 048c CDF874C1 		str	ip, [sp, #372]
 529 0490 5FFA81FC 		uxtb	ip, r1
 530 0494 02F16301 		add	r1, r2, #99
 531 0498 CDF878C1 		str	ip, [sp, #376]
 532 049c 5FFA81FC 		uxtb	ip, r1
 533 04a0 02F16401 		add	r1, r2, #100
 534 04a4 CDF87CC1 		str	ip, [sp, #380]
 535 04a8 5FFA81FC 		uxtb	ip, r1
 536 04ac 02F16501 		add	r1, r2, #101
 537 04b0 CDF880C1 		str	ip, [sp, #384]
 538 04b4 5FFA81FC 		uxtb	ip, r1
 539 04b8 02F16601 		add	r1, r2, #102
 540 04bc CDF884C1 		str	ip, [sp, #388]
 541 04c0 5FFA81FC 		uxtb	ip, r1
 542 04c4 02F16701 		add	r1, r2, #103
 543 04c8 CDF888C1 		str	ip, [sp, #392]
 544 04cc 5FFA81FC 		uxtb	ip, r1
 545 04d0 02F16801 		add	r1, r2, #104
 546 04d4 CDF88CC1 		str	ip, [sp, #396]
 547 04d8 5FFA81FC 		uxtb	ip, r1
 548 04dc 02F16901 		add	r1, r2, #105
 549 04e0 CDF890C1 		str	ip, [sp, #400]
 550 04e4 5FFA81FC 		uxtb	ip, r1
 551 04e8 02F16A01 		add	r1, r2, #106
 552 04ec CDF894C1 		str	ip, [sp, #404]
 553 04f0 5FFA81FC 		uxtb	ip, r1
 554 04f4 02F16B01 		add	r1, r2, #107
 555 04f8 CDF898C1 		str	ip, [sp, #408]
 556 04fc 5FFA81FC 		uxtb	ip, r1
 557 0500 02F16C01 		add	r1, r2, #108
 558 0504 CDF89CC1 		str	ip, [sp, #412]
 559 0508 5FFA81FC 		uxtb	ip, r1
 560 050c 02F16D01 		add	r1, r2, #109
 561 0510 CDF8A0C1 		str	ip, [sp, #416]
 562 0514 5FFA81FC 		uxtb	ip, r1
 563 0518 02F16E01 		add	r1, r2, #110
 564 051c CDF8A4C1 		str	ip, [sp, #420]
 565 0520 5FFA81FC 		uxtb	ip, r1
 566 0524 02F16F01 		add	r1, r2, #111
 567 0528 CDF8A8C1 		str	ip, [sp, #424]
 568 052c 5FFA81FC 		uxtb	ip, r1
 569 0530 02F17001 		add	r1, r2, #112
 570 0534 CDF8ACC1 		str	ip, [sp, #428]
 571 0538 5FFA81FC 		uxtb	ip, r1
 572 053c 02F17101 		add	r1, r2, #113
 573 0540 CDF8B0C1 		str	ip, [sp, #432]
 574 0544 5FFA81FC 		uxtb	ip, r1
 575 0548 02F17201 		add	r1, r2, #114
 576 054c CDF8B4C1 		str	ip, [sp, #436]
ARM GAS  /tmp/cc8v9Aqs.s 			page 11


 577 0550 5FFA81FC 		uxtb	ip, r1
 578 0554 02F17301 		add	r1, r2, #115
 579 0558 CDF8B8C1 		str	ip, [sp, #440]
 580 055c 5FFA81FC 		uxtb	ip, r1
 581 0560 02F17401 		add	r1, r2, #116
 582 0564 CDF8BCC1 		str	ip, [sp, #444]
 583 0568 5FFA81FC 		uxtb	ip, r1
 584 056c 02F17501 		add	r1, r2, #117
 585 0570 CDF8C0C1 		str	ip, [sp, #448]
 586 0574 5FFA81FC 		uxtb	ip, r1
 587 0578 02F17601 		add	r1, r2, #118
 588 057c CDF8C4C1 		str	ip, [sp, #452]
 589 0580 5FFA81FC 		uxtb	ip, r1
 590 0584 02F17701 		add	r1, r2, #119
 591 0588 CDF8C8C1 		str	ip, [sp, #456]
 592 058c 5FFA81FC 		uxtb	ip, r1
 593 0590 02F17801 		add	r1, r2, #120
 594 0594 02F10108 		add	r8, r2, #1
 595 0598 CDF8CCC1 		str	ip, [sp, #460]
 596 059c 5FFA81FC 		uxtb	ip, r1
 597 05a0 02F17901 		add	r1, r2, #121
 598 05a4 5FFA88F8 		uxtb	r8, r8
 599 05a8 CDF8D0C1 		str	ip, [sp, #464]
 600 05ac 5FFA81FC 		uxtb	ip, r1
 601 05b0 CDF8D4C1 		str	ip, [sp, #468]
 602 05b4 02F17A0C 		add	ip, r2, #122
 603 05b8 4FF07D02 		mov	r2, #125
 604 05bc 03F80820 		strb	r2, [r3, r8]
 605 05c0 009A     		ldr	r2, [sp]
 606 05c2 0126     		movs	r6, #1
 607 05c4 2325     		movs	r5, #35
 608 05c6 4524     		movs	r4, #69
 609 05c8 03F80960 		strb	r6, [r3, r9]
 610 05cc 03F80A50 		strb	r5, [r3, r10]
 611 05d0 9C54     		strb	r4, [r3, r2]
 612 05d2 019A     		ldr	r2, [sp, #4]
 613 05d4 6721     		movs	r1, #103
 614 05d6 9954     		strb	r1, [r3, r2]
 615 05d8 029A     		ldr	r2, [sp, #8]
 616 05da 4FF0890E 		mov	lr, #137
 617 05de 03F802E0 		strb	lr, [r3, r2]
 618 05e2 039A     		ldr	r2, [sp, #12]
 619 05e4 6746     		mov	r7, ip
 620 05e6 4FF0AB0C 		mov	ip, #171
 621 05ea 03F802C0 		strb	ip, [r3, r2]
 622 05ee 049A     		ldr	r2, [sp, #16]
 623 05f0 CD20     		movs	r0, #205
 624 05f2 9854     		strb	r0, [r3, r2]
 625 05f4 059A     		ldr	r2, [sp, #20]
 626 05f6 6FF01008 		mvn	r8, #16
 627 05fa 03F80280 		strb	r8, [r3, r2]
 628 05fe 069A     		ldr	r2, [sp, #24]
 629 0600 9E54     		strb	r6, [r3, r2]
 630 0602 079A     		ldr	r2, [sp, #28]
 631 0604 9D54     		strb	r5, [r3, r2]
 632 0606 089A     		ldr	r2, [sp, #32]
 633 0608 9C54     		strb	r4, [r3, r2]
ARM GAS  /tmp/cc8v9Aqs.s 			page 12


 634 060a 099A     		ldr	r2, [sp, #36]
 635 060c 9954     		strb	r1, [r3, r2]
 636 060e 0A9A     		ldr	r2, [sp, #40]
 637 0610 03F802E0 		strb	lr, [r3, r2]
 638 0614 0B9A     		ldr	r2, [sp, #44]
 639 0616 03F802C0 		strb	ip, [r3, r2]
 640 061a 0C9A     		ldr	r2, [sp, #48]
 641 061c 9854     		strb	r0, [r3, r2]
 642 061e 0D9A     		ldr	r2, [sp, #52]
 643 0620 03F80280 		strb	r8, [r3, r2]
 644 0624 0E9A     		ldr	r2, [sp, #56]
 645 0626 9E54     		strb	r6, [r3, r2]
 646 0628 0F9A     		ldr	r2, [sp, #60]
 647 062a 9D54     		strb	r5, [r3, r2]
 648 062c 109A     		ldr	r2, [sp, #64]
 649 062e 9C54     		strb	r4, [r3, r2]
 650 0630 119A     		ldr	r2, [sp, #68]
 651 0632 9954     		strb	r1, [r3, r2]
 652 0634 129A     		ldr	r2, [sp, #72]
 653 0636 03F802E0 		strb	lr, [r3, r2]
 654 063a 139A     		ldr	r2, [sp, #76]
 655 063c 03F802C0 		strb	ip, [r3, r2]
 656 0640 149A     		ldr	r2, [sp, #80]
 657 0642 9854     		strb	r0, [r3, r2]
 658 0644 159A     		ldr	r2, [sp, #84]
 659 0646 03F80280 		strb	r8, [r3, r2]
 660 064a 169A     		ldr	r2, [sp, #88]
 661 064c 4FF0F709 		mov	r9, #247
 662 0650 03F80290 		strb	r9, [r3, r2]
 663 0654 179A     		ldr	r2, [sp, #92]
 664 0656 4FF0E908 		mov	r8, #233
 665 065a 03F80280 		strb	r8, [r3, r2]
 666 065e 189A     		ldr	r2, [sp, #96]
 667 0660 4FF0000A 		mov	r10, #0
 668 0664 03F802A0 		strb	r10, [r3, r2]
 669 0668 199A     		ldr	r2, [sp, #100]
 670 066a 03F802A0 		strb	r10, [r3, r2]
 671 066e 1A9A     		ldr	r2, [sp, #104]
 672 0670 03F802B0 		strb	fp, [r3, r2]
 673 0674 1B9A     		ldr	r2, [sp, #108]
 674 0676 4FF07D0A 		mov	r10, #125
 675 067a 03F802A0 		strb	r10, [r3, r2]
 676 067e 1C9A     		ldr	r2, [sp, #112]
 677 0680 9E54     		strb	r6, [r3, r2]
 678 0682 1D9A     		ldr	r2, [sp, #116]
 679 0684 9D54     		strb	r5, [r3, r2]
 680 0686 1E9A     		ldr	r2, [sp, #120]
 681 0688 9C54     		strb	r4, [r3, r2]
 682 068a 1F9A     		ldr	r2, [sp, #124]
 683 068c 9954     		strb	r1, [r3, r2]
 684 068e 209A     		ldr	r2, [sp, #128]
 685 0690 03F802E0 		strb	lr, [r3, r2]
 686 0694 219A     		ldr	r2, [sp, #132]
 687 0696 03F802C0 		strb	ip, [r3, r2]
 688 069a 229A     		ldr	r2, [sp, #136]
 689 069c 9854     		strb	r0, [r3, r2]
 690 069e 239A     		ldr	r2, [sp, #140]
ARM GAS  /tmp/cc8v9Aqs.s 			page 13


 691 06a0 6FF0100A 		mvn	r10, #16
 692 06a4 03F802A0 		strb	r10, [r3, r2]
 693 06a8 249A     		ldr	r2, [sp, #144]
 694 06aa 9E54     		strb	r6, [r3, r2]
 695 06ac 259A     		ldr	r2, [sp, #148]
 696 06ae 9D54     		strb	r5, [r3, r2]
 697 06b0 269A     		ldr	r2, [sp, #152]
 698 06b2 9C54     		strb	r4, [r3, r2]
 699 06b4 279A     		ldr	r2, [sp, #156]
 700 06b6 9954     		strb	r1, [r3, r2]
 701 06b8 289A     		ldr	r2, [sp, #160]
 702 06ba 03F802E0 		strb	lr, [r3, r2]
 703 06be 299A     		ldr	r2, [sp, #164]
 704 06c0 03F802C0 		strb	ip, [r3, r2]
 705 06c4 2A9A     		ldr	r2, [sp, #168]
 706 06c6 9854     		strb	r0, [r3, r2]
 707 06c8 2B9A     		ldr	r2, [sp, #172]
 708 06ca 03F802A0 		strb	r10, [r3, r2]
 709 06ce 2C9A     		ldr	r2, [sp, #176]
 710 06d0 9E54     		strb	r6, [r3, r2]
 711 06d2 2D9A     		ldr	r2, [sp, #180]
 712 06d4 9D54     		strb	r5, [r3, r2]
 713 06d6 2E9A     		ldr	r2, [sp, #184]
 714 06d8 9C54     		strb	r4, [r3, r2]
 715 06da 2F9A     		ldr	r2, [sp, #188]
 716 06dc 9954     		strb	r1, [r3, r2]
 717 06de 309A     		ldr	r2, [sp, #192]
 718 06e0 03F802E0 		strb	lr, [r3, r2]
 719 06e4 319A     		ldr	r2, [sp, #196]
 720 06e6 03F802C0 		strb	ip, [r3, r2]
 721 06ea 329A     		ldr	r2, [sp, #200]
 722 06ec 9854     		strb	r0, [r3, r2]
 723 06ee 339A     		ldr	r2, [sp, #204]
 724 06f0 03F802A0 		strb	r10, [r3, r2]
 725 06f4 349A     		ldr	r2, [sp, #208]
 726 06f6 03F80290 		strb	r9, [r3, r2]
 727 06fa 359A     		ldr	r2, [sp, #212]
 728 06fc 03F80280 		strb	r8, [r3, r2]
 729 0700 369A     		ldr	r2, [sp, #216]
 730 0702 4FF0000A 		mov	r10, #0
 731 0706 03F802A0 		strb	r10, [r3, r2]
 732 070a 379A     		ldr	r2, [sp, #220]
 733 070c 03F802A0 		strb	r10, [r3, r2]
 734 0710 389A     		ldr	r2, [sp, #224]
 735 0712 03F802B0 		strb	fp, [r3, r2]
 736 0716 399A     		ldr	r2, [sp, #228]
 737 0718 4FF07D0A 		mov	r10, #125
 738 071c 03F802A0 		strb	r10, [r3, r2]
 739 0720 3A9A     		ldr	r2, [sp, #232]
 740 0722 9E54     		strb	r6, [r3, r2]
 741 0724 3B9A     		ldr	r2, [sp, #236]
 742 0726 9D54     		strb	r5, [r3, r2]
 743 0728 3C9A     		ldr	r2, [sp, #240]
 744 072a 9C54     		strb	r4, [r3, r2]
 745 072c 3D9A     		ldr	r2, [sp, #244]
 746 072e 9954     		strb	r1, [r3, r2]
 747 0730 3E9A     		ldr	r2, [sp, #248]
ARM GAS  /tmp/cc8v9Aqs.s 			page 14


 748 0732 03F802E0 		strb	lr, [r3, r2]
 749 0736 3F9A     		ldr	r2, [sp, #252]
 750 0738 03F802C0 		strb	ip, [r3, r2]
 751 073c 409A     		ldr	r2, [sp, #256]
 752 073e 9854     		strb	r0, [r3, r2]
 753 0740 419A     		ldr	r2, [sp, #260]
 754 0742 6FF0100A 		mvn	r10, #16
 755 0746 03F802A0 		strb	r10, [r3, r2]
 756 074a 429A     		ldr	r2, [sp, #264]
 757 074c 9E54     		strb	r6, [r3, r2]
 758 074e 439A     		ldr	r2, [sp, #268]
 759 0750 9D54     		strb	r5, [r3, r2]
 760 0752 449A     		ldr	r2, [sp, #272]
 761 0754 9C54     		strb	r4, [r3, r2]
 762 0756 459A     		ldr	r2, [sp, #276]
 763 0758 9954     		strb	r1, [r3, r2]
 764 075a 469A     		ldr	r2, [sp, #280]
 765 075c 03F802E0 		strb	lr, [r3, r2]
 766 0760 479A     		ldr	r2, [sp, #284]
 767 0762 03F802C0 		strb	ip, [r3, r2]
 768 0766 489A     		ldr	r2, [sp, #288]
 769 0768 9854     		strb	r0, [r3, r2]
 770 076a 499A     		ldr	r2, [sp, #292]
 771 076c 03F802A0 		strb	r10, [r3, r2]
 772 0770 4A9A     		ldr	r2, [sp, #296]
 773 0772 9E54     		strb	r6, [r3, r2]
 774 0774 4B9A     		ldr	r2, [sp, #300]
 775 0776 9D54     		strb	r5, [r3, r2]
 776 0778 4C9A     		ldr	r2, [sp, #304]
 777 077a 9C54     		strb	r4, [r3, r2]
 778 077c 4D9A     		ldr	r2, [sp, #308]
 779 077e 9954     		strb	r1, [r3, r2]
 780 0780 4E9A     		ldr	r2, [sp, #312]
 781 0782 03F802E0 		strb	lr, [r3, r2]
 782 0786 4F9A     		ldr	r2, [sp, #316]
 783 0788 03F802C0 		strb	ip, [r3, r2]
 784 078c 509A     		ldr	r2, [sp, #320]
 785 078e 9854     		strb	r0, [r3, r2]
 786 0790 519A     		ldr	r2, [sp, #324]
 787 0792 03F802A0 		strb	r10, [r3, r2]
 788 0796 529A     		ldr	r2, [sp, #328]
 789 0798 03F80290 		strb	r9, [r3, r2]
 790 079c 539A     		ldr	r2, [sp, #332]
 791 079e 03F80280 		strb	r8, [r3, r2]
 792 07a2 549A     		ldr	r2, [sp, #336]
 793 07a4 4FF0000A 		mov	r10, #0
 794 07a8 03F802A0 		strb	r10, [r3, r2]
 795 07ac 559A     		ldr	r2, [sp, #340]
 796 07ae 03F802A0 		strb	r10, [r3, r2]
 797 07b2 569A     		ldr	r2, [sp, #344]
 798 07b4 03F802B0 		strb	fp, [r3, r2]
 799 07b8 579A     		ldr	r2, [sp, #348]
 800 07ba 4FF07D0B 		mov	fp, #125
 801 07be 03F802B0 		strb	fp, [r3, r2]
 802 07c2 589A     		ldr	r2, [sp, #352]
 803 07c4 9E54     		strb	r6, [r3, r2]
 804 07c6 599A     		ldr	r2, [sp, #356]
ARM GAS  /tmp/cc8v9Aqs.s 			page 15


 805 07c8 9D54     		strb	r5, [r3, r2]
 806 07ca 5A9A     		ldr	r2, [sp, #360]
 807 07cc 9C54     		strb	r4, [r3, r2]
 808 07ce 5B9A     		ldr	r2, [sp, #364]
 809 07d0 9954     		strb	r1, [r3, r2]
 810 07d2 5C9A     		ldr	r2, [sp, #368]
 811 07d4 03F802E0 		strb	lr, [r3, r2]
 812 07d8 5D9A     		ldr	r2, [sp, #372]
 813 07da 03F802C0 		strb	ip, [r3, r2]
 814 07de 254A     		ldr	r2, .L31
 815 07e0 1770     		strb	r7, [r2]
 816 07e2 5E9A     		ldr	r2, [sp, #376]
 817 07e4 9854     		strb	r0, [r3, r2]
 818 07e6 5F9A     		ldr	r2, [sp, #380]
 819 07e8 6FF01007 		mvn	r7, #16
 820 07ec 9F54     		strb	r7, [r3, r2]
 821 07ee 609A     		ldr	r2, [sp, #384]
 822 07f0 9E54     		strb	r6, [r3, r2]
 823 07f2 619A     		ldr	r2, [sp, #388]
 824 07f4 9D54     		strb	r5, [r3, r2]
 825 07f6 629A     		ldr	r2, [sp, #392]
 826 07f8 9C54     		strb	r4, [r3, r2]
 827 07fa 639A     		ldr	r2, [sp, #396]
 828 07fc 9954     		strb	r1, [r3, r2]
 829 07fe 649A     		ldr	r2, [sp, #400]
 830 0800 03F802E0 		strb	lr, [r3, r2]
 831 0804 659A     		ldr	r2, [sp, #404]
 832 0806 03F802C0 		strb	ip, [r3, r2]
 833 080a 669A     		ldr	r2, [sp, #408]
 834 080c 9854     		strb	r0, [r3, r2]
 835 080e 679A     		ldr	r2, [sp, #412]
 836 0810 9F54     		strb	r7, [r3, r2]
 837 0812 689A     		ldr	r2, [sp, #416]
 838 0814 9E54     		strb	r6, [r3, r2]
 839 0816 699E     		ldr	r6, [sp, #420]
 840 0818 6A9A     		ldr	r2, [sp, #424]
 841 081a 9D55     		strb	r5, [r3, r6]
 842 081c 9C54     		strb	r4, [r3, r2]
 843 081e 6B9A     		ldr	r2, [sp, #428]
 844 0820 6E9D     		ldr	r5, [sp, #440]
 845 0822 9954     		strb	r1, [r3, r2]
 846 0824 6C9A     		ldr	r2, [sp, #432]
 847 0826 6D9C     		ldr	r4, [sp, #436]
 848 0828 03F802E0 		strb	lr, [r3, r2]
 849 082c 6F9A     		ldr	r2, [sp, #444]
 850 082e 03F804C0 		strb	ip, [r3, r4]
 851 0832 7099     		ldr	r1, [sp, #448]
 852 0834 5855     		strb	r0, [r3, r5]
 853 0836 729E     		ldr	r6, [sp, #456]
 854 0838 9F54     		strb	r7, [r3, r2]
 855 083a 7198     		ldr	r0, [sp, #452]
 856 083c 739A     		ldr	r2, [sp, #460]
 857 083e 03F80190 		strb	r9, [r3, r1]
 858 0842 03F80080 		strb	r8, [r3, r0]
 859 0846 03F806A0 		strb	r10, [r3, r6]
 860 084a 03F802A0 		strb	r10, [r3, r2]
 861 084e 749C     		ldr	r4, [sp, #464]
ARM GAS  /tmp/cc8v9Aqs.s 			page 16


 862 0850 759D     		ldr	r5, [sp, #468]
 863 0852 03F804A0 		strb	r10, [r3, r4]
 864 0856 0021     		movs	r1, #0
 865 0858 0748     		ldr	r0, .L31+4
 866 085a 03F805A0 		strb	r10, [r3, r5]
 867 085e FFF7FEFF 		bl	HAL_TIM_PWM_Start
 868 0862 0548     		ldr	r0, .L31+4
 869 0864 054C     		ldr	r4, .L31+8
 870 0866 FFF7FEFF 		bl	HAL_TIM_Base_Start_IT
 871              	.L26:
 872 086a 2046     		mov	r0, r4
 873 086c FFF7FEFF 		bl	HAL_ADC_Start_IT
 874 0870 FBE7     		b	.L26
 875              	.L32:
 876 0872 00BF     		.align	2
 877              	.L31:
 878 0874 00000000 		.word	.LANCHOR2
 879 0878 00000000 		.word	htim2
 880 087c 00000000 		.word	hadc3
 882              		.section	.text.Error_Handler,"ax",%progbits
 883              		.align	1
 884              		.p2align 2,,3
 885              		.global	Error_Handler
 886              		.syntax unified
 887              		.thumb
 888              		.thumb_func
 889              		.fpu fpv4-sp-d16
 891              	Error_Handler:
 892              		@ Volatile: function does not return.
 893              		@ args = 0, pretend = 0, frame = 0
 894              		@ frame_needed = 0, uses_anonymous_args = 0
 895              		@ link register save eliminated.
 896              		.syntax unified
 897              	@ 209 "Drivers/CMSIS/Include/cmsis_gcc.h" 1
 898 0000 72B6     		cpsid i
 899              	@ 0 "" 2
 900              		.thumb
 901              		.syntax unified
 902              	.L34:
 903 0002 FEE7     		b	.L34
 905              		.global	recvidx
 906              		.global	recvtmp
 907              		.global	recvbuf
 908              		.global	qback
 909              		.global	qfront
 910              		.global	queue
 911              		.section	.bss.qback,"aw",%nobits
 912              		.set	.LANCHOR2,. + 0
 915              	qback:
 916 0000 00       		.space	1
 917              		.section	.bss.qfront,"aw",%nobits
 920              	qfront:
 921 0000 00       		.space	1
 922              		.section	.bss.queue,"aw",%nobits
 923              		.align	2
 924              		.set	.LANCHOR3,. + 0
 927              	queue:
ARM GAS  /tmp/cc8v9Aqs.s 			page 17


 928 0000 00000000 		.space	64
 928      00000000 
 928      00000000 
 928      00000000 
 928      00000000 
 929              		.section	.bss.recvbuf,"aw",%nobits
 930              		.align	2
 931              		.set	.LANCHOR1,. + 0
 934              	recvbuf:
 935 0000 00000000 		.space	64
 935      00000000 
 935      00000000 
 935      00000000 
 935      00000000 
 936              		.section	.bss.recvidx,"aw",%nobits
 937              		.set	.LANCHOR0,. + 0
 940              	recvidx:
 941 0000 00       		.space	1
 942              		.section	.bss.recvtmp,"aw",%nobits
 943              		.align	2
 946              	recvtmp:
 947 0000 00000000 		.space	68
 947      00000000 
 947      00000000 
 947      00000000 
 947      00000000 
 948              		.ident	"GCC: (Arch Repository) 11.2.0"
ARM GAS  /tmp/cc8v9Aqs.s 			page 18


DEFINED SYMBOLS
                            *ABS*:0000000000000000 main.c
     /tmp/cc8v9Aqs.s:16     .text.delay_us:0000000000000000 $t
     /tmp/cc8v9Aqs.s:25     .text.delay_us:0000000000000000 delay_us
     /tmp/cc8v9Aqs.s:41     .text.delay_us:0000000000000010 $d
     /tmp/cc8v9Aqs.s:44     .rodata.recv2uart.str1.4:0000000000000000 $d
     /tmp/cc8v9Aqs.s:51     .text.recv2uart:0000000000000000 $t
     /tmp/cc8v9Aqs.s:59     .text.recv2uart:0000000000000000 recv2uart
     /tmp/cc8v9Aqs.s:110    .text.recv2uart:0000000000000064 $d
     /tmp/cc8v9Aqs.s:117    .text.SystemClock_Config:0000000000000000 $t
     /tmp/cc8v9Aqs.s:125    .text.SystemClock_Config:0000000000000000 SystemClock_Config
     /tmp/cc8v9Aqs.s:200    .text.SystemClock_Config:0000000000000080 $d
     /tmp/cc8v9Aqs.s:204    .text.startup.main:0000000000000000 $t
     /tmp/cc8v9Aqs.s:212    .text.startup.main:0000000000000000 main
     /tmp/cc8v9Aqs.s:490    .text.startup.main:00000000000003f8 $d
     /tmp/cc8v9Aqs.s:493    .text.startup.main:0000000000000400 $t
     /tmp/cc8v9Aqs.s:878    .text.startup.main:0000000000000874 $d
     /tmp/cc8v9Aqs.s:883    .text.Error_Handler:0000000000000000 $t
     /tmp/cc8v9Aqs.s:891    .text.Error_Handler:0000000000000000 Error_Handler
     /tmp/cc8v9Aqs.s:940    .bss.recvidx:0000000000000000 recvidx
     /tmp/cc8v9Aqs.s:946    .bss.recvtmp:0000000000000000 recvtmp
     /tmp/cc8v9Aqs.s:934    .bss.recvbuf:0000000000000000 recvbuf
     /tmp/cc8v9Aqs.s:915    .bss.qback:0000000000000000 qback
     /tmp/cc8v9Aqs.s:920    .bss.qfront:0000000000000000 qfront
     /tmp/cc8v9Aqs.s:927    .bss.queue:0000000000000000 queue
     /tmp/cc8v9Aqs.s:916    .bss.qback:0000000000000000 $d
     /tmp/cc8v9Aqs.s:921    .bss.qfront:0000000000000000 $d
     /tmp/cc8v9Aqs.s:923    .bss.queue:0000000000000000 $d
     /tmp/cc8v9Aqs.s:930    .bss.recvbuf:0000000000000000 $d
     /tmp/cc8v9Aqs.s:941    .bss.recvidx:0000000000000000 $d
     /tmp/cc8v9Aqs.s:943    .bss.recvtmp:0000000000000000 $d

UNDEFINED SYMBOLS
htim2
memset
sprintf
HAL_UART_Transmit_IT
huart2
HAL_PWREx_ControlVoltageScaling
HAL_RCC_OscConfig
HAL_RCC_ClockConfig
HAL_Init
MX_GPIO_Init
MX_USART2_UART_Init
MX_ADC3_Init
MX_TIM2_Init
HAL_Delay
HAL_TIM_PWM_Start
HAL_TIM_Base_Start_IT
HAL_ADC_Start_IT
hadc3
