ARM GAS  /tmp/cc8nKJpl.s 			page 1


   1              		.cpu cortex-m4
   2              		.eabi_attribute 27, 1
   3              		.eabi_attribute 28, 1
   4              		.eabi_attribute 20, 1
   5              		.eabi_attribute 21, 1
   6              		.eabi_attribute 23, 3
   7              		.eabi_attribute 24, 1
   8              		.eabi_attribute 25, 1
   9              		.eabi_attribute 26, 1
  10              		.eabi_attribute 30, 2
  11              		.eabi_attribute 34, 1
  12              		.eabi_attribute 18, 4
  13              		.file	"main.c"
  14              		.text
  15              		.section	.text.delay_us,"ax",%progbits
  16              		.align	1
  17              		.p2align 2,,3
  18              		.global	delay_us
  19              		.arch armv7e-m
  20              		.syntax unified
  21              		.thumb
  22              		.thumb_func
  23              		.fpu fpv4-sp-d16
  25              	delay_us:
  26              		@ args = 0, pretend = 0, frame = 0
  27              		@ frame_needed = 0, uses_anonymous_args = 0
  28              		@ link register save eliminated.
  29 0000 034B     		ldr	r3, .L5
  30 0002 1A68     		ldr	r2, [r3]
  31 0004 0023     		movs	r3, #0
  32 0006 5362     		str	r3, [r2, #36]
  33              	.L2:
  34 0008 536A     		ldr	r3, [r2, #36]
  35 000a 8342     		cmp	r3, r0
  36 000c FCD3     		bcc	.L2
  37 000e 7047     		bx	lr
  38              	.L6:
  39              		.align	2
  40              	.L5:
  41 0010 00000000 		.word	htim2
  43              		.section	.rodata.recv2uart.str1.4,"aMS",%progbits,1
  44              		.align	2
  45              	.LC0:
  46 0000 20253032 		.ascii	" %02x\000"
  46      7800
  47 0006 0000     		.align	2
  48              	.LC1:
  49 0008 0D0A00   		.ascii	"\015\012\000"
  50              		.section	.text.recv2uart,"ax",%progbits
  51              		.align	1
  52              		.p2align 2,,3
  53              		.global	recv2uart
  54              		.syntax unified
  55              		.thumb
  56              		.thumb_func
  57              		.fpu fpv4-sp-d16
  59              	recv2uart:
ARM GAS  /tmp/cc8nKJpl.s 			page 2


  60              		@ args = 0, pretend = 0, frame = 1024
  61              		@ frame_needed = 0, uses_anonymous_args = 0
  62 0000 2DE9F041 		push	{r4, r5, r6, r7, r8, lr}
  63 0004 0024     		movs	r4, #0
  64 0006 ADF5806D 		sub	sp, sp, #1024
  65 000a 164F     		ldr	r7, .L13
  66 000c 0094     		str	r4, [sp]
  67 000e 4FF47F72 		mov	r2, #1020
  68 0012 2146     		mov	r1, r4
  69 0014 01A8     		add	r0, sp, #4
  70 0016 FFF7FEFF 		bl	memset
  71 001a 3B68     		ldr	r3, [r7]
  72 001c 03B3     		cbz	r3, .L10
  73 001e 124E     		ldr	r6, .L13+4
  74 0020 DFF85080 		ldr	r8, .L13+16
  75 0024 6D46     		mov	r5, sp
  76              	.L9:
  77 0026 2846     		mov	r0, r5
  78 0028 16F8012B 		ldrb	r2, [r6], #1	@ zero_extendqisi2
  79 002c 4146     		mov	r1, r8
  80 002e FFF7FEFF 		bl	sprintf
  81 0032 3B68     		ldr	r3, [r7]
  82 0034 0134     		adds	r4, r4, #1
  83 0036 A342     		cmp	r3, r4
  84 0038 05F10305 		add	r5, r5, #3
  85 003c F3D8     		bhi	.L9
  86              	.L8:
  87 003e 0B4B     		ldr	r3, .L13+8
  88 0040 0B48     		ldr	r0, .L13+12
  89 0042 1A88     		ldrh	r2, [r3]	@ unaligned
  90 0044 2A80     		strh	r2, [r5]	@ unaligned
  91 0046 9B78     		ldrb	r3, [r3, #2]	@ zero_extendqisi2
  92 0048 AB70     		strb	r3, [r5, #2]
  93 004a 6946     		mov	r1, sp
  94 004c 4FF48062 		mov	r2, #1024
  95 0050 FFF7FEFF 		bl	HAL_UART_Transmit_IT
  96 0054 0023     		movs	r3, #0
  97 0056 3B60     		str	r3, [r7]
  98 0058 0DF5806D 		add	sp, sp, #1024
  99              		@ sp needed
 100 005c BDE8F081 		pop	{r4, r5, r6, r7, r8, pc}
 101              	.L10:
 102 0060 6D46     		mov	r5, sp
 103 0062 ECE7     		b	.L8
 104              	.L14:
 105              		.align	2
 106              	.L13:
 107 0064 00000000 		.word	.LANCHOR0
 108 0068 00000000 		.word	recvbuf
 109 006c 08000000 		.word	.LC1
 110 0070 00000000 		.word	huart2
 111 0074 00000000 		.word	.LC0
 113              		.section	.text.data_init,"ax",%progbits
 114              		.align	1
 115              		.p2align 2,,3
 116              		.global	data_init
 117              		.syntax unified
ARM GAS  /tmp/cc8nKJpl.s 			page 3


 118              		.thumb
 119              		.thumb_func
 120              		.fpu fpv4-sp-d16
 122              	data_init:
 123              		@ args = 0, pretend = 0, frame = 0
 124              		@ frame_needed = 0, uses_anonymous_args = 0
 125 0000 F0B5     		push	{r4, r5, r6, r7, lr}
 126 0002 154E     		ldr	r6, .L19
 127 0004 154F     		ldr	r7, .L19+4
 128 0006 3568     		ldr	r5, [r6]
 129 0008 DFF85CE0 		ldr	lr, .L19+16
 130 000c 144A     		ldr	r2, .L19+8
 131 000e 1549     		ldr	r1, .L19+12
 132 0010 DFF858C0 		ldr	ip, .L19+20
 133 0014 7B19     		adds	r3, r7, r5
 134 0016 03F59044 		add	r4, r3, #18432
 135 001a 0020     		movs	r0, #0
 136              	.L16:
 137 001c C3F800E0 		str	lr, [r3]	@ unaligned
 138 0020 5A60     		str	r2, [r3, #4]	@ unaligned
 139 0022 9960     		str	r1, [r3, #8]	@ unaligned
 140 0024 DA60     		str	r2, [r3, #12]	@ unaligned
 141 0026 1961     		str	r1, [r3, #16]	@ unaligned
 142 0028 5A61     		str	r2, [r3, #20]	@ unaligned
 143 002a 9961     		str	r1, [r3, #24]	@ unaligned
 144 002c DA61     		str	r2, [r3, #28]	@ unaligned
 145 002e 1962     		str	r1, [r3, #32]	@ unaligned
 146 0030 5A62     		str	r2, [r3, #36]	@ unaligned
 147 0032 9962     		str	r1, [r3, #40]	@ unaligned
 148 0034 DA62     		str	r2, [r3, #44]	@ unaligned
 149 0036 1963     		str	r1, [r3, #48]	@ unaligned
 150 0038 5A63     		str	r2, [r3, #52]	@ unaligned
 151 003a 9963     		str	r1, [r3, #56]	@ unaligned
 152 003c DA63     		str	r2, [r3, #60]	@ unaligned
 153 003e C3F840C0 		str	ip, [r3, #64]	@ unaligned
 154 0042 5864     		str	r0, [r3, #68]	@ unaligned
 155 0044 4833     		adds	r3, r3, #72
 156 0046 A342     		cmp	r3, r4
 157 0048 E8D1     		bne	.L16
 158 004a 05F59043 		add	r3, r5, #18432
 159 004e 1D46     		mov	r5, r3
 160 0050 0233     		adds	r3, r3, #2
 161 0052 7853     		strh	r0, [r7, r5]	@ unaligned
 162 0054 3360     		str	r3, [r6]
 163 0056 F0BD     		pop	{r4, r5, r6, r7, pc}
 164              	.L20:
 165              		.align	2
 166              	.L19:
 167 0058 00000000 		.word	.LANCHOR1
 168 005c 00000000 		.word	queue
 169 0060 456789AB 		.word	-1417058491
 170 0064 CDEF0123 		.word	587329485
 171 0068 3F7D0123 		.word	587300159
 172 006c CDEFF7E9 		.word	-369627187
 174              		.section	.text.SystemClock_Config,"ax",%progbits
 175              		.align	1
 176              		.p2align 2,,3
ARM GAS  /tmp/cc8nKJpl.s 			page 4


 177              		.global	SystemClock_Config
 178              		.syntax unified
 179              		.thumb
 180              		.thumb_func
 181              		.fpu fpv4-sp-d16
 183              	SystemClock_Config:
 184              		@ args = 0, pretend = 0, frame = 96
 185              		@ frame_needed = 0, uses_anonymous_args = 0
 186 0000 10B5     		push	{r4, lr}
 187 0002 98B0     		sub	sp, sp, #96
 188 0004 4422     		movs	r2, #68
 189 0006 0021     		movs	r1, #0
 190 0008 06A8     		add	r0, sp, #24
 191 000a FFF7FEFF 		bl	memset
 192 000e 0023     		movs	r3, #0
 193 0010 4FF40070 		mov	r0, #512
 194 0014 CDE90133 		strd	r3, r3, [sp, #4]
 195 0018 CDE90333 		strd	r3, r3, [sp, #12]
 196 001c 0593     		str	r3, [sp, #20]
 197 001e FFF7FEFF 		bl	HAL_PWREx_ControlVoltageScaling
 198 0022 08B1     		cbz	r0, .L22
 199              		.syntax unified
 200              	@ 209 "Drivers/CMSIS/Include/cmsis_gcc.h" 1
 201 0024 72B6     		cpsid i
 202              	@ 0 "" 2
 203              		.thumb
 204              		.syntax unified
 205              	.L23:
 206 0026 FEE7     		b	.L23
 207              	.L22:
 208 0028 9FED157B 		vldr.64	d7, .L29	@ int
 209 002c 4FF48071 		mov	r1, #256
 210 0030 1022     		movs	r2, #16
 211 0032 0223     		movs	r3, #2
 212 0034 CDE90912 		strd	r1, r2, [sp, #36]
 213 0038 06A8     		add	r0, sp, #24
 214 003a 0121     		movs	r1, #1
 215 003c 0A22     		movs	r2, #10
 216 003e CDE91033 		strd	r3, r3, [sp, #64]
 217 0042 0693     		str	r3, [sp, #24]
 218 0044 1693     		str	r3, [sp, #88]
 219 0046 8DED147B 		vstr.64	d7, [sp, #80]	@ int
 220 004a 1291     		str	r1, [sp, #72]
 221 004c 1392     		str	r2, [sp, #76]
 222 004e FFF7FEFF 		bl	HAL_RCC_OscConfig
 223 0052 0346     		mov	r3, r0
 224 0054 08B1     		cbz	r0, .L24
 225              		.syntax unified
 226              	@ 209 "Drivers/CMSIS/Include/cmsis_gcc.h" 1
 227 0056 72B6     		cpsid i
 228              	@ 0 "" 2
 229              		.thumb
 230              		.syntax unified
 231              	.L25:
 232 0058 FEE7     		b	.L25
 233              	.L24:
 234 005a 0421     		movs	r1, #4
ARM GAS  /tmp/cc8nKJpl.s 			page 5


 235 005c 0F24     		movs	r4, #15
 236 005e 0322     		movs	r2, #3
 237 0060 0DEB0100 		add	r0, sp, r1
 238 0064 CDE90142 		strd	r4, r2, [sp, #4]
 239 0068 CDE90333 		strd	r3, r3, [sp, #12]
 240 006c 0593     		str	r3, [sp, #20]
 241 006e FFF7FEFF 		bl	HAL_RCC_ClockConfig
 242 0072 08B1     		cbz	r0, .L21
 243              		.syntax unified
 244              	@ 209 "Drivers/CMSIS/Include/cmsis_gcc.h" 1
 245 0074 72B6     		cpsid i
 246              	@ 0 "" 2
 247              		.thumb
 248              		.syntax unified
 249              	.L27:
 250 0076 FEE7     		b	.L27
 251              	.L21:
 252 0078 18B0     		add	sp, sp, #96
 253              		@ sp needed
 254 007a 10BD     		pop	{r4, pc}
 255              	.L30:
 256 007c AFF30080 		.align	3
 257              	.L29:
 258 0080 07000000 		.word	7
 259 0084 02000000 		.word	2
 261              		.section	.text.startup.main,"ax",%progbits
 262              		.align	1
 263              		.p2align 2,,3
 264              		.global	main
 265              		.syntax unified
 266              		.thumb
 267              		.thumb_func
 268              		.fpu fpv4-sp-d16
 270              	main:
 271              		@ Volatile: function does not return.
 272              		@ args = 0, pretend = 0, frame = 0
 273              		@ frame_needed = 0, uses_anonymous_args = 0
 274 0000 80B5     		push	{r7, lr}
 275 0002 FFF7FEFF 		bl	HAL_Init
 276 0006 FFF7FEFF 		bl	SystemClock_Config
 277 000a FFF7FEFF 		bl	MX_GPIO_Init
 278 000e FFF7FEFF 		bl	MX_USART2_UART_Init
 279 0012 FFF7FEFF 		bl	MX_DMA_Init
 280 0016 FFF7FEFF 		bl	MX_TIM2_Init
 281 001a FFF7FEFF 		bl	MX_ADC3_Init
 282 001e 4FF09042 		mov	r2, #1207959552
 283 0022 1D49     		ldr	r1, .L37
 284 0024 5369     		ldr	r3, [r2, #20]
 285 0026 1D4F     		ldr	r7, .L37+4
 286 0028 DFF88880 		ldr	r8, .L37+28
 287 002c 1C4C     		ldr	r4, .L37+8
 288 002e 43F48063 		orr	r3, r3, #1024
 289 0032 5361     		str	r3, [r2, #20]
 290 0034 0023     		movs	r3, #0
 291 0036 0B60     		str	r3, [r1]
 292 0038 FFF7FEFF 		bl	recv2uart
 293 003c 4FF4FA60 		mov	r0, #2000
ARM GAS  /tmp/cc8nKJpl.s 			page 6


 294 0040 FFF7FEFF 		bl	HAL_Delay
 295 0044 3B68     		ldr	r3, [r7]
 296 0046 9A1C     		adds	r2, r3, #2
 297 0048 3A60     		str	r2, [r7]
 298 004a 47F63F52 		movw	r2, #32063
 299 004e 28F80320 		strh	r2, [r8, r3]	@ unaligned
 300 0052 2368     		ldr	r3, [r4]
 301 0054 B3F5615F 		cmp	r3, #14400
 302 0058 0AD2     		bcs	.L32
 303 005a 124E     		ldr	r6, .L37+12
 304 005c 124D     		ldr	r5, .L37+16
 305              	.L33:
 306 005e 0C22     		movs	r2, #12
 307 0060 3146     		mov	r1, r6
 308 0062 2846     		mov	r0, r5
 309 0064 FFF7FEFF 		bl	HAL_UART_Receive_IT
 310 0068 2368     		ldr	r3, [r4]
 311 006a B3F5615F 		cmp	r3, #14400
 312 006e F6D3     		bcc	.L33
 313              	.L32:
 314 0070 3B68     		ldr	r3, [r7]
 315 0072 0E48     		ldr	r0, .L37+20
 316 0074 0E4C     		ldr	r4, .L37+24
 317 0076 1A1D     		adds	r2, r3, #4
 318 0078 0021     		movs	r1, #0
 319 007a 3A60     		str	r2, [r7]
 320 007c 4EF6F712 		movw	r2, #59895
 321 0080 48F80320 		str	r2, [r8, r3]	@ unaligned
 322 0084 FFF7FEFF 		bl	HAL_TIM_PWM_Start
 323 0088 0848     		ldr	r0, .L37+20
 324 008a FFF7FEFF 		bl	HAL_TIM_Base_Start_IT
 325              	.L34:
 326 008e 2046     		mov	r0, r4
 327 0090 FFF7FEFF 		bl	HAL_ADC_Start_IT
 328 0094 FBE7     		b	.L34
 329              	.L38:
 330 0096 00BF     		.align	2
 331              	.L37:
 332 0098 00000000 		.word	.LANCHOR0
 333 009c 00000000 		.word	.LANCHOR1
 334 00a0 00000000 		.word	.LANCHOR2
 335 00a4 00000000 		.word	.LANCHOR3
 336 00a8 00000000 		.word	huart2
 337 00ac 00000000 		.word	htim2
 338 00b0 00000000 		.word	hadc3
 339 00b4 00000000 		.word	queue
 341              		.section	.text.Error_Handler,"ax",%progbits
 342              		.align	1
 343              		.p2align 2,,3
 344              		.global	Error_Handler
 345              		.syntax unified
 346              		.thumb
 347              		.thumb_func
 348              		.fpu fpv4-sp-d16
 350              	Error_Handler:
 351              		@ Volatile: function does not return.
 352              		@ args = 0, pretend = 0, frame = 0
ARM GAS  /tmp/cc8nKJpl.s 			page 7


 353              		@ frame_needed = 0, uses_anonymous_args = 0
 354              		@ link register save eliminated.
 355              		.syntax unified
 356              	@ 209 "Drivers/CMSIS/Include/cmsis_gcc.h" 1
 357 0000 72B6     		cpsid i
 358              	@ 0 "" 2
 359              		.thumb
 360              		.syntax unified
 361              	.L40:
 362 0002 FEE7     		b	.L40
 364              		.global	uart_byte_cnt
 365              		.global	uartbuf
 366              		.global	recvidx
 367              		.global	recvtmp
 368              		.global	recvbuf
 369              		.global	qback
 370              		.global	qfront
 371              		.global	queue
 372              		.section	.bss.qback,"aw",%nobits
 373              		.align	2
 374              		.set	.LANCHOR1,. + 0
 377              	qback:
 378 0000 00000000 		.space	4
 379              		.section	.bss.qfront,"aw",%nobits
 380              		.align	2
 383              	qfront:
 384 0000 00000000 		.space	4
 385              		.section	.bss.queue,"aw",%nobits
 386              		.align	2
 389              	queue:
 390 0000 00000000 		.space	16384
 390      00000000 
 390      00000000 
 390      00000000 
 390      00000000 
 391              		.section	.bss.recvbuf,"aw",%nobits
 392              		.align	2
 395              	recvbuf:
 396 0000 00000000 		.space	16384
 396      00000000 
 396      00000000 
 396      00000000 
 396      00000000 
 397              		.section	.bss.recvidx,"aw",%nobits
 398              		.align	2
 399              		.set	.LANCHOR0,. + 0
 402              	recvidx:
 403 0000 00000000 		.space	4
 404              		.section	.bss.recvtmp,"aw",%nobits
 405              		.align	2
 408              	recvtmp:
 409 0000 00000000 		.space	16388
 409      00000000 
 409      00000000 
 409      00000000 
 409      00000000 
 410              		.section	.bss.uart_byte_cnt,"aw",%nobits
ARM GAS  /tmp/cc8nKJpl.s 			page 8


 411              		.align	2
 412              		.set	.LANCHOR2,. + 0
 415              	uart_byte_cnt:
 416 0000 00000000 		.space	4
 417              		.section	.bss.uartbuf,"aw",%nobits
 418              		.align	2
 419              		.set	.LANCHOR3,. + 0
 422              	uartbuf:
 423 0000 00000000 		.space	12
 423      00000000 
 423      00000000 
 424              		.ident	"GCC: (Arch Repository) 11.2.0"
ARM GAS  /tmp/cc8nKJpl.s 			page 9


DEFINED SYMBOLS
                            *ABS*:0000000000000000 main.c
     /tmp/cc8nKJpl.s:16     .text.delay_us:0000000000000000 $t
     /tmp/cc8nKJpl.s:25     .text.delay_us:0000000000000000 delay_us
     /tmp/cc8nKJpl.s:41     .text.delay_us:0000000000000010 $d
     /tmp/cc8nKJpl.s:44     .rodata.recv2uart.str1.4:0000000000000000 $d
     /tmp/cc8nKJpl.s:51     .text.recv2uart:0000000000000000 $t
     /tmp/cc8nKJpl.s:59     .text.recv2uart:0000000000000000 recv2uart
     /tmp/cc8nKJpl.s:107    .text.recv2uart:0000000000000064 $d
     /tmp/cc8nKJpl.s:395    .bss.recvbuf:0000000000000000 recvbuf
     /tmp/cc8nKJpl.s:114    .text.data_init:0000000000000000 $t
     /tmp/cc8nKJpl.s:122    .text.data_init:0000000000000000 data_init
     /tmp/cc8nKJpl.s:167    .text.data_init:0000000000000058 $d
     /tmp/cc8nKJpl.s:389    .bss.queue:0000000000000000 queue
     /tmp/cc8nKJpl.s:175    .text.SystemClock_Config:0000000000000000 $t
     /tmp/cc8nKJpl.s:183    .text.SystemClock_Config:0000000000000000 SystemClock_Config
     /tmp/cc8nKJpl.s:258    .text.SystemClock_Config:0000000000000080 $d
     /tmp/cc8nKJpl.s:262    .text.startup.main:0000000000000000 $t
     /tmp/cc8nKJpl.s:270    .text.startup.main:0000000000000000 main
     /tmp/cc8nKJpl.s:332    .text.startup.main:0000000000000098 $d
     /tmp/cc8nKJpl.s:342    .text.Error_Handler:0000000000000000 $t
     /tmp/cc8nKJpl.s:350    .text.Error_Handler:0000000000000000 Error_Handler
     /tmp/cc8nKJpl.s:415    .bss.uart_byte_cnt:0000000000000000 uart_byte_cnt
     /tmp/cc8nKJpl.s:422    .bss.uartbuf:0000000000000000 uartbuf
     /tmp/cc8nKJpl.s:402    .bss.recvidx:0000000000000000 recvidx
     /tmp/cc8nKJpl.s:408    .bss.recvtmp:0000000000000000 recvtmp
     /tmp/cc8nKJpl.s:377    .bss.qback:0000000000000000 qback
     /tmp/cc8nKJpl.s:383    .bss.qfront:0000000000000000 qfront
     /tmp/cc8nKJpl.s:373    .bss.qback:0000000000000000 $d
     /tmp/cc8nKJpl.s:380    .bss.qfront:0000000000000000 $d
     /tmp/cc8nKJpl.s:386    .bss.queue:0000000000000000 $d
     /tmp/cc8nKJpl.s:392    .bss.recvbuf:0000000000000000 $d
     /tmp/cc8nKJpl.s:398    .bss.recvidx:0000000000000000 $d
     /tmp/cc8nKJpl.s:405    .bss.recvtmp:0000000000000000 $d
     /tmp/cc8nKJpl.s:411    .bss.uart_byte_cnt:0000000000000000 $d
     /tmp/cc8nKJpl.s:418    .bss.uartbuf:0000000000000000 $d

UNDEFINED SYMBOLS
htim2
memset
sprintf
HAL_UART_Transmit_IT
huart2
HAL_PWREx_ControlVoltageScaling
HAL_RCC_OscConfig
HAL_RCC_ClockConfig
HAL_Init
MX_GPIO_Init
MX_USART2_UART_Init
MX_DMA_Init
MX_TIM2_Init
MX_ADC3_Init
HAL_Delay
HAL_UART_Receive_IT
HAL_TIM_PWM_Start
HAL_TIM_Base_Start_IT
HAL_ADC_Start_IT
ARM GAS  /tmp/cc8nKJpl.s 			page 10


hadc3
