ARM GAS  /tmp/cck16rmx.s 			page 1


   1              		.cpu cortex-m4
   2              		.eabi_attribute 27, 1
   3              		.eabi_attribute 28, 1
   4              		.eabi_attribute 20, 1
   5              		.eabi_attribute 21, 1
   6              		.eabi_attribute 23, 3
   7              		.eabi_attribute 24, 1
   8              		.eabi_attribute 25, 1
   9              		.eabi_attribute 26, 1
  10              		.eabi_attribute 30, 2
  11              		.eabi_attribute 34, 1
  12              		.eabi_attribute 18, 4
  13              		.file	"main.c"
  14              		.text
  15              		.section	.text.delay_us,"ax",%progbits
  16              		.align	1
  17              		.p2align 2,,3
  18              		.global	delay_us
  19              		.arch armv7e-m
  20              		.syntax unified
  21              		.thumb
  22              		.thumb_func
  23              		.fpu fpv4-sp-d16
  25              	delay_us:
  26              		@ args = 0, pretend = 0, frame = 0
  27              		@ frame_needed = 0, uses_anonymous_args = 0
  28              		@ link register save eliminated.
  29 0000 034B     		ldr	r3, .L5
  30 0002 1A68     		ldr	r2, [r3]
  31 0004 0023     		movs	r3, #0
  32 0006 5362     		str	r3, [r2, #36]
  33              	.L2:
  34 0008 536A     		ldr	r3, [r2, #36]
  35 000a 8342     		cmp	r3, r0
  36 000c FCD3     		bcc	.L2
  37 000e 7047     		bx	lr
  38              	.L6:
  39              		.align	2
  40              	.L5:
  41 0010 00000000 		.word	htim2
  43              		.section	.rodata.recv2uart.str1.4,"aMS",%progbits,1
  44              		.align	2
  45              	.LC0:
  46 0000 20253032 		.ascii	" %02x\000"
  46      7800
  47 0006 0000     		.align	2
  48              	.LC1:
  49 0008 0D0A00   		.ascii	"\015\012\000"
  50              		.section	.text.recv2uart,"ax",%progbits
  51              		.align	1
  52              		.p2align 2,,3
  53              		.global	recv2uart
  54              		.syntax unified
  55              		.thumb
  56              		.thumb_func
  57              		.fpu fpv4-sp-d16
  59              	recv2uart:
ARM GAS  /tmp/cck16rmx.s 			page 2


  60              		@ args = 0, pretend = 0, frame = 1024
  61              		@ frame_needed = 0, uses_anonymous_args = 0
  62 0000 2DE9F041 		push	{r4, r5, r6, r7, r8, lr}
  63 0004 0024     		movs	r4, #0
  64 0006 ADF5806D 		sub	sp, sp, #1024
  65 000a 164F     		ldr	r7, .L13
  66 000c 0094     		str	r4, [sp]
  67 000e 4FF47F72 		mov	r2, #1020
  68 0012 2146     		mov	r1, r4
  69 0014 01A8     		add	r0, sp, #4
  70 0016 FFF7FEFF 		bl	memset
  71 001a 3B68     		ldr	r3, [r7]
  72 001c 03B3     		cbz	r3, .L10
  73 001e 124E     		ldr	r6, .L13+4
  74 0020 DFF85080 		ldr	r8, .L13+16
  75 0024 6D46     		mov	r5, sp
  76              	.L9:
  77 0026 2846     		mov	r0, r5
  78 0028 16F8012B 		ldrb	r2, [r6], #1	@ zero_extendqisi2
  79 002c 4146     		mov	r1, r8
  80 002e FFF7FEFF 		bl	sprintf
  81 0032 3B68     		ldr	r3, [r7]
  82 0034 0134     		adds	r4, r4, #1
  83 0036 A342     		cmp	r3, r4
  84 0038 05F10305 		add	r5, r5, #3
  85 003c F3D8     		bhi	.L9
  86              	.L8:
  87 003e 0B4B     		ldr	r3, .L13+8
  88 0040 0B48     		ldr	r0, .L13+12
  89 0042 1A88     		ldrh	r2, [r3]	@ unaligned
  90 0044 2A80     		strh	r2, [r5]	@ unaligned
  91 0046 9B78     		ldrb	r3, [r3, #2]	@ zero_extendqisi2
  92 0048 AB70     		strb	r3, [r5, #2]
  93 004a 6946     		mov	r1, sp
  94 004c 4FF48062 		mov	r2, #1024
  95 0050 FFF7FEFF 		bl	HAL_UART_Transmit_IT
  96 0054 0023     		movs	r3, #0
  97 0056 3B60     		str	r3, [r7]
  98 0058 0DF5806D 		add	sp, sp, #1024
  99              		@ sp needed
 100 005c BDE8F081 		pop	{r4, r5, r6, r7, r8, pc}
 101              	.L10:
 102 0060 6D46     		mov	r5, sp
 103 0062 ECE7     		b	.L8
 104              	.L14:
 105              		.align	2
 106              	.L13:
 107 0064 00000000 		.word	.LANCHOR0
 108 0068 00000000 		.word	recvbuf
 109 006c 08000000 		.word	.LC1
 110 0070 00000000 		.word	huart2
 111 0074 00000000 		.word	.LC0
 113              		.section	.text.SystemClock_Config,"ax",%progbits
 114              		.align	1
 115              		.p2align 2,,3
 116              		.global	SystemClock_Config
 117              		.syntax unified
ARM GAS  /tmp/cck16rmx.s 			page 3


 118              		.thumb
 119              		.thumb_func
 120              		.fpu fpv4-sp-d16
 122              	SystemClock_Config:
 123              		@ args = 0, pretend = 0, frame = 96
 124              		@ frame_needed = 0, uses_anonymous_args = 0
 125 0000 10B5     		push	{r4, lr}
 126 0002 98B0     		sub	sp, sp, #96
 127 0004 4422     		movs	r2, #68
 128 0006 0021     		movs	r1, #0
 129 0008 06A8     		add	r0, sp, #24
 130 000a FFF7FEFF 		bl	memset
 131 000e 0023     		movs	r3, #0
 132 0010 4FF40070 		mov	r0, #512
 133 0014 CDE90133 		strd	r3, r3, [sp, #4]
 134 0018 CDE90333 		strd	r3, r3, [sp, #12]
 135 001c 0593     		str	r3, [sp, #20]
 136 001e FFF7FEFF 		bl	HAL_PWREx_ControlVoltageScaling
 137 0022 08B1     		cbz	r0, .L16
 138              		.syntax unified
 139              	@ 209 "Drivers/CMSIS/Include/cmsis_gcc.h" 1
 140 0024 72B6     		cpsid i
 141              	@ 0 "" 2
 142              		.thumb
 143              		.syntax unified
 144              	.L17:
 145 0026 FEE7     		b	.L17
 146              	.L16:
 147 0028 9FED157B 		vldr.64	d7, .L23	@ int
 148 002c 4FF48071 		mov	r1, #256
 149 0030 1022     		movs	r2, #16
 150 0032 0223     		movs	r3, #2
 151 0034 CDE90912 		strd	r1, r2, [sp, #36]
 152 0038 06A8     		add	r0, sp, #24
 153 003a 0121     		movs	r1, #1
 154 003c 0A22     		movs	r2, #10
 155 003e CDE91033 		strd	r3, r3, [sp, #64]
 156 0042 0693     		str	r3, [sp, #24]
 157 0044 1693     		str	r3, [sp, #88]
 158 0046 8DED147B 		vstr.64	d7, [sp, #80]	@ int
 159 004a 1291     		str	r1, [sp, #72]
 160 004c 1392     		str	r2, [sp, #76]
 161 004e FFF7FEFF 		bl	HAL_RCC_OscConfig
 162 0052 0346     		mov	r3, r0
 163 0054 08B1     		cbz	r0, .L18
 164              		.syntax unified
 165              	@ 209 "Drivers/CMSIS/Include/cmsis_gcc.h" 1
 166 0056 72B6     		cpsid i
 167              	@ 0 "" 2
 168              		.thumb
 169              		.syntax unified
 170              	.L19:
 171 0058 FEE7     		b	.L19
 172              	.L18:
 173 005a 0421     		movs	r1, #4
 174 005c 0F24     		movs	r4, #15
 175 005e 0322     		movs	r2, #3
ARM GAS  /tmp/cck16rmx.s 			page 4


 176 0060 0DEB0100 		add	r0, sp, r1
 177 0064 CDE90142 		strd	r4, r2, [sp, #4]
 178 0068 CDE90333 		strd	r3, r3, [sp, #12]
 179 006c 0593     		str	r3, [sp, #20]
 180 006e FFF7FEFF 		bl	HAL_RCC_ClockConfig
 181 0072 08B1     		cbz	r0, .L15
 182              		.syntax unified
 183              	@ 209 "Drivers/CMSIS/Include/cmsis_gcc.h" 1
 184 0074 72B6     		cpsid i
 185              	@ 0 "" 2
 186              		.thumb
 187              		.syntax unified
 188              	.L21:
 189 0076 FEE7     		b	.L21
 190              	.L15:
 191 0078 18B0     		add	sp, sp, #96
 192              		@ sp needed
 193 007a 10BD     		pop	{r4, pc}
 194              	.L24:
 195 007c AFF30080 		.align	3
 196              	.L23:
 197 0080 07000000 		.word	7
 198 0084 02000000 		.word	2
 200              		.section	.rodata.main.str1.4,"aMS",%progbits,1
 201              		.align	2
 202              	.LC2:
 203 0000 68656C6C 		.ascii	"hello\015\012\000"
 203      6F0D0A00 
 204              		.section	.text.startup.main,"ax",%progbits
 205              		.align	1
 206              		.p2align 2,,3
 207              		.global	main
 208              		.syntax unified
 209              		.thumb
 210              		.thumb_func
 211              		.fpu fpv4-sp-d16
 213              	main:
 214              		@ args = 0, pretend = 0, frame = 0
 215              		@ frame_needed = 0, uses_anonymous_args = 0
 216 0000 F8B5     		push	{r3, r4, r5, r6, r7, lr}
 217 0002 4FF09044 		mov	r4, #1207959552
 218 0006 FFF7FEFF 		bl	HAL_Init
 219 000a FFF7FEFF 		bl	SystemClock_Config
 220 000e FFF7FEFF 		bl	MX_GPIO_Init
 221 0012 FFF7FEFF 		bl	MX_USART2_UART_Init
 222 0016 FFF7FEFF 		bl	MX_DMA_Init
 223 001a FFF7FEFF 		bl	MX_TIM2_Init
 224 001e FFF7FEFF 		bl	MX_ADC3_Init
 225 0022 6369     		ldr	r3, [r4, #20]
 226 0024 2349     		ldr	r1, .L30
 227 0026 2448     		ldr	r0, .L30+4
 228 0028 244E     		ldr	r6, .L30+8
 229 002a 254F     		ldr	r7, .L30+12
 230 002c 43F48063 		orr	r3, r3, #1024
 231 0030 6361     		str	r3, [r4, #20]
 232 0032 0822     		movs	r2, #8
 233 0034 FFF7FEFF 		bl	HAL_UART_Transmit_IT
ARM GAS  /tmp/cck16rmx.s 			page 5


 234 0038 224B     		ldr	r3, .L30+16
 235 003a 2349     		ldr	r1, .L30+20
 236 003c 234A     		ldr	r2, .L30+24
 237 003e 1A60     		str	r2, [r3]
 238 0040 0420     		movs	r0, #4
 239 0042 0860     		str	r0, [r1]
 240 0044 FFF7FEFF 		bl	recv2uart
 241 0048 4FF4FA60 		mov	r0, #2000
 242 004c FFF7FEFF 		bl	HAL_Delay
 243 0050 3568     		ldr	r5, [r6]
 244 0052 DFF890C0 		ldr	ip, .L30+48
 245 0056 1E4A     		ldr	r2, .L30+28
 246 0058 1E49     		ldr	r1, .L30+32
 247 005a 1F4C     		ldr	r4, .L30+36
 248 005c 7B19     		adds	r3, r7, r5
 249 005e 03F5904E 		add	lr, r3, #18432
 250 0062 0020     		movs	r0, #0
 251              	.L26:
 252 0064 C3F800C0 		str	ip, [r3]	@ unaligned
 253 0068 5A60     		str	r2, [r3, #4]	@ unaligned
 254 006a 9960     		str	r1, [r3, #8]	@ unaligned
 255 006c DA60     		str	r2, [r3, #12]	@ unaligned
 256 006e 1961     		str	r1, [r3, #16]	@ unaligned
 257 0070 5A61     		str	r2, [r3, #20]	@ unaligned
 258 0072 9961     		str	r1, [r3, #24]	@ unaligned
 259 0074 DA61     		str	r2, [r3, #28]	@ unaligned
 260 0076 1962     		str	r1, [r3, #32]	@ unaligned
 261 0078 5A62     		str	r2, [r3, #36]	@ unaligned
 262 007a 9962     		str	r1, [r3, #40]	@ unaligned
 263 007c DA62     		str	r2, [r3, #44]	@ unaligned
 264 007e 1963     		str	r1, [r3, #48]	@ unaligned
 265 0080 5A63     		str	r2, [r3, #52]	@ unaligned
 266 0082 9963     		str	r1, [r3, #56]	@ unaligned
 267 0084 DA63     		str	r2, [r3, #60]	@ unaligned
 268 0086 1C64     		str	r4, [r3, #64]	@ unaligned
 269 0088 5864     		str	r0, [r3, #68]	@ unaligned
 270 008a 4833     		adds	r3, r3, #72
 271 008c 7345     		cmp	r3, lr
 272 008e E9D1     		bne	.L26
 273 0090 05F59043 		add	r3, r5, #18432
 274 0094 1D46     		mov	r5, r3
 275 0096 0021     		movs	r1, #0
 276 0098 0233     		adds	r3, r3, #2
 277 009a 7853     		strh	r0, [r7, r5]	@ unaligned
 278 009c 0F48     		ldr	r0, .L30+40
 279 009e 3360     		str	r3, [r6]
 280 00a0 FFF7FEFF 		bl	HAL_TIM_PWM_Start
 281 00a4 0D48     		ldr	r0, .L30+40
 282 00a6 0E4C     		ldr	r4, .L30+44
 283 00a8 FFF7FEFF 		bl	HAL_TIM_Base_Start_IT
 284              	.L27:
 285 00ac 2046     		mov	r0, r4
 286 00ae FFF7FEFF 		bl	HAL_ADC_Start_IT
 287 00b2 FBE7     		b	.L27
 288              	.L31:
 289              		.align	2
 290              	.L30:
ARM GAS  /tmp/cck16rmx.s 			page 6


 291 00b4 00000000 		.word	.LC2
 292 00b8 00000000 		.word	huart2
 293 00bc 00000000 		.word	.LANCHOR1
 294 00c0 00000000 		.word	queue
 295 00c4 00000000 		.word	recvbuf
 296 00c8 00000000 		.word	.LANCHOR0
 297 00cc 12345678 		.word	2018915346
 298 00d0 456789AB 		.word	-1417058491
 299 00d4 CDEF0123 		.word	587329485
 300 00d8 CDEFF7E9 		.word	-369627187
 301 00dc 00000000 		.word	htim2
 302 00e0 00000000 		.word	hadc3
 303 00e4 3F7D0123 		.word	587300159
 305              		.section	.text.Error_Handler,"ax",%progbits
 306              		.align	1
 307              		.p2align 2,,3
 308              		.global	Error_Handler
 309              		.syntax unified
 310              		.thumb
 311              		.thumb_func
 312              		.fpu fpv4-sp-d16
 314              	Error_Handler:
 315              		@ Volatile: function does not return.
 316              		@ args = 0, pretend = 0, frame = 0
 317              		@ frame_needed = 0, uses_anonymous_args = 0
 318              		@ link register save eliminated.
 319              		.syntax unified
 320              	@ 209 "Drivers/CMSIS/Include/cmsis_gcc.h" 1
 321 0000 72B6     		cpsid i
 322              	@ 0 "" 2
 323              		.thumb
 324              		.syntax unified
 325              	.L33:
 326 0002 FEE7     		b	.L33
 328              		.global	recvidx
 329              		.global	recvtmp
 330              		.global	recvbuf
 331              		.global	qback
 332              		.global	qfront
 333              		.global	queue
 334              		.section	.bss.qback,"aw",%nobits
 335              		.align	2
 336              		.set	.LANCHOR1,. + 0
 339              	qback:
 340 0000 00000000 		.space	4
 341              		.section	.bss.qfront,"aw",%nobits
 342              		.align	2
 345              	qfront:
 346 0000 00000000 		.space	4
 347              		.section	.bss.queue,"aw",%nobits
 348              		.align	2
 351              	queue:
 352 0000 00000000 		.space	16384
 352      00000000 
 352      00000000 
 352      00000000 
 352      00000000 
ARM GAS  /tmp/cck16rmx.s 			page 7


 353              		.section	.bss.recvbuf,"aw",%nobits
 354              		.align	2
 357              	recvbuf:
 358 0000 00000000 		.space	16384
 358      00000000 
 358      00000000 
 358      00000000 
 358      00000000 
 359              		.section	.bss.recvidx,"aw",%nobits
 360              		.align	2
 361              		.set	.LANCHOR0,. + 0
 364              	recvidx:
 365 0000 00000000 		.space	4
 366              		.section	.bss.recvtmp,"aw",%nobits
 367              		.align	2
 370              	recvtmp:
 371 0000 00000000 		.space	16388
 371      00000000 
 371      00000000 
 371      00000000 
 371      00000000 
 372              		.ident	"GCC: (Arch Repository) 11.2.0"
ARM GAS  /tmp/cck16rmx.s 			page 8


DEFINED SYMBOLS
                            *ABS*:0000000000000000 main.c
     /tmp/cck16rmx.s:16     .text.delay_us:0000000000000000 $t
     /tmp/cck16rmx.s:25     .text.delay_us:0000000000000000 delay_us
     /tmp/cck16rmx.s:41     .text.delay_us:0000000000000010 $d
     /tmp/cck16rmx.s:44     .rodata.recv2uart.str1.4:0000000000000000 $d
     /tmp/cck16rmx.s:51     .text.recv2uart:0000000000000000 $t
     /tmp/cck16rmx.s:59     .text.recv2uart:0000000000000000 recv2uart
     /tmp/cck16rmx.s:107    .text.recv2uart:0000000000000064 $d
     /tmp/cck16rmx.s:357    .bss.recvbuf:0000000000000000 recvbuf
     /tmp/cck16rmx.s:114    .text.SystemClock_Config:0000000000000000 $t
     /tmp/cck16rmx.s:122    .text.SystemClock_Config:0000000000000000 SystemClock_Config
     /tmp/cck16rmx.s:197    .text.SystemClock_Config:0000000000000080 $d
     /tmp/cck16rmx.s:201    .rodata.main.str1.4:0000000000000000 $d
     /tmp/cck16rmx.s:205    .text.startup.main:0000000000000000 $t
     /tmp/cck16rmx.s:213    .text.startup.main:0000000000000000 main
     /tmp/cck16rmx.s:291    .text.startup.main:00000000000000b4 $d
     /tmp/cck16rmx.s:351    .bss.queue:0000000000000000 queue
     /tmp/cck16rmx.s:306    .text.Error_Handler:0000000000000000 $t
     /tmp/cck16rmx.s:314    .text.Error_Handler:0000000000000000 Error_Handler
     /tmp/cck16rmx.s:364    .bss.recvidx:0000000000000000 recvidx
     /tmp/cck16rmx.s:370    .bss.recvtmp:0000000000000000 recvtmp
     /tmp/cck16rmx.s:339    .bss.qback:0000000000000000 qback
     /tmp/cck16rmx.s:345    .bss.qfront:0000000000000000 qfront
     /tmp/cck16rmx.s:335    .bss.qback:0000000000000000 $d
     /tmp/cck16rmx.s:342    .bss.qfront:0000000000000000 $d
     /tmp/cck16rmx.s:348    .bss.queue:0000000000000000 $d
     /tmp/cck16rmx.s:354    .bss.recvbuf:0000000000000000 $d
     /tmp/cck16rmx.s:360    .bss.recvidx:0000000000000000 $d
     /tmp/cck16rmx.s:367    .bss.recvtmp:0000000000000000 $d

UNDEFINED SYMBOLS
htim2
memset
sprintf
HAL_UART_Transmit_IT
huart2
HAL_PWREx_ControlVoltageScaling
HAL_RCC_OscConfig
HAL_RCC_ClockConfig
HAL_Init
MX_GPIO_Init
MX_USART2_UART_Init
MX_DMA_Init
MX_TIM2_Init
MX_ADC3_Init
HAL_Delay
HAL_TIM_PWM_Start
HAL_TIM_Base_Start_IT
HAL_ADC_Start_IT
hadc3
