ARM GAS  /tmp/cckqjdOK.s 			page 1


   1              		.cpu cortex-m4
   2              		.eabi_attribute 27, 1
   3              		.eabi_attribute 28, 1
   4              		.eabi_attribute 20, 1
   5              		.eabi_attribute 21, 1
   6              		.eabi_attribute 23, 3
   7              		.eabi_attribute 24, 1
   8              		.eabi_attribute 25, 1
   9              		.eabi_attribute 26, 1
  10              		.eabi_attribute 30, 2
  11              		.eabi_attribute 34, 1
  12              		.eabi_attribute 18, 4
  13              		.file	"stm32l4xx_hal_gpio.c"
  14              		.text
  15              		.section	.text.HAL_GPIO_Init,"ax",%progbits
  16              		.align	1
  17              		.p2align 2,,3
  18              		.global	HAL_GPIO_Init
  19              		.arch armv7e-m
  20              		.syntax unified
  21              		.thumb
  22              		.thumb_func
  23              		.fpu fpv4-sp-d16
  25              	HAL_GPIO_Init:
  26              		@ args = 0, pretend = 0, frame = 16
  27              		@ frame_needed = 0, uses_anonymous_args = 0
  28 0000 2DE9F04F 		push	{r4, r5, r6, r7, r8, r9, r10, fp, lr}
  29 0004 0C68     		ldr	r4, [r1]
  30 0006 85B0     		sub	sp, sp, #20
  31 0008 002C     		cmp	r4, #0
  32 000a 00F08A80 		beq	.L1
  33 000e DFF8D0A1 		ldr	r10, .L43+28
  34 0012 0023     		movs	r3, #0
  35 0014 4FF0010B 		mov	fp, #1
  36 0018 8846     		mov	r8, r1
  37              	.L2:
  38 001a 0BFA03FC 		lsl	ip, fp, r3
  39 001e 1CEA0409 		ands	r9, ip, r4
  40 0022 79D0     		beq	.L4
  41 0024 D8F80450 		ldr	r5, [r8, #4]
  42 0028 05F00302 		and	r2, r5, #3
  43 002c 5E00     		lsls	r6, r3, #1
  44 002e 0321     		movs	r1, #3
  45 0030 571E     		subs	r7, r2, #1
  46 0032 B140     		lsls	r1, r1, r6
  47 0034 012F     		cmp	r7, #1
  48 0036 6FEA0101 		mvn	r1, r1
  49 003a 75D9     		bls	.L37
  50 003c 032A     		cmp	r2, #3
  51 003e 40F08580 		bne	.L6
  52 0042 C76A     		ldr	r7, [r0, #44]
  53 0044 27EA0C0C 		bic	ip, r7, ip
  54 0048 C5F3C007 		ubfx	r7, r5, #3, #1
  55 004c 9F40     		lsls	r7, r7, r3
  56 004e 47EA0C07 		orr	r7, r7, ip
  57 0052 C762     		str	r7, [r0, #44]
  58              	.L9:
ARM GAS  /tmp/cckqjdOK.s 			page 2


  59 0054 B240     		lsls	r2, r2, r6
  60 0056 0668     		ldr	r6, [r0]
  61 0058 3140     		ands	r1, r1, r6
  62 005a 0A43     		orrs	r2, r2, r1
  63 005c 15F4403F 		tst	r5, #196608
  64 0060 0260     		str	r2, [r0]
  65 0062 59D0     		beq	.L4
  66 0064 5749     		ldr	r1, .L43
  67 0066 0A6E     		ldr	r2, [r1, #96]
  68 0068 42F00102 		orr	r2, r2, #1
  69 006c 0A66     		str	r2, [r1, #96]
  70 006e 0A6E     		ldr	r2, [r1, #96]
  71 0070 02F00102 		and	r2, r2, #1
  72 0074 0392     		str	r2, [sp, #12]
  73 0076 039A     		ldr	r2, [sp, #12]
  74 0078 23F00302 		bic	r2, r3, #3
  75 007c 02F18042 		add	r2, r2, #1073741824
  76 0080 02F58032 		add	r2, r2, #65536
  77 0084 03F00307 		and	r7, r3, #3
  78 0088 9168     		ldr	r1, [r2, #8]
  79 008a BF00     		lsls	r7, r7, #2
  80 008c 0F26     		movs	r6, #15
  81 008e BE40     		lsls	r6, r6, r7
  82 0090 B0F1904F 		cmp	r0, #1207959552
  83 0094 21EA0601 		bic	r1, r1, r6
  84 0098 17D0     		beq	.L11
  85 009a 4B4E     		ldr	r6, .L43+4
  86 009c B042     		cmp	r0, r6
  87 009e 00F08180 		beq	.L38
  88 00a2 4A4E     		ldr	r6, .L43+8
  89 00a4 B042     		cmp	r0, r6
  90 00a6 00F08180 		beq	.L39
  91 00aa 494E     		ldr	r6, .L43+12
  92 00ac B042     		cmp	r0, r6
  93 00ae 75D0     		beq	.L40
  94 00b0 484E     		ldr	r6, .L43+16
  95 00b2 B042     		cmp	r0, r6
  96 00b4 7ED0     		beq	.L41
  97 00b6 484E     		ldr	r6, .L43+20
  98 00b8 B042     		cmp	r0, r6
  99 00ba 7FD0     		beq	.L42
 100 00bc 474E     		ldr	r6, .L43+24
 101 00be B042     		cmp	r0, r6
 102 00c0 0CBF     		ite	eq
 103 00c2 0626     		moveq	r6, #6
 104 00c4 0726     		movne	r6, #7
 105 00c6 BE40     		lsls	r6, r6, r7
 106 00c8 3143     		orrs	r1, r1, r6
 107              	.L11:
 108 00ca 9160     		str	r1, [r2, #8]
 109 00cc DAF80820 		ldr	r2, [r10, #8]
 110 00d0 6FEA0901 		mvn	r1, r9
 111 00d4 EE02     		lsls	r6, r5, #11
 112 00d6 54BF     		ite	pl
 113 00d8 0A40     		andpl	r2, r2, r1
 114 00da 49EA0202 		orrmi	r2, r9, r2
 115 00de CAF80820 		str	r2, [r10, #8]
ARM GAS  /tmp/cckqjdOK.s 			page 3


 116 00e2 DAF80C20 		ldr	r2, [r10, #12]
 117 00e6 AF02     		lsls	r7, r5, #10
 118 00e8 54BF     		ite	pl
 119 00ea 0A40     		andpl	r2, r2, r1
 120 00ec 49EA0202 		orrmi	r2, r9, r2
 121 00f0 CAF80C20 		str	r2, [r10, #12]
 122 00f4 DAF80420 		ldr	r2, [r10, #4]
 123 00f8 AE03     		lsls	r6, r5, #14
 124 00fa 54BF     		ite	pl
 125 00fc 0A40     		andpl	r2, r2, r1
 126 00fe 49EA0202 		orrmi	r2, r9, r2
 127 0102 CAF80420 		str	r2, [r10, #4]
 128 0106 DAF80020 		ldr	r2, [r10]
 129 010a ED03     		lsls	r5, r5, #15
 130 010c 54BF     		ite	pl
 131 010e 0A40     		andpl	r2, r2, r1
 132 0110 49EA0202 		orrmi	r2, r9, r2
 133 0114 CAF80020 		str	r2, [r10]
 134              	.L4:
 135 0118 0133     		adds	r3, r3, #1
 136 011a 34FA03F2 		lsrs	r2, r4, r3
 137 011e 7FF47CAF 		bne	.L2
 138              	.L1:
 139 0122 05B0     		add	sp, sp, #20
 140              		@ sp needed
 141 0124 BDE8F08F 		pop	{r4, r5, r6, r7, r8, r9, r10, fp, pc}
 142              	.L37:
 143 0128 8768     		ldr	r7, [r0, #8]
 144 012a 07EA010E 		and	lr, r7, r1
 145 012e D8F80C70 		ldr	r7, [r8, #12]
 146 0132 B740     		lsls	r7, r7, r6
 147 0134 47EA0E07 		orr	r7, r7, lr
 148 0138 8760     		str	r7, [r0, #8]
 149 013a 4768     		ldr	r7, [r0, #4]
 150 013c 27EA0C0C 		bic	ip, r7, ip
 151 0140 C5F30017 		ubfx	r7, r5, #4, #1
 152 0144 9F40     		lsls	r7, r7, r3
 153 0146 47EA0C07 		orr	r7, r7, ip
 154 014a 4760     		str	r7, [r0, #4]
 155              	.L6:
 156 014c C768     		ldr	r7, [r0, #12]
 157 014e 07EA010C 		and	ip, r7, r1
 158 0152 D8F80870 		ldr	r7, [r8, #8]
 159 0156 B740     		lsls	r7, r7, r6
 160 0158 47EA0C07 		orr	r7, r7, ip
 161 015c 022A     		cmp	r2, #2
 162 015e C760     		str	r7, [r0, #12]
 163 0160 7FF478AF 		bne	.L9
 164 0164 4FEAD30C 		lsr	ip, r3, #3
 165 0168 00EB8C0C 		add	ip, r0, ip, lsl #2
 166 016c 03F0070E 		and	lr, r3, #7
 167 0170 DCF82070 		ldr	r7, [ip, #32]
 168 0174 0097     		str	r7, [sp]
 169 0176 D8F81070 		ldr	r7, [r8, #16]
 170 017a 4FEA8E0E 		lsl	lr, lr, #2
 171 017e 07FA0EF7 		lsl	r7, r7, lr
 172 0182 0197     		str	r7, [sp, #4]
ARM GAS  /tmp/cckqjdOK.s 			page 4


 173 0184 0F27     		movs	r7, #15
 174 0186 07FA0EFE 		lsl	lr, r7, lr
 175 018a 009F     		ldr	r7, [sp]
 176 018c 27EA0E0E 		bic	lr, r7, lr
 177 0190 019F     		ldr	r7, [sp, #4]
 178 0192 47EA0E07 		orr	r7, r7, lr
 179 0196 CCF82070 		str	r7, [ip, #32]
 180 019a 5BE7     		b	.L9
 181              	.L40:
 182 019c 0326     		movs	r6, #3
 183 019e BE40     		lsls	r6, r6, r7
 184 01a0 3143     		orrs	r1, r1, r6
 185 01a2 92E7     		b	.L11
 186              	.L38:
 187 01a4 0BFA07F7 		lsl	r7, fp, r7
 188 01a8 3943     		orrs	r1, r1, r7
 189 01aa 8EE7     		b	.L11
 190              	.L39:
 191 01ac 0226     		movs	r6, #2
 192 01ae BE40     		lsls	r6, r6, r7
 193 01b0 3143     		orrs	r1, r1, r6
 194 01b2 8AE7     		b	.L11
 195              	.L41:
 196 01b4 0426     		movs	r6, #4
 197 01b6 BE40     		lsls	r6, r6, r7
 198 01b8 3143     		orrs	r1, r1, r6
 199 01ba 86E7     		b	.L11
 200              	.L42:
 201 01bc 0526     		movs	r6, #5
 202 01be BE40     		lsls	r6, r6, r7
 203 01c0 3143     		orrs	r1, r1, r6
 204 01c2 82E7     		b	.L11
 205              	.L44:
 206              		.align	2
 207              	.L43:
 208 01c4 00100240 		.word	1073876992
 209 01c8 00040048 		.word	1207960576
 210 01cc 00080048 		.word	1207961600
 211 01d0 000C0048 		.word	1207962624
 212 01d4 00100048 		.word	1207963648
 213 01d8 00140048 		.word	1207964672
 214 01dc 00180048 		.word	1207965696
 215 01e0 00040140 		.word	1073808384
 217              		.section	.text.HAL_GPIO_DeInit,"ax",%progbits
 218              		.align	1
 219              		.p2align 2,,3
 220              		.global	HAL_GPIO_DeInit
 221              		.syntax unified
 222              		.thumb
 223              		.thumb_func
 224              		.fpu fpv4-sp-d16
 226              	HAL_GPIO_DeInit:
 227              		@ args = 0, pretend = 0, frame = 0
 228              		@ frame_needed = 0, uses_anonymous_args = 0
 229 0000 0029     		cmp	r1, #0
 230 0002 00F09380 		beq	.L64
 231 0006 2DE9F04F 		push	{r4, r5, r6, r7, r8, r9, r10, fp, lr}
ARM GAS  /tmp/cckqjdOK.s 			page 5


 232 000a 494E     		ldr	r6, .L72
 233 000c DFF838A1 		ldr	r10, .L72+24
 234 0010 0023     		movs	r3, #0
 235 0012 4FF00F09 		mov	r9, #15
 236              	.L46:
 237 0016 0122     		movs	r2, #1
 238 0018 9A40     		lsls	r2, r2, r3
 239 001a 12EA010E 		ands	lr, r2, r1
 240 001e 67D0     		beq	.L47
 241 0020 23F00305 		bic	r5, r3, #3
 242 0024 05F18045 		add	r5, r5, #1073741824
 243 0028 05F58035 		add	r5, r5, #65536
 244 002c 03F00304 		and	r4, r3, #3
 245 0030 D5F808C0 		ldr	ip, [r5, #8]
 246 0034 A400     		lsls	r4, r4, #2
 247 0036 09FA04F8 		lsl	r8, r9, r4
 248 003a B0F1904F 		cmp	r0, #1207959552
 249 003e 08EA0C0C 		and	ip, r8, ip
 250 0042 17D0     		beq	.L58
 251 0044 5045     		cmp	r0, r10
 252 0046 59D0     		beq	.L67
 253 0048 3A4F     		ldr	r7, .L72+4
 254 004a B842     		cmp	r0, r7
 255 004c 5AD0     		beq	.L68
 256 004e 3A4F     		ldr	r7, .L72+8
 257 0050 B842     		cmp	r0, r7
 258 0052 61D0     		beq	.L69
 259 0054 394F     		ldr	r7, .L72+12
 260 0056 B842     		cmp	r0, r7
 261 0058 63D0     		beq	.L70
 262 005a 394F     		ldr	r7, .L72+16
 263 005c B842     		cmp	r0, r7
 264 005e 56D0     		beq	.L71
 265 0060 384F     		ldr	r7, .L72+20
 266 0062 B842     		cmp	r0, r7
 267 0064 14BF     		ite	ne
 268 0066 4FF0070B 		movne	fp, #7
 269 006a 4FF0060B 		moveq	fp, #6
 270 006e 0BFA04F4 		lsl	r4, fp, r4
 271 0072 00E0     		b	.L48
 272              	.L58:
 273 0074 0024     		movs	r4, #0
 274              	.L48:
 275 0076 A445     		cmp	ip, r4
 276 0078 13D1     		bne	.L55
 277 007a 3468     		ldr	r4, [r6]
 278 007c 24EA0E04 		bic	r4, r4, lr
 279 0080 3460     		str	r4, [r6]
 280 0082 7468     		ldr	r4, [r6, #4]
 281 0084 24EA0E04 		bic	r4, r4, lr
 282 0088 7460     		str	r4, [r6, #4]
 283 008a F468     		ldr	r4, [r6, #12]
 284 008c 24EA0E04 		bic	r4, r4, lr
 285 0090 F460     		str	r4, [r6, #12]
 286 0092 B468     		ldr	r4, [r6, #8]
 287 0094 24EA0E04 		bic	r4, r4, lr
 288 0098 B460     		str	r4, [r6, #8]
ARM GAS  /tmp/cckqjdOK.s 			page 6


 289 009a AC68     		ldr	r4, [r5, #8]
 290 009c 24EA0804 		bic	r4, r4, r8
 291 00a0 AC60     		str	r4, [r5, #8]
 292              	.L55:
 293 00a2 0468     		ldr	r4, [r0]
 294 00a4 4FEA430C 		lsl	ip, r3, #1
 295 00a8 0325     		movs	r5, #3
 296 00aa 05FA0CF5 		lsl	r5, r5, ip
 297 00ae 4FEAD30C 		lsr	ip, r3, #3
 298 00b2 2C43     		orrs	r4, r4, r5
 299 00b4 00EB8C0C 		add	ip, r0, ip, lsl #2
 300 00b8 0460     		str	r4, [r0]
 301 00ba 03F00704 		and	r4, r3, #7
 302 00be DCF820E0 		ldr	lr, [ip, #32]
 303 00c2 A400     		lsls	r4, r4, #2
 304 00c4 09FA04F4 		lsl	r4, r9, r4
 305 00c8 2EEA0404 		bic	r4, lr, r4
 306 00cc CCF82040 		str	r4, [ip, #32]
 307 00d0 8468     		ldr	r4, [r0, #8]
 308 00d2 24EA0504 		bic	r4, r4, r5
 309 00d6 8460     		str	r4, [r0, #8]
 310 00d8 4468     		ldr	r4, [r0, #4]
 311 00da 24EA0204 		bic	r4, r4, r2
 312 00de 4460     		str	r4, [r0, #4]
 313 00e0 C468     		ldr	r4, [r0, #12]
 314 00e2 24EA0504 		bic	r4, r4, r5
 315 00e6 C460     		str	r4, [r0, #12]
 316 00e8 C46A     		ldr	r4, [r0, #44]
 317 00ea 24EA0202 		bic	r2, r4, r2
 318 00ee C262     		str	r2, [r0, #44]
 319              	.L47:
 320 00f0 0133     		adds	r3, r3, #1
 321 00f2 31FA03F2 		lsrs	r2, r1, r3
 322 00f6 8ED1     		bne	.L46
 323 00f8 BDE8F08F 		pop	{r4, r5, r6, r7, r8, r9, r10, fp, pc}
 324              	.L67:
 325 00fc 0127     		movs	r7, #1
 326 00fe 07FA04F4 		lsl	r4, r7, r4
 327 0102 B8E7     		b	.L48
 328              	.L68:
 329 0104 4FF0020B 		mov	fp, #2
 330 0108 0BFA04F4 		lsl	r4, fp, r4
 331 010c B3E7     		b	.L48
 332              	.L71:
 333 010e 4FF0050B 		mov	fp, #5
 334 0112 0BFA04F4 		lsl	r4, fp, r4
 335 0116 AEE7     		b	.L48
 336              	.L69:
 337 0118 4FF0030B 		mov	fp, #3
 338 011c 0BFA04F4 		lsl	r4, fp, r4
 339 0120 A9E7     		b	.L48
 340              	.L70:
 341 0122 4FF0040B 		mov	fp, #4
 342 0126 0BFA04F4 		lsl	r4, fp, r4
 343 012a A4E7     		b	.L48
 344              	.L64:
 345 012c 7047     		bx	lr
ARM GAS  /tmp/cckqjdOK.s 			page 7


 346              	.L73:
 347 012e 00BF     		.align	2
 348              	.L72:
 349 0130 00040140 		.word	1073808384
 350 0134 00080048 		.word	1207961600
 351 0138 000C0048 		.word	1207962624
 352 013c 00100048 		.word	1207963648
 353 0140 00140048 		.word	1207964672
 354 0144 00180048 		.word	1207965696
 355 0148 00040048 		.word	1207960576
 357              		.section	.text.HAL_GPIO_ReadPin,"ax",%progbits
 358              		.align	1
 359              		.p2align 2,,3
 360              		.global	HAL_GPIO_ReadPin
 361              		.syntax unified
 362              		.thumb
 363              		.thumb_func
 364              		.fpu fpv4-sp-d16
 366              	HAL_GPIO_ReadPin:
 367              		@ args = 0, pretend = 0, frame = 0
 368              		@ frame_needed = 0, uses_anonymous_args = 0
 369              		@ link register save eliminated.
 370 0000 0369     		ldr	r3, [r0, #16]
 371 0002 1942     		tst	r1, r3
 372 0004 14BF     		ite	ne
 373 0006 0120     		movne	r0, #1
 374 0008 0020     		moveq	r0, #0
 375 000a 7047     		bx	lr
 377              		.section	.text.HAL_GPIO_WritePin,"ax",%progbits
 378              		.align	1
 379              		.p2align 2,,3
 380              		.global	HAL_GPIO_WritePin
 381              		.syntax unified
 382              		.thumb
 383              		.thumb_func
 384              		.fpu fpv4-sp-d16
 386              	HAL_GPIO_WritePin:
 387              		@ args = 0, pretend = 0, frame = 0
 388              		@ frame_needed = 0, uses_anonymous_args = 0
 389              		@ link register save eliminated.
 390 0000 0AB1     		cbz	r2, .L76
 391 0002 8161     		str	r1, [r0, #24]
 392 0004 7047     		bx	lr
 393              	.L76:
 394 0006 8162     		str	r1, [r0, #40]
 395 0008 7047     		bx	lr
 397 000a 00BF     		.section	.text.HAL_GPIO_TogglePin,"ax",%progbits
 398              		.align	1
 399              		.p2align 2,,3
 400              		.global	HAL_GPIO_TogglePin
 401              		.syntax unified
 402              		.thumb
 403              		.thumb_func
 404              		.fpu fpv4-sp-d16
 406              	HAL_GPIO_TogglePin:
 407              		@ args = 0, pretend = 0, frame = 0
 408              		@ frame_needed = 0, uses_anonymous_args = 0
ARM GAS  /tmp/cckqjdOK.s 			page 8


 409              		@ link register save eliminated.
 410 0000 4369     		ldr	r3, [r0, #20]
 411 0002 01EA0302 		and	r2, r1, r3
 412 0006 21EA0301 		bic	r1, r1, r3
 413 000a 41EA0241 		orr	r1, r1, r2, lsl #16
 414 000e 8161     		str	r1, [r0, #24]
 415 0010 7047     		bx	lr
 417 0012 00BF     		.section	.text.HAL_GPIO_LockPin,"ax",%progbits
 418              		.align	1
 419              		.p2align 2,,3
 420              		.global	HAL_GPIO_LockPin
 421              		.syntax unified
 422              		.thumb
 423              		.thumb_func
 424              		.fpu fpv4-sp-d16
 426              	HAL_GPIO_LockPin:
 427              		@ args = 0, pretend = 0, frame = 8
 428              		@ frame_needed = 0, uses_anonymous_args = 0
 429              		@ link register save eliminated.
 430 0000 82B0     		sub	sp, sp, #8
 431 0002 4FF48033 		mov	r3, #65536
 432 0006 0193     		str	r3, [sp, #4]
 433 0008 019B     		ldr	r3, [sp, #4]
 434 000a 0B43     		orrs	r3, r3, r1
 435 000c 0193     		str	r3, [sp, #4]
 436 000e 019B     		ldr	r3, [sp, #4]
 437 0010 C361     		str	r3, [r0, #28]
 438 0012 C161     		str	r1, [r0, #28]
 439 0014 019B     		ldr	r3, [sp, #4]
 440 0016 C361     		str	r3, [r0, #28]
 441 0018 C369     		ldr	r3, [r0, #28]
 442 001a 0193     		str	r3, [sp, #4]
 443 001c C069     		ldr	r0, [r0, #28]
 444 001e 80F48030 		eor	r0, r0, #65536
 445 0022 C0F30040 		ubfx	r0, r0, #16, #1
 446 0026 02B0     		add	sp, sp, #8
 447              		@ sp needed
 448 0028 7047     		bx	lr
 450 002a 00BF     		.section	.text.HAL_GPIO_EXTI_Callback,"ax",%progbits
 451              		.align	1
 452              		.p2align 2,,3
 453              		.weak	HAL_GPIO_EXTI_Callback
 454              		.syntax unified
 455              		.thumb
 456              		.thumb_func
 457              		.fpu fpv4-sp-d16
 459              	HAL_GPIO_EXTI_Callback:
 460              		@ args = 0, pretend = 0, frame = 0
 461              		@ frame_needed = 0, uses_anonymous_args = 0
 462              		@ link register save eliminated.
 463 0000 7047     		bx	lr
 465 0002 00BF     		.section	.text.HAL_GPIO_EXTI_IRQHandler,"ax",%progbits
 466              		.align	1
 467              		.p2align 2,,3
 468              		.global	HAL_GPIO_EXTI_IRQHandler
 469              		.syntax unified
 470              		.thumb
ARM GAS  /tmp/cckqjdOK.s 			page 9


 471              		.thumb_func
 472              		.fpu fpv4-sp-d16
 474              	HAL_GPIO_EXTI_IRQHandler:
 475              		@ args = 0, pretend = 0, frame = 0
 476              		@ frame_needed = 0, uses_anonymous_args = 0
 477 0000 044A     		ldr	r2, .L92
 478 0002 5169     		ldr	r1, [r2, #20]
 479 0004 0142     		tst	r1, r0
 480 0006 00D1     		bne	.L91
 481 0008 7047     		bx	lr
 482              	.L91:
 483 000a 08B5     		push	{r3, lr}
 484 000c 5061     		str	r0, [r2, #20]
 485 000e FFF7FEFF 		bl	HAL_GPIO_EXTI_Callback
 486 0012 08BD     		pop	{r3, pc}
 487              	.L93:
 488              		.align	2
 489              	.L92:
 490 0014 00040140 		.word	1073808384
 492              		.ident	"GCC: (Arch Repository) 11.2.0"
ARM GAS  /tmp/cckqjdOK.s 			page 10

