ARM GAS  /tmp/ccoSsvAJ.s 			page 1


   1              		.cpu cortex-m4
   2              		.eabi_attribute 27, 1
   3              		.eabi_attribute 28, 1
   4              		.eabi_attribute 20, 1
   5              		.eabi_attribute 21, 1
   6              		.eabi_attribute 23, 3
   7              		.eabi_attribute 24, 1
   8              		.eabi_attribute 25, 1
   9              		.eabi_attribute 26, 1
  10              		.eabi_attribute 30, 2
  11              		.eabi_attribute 34, 1
  12              		.eabi_attribute 18, 4
  13              		.file	"stm32l4xx_hal_tim.c"
  14              		.text
  15              		.section	.text.TIM_OC1_SetConfig,"ax",%progbits
  16              		.align	1
  17              		.p2align 2,,3
  18              		.arch armv7e-m
  19              		.syntax unified
  20              		.thumb
  21              		.thumb_func
  22              		.fpu fpv4-sp-d16
  24              	TIM_OC1_SetConfig:
  25              		@ args = 0, pretend = 0, frame = 0
  26              		@ frame_needed = 0, uses_anonymous_args = 0
  27              		@ link register save eliminated.
  28 0000 036A     		ldr	r3, [r0, #32]
  29 0002 23F00103 		bic	r3, r3, #1
  30 0006 0362     		str	r3, [r0, #32]
  31 0008 036A     		ldr	r3, [r0, #32]
  32 000a 70B4     		push	{r4, r5, r6}
  33 000c 4468     		ldr	r4, [r0, #4]
  34 000e 8269     		ldr	r2, [r0, #24]
  35 0010 0D68     		ldr	r5, [r1]
  36 0012 22F48032 		bic	r2, r2, #65536
  37 0016 22F07302 		bic	r2, r2, #115
  38 001a 2A43     		orrs	r2, r2, r5
  39 001c 8D68     		ldr	r5, [r1, #8]
  40 001e 23F00203 		bic	r3, r3, #2
  41 0022 2B43     		orrs	r3, r3, r5
  42 0024 134D     		ldr	r5, .L12
  43 0026 A842     		cmp	r0, r5
  44 0028 0FD0     		beq	.L5
  45 002a 05F50065 		add	r5, r5, #2048
  46 002e A842     		cmp	r0, r5
  47 0030 0BD0     		beq	.L5
  48 0032 05F54065 		add	r5, r5, #3072
  49 0036 A842     		cmp	r0, r5
  50 0038 07D0     		beq	.L5
  51 003a 05F58065 		add	r5, r5, #1024
  52 003e A842     		cmp	r0, r5
  53 0040 03D0     		beq	.L5
  54 0042 05F58065 		add	r5, r5, #1024
  55 0046 A842     		cmp	r0, r5
  56 0048 0DD1     		bne	.L7
  57              	.L5:
  58 004a CD68     		ldr	r5, [r1, #12]
ARM GAS  /tmp/ccoSsvAJ.s 			page 2


  59 004c 23F00803 		bic	r3, r3, #8
  60 0050 2B43     		orrs	r3, r3, r5
  61 0052 D1E90565 		ldrd	r6, r5, [r1, #20]
  62 0056 24F44074 		bic	r4, r4, #768
  63 005a 46EA050C 		orr	ip, r6, r5
  64 005e 23F00403 		bic	r3, r3, #4
  65 0062 4CEA0404 		orr	r4, ip, r4
  66              	.L7:
  67 0066 4968     		ldr	r1, [r1, #4]
  68 0068 4460     		str	r4, [r0, #4]
  69 006a 8261     		str	r2, [r0, #24]
  70 006c 70BC     		pop	{r4, r5, r6}
  71 006e 4163     		str	r1, [r0, #52]
  72 0070 0362     		str	r3, [r0, #32]
  73 0072 7047     		bx	lr
  74              	.L13:
  75              		.align	2
  76              	.L12:
  77 0074 002C0140 		.word	1073818624
  79              		.section	.text.TIM_OC3_SetConfig,"ax",%progbits
  80              		.align	1
  81              		.p2align 2,,3
  82              		.syntax unified
  83              		.thumb
  84              		.thumb_func
  85              		.fpu fpv4-sp-d16
  87              	TIM_OC3_SetConfig:
  88              		@ args = 0, pretend = 0, frame = 0
  89              		@ frame_needed = 0, uses_anonymous_args = 0
  90              		@ link register save eliminated.
  91 0000 036A     		ldr	r3, [r0, #32]
  92 0002 23F48073 		bic	r3, r3, #256
  93 0006 0362     		str	r3, [r0, #32]
  94 0008 036A     		ldr	r3, [r0, #32]
  95 000a 70B4     		push	{r4, r5, r6}
  96 000c 4468     		ldr	r4, [r0, #4]
  97 000e C269     		ldr	r2, [r0, #28]
  98 0010 0D68     		ldr	r5, [r1]
  99 0012 22F48032 		bic	r2, r2, #65536
 100 0016 22F07302 		bic	r2, r2, #115
 101 001a 2A43     		orrs	r2, r2, r5
 102 001c 8D68     		ldr	r5, [r1, #8]
 103 001e 23F40073 		bic	r3, r3, #512
 104 0022 43EA0523 		orr	r3, r3, r5, lsl #8
 105 0026 154D     		ldr	r5, .L21
 106 0028 A842     		cmp	r0, r5
 107 002a 10D0     		beq	.L16
 108 002c 05F50065 		add	r5, r5, #2048
 109 0030 A842     		cmp	r0, r5
 110 0032 0CD0     		beq	.L16
 111 0034 05F54065 		add	r5, r5, #3072
 112 0038 A842     		cmp	r0, r5
 113 003a 0FD0     		beq	.L17
 114 003c 05F58065 		add	r5, r5, #1024
 115 0040 A842     		cmp	r0, r5
 116 0042 0BD0     		beq	.L17
 117 0044 05F58065 		add	r5, r5, #1024
ARM GAS  /tmp/ccoSsvAJ.s 			page 3


 118 0048 A842     		cmp	r0, r5
 119 004a 0FD1     		bne	.L18
 120 004c 06E0     		b	.L17
 121              	.L16:
 122 004e CD68     		ldr	r5, [r1, #12]
 123 0050 23F40063 		bic	r3, r3, #2048
 124 0054 43EA0523 		orr	r3, r3, r5, lsl #8
 125 0058 23F48063 		bic	r3, r3, #1024
 126              	.L17:
 127 005c D1E90565 		ldrd	r6, r5, [r1, #20]
 128 0060 24F44054 		bic	r4, r4, #12288
 129 0064 46EA050C 		orr	ip, r6, r5
 130 0068 44EA0C14 		orr	r4, r4, ip, lsl #4
 131              	.L18:
 132 006c 4968     		ldr	r1, [r1, #4]
 133 006e 4460     		str	r4, [r0, #4]
 134 0070 C261     		str	r2, [r0, #28]
 135 0072 70BC     		pop	{r4, r5, r6}
 136 0074 C163     		str	r1, [r0, #60]
 137 0076 0362     		str	r3, [r0, #32]
 138 0078 7047     		bx	lr
 139              	.L22:
 140 007a 00BF     		.align	2
 141              	.L21:
 142 007c 002C0140 		.word	1073818624
 144              		.section	.text.HAL_TIM_Base_MspInit,"ax",%progbits
 145              		.align	1
 146              		.p2align 2,,3
 147              		.weak	HAL_TIM_Base_MspInit
 148              		.syntax unified
 149              		.thumb
 150              		.thumb_func
 151              		.fpu fpv4-sp-d16
 153              	HAL_TIM_Base_MspInit:
 154              		@ args = 0, pretend = 0, frame = 0
 155              		@ frame_needed = 0, uses_anonymous_args = 0
 156              		@ link register save eliminated.
 157 0000 7047     		bx	lr
 159 0002 00BF     		.section	.text.HAL_TIM_Base_Init,"ax",%progbits
 160              		.align	1
 161              		.p2align 2,,3
 162              		.global	HAL_TIM_Base_Init
 163              		.syntax unified
 164              		.thumb
 165              		.thumb_func
 166              		.fpu fpv4-sp-d16
 168              	HAL_TIM_Base_Init:
 169              		@ args = 0, pretend = 0, frame = 0
 170              		@ frame_needed = 0, uses_anonymous_args = 0
 171 0000 0028     		cmp	r0, #0
 172 0002 72D0     		beq	.L40
 173 0004 70B5     		push	{r4, r5, r6, lr}
 174 0006 90F83D30 		ldrb	r3, [r0, #61]	@ zero_extendqisi2
 175 000a 0446     		mov	r4, r0
 176 000c 03F0FF02 		and	r2, r3, #255
 177 0010 002B     		cmp	r3, #0
 178 0012 65D0     		beq	.L49
ARM GAS  /tmp/ccoSsvAJ.s 			page 4


 179              	.L26:
 180 0014 2268     		ldr	r2, [r4]
 181 0016 364E     		ldr	r6, .L50
 182 0018 A569     		ldr	r5, [r4, #24]
 183 001a E068     		ldr	r0, [r4, #12]
 184 001c 6168     		ldr	r1, [r4, #4]
 185 001e 0223     		movs	r3, #2
 186 0020 84F83D30 		strb	r3, [r4, #61]
 187 0024 B242     		cmp	r2, r6
 188 0026 1368     		ldr	r3, [r2]
 189 0028 49D0     		beq	.L32
 190 002a B2F1804F 		cmp	r2, #1073741824
 191 002e 1CD0     		beq	.L28
 192 0030 A6F59436 		sub	r6, r6, #75776
 193 0034 B242     		cmp	r2, r6
 194 0036 18D0     		beq	.L28
 195 0038 06F58066 		add	r6, r6, #1024
 196 003c B242     		cmp	r2, r6
 197 003e 14D0     		beq	.L28
 198 0040 06F58066 		add	r6, r6, #1024
 199 0044 B242     		cmp	r2, r6
 200 0046 10D0     		beq	.L28
 201 0048 06F59436 		add	r6, r6, #75776
 202 004c B242     		cmp	r2, r6
 203 004e 36D0     		beq	.L32
 204 0050 06F54066 		add	r6, r6, #3072
 205 0054 B242     		cmp	r2, r6
 206 0056 36D0     		beq	.L47
 207 0058 06F58066 		add	r6, r6, #1024
 208 005c B242     		cmp	r2, r6
 209 005e 32D0     		beq	.L47
 210 0060 06F58066 		add	r6, r6, #1024
 211 0064 B242     		cmp	r2, r6
 212 0066 08D1     		bne	.L48
 213 0068 2DE0     		b	.L47
 214              	.L28:
 215 006a A668     		ldr	r6, [r4, #8]
 216 006c 23F07003 		bic	r3, r3, #112
 217 0070 3343     		orrs	r3, r3, r6
 218 0072 2669     		ldr	r6, [r4, #16]
 219 0074 23F44073 		bic	r3, r3, #768
 220 0078 3343     		orrs	r3, r3, r6
 221              	.L48:
 222 007a 23F08003 		bic	r3, r3, #128
 223 007e 2B43     		orrs	r3, r3, r5
 224 0080 1360     		str	r3, [r2]
 225 0082 D062     		str	r0, [r2, #44]
 226 0084 9162     		str	r1, [r2, #40]
 227              	.L37:
 228 0086 0123     		movs	r3, #1
 229 0088 5361     		str	r3, [r2, #20]
 230 008a 84F84830 		strb	r3, [r4, #72]
 231 008e 84F83E30 		strb	r3, [r4, #62]
 232 0092 84F83F30 		strb	r3, [r4, #63]
 233 0096 84F84030 		strb	r3, [r4, #64]
 234 009a 84F84130 		strb	r3, [r4, #65]
 235 009e 84F84230 		strb	r3, [r4, #66]
ARM GAS  /tmp/ccoSsvAJ.s 			page 5


 236 00a2 84F84330 		strb	r3, [r4, #67]
 237 00a6 84F84430 		strb	r3, [r4, #68]
 238 00aa 84F84530 		strb	r3, [r4, #69]
 239 00ae 84F84630 		strb	r3, [r4, #70]
 240 00b2 84F84730 		strb	r3, [r4, #71]
 241 00b6 84F83D30 		strb	r3, [r4, #61]
 242 00ba 0020     		movs	r0, #0
 243 00bc 70BD     		pop	{r4, r5, r6, pc}
 244              	.L32:
 245 00be A668     		ldr	r6, [r4, #8]
 246 00c0 23F07003 		bic	r3, r3, #112
 247 00c4 3343     		orrs	r3, r3, r6
 248              	.L47:
 249 00c6 2669     		ldr	r6, [r4, #16]
 250 00c8 23F44073 		bic	r3, r3, #768
 251 00cc 3343     		orrs	r3, r3, r6
 252 00ce 23F08003 		bic	r3, r3, #128
 253 00d2 2B43     		orrs	r3, r3, r5
 254 00d4 1360     		str	r3, [r2]
 255 00d6 D062     		str	r0, [r2, #44]
 256 00d8 9162     		str	r1, [r2, #40]
 257 00da 6369     		ldr	r3, [r4, #20]
 258 00dc 1363     		str	r3, [r2, #48]
 259 00de D2E7     		b	.L37
 260              	.L49:
 261 00e0 80F83C20 		strb	r2, [r0, #60]
 262 00e4 FFF7FEFF 		bl	HAL_TIM_Base_MspInit
 263 00e8 94E7     		b	.L26
 264              	.L40:
 265 00ea 0120     		movs	r0, #1
 266 00ec 7047     		bx	lr
 267              	.L51:
 268 00ee 00BF     		.align	2
 269              	.L50:
 270 00f0 002C0140 		.word	1073818624
 272              		.section	.text.HAL_TIM_Base_MspDeInit,"ax",%progbits
 273              		.align	1
 274              		.p2align 2,,3
 275              		.weak	HAL_TIM_Base_MspDeInit
 276              		.syntax unified
 277              		.thumb
 278              		.thumb_func
 279              		.fpu fpv4-sp-d16
 281              	HAL_TIM_Base_MspDeInit:
 282              		@ args = 0, pretend = 0, frame = 0
 283              		@ frame_needed = 0, uses_anonymous_args = 0
 284              		@ link register save eliminated.
 285 0000 7047     		bx	lr
 287 0002 00BF     		.section	.text.HAL_TIM_Base_DeInit,"ax",%progbits
 288              		.align	1
 289              		.p2align 2,,3
 290              		.global	HAL_TIM_Base_DeInit
 291              		.syntax unified
 292              		.thumb
 293              		.thumb_func
 294              		.fpu fpv4-sp-d16
 296              	HAL_TIM_Base_DeInit:
ARM GAS  /tmp/ccoSsvAJ.s 			page 6


 297              		@ args = 0, pretend = 0, frame = 0
 298              		@ frame_needed = 0, uses_anonymous_args = 0
 299 0000 0222     		movs	r2, #2
 300 0002 0368     		ldr	r3, [r0]
 301 0004 10B5     		push	{r4, lr}
 302 0006 80F83D20 		strb	r2, [r0, #61]
 303 000a 196A     		ldr	r1, [r3, #32]
 304 000c 41F21112 		movw	r2, #4369
 305 0010 1142     		tst	r1, r2
 306 0012 0446     		mov	r4, r0
 307 0014 08D1     		bne	.L54
 308 0016 196A     		ldr	r1, [r3, #32]
 309 0018 40F24442 		movw	r2, #1092
 310 001c 1142     		tst	r1, r2
 311 001e 03D1     		bne	.L54
 312 0020 1A68     		ldr	r2, [r3]
 313 0022 22F00102 		bic	r2, r2, #1
 314 0026 1A60     		str	r2, [r3]
 315              	.L54:
 316 0028 2046     		mov	r0, r4
 317 002a FFF7FEFF 		bl	HAL_TIM_Base_MspDeInit
 318 002e 0020     		movs	r0, #0
 319 0030 84F84800 		strb	r0, [r4, #72]
 320 0034 84F83C00 		strb	r0, [r4, #60]
 321 0038 84F83E00 		strb	r0, [r4, #62]
 322 003c 84F83F00 		strb	r0, [r4, #63]
 323 0040 84F84000 		strb	r0, [r4, #64]
 324 0044 84F84100 		strb	r0, [r4, #65]
 325 0048 84F84200 		strb	r0, [r4, #66]
 326 004c 84F84300 		strb	r0, [r4, #67]
 327 0050 84F84400 		strb	r0, [r4, #68]
 328 0054 84F84500 		strb	r0, [r4, #69]
 329 0058 84F84600 		strb	r0, [r4, #70]
 330 005c 84F84700 		strb	r0, [r4, #71]
 331 0060 84F83D00 		strb	r0, [r4, #61]
 332 0064 10BD     		pop	{r4, pc}
 334 0066 00BF     		.section	.text.HAL_TIM_Base_Start,"ax",%progbits
 335              		.align	1
 336              		.p2align 2,,3
 337              		.global	HAL_TIM_Base_Start
 338              		.syntax unified
 339              		.thumb
 340              		.thumb_func
 341              		.fpu fpv4-sp-d16
 343              	HAL_TIM_Base_Start:
 344              		@ args = 0, pretend = 0, frame = 0
 345              		@ frame_needed = 0, uses_anonymous_args = 0
 346              		@ link register save eliminated.
 347 0000 90F83D30 		ldrb	r3, [r0, #61]	@ zero_extendqisi2
 348 0004 012B     		cmp	r3, #1
 349 0006 23D1     		bne	.L60
 350 0008 0368     		ldr	r3, [r0]
 351 000a 174A     		ldr	r2, .L66
 352 000c 0221     		movs	r1, #2
 353 000e 9342     		cmp	r3, r2
 354 0010 80F83D10 		strb	r1, [r0, #61]
 355 0014 1ED0     		beq	.L58
ARM GAS  /tmp/ccoSsvAJ.s 			page 7


 356 0016 B3F1804F 		cmp	r3, #1073741824
 357 001a 1BD0     		beq	.L58
 358 001c A2F59432 		sub	r2, r2, #75776
 359 0020 9342     		cmp	r3, r2
 360 0022 17D0     		beq	.L58
 361 0024 02F58062 		add	r2, r2, #1024
 362 0028 9342     		cmp	r3, r2
 363 002a 13D0     		beq	.L58
 364 002c 02F58062 		add	r2, r2, #1024
 365 0030 9342     		cmp	r3, r2
 366 0032 0FD0     		beq	.L58
 367 0034 02F59432 		add	r2, r2, #75776
 368 0038 9342     		cmp	r3, r2
 369 003a 0BD0     		beq	.L58
 370 003c 02F54062 		add	r2, r2, #3072
 371 0040 9342     		cmp	r3, r2
 372 0042 07D0     		beq	.L58
 373              	.L59:
 374 0044 1A68     		ldr	r2, [r3]
 375 0046 42F00102 		orr	r2, r2, #1
 376 004a 0020     		movs	r0, #0
 377 004c 1A60     		str	r2, [r3]
 378 004e 7047     		bx	lr
 379              	.L60:
 380 0050 0120     		movs	r0, #1
 381 0052 7047     		bx	lr
 382              	.L58:
 383 0054 9968     		ldr	r1, [r3, #8]
 384 0056 054A     		ldr	r2, .L66+4
 385 0058 0A40     		ands	r2, r2, r1
 386 005a 062A     		cmp	r2, #6
 387 005c 02D0     		beq	.L62
 388 005e B2F5803F 		cmp	r2, #65536
 389 0062 EFD1     		bne	.L59
 390              	.L62:
 391 0064 0020     		movs	r0, #0
 392 0066 7047     		bx	lr
 393              	.L67:
 394              		.align	2
 395              	.L66:
 396 0068 002C0140 		.word	1073818624
 397 006c 07000100 		.word	65543
 399              		.section	.text.HAL_TIM_Base_Stop,"ax",%progbits
 400              		.align	1
 401              		.p2align 2,,3
 402              		.global	HAL_TIM_Base_Stop
 403              		.syntax unified
 404              		.thumb
 405              		.thumb_func
 406              		.fpu fpv4-sp-d16
 408              	HAL_TIM_Base_Stop:
 409              		@ args = 0, pretend = 0, frame = 0
 410              		@ frame_needed = 0, uses_anonymous_args = 0
 411              		@ link register save eliminated.
 412 0000 0368     		ldr	r3, [r0]
 413 0002 196A     		ldr	r1, [r3, #32]
 414 0004 41F21112 		movw	r2, #4369
ARM GAS  /tmp/ccoSsvAJ.s 			page 8


 415 0008 1142     		tst	r1, r2
 416 000a 08D1     		bne	.L69
 417 000c 196A     		ldr	r1, [r3, #32]
 418 000e 40F24442 		movw	r2, #1092
 419 0012 1142     		tst	r1, r2
 420 0014 03D1     		bne	.L69
 421 0016 1A68     		ldr	r2, [r3]
 422 0018 22F00102 		bic	r2, r2, #1
 423 001c 1A60     		str	r2, [r3]
 424              	.L69:
 425 001e 0123     		movs	r3, #1
 426 0020 80F83D30 		strb	r3, [r0, #61]
 427 0024 0020     		movs	r0, #0
 428 0026 7047     		bx	lr
 430              		.section	.text.HAL_TIM_Base_Start_IT,"ax",%progbits
 431              		.align	1
 432              		.p2align 2,,3
 433              		.global	HAL_TIM_Base_Start_IT
 434              		.syntax unified
 435              		.thumb
 436              		.thumb_func
 437              		.fpu fpv4-sp-d16
 439              	HAL_TIM_Base_Start_IT:
 440              		@ args = 0, pretend = 0, frame = 0
 441              		@ frame_needed = 0, uses_anonymous_args = 0
 442              		@ link register save eliminated.
 443 0000 90F83D30 		ldrb	r3, [r0, #61]	@ zero_extendqisi2
 444 0004 012B     		cmp	r3, #1
 445 0006 26D1     		bne	.L74
 446 0008 0368     		ldr	r3, [r0]
 447 000a 1949     		ldr	r1, .L80
 448 000c 0222     		movs	r2, #2
 449 000e 80F83D20 		strb	r2, [r0, #61]
 450 0012 DA68     		ldr	r2, [r3, #12]
 451 0014 8B42     		cmp	r3, r1
 452 0016 42F00102 		orr	r2, r2, #1
 453 001a DA60     		str	r2, [r3, #12]
 454 001c 1DD0     		beq	.L72
 455 001e B3F1804F 		cmp	r3, #1073741824
 456 0022 1AD0     		beq	.L72
 457 0024 134A     		ldr	r2, .L80+4
 458 0026 9342     		cmp	r3, r2
 459 0028 17D0     		beq	.L72
 460 002a 02F58062 		add	r2, r2, #1024
 461 002e 9342     		cmp	r3, r2
 462 0030 13D0     		beq	.L72
 463 0032 02F58062 		add	r2, r2, #1024
 464 0036 9342     		cmp	r3, r2
 465 0038 0FD0     		beq	.L72
 466 003a 02F59432 		add	r2, r2, #75776
 467 003e 9342     		cmp	r3, r2
 468 0040 0BD0     		beq	.L72
 469 0042 02F54062 		add	r2, r2, #3072
 470 0046 9342     		cmp	r3, r2
 471 0048 07D0     		beq	.L72
 472              	.L73:
 473 004a 1A68     		ldr	r2, [r3]
ARM GAS  /tmp/ccoSsvAJ.s 			page 9


 474 004c 42F00102 		orr	r2, r2, #1
 475 0050 0020     		movs	r0, #0
 476 0052 1A60     		str	r2, [r3]
 477 0054 7047     		bx	lr
 478              	.L74:
 479 0056 0120     		movs	r0, #1
 480 0058 7047     		bx	lr
 481              	.L72:
 482 005a 9968     		ldr	r1, [r3, #8]
 483 005c 064A     		ldr	r2, .L80+8
 484 005e 0A40     		ands	r2, r2, r1
 485 0060 062A     		cmp	r2, #6
 486 0062 02D0     		beq	.L76
 487 0064 B2F5803F 		cmp	r2, #65536
 488 0068 EFD1     		bne	.L73
 489              	.L76:
 490 006a 0020     		movs	r0, #0
 491 006c 7047     		bx	lr
 492              	.L81:
 493 006e 00BF     		.align	2
 494              	.L80:
 495 0070 002C0140 		.word	1073818624
 496 0074 00040040 		.word	1073742848
 497 0078 07000100 		.word	65543
 499              		.section	.text.HAL_TIM_Base_Stop_IT,"ax",%progbits
 500              		.align	1
 501              		.p2align 2,,3
 502              		.global	HAL_TIM_Base_Stop_IT
 503              		.syntax unified
 504              		.thumb
 505              		.thumb_func
 506              		.fpu fpv4-sp-d16
 508              	HAL_TIM_Base_Stop_IT:
 509              		@ args = 0, pretend = 0, frame = 0
 510              		@ frame_needed = 0, uses_anonymous_args = 0
 511              		@ link register save eliminated.
 512 0000 0368     		ldr	r3, [r0]
 513 0002 DA68     		ldr	r2, [r3, #12]
 514 0004 22F00102 		bic	r2, r2, #1
 515 0008 DA60     		str	r2, [r3, #12]
 516 000a 1A6A     		ldr	r2, [r3, #32]
 517 000c 41F21111 		movw	r1, #4369
 518 0010 0A42     		tst	r2, r1
 519 0012 08D1     		bne	.L83
 520 0014 196A     		ldr	r1, [r3, #32]
 521 0016 40F24442 		movw	r2, #1092
 522 001a 1142     		tst	r1, r2
 523 001c 03D1     		bne	.L83
 524 001e 1A68     		ldr	r2, [r3]
 525 0020 22F00102 		bic	r2, r2, #1
 526 0024 1A60     		str	r2, [r3]
 527              	.L83:
 528 0026 0123     		movs	r3, #1
 529 0028 80F83D30 		strb	r3, [r0, #61]
 530 002c 0020     		movs	r0, #0
 531 002e 7047     		bx	lr
 533              		.section	.text.HAL_TIM_Base_Start_DMA,"ax",%progbits
ARM GAS  /tmp/ccoSsvAJ.s 			page 10


 534              		.align	1
 535              		.p2align 2,,3
 536              		.global	HAL_TIM_Base_Start_DMA
 537              		.syntax unified
 538              		.thumb
 539              		.thumb_func
 540              		.fpu fpv4-sp-d16
 542              	HAL_TIM_Base_Start_DMA:
 543              		@ args = 0, pretend = 0, frame = 0
 544              		@ frame_needed = 0, uses_anonymous_args = 0
 545 0000 38B5     		push	{r3, r4, r5, lr}
 546 0002 90F83D30 		ldrb	r3, [r0, #61]	@ zero_extendqisi2
 547 0006 022B     		cmp	r3, #2
 548 0008 0446     		mov	r4, r0
 549 000a D8B2     		uxtb	r0, r3
 550 000c 3FD0     		beq	.L85
 551 000e 94F83D30 		ldrb	r3, [r4, #61]	@ zero_extendqisi2
 552 0012 012B     		cmp	r3, #1
 553 0014 3ED1     		bne	.L88
 554 0016 0029     		cmp	r1, #0
 555 0018 3AD0     		beq	.L104
 556              	.L87:
 557 001a 206A     		ldr	r0, [r4, #32]
 558 001c 1E4D     		ldr	r5, .L105
 559 001e 0223     		movs	r3, #2
 560 0020 84F83D30 		strb	r3, [r4, #61]
 561 0024 1346     		mov	r3, r2
 562 0026 1D4A     		ldr	r2, .L105+4
 563 0028 0263     		str	r2, [r0, #48]
 564 002a 1D4A     		ldr	r2, .L105+8
 565 002c 4263     		str	r2, [r0, #52]
 566 002e 2268     		ldr	r2, [r4]
 567 0030 C562     		str	r5, [r0, #44]
 568 0032 2C32     		adds	r2, r2, #44
 569 0034 FFF7FEFF 		bl	HAL_DMA_Start_IT
 570 0038 60BB     		cbnz	r0, .L88
 571 003a 2368     		ldr	r3, [r4]
 572 003c 1949     		ldr	r1, .L105+12
 573 003e DA68     		ldr	r2, [r3, #12]
 574 0040 8B42     		cmp	r3, r1
 575 0042 42F48072 		orr	r2, r2, #256
 576 0046 DA60     		str	r2, [r3, #12]
 577 0048 15D0     		beq	.L89
 578 004a B3F1804F 		cmp	r3, #1073741824
 579 004e 12D0     		beq	.L89
 580 0050 154A     		ldr	r2, .L105+16
 581 0052 9342     		cmp	r3, r2
 582 0054 0FD0     		beq	.L89
 583 0056 02F58062 		add	r2, r2, #1024
 584 005a 9342     		cmp	r3, r2
 585 005c 0BD0     		beq	.L89
 586 005e 02F58062 		add	r2, r2, #1024
 587 0062 9342     		cmp	r3, r2
 588 0064 07D0     		beq	.L89
 589 0066 02F59432 		add	r2, r2, #75776
 590 006a 9342     		cmp	r3, r2
 591 006c 03D0     		beq	.L89
ARM GAS  /tmp/ccoSsvAJ.s 			page 11


 592 006e 02F54062 		add	r2, r2, #3072
 593 0072 9342     		cmp	r3, r2
 594 0074 07D1     		bne	.L90
 595              	.L89:
 596 0076 9968     		ldr	r1, [r3, #8]
 597 0078 0C4A     		ldr	r2, .L105+20
 598 007a 0A40     		ands	r2, r2, r1
 599 007c 062A     		cmp	r2, #6
 600 007e 06D0     		beq	.L85
 601 0080 B2F5803F 		cmp	r2, #65536
 602 0084 03D0     		beq	.L85
 603              	.L90:
 604 0086 1A68     		ldr	r2, [r3]
 605 0088 42F00102 		orr	r2, r2, #1
 606 008c 1A60     		str	r2, [r3]
 607              	.L85:
 608 008e 38BD     		pop	{r3, r4, r5, pc}
 609              	.L104:
 610 0090 002A     		cmp	r2, #0
 611 0092 C2D0     		beq	.L87
 612              	.L88:
 613 0094 0120     		movs	r0, #1
 614 0096 38BD     		pop	{r3, r4, r5, pc}
 615              	.L106:
 616              		.align	2
 617              	.L105:
 618 0098 00000000 		.word	TIM_DMAPeriodElapsedCplt
 619 009c 00000000 		.word	TIM_DMAPeriodElapsedHalfCplt
 620 00a0 00000000 		.word	TIM_DMAError
 621 00a4 002C0140 		.word	1073818624
 622 00a8 00040040 		.word	1073742848
 623 00ac 07000100 		.word	65543
 625              		.section	.text.HAL_TIM_Base_Stop_DMA,"ax",%progbits
 626              		.align	1
 627              		.p2align 2,,3
 628              		.global	HAL_TIM_Base_Stop_DMA
 629              		.syntax unified
 630              		.thumb
 631              		.thumb_func
 632              		.fpu fpv4-sp-d16
 634              	HAL_TIM_Base_Stop_DMA:
 635              		@ args = 0, pretend = 0, frame = 0
 636              		@ frame_needed = 0, uses_anonymous_args = 0
 637 0000 0268     		ldr	r2, [r0]
 638 0002 D368     		ldr	r3, [r2, #12]
 639 0004 10B5     		push	{r4, lr}
 640 0006 23F48073 		bic	r3, r3, #256
 641 000a 0446     		mov	r4, r0
 642 000c 006A     		ldr	r0, [r0, #32]
 643 000e D360     		str	r3, [r2, #12]
 644 0010 FFF7FEFF 		bl	HAL_DMA_Abort_IT
 645 0014 2368     		ldr	r3, [r4]
 646 0016 196A     		ldr	r1, [r3, #32]
 647 0018 41F21112 		movw	r2, #4369
 648 001c 1142     		tst	r1, r2
 649 001e 08D1     		bne	.L108
 650 0020 196A     		ldr	r1, [r3, #32]
ARM GAS  /tmp/ccoSsvAJ.s 			page 12


 651 0022 40F24442 		movw	r2, #1092
 652 0026 1142     		tst	r1, r2
 653 0028 03D1     		bne	.L108
 654 002a 1A68     		ldr	r2, [r3]
 655 002c 22F00102 		bic	r2, r2, #1
 656 0030 1A60     		str	r2, [r3]
 657              	.L108:
 658 0032 0123     		movs	r3, #1
 659 0034 84F83D30 		strb	r3, [r4, #61]
 660 0038 0020     		movs	r0, #0
 661 003a 10BD     		pop	{r4, pc}
 663              		.section	.text.HAL_TIM_OC_MspInit,"ax",%progbits
 664              		.align	1
 665              		.p2align 2,,3
 666              		.weak	HAL_TIM_OC_MspInit
 667              		.syntax unified
 668              		.thumb
 669              		.thumb_func
 670              		.fpu fpv4-sp-d16
 672              	HAL_TIM_OC_MspInit:
 673              		@ args = 0, pretend = 0, frame = 0
 674              		@ frame_needed = 0, uses_anonymous_args = 0
 675              		@ link register save eliminated.
 676 0000 7047     		bx	lr
 678 0002 00BF     		.section	.text.HAL_TIM_OC_Init,"ax",%progbits
 679              		.align	1
 680              		.p2align 2,,3
 681              		.global	HAL_TIM_OC_Init
 682              		.syntax unified
 683              		.thumb
 684              		.thumb_func
 685              		.fpu fpv4-sp-d16
 687              	HAL_TIM_OC_Init:
 688              		@ args = 0, pretend = 0, frame = 0
 689              		@ frame_needed = 0, uses_anonymous_args = 0
 690 0000 0028     		cmp	r0, #0
 691 0002 72D0     		beq	.L127
 692 0004 70B5     		push	{r4, r5, r6, lr}
 693 0006 90F83D30 		ldrb	r3, [r0, #61]	@ zero_extendqisi2
 694 000a 0446     		mov	r4, r0
 695 000c 03F0FF02 		and	r2, r3, #255
 696 0010 002B     		cmp	r3, #0
 697 0012 65D0     		beq	.L136
 698              	.L113:
 699 0014 2268     		ldr	r2, [r4]
 700 0016 364E     		ldr	r6, .L137
 701 0018 A569     		ldr	r5, [r4, #24]
 702 001a E068     		ldr	r0, [r4, #12]
 703 001c 6168     		ldr	r1, [r4, #4]
 704 001e 0223     		movs	r3, #2
 705 0020 84F83D30 		strb	r3, [r4, #61]
 706 0024 B242     		cmp	r2, r6
 707 0026 1368     		ldr	r3, [r2]
 708 0028 49D0     		beq	.L119
 709 002a B2F1804F 		cmp	r2, #1073741824
 710 002e 1CD0     		beq	.L115
 711 0030 A6F59436 		sub	r6, r6, #75776
ARM GAS  /tmp/ccoSsvAJ.s 			page 13


 712 0034 B242     		cmp	r2, r6
 713 0036 18D0     		beq	.L115
 714 0038 06F58066 		add	r6, r6, #1024
 715 003c B242     		cmp	r2, r6
 716 003e 14D0     		beq	.L115
 717 0040 06F58066 		add	r6, r6, #1024
 718 0044 B242     		cmp	r2, r6
 719 0046 10D0     		beq	.L115
 720 0048 06F59436 		add	r6, r6, #75776
 721 004c B242     		cmp	r2, r6
 722 004e 36D0     		beq	.L119
 723 0050 06F54066 		add	r6, r6, #3072
 724 0054 B242     		cmp	r2, r6
 725 0056 36D0     		beq	.L134
 726 0058 06F58066 		add	r6, r6, #1024
 727 005c B242     		cmp	r2, r6
 728 005e 32D0     		beq	.L134
 729 0060 06F58066 		add	r6, r6, #1024
 730 0064 B242     		cmp	r2, r6
 731 0066 08D1     		bne	.L135
 732 0068 2DE0     		b	.L134
 733              	.L115:
 734 006a A668     		ldr	r6, [r4, #8]
 735 006c 23F07003 		bic	r3, r3, #112
 736 0070 3343     		orrs	r3, r3, r6
 737 0072 2669     		ldr	r6, [r4, #16]
 738 0074 23F44073 		bic	r3, r3, #768
 739 0078 3343     		orrs	r3, r3, r6
 740              	.L135:
 741 007a 23F08003 		bic	r3, r3, #128
 742 007e 2B43     		orrs	r3, r3, r5
 743 0080 1360     		str	r3, [r2]
 744 0082 D062     		str	r0, [r2, #44]
 745 0084 9162     		str	r1, [r2, #40]
 746              	.L124:
 747 0086 0123     		movs	r3, #1
 748 0088 5361     		str	r3, [r2, #20]
 749 008a 84F84830 		strb	r3, [r4, #72]
 750 008e 84F83E30 		strb	r3, [r4, #62]
 751 0092 84F83F30 		strb	r3, [r4, #63]
 752 0096 84F84030 		strb	r3, [r4, #64]
 753 009a 84F84130 		strb	r3, [r4, #65]
 754 009e 84F84230 		strb	r3, [r4, #66]
 755 00a2 84F84330 		strb	r3, [r4, #67]
 756 00a6 84F84430 		strb	r3, [r4, #68]
 757 00aa 84F84530 		strb	r3, [r4, #69]
 758 00ae 84F84630 		strb	r3, [r4, #70]
 759 00b2 84F84730 		strb	r3, [r4, #71]
 760 00b6 84F83D30 		strb	r3, [r4, #61]
 761 00ba 0020     		movs	r0, #0
 762 00bc 70BD     		pop	{r4, r5, r6, pc}
 763              	.L119:
 764 00be A668     		ldr	r6, [r4, #8]
 765 00c0 23F07003 		bic	r3, r3, #112
 766 00c4 3343     		orrs	r3, r3, r6
 767              	.L134:
 768 00c6 2669     		ldr	r6, [r4, #16]
ARM GAS  /tmp/ccoSsvAJ.s 			page 14


 769 00c8 23F44073 		bic	r3, r3, #768
 770 00cc 3343     		orrs	r3, r3, r6
 771 00ce 23F08003 		bic	r3, r3, #128
 772 00d2 2B43     		orrs	r3, r3, r5
 773 00d4 1360     		str	r3, [r2]
 774 00d6 D062     		str	r0, [r2, #44]
 775 00d8 9162     		str	r1, [r2, #40]
 776 00da 6369     		ldr	r3, [r4, #20]
 777 00dc 1363     		str	r3, [r2, #48]
 778 00de D2E7     		b	.L124
 779              	.L136:
 780 00e0 80F83C20 		strb	r2, [r0, #60]
 781 00e4 FFF7FEFF 		bl	HAL_TIM_OC_MspInit
 782 00e8 94E7     		b	.L113
 783              	.L127:
 784 00ea 0120     		movs	r0, #1
 785 00ec 7047     		bx	lr
 786              	.L138:
 787 00ee 00BF     		.align	2
 788              	.L137:
 789 00f0 002C0140 		.word	1073818624
 791              		.section	.text.HAL_TIM_OC_MspDeInit,"ax",%progbits
 792              		.align	1
 793              		.p2align 2,,3
 794              		.weak	HAL_TIM_OC_MspDeInit
 795              		.syntax unified
 796              		.thumb
 797              		.thumb_func
 798              		.fpu fpv4-sp-d16
 800              	HAL_TIM_OC_MspDeInit:
 801              		@ args = 0, pretend = 0, frame = 0
 802              		@ frame_needed = 0, uses_anonymous_args = 0
 803              		@ link register save eliminated.
 804 0000 7047     		bx	lr
 806 0002 00BF     		.section	.text.HAL_TIM_OC_DeInit,"ax",%progbits
 807              		.align	1
 808              		.p2align 2,,3
 809              		.global	HAL_TIM_OC_DeInit
 810              		.syntax unified
 811              		.thumb
 812              		.thumb_func
 813              		.fpu fpv4-sp-d16
 815              	HAL_TIM_OC_DeInit:
 816              		@ args = 0, pretend = 0, frame = 0
 817              		@ frame_needed = 0, uses_anonymous_args = 0
 818 0000 0222     		movs	r2, #2
 819 0002 0368     		ldr	r3, [r0]
 820 0004 10B5     		push	{r4, lr}
 821 0006 80F83D20 		strb	r2, [r0, #61]
 822 000a 196A     		ldr	r1, [r3, #32]
 823 000c 41F21112 		movw	r2, #4369
 824 0010 1142     		tst	r1, r2
 825 0012 0446     		mov	r4, r0
 826 0014 08D1     		bne	.L141
 827 0016 196A     		ldr	r1, [r3, #32]
 828 0018 40F24442 		movw	r2, #1092
 829 001c 1142     		tst	r1, r2
ARM GAS  /tmp/ccoSsvAJ.s 			page 15


 830 001e 03D1     		bne	.L141
 831 0020 1A68     		ldr	r2, [r3]
 832 0022 22F00102 		bic	r2, r2, #1
 833 0026 1A60     		str	r2, [r3]
 834              	.L141:
 835 0028 2046     		mov	r0, r4
 836 002a FFF7FEFF 		bl	HAL_TIM_OC_MspDeInit
 837 002e 0020     		movs	r0, #0
 838 0030 84F84800 		strb	r0, [r4, #72]
 839 0034 84F83C00 		strb	r0, [r4, #60]
 840 0038 84F83E00 		strb	r0, [r4, #62]
 841 003c 84F83F00 		strb	r0, [r4, #63]
 842 0040 84F84000 		strb	r0, [r4, #64]
 843 0044 84F84100 		strb	r0, [r4, #65]
 844 0048 84F84200 		strb	r0, [r4, #66]
 845 004c 84F84300 		strb	r0, [r4, #67]
 846 0050 84F84400 		strb	r0, [r4, #68]
 847 0054 84F84500 		strb	r0, [r4, #69]
 848 0058 84F84600 		strb	r0, [r4, #70]
 849 005c 84F84700 		strb	r0, [r4, #71]
 850 0060 84F83D00 		strb	r0, [r4, #61]
 851 0064 10BD     		pop	{r4, pc}
 853 0066 00BF     		.section	.text.HAL_TIM_OC_Start,"ax",%progbits
 854              		.align	1
 855              		.p2align 2,,3
 856              		.global	HAL_TIM_OC_Start
 857              		.syntax unified
 858              		.thumb
 859              		.thumb_func
 860              		.fpu fpv4-sp-d16
 862              	HAL_TIM_OC_Start:
 863              		@ args = 0, pretend = 0, frame = 0
 864              		@ frame_needed = 0, uses_anonymous_args = 0
 865              		@ link register save eliminated.
 866 0000 1029     		cmp	r1, #16
 867 0002 0AD8     		bhi	.L144
 868 0004 DFE801F0 		tbb	[pc, r1]
 869              	.L146:
 870 0008 59       		.byte	(.L150-.L146)/2
 871 0009 09       		.byte	(.L144-.L146)/2
 872 000a 09       		.byte	(.L144-.L146)/2
 873 000b 09       		.byte	(.L144-.L146)/2
 874 000c 5F       		.byte	(.L149-.L146)/2
 875 000d 09       		.byte	(.L144-.L146)/2
 876 000e 09       		.byte	(.L144-.L146)/2
 877 000f 09       		.byte	(.L144-.L146)/2
 878 0010 67       		.byte	(.L148-.L146)/2
 879 0011 09       		.byte	(.L144-.L146)/2
 880 0012 09       		.byte	(.L144-.L146)/2
 881 0013 09       		.byte	(.L144-.L146)/2
 882 0014 6C       		.byte	(.L147-.L146)/2
 883 0015 09       		.byte	(.L144-.L146)/2
 884 0016 09       		.byte	(.L144-.L146)/2
 885 0017 09       		.byte	(.L144-.L146)/2
 886 0018 75       		.byte	(.L145-.L146)/2
 887 0019 00       		.p2align 1
 888              	.L144:
ARM GAS  /tmp/ccoSsvAJ.s 			page 16


 889 001a 90F84330 		ldrb	r3, [r0, #67]	@ zero_extendqisi2
 890 001e 012B     		cmp	r3, #1
 891 0020 4FD1     		bne	.L173
 892              	.L154:
 893 0022 1029     		cmp	r1, #16
 894 0024 0AD8     		bhi	.L156
 895 0026 DFE801F0 		tbb	[pc, r1]
 896              	.L158:
 897 002a 8B       		.byte	(.L152-.L158)/2
 898 002b 09       		.byte	(.L156-.L158)/2
 899 002c 09       		.byte	(.L156-.L158)/2
 900 002d 09       		.byte	(.L156-.L158)/2
 901 002e 52       		.byte	(.L153-.L158)/2
 902 002f 09       		.byte	(.L156-.L158)/2
 903 0030 09       		.byte	(.L156-.L158)/2
 904 0031 09       		.byte	(.L156-.L158)/2
 905 0032 74       		.byte	(.L160-.L158)/2
 906 0033 09       		.byte	(.L156-.L158)/2
 907 0034 09       		.byte	(.L156-.L158)/2
 908 0035 09       		.byte	(.L156-.L158)/2
 909 0036 70       		.byte	(.L159-.L158)/2
 910 0037 09       		.byte	(.L156-.L158)/2
 911 0038 09       		.byte	(.L156-.L158)/2
 912 0039 09       		.byte	(.L156-.L158)/2
 913 003a 6C       		.byte	(.L157-.L158)/2
 914 003b 00       		.p2align 1
 915              	.L156:
 916 003c 0223     		movs	r3, #2
 917 003e 80F84330 		strb	r3, [r0, #67]
 918              	.L161:
 919 0042 0368     		ldr	r3, [r0]
 920 0044 0122     		movs	r2, #1
 921 0046 186A     		ldr	r0, [r3, #32]
 922 0048 01F01F01 		and	r1, r1, #31
 923 004c 02FA01F1 		lsl	r1, r2, r1
 924 0050 20EA0100 		bic	r0, r0, r1
 925 0054 1862     		str	r0, [r3, #32]
 926 0056 186A     		ldr	r0, [r3, #32]
 927 0058 3B4A     		ldr	r2, .L181
 928 005a 0143     		orrs	r1, r1, r0
 929 005c 9342     		cmp	r3, r2
 930 005e 1962     		str	r1, [r3, #32]
 931 0060 5BD0     		beq	.L162
 932 0062 02F50062 		add	r2, r2, #2048
 933 0066 9342     		cmp	r3, r2
 934 0068 65D0     		beq	.L163
 935 006a 02F54062 		add	r2, r2, #3072
 936 006e 9342     		cmp	r3, r2
 937 0070 61D0     		beq	.L163
 938 0072 02F58062 		add	r2, r2, #1024
 939 0076 9342     		cmp	r3, r2
 940 0078 5DD0     		beq	.L163
 941 007a 02F58062 		add	r2, r2, #1024
 942 007e 9342     		cmp	r3, r2
 943 0080 59D0     		beq	.L163
 944              	.L166:
 945 0082 B3F1804F 		cmp	r3, #1073741824
ARM GAS  /tmp/ccoSsvAJ.s 			page 17


 946 0086 4CD0     		beq	.L164
 947 0088 304A     		ldr	r2, .L181+4
 948 008a 9342     		cmp	r3, r2
 949 008c 49D0     		beq	.L164
 950 008e 02F58062 		add	r2, r2, #1024
 951 0092 9342     		cmp	r3, r2
 952 0094 45D0     		beq	.L164
 953 0096 02F58062 		add	r2, r2, #1024
 954 009a 9342     		cmp	r3, r2
 955 009c 41D0     		beq	.L164
 956 009e 02F59432 		add	r2, r2, #75776
 957 00a2 9342     		cmp	r3, r2
 958 00a4 3DD0     		beq	.L164
 959 00a6 02F54062 		add	r2, r2, #3072
 960 00aa 9342     		cmp	r3, r2
 961 00ac 39D0     		beq	.L164
 962              	.L165:
 963 00ae 1A68     		ldr	r2, [r3]
 964 00b0 42F00102 		orr	r2, r2, #1
 965 00b4 0020     		movs	r0, #0
 966 00b6 1A60     		str	r2, [r3]
 967 00b8 7047     		bx	lr
 968              	.L150:
 969 00ba 90F83E30 		ldrb	r3, [r0, #62]	@ zero_extendqisi2
 970 00be 012B     		cmp	r3, #1
 971 00c0 3ED0     		beq	.L152
 972              	.L173:
 973 00c2 0120     		movs	r0, #1
 974 00c4 7047     		bx	lr
 975              	.L149:
 976 00c6 90F83F30 		ldrb	r3, [r0, #63]	@ zero_extendqisi2
 977 00ca 012B     		cmp	r3, #1
 978 00cc F9D1     		bne	.L173
 979              	.L153:
 980 00ce 0223     		movs	r3, #2
 981 00d0 80F83F30 		strb	r3, [r0, #63]
 982 00d4 B5E7     		b	.L161
 983              	.L148:
 984 00d6 90F84030 		ldrb	r3, [r0, #64]	@ zero_extendqisi2
 985 00da 012B     		cmp	r3, #1
 986 00dc A1D0     		beq	.L154
 987 00de F0E7     		b	.L173
 988              	.L147:
 989 00e0 90F84130 		ldrb	r3, [r0, #65]	@ zero_extendqisi2
 990 00e4 013B     		subs	r3, r3, #1
 991 00e6 18BF     		it	ne
 992 00e8 0123     		movne	r3, #1
 993 00ea 002B     		cmp	r3, #0
 994 00ec 99D0     		beq	.L154
 995              	.L180:
 996 00ee 0120     		movs	r0, #1
 997 00f0 7047     		bx	lr
 998              	.L145:
 999 00f2 90F84230 		ldrb	r3, [r0, #66]	@ zero_extendqisi2
 1000 00f6 013B     		subs	r3, r3, #1
 1001 00f8 18BF     		it	ne
 1002 00fa 0123     		movne	r3, #1
ARM GAS  /tmp/ccoSsvAJ.s 			page 18


 1003 00fc 002B     		cmp	r3, #0
 1004 00fe 90D0     		beq	.L154
 1005 0100 F5E7     		b	.L180
 1006              	.L157:
 1007 0102 0223     		movs	r3, #2
 1008 0104 80F84230 		strb	r3, [r0, #66]
 1009 0108 9BE7     		b	.L161
 1010              	.L159:
 1011 010a 0223     		movs	r3, #2
 1012 010c 80F84130 		strb	r3, [r0, #65]
 1013 0110 97E7     		b	.L161
 1014              	.L160:
 1015 0112 0223     		movs	r3, #2
 1016 0114 80F84030 		strb	r3, [r0, #64]
 1017 0118 93E7     		b	.L161
 1018              	.L162:
 1019 011a 5A6C     		ldr	r2, [r3, #68]
 1020 011c 42F40042 		orr	r2, r2, #32768
 1021 0120 5A64     		str	r2, [r3, #68]
 1022              	.L164:
 1023 0122 9968     		ldr	r1, [r3, #8]
 1024 0124 0A4A     		ldr	r2, .L181+8
 1025 0126 0A40     		ands	r2, r2, r1
 1026 0128 062A     		cmp	r2, #6
 1027 012a 02D0     		beq	.L172
 1028 012c B2F5803F 		cmp	r2, #65536
 1029 0130 BDD1     		bne	.L165
 1030              	.L172:
 1031 0132 0020     		movs	r0, #0
 1032 0134 7047     		bx	lr
 1033              	.L163:
 1034 0136 5A6C     		ldr	r2, [r3, #68]
 1035 0138 42F40042 		orr	r2, r2, #32768
 1036 013c 5A64     		str	r2, [r3, #68]
 1037 013e A0E7     		b	.L166
 1038              	.L152:
 1039 0140 0223     		movs	r3, #2
 1040 0142 80F83E30 		strb	r3, [r0, #62]
 1041 0146 7CE7     		b	.L161
 1042              	.L182:
 1043              		.align	2
 1044              	.L181:
 1045 0148 002C0140 		.word	1073818624
 1046 014c 00040040 		.word	1073742848
 1047 0150 07000100 		.word	65543
 1049              		.section	.text.HAL_TIM_OC_Stop,"ax",%progbits
 1050              		.align	1
 1051              		.p2align 2,,3
 1052              		.global	HAL_TIM_OC_Stop
 1053              		.syntax unified
 1054              		.thumb
 1055              		.thumb_func
 1056              		.fpu fpv4-sp-d16
 1058              	HAL_TIM_OC_Stop:
 1059              		@ args = 0, pretend = 0, frame = 0
 1060              		@ frame_needed = 0, uses_anonymous_args = 0
 1061              		@ link register save eliminated.
ARM GAS  /tmp/ccoSsvAJ.s 			page 19


 1062 0000 0368     		ldr	r3, [r0]
 1063 0002 10B4     		push	{r4}
 1064 0004 1A6A     		ldr	r2, [r3, #32]
 1065 0006 01F01F04 		and	r4, r1, #31
 1066 000a 4FF0010C 		mov	ip, #1
 1067 000e 0CFA04FC 		lsl	ip, ip, r4
 1068 0012 22EA0C02 		bic	r2, r2, ip
 1069 0016 1A62     		str	r2, [r3, #32]
 1070 0018 354A     		ldr	r2, .L198
 1071 001a 1C6A     		ldr	r4, [r3, #32]
 1072 001c 1C62     		str	r4, [r3, #32]
 1073 001e 9342     		cmp	r3, r2
 1074 0020 21D0     		beq	.L184
 1075 0022 02F50062 		add	r2, r2, #2048
 1076 0026 9342     		cmp	r3, r2
 1077 0028 1DD0     		beq	.L184
 1078 002a 02F54062 		add	r2, r2, #3072
 1079 002e 9342     		cmp	r3, r2
 1080 0030 19D0     		beq	.L184
 1081 0032 02F58062 		add	r2, r2, #1024
 1082 0036 9342     		cmp	r3, r2
 1083 0038 15D0     		beq	.L184
 1084 003a 02F58062 		add	r2, r2, #1024
 1085 003e 9342     		cmp	r3, r2
 1086 0040 11D0     		beq	.L184
 1087              	.L185:
 1088 0042 1C6A     		ldr	r4, [r3, #32]
 1089 0044 41F21112 		movw	r2, #4369
 1090 0048 1442     		tst	r4, r2
 1091 004a 04D1     		bne	.L186
 1092 004c 1C6A     		ldr	r4, [r3, #32]
 1093 004e 40F24442 		movw	r2, #1092
 1094 0052 1442     		tst	r4, r2
 1095 0054 16D0     		beq	.L196
 1096              	.L186:
 1097 0056 D9B9     		cbnz	r1, .L187
 1098              	.L197:
 1099 0058 0123     		movs	r3, #1
 1100 005a 80F83E30 		strb	r3, [r0, #62]
 1101 005e 5DF8044B 		ldr	r4, [sp], #4
 1102 0062 0020     		movs	r0, #0
 1103 0064 7047     		bx	lr
 1104              	.L184:
 1105 0066 1C6A     		ldr	r4, [r3, #32]
 1106 0068 41F21112 		movw	r2, #4369
 1107 006c 1442     		tst	r4, r2
 1108 006e E8D1     		bne	.L185
 1109 0070 1C6A     		ldr	r4, [r3, #32]
 1110 0072 40F24442 		movw	r2, #1092
 1111 0076 1442     		tst	r4, r2
 1112 0078 E3D1     		bne	.L185
 1113 007a 5A6C     		ldr	r2, [r3, #68]
 1114 007c 22F40042 		bic	r2, r2, #32768
 1115 0080 5A64     		str	r2, [r3, #68]
 1116 0082 DEE7     		b	.L185
 1117              	.L196:
 1118 0084 1A68     		ldr	r2, [r3]
ARM GAS  /tmp/ccoSsvAJ.s 			page 20


 1119 0086 22F00102 		bic	r2, r2, #1
 1120 008a 1A60     		str	r2, [r3]
 1121 008c 0029     		cmp	r1, #0
 1122 008e E3D0     		beq	.L197
 1123              	.L187:
 1124 0090 0439     		subs	r1, r1, #4
 1125 0092 0C29     		cmp	r1, #12
 1126 0094 08D8     		bhi	.L189
 1127 0096 DFE801F0 		tbb	[pc, r1]
 1128              	.L191:
 1129 009a 23       		.byte	(.L194-.L191)/2
 1130 009b 07       		.byte	(.L189-.L191)/2
 1131 009c 07       		.byte	(.L189-.L191)/2
 1132 009d 07       		.byte	(.L189-.L191)/2
 1133 009e 1C       		.byte	(.L193-.L191)/2
 1134 009f 07       		.byte	(.L189-.L191)/2
 1135 00a0 07       		.byte	(.L189-.L191)/2
 1136 00a1 07       		.byte	(.L189-.L191)/2
 1137 00a2 15       		.byte	(.L192-.L191)/2
 1138 00a3 07       		.byte	(.L189-.L191)/2
 1139 00a4 07       		.byte	(.L189-.L191)/2
 1140 00a5 07       		.byte	(.L189-.L191)/2
 1141 00a6 0E       		.byte	(.L190-.L191)/2
 1142 00a7 00       		.p2align 1
 1143              	.L189:
 1144 00a8 0123     		movs	r3, #1
 1145 00aa 80F84330 		strb	r3, [r0, #67]
 1146 00ae 5DF8044B 		ldr	r4, [sp], #4
 1147 00b2 0020     		movs	r0, #0
 1148 00b4 7047     		bx	lr
 1149              	.L190:
 1150 00b6 0123     		movs	r3, #1
 1151 00b8 80F84230 		strb	r3, [r0, #66]
 1152 00bc 5DF8044B 		ldr	r4, [sp], #4
 1153 00c0 0020     		movs	r0, #0
 1154 00c2 7047     		bx	lr
 1155              	.L192:
 1156 00c4 0123     		movs	r3, #1
 1157 00c6 80F84130 		strb	r3, [r0, #65]
 1158 00ca 5DF8044B 		ldr	r4, [sp], #4
 1159 00ce 0020     		movs	r0, #0
 1160 00d0 7047     		bx	lr
 1161              	.L193:
 1162 00d2 0123     		movs	r3, #1
 1163 00d4 80F84030 		strb	r3, [r0, #64]
 1164 00d8 5DF8044B 		ldr	r4, [sp], #4
 1165 00dc 0020     		movs	r0, #0
 1166 00de 7047     		bx	lr
 1167              	.L194:
 1168 00e0 0123     		movs	r3, #1
 1169 00e2 80F83F30 		strb	r3, [r0, #63]
 1170 00e6 5DF8044B 		ldr	r4, [sp], #4
 1171 00ea 0020     		movs	r0, #0
 1172 00ec 7047     		bx	lr
 1173              	.L199:
 1174 00ee 00BF     		.align	2
 1175              	.L198:
ARM GAS  /tmp/ccoSsvAJ.s 			page 21


 1176 00f0 002C0140 		.word	1073818624
 1178              		.section	.text.HAL_TIM_OC_Start_IT,"ax",%progbits
 1179              		.align	1
 1180              		.p2align 2,,3
 1181              		.global	HAL_TIM_OC_Start_IT
 1182              		.syntax unified
 1183              		.thumb
 1184              		.thumb_func
 1185              		.fpu fpv4-sp-d16
 1187              	HAL_TIM_OC_Start_IT:
 1188              		@ args = 0, pretend = 0, frame = 0
 1189              		@ frame_needed = 0, uses_anonymous_args = 0
 1190              		@ link register save eliminated.
 1191 0000 1029     		cmp	r1, #16
 1192 0002 0AD8     		bhi	.L201
 1193 0004 DFE801F0 		tbb	[pc, r1]
 1194              	.L203:
 1195 0008 27       		.byte	(.L207-.L203)/2
 1196 0009 09       		.byte	(.L201-.L203)/2
 1197 000a 09       		.byte	(.L201-.L203)/2
 1198 000b 09       		.byte	(.L201-.L203)/2
 1199 000c 2E       		.byte	(.L206-.L203)/2
 1200 000d 09       		.byte	(.L201-.L203)/2
 1201 000e 09       		.byte	(.L201-.L203)/2
 1202 000f 09       		.byte	(.L201-.L203)/2
 1203 0010 3B       		.byte	(.L205-.L203)/2
 1204 0011 09       		.byte	(.L201-.L203)/2
 1205 0012 09       		.byte	(.L201-.L203)/2
 1206 0013 09       		.byte	(.L201-.L203)/2
 1207 0014 40       		.byte	(.L204-.L203)/2
 1208 0015 09       		.byte	(.L201-.L203)/2
 1209 0016 09       		.byte	(.L201-.L203)/2
 1210 0017 09       		.byte	(.L201-.L203)/2
 1211 0018 49       		.byte	(.L202-.L203)/2
 1212 0019 00       		.p2align 1
 1213              	.L201:
 1214 001a 90F84330 		ldrb	r3, [r0, #67]	@ zero_extendqisi2
 1215 001e 012B     		cmp	r3, #1
 1216 0020 1ED1     		bne	.L235
 1217              	.L211:
 1218 0022 1029     		cmp	r1, #16
 1219 0024 0AD8     		bhi	.L213
 1220 0026 DFE801F0 		tbb	[pc, r1]
 1221              	.L215:
 1222 002a A0       		.byte	(.L209-.L215)/2
 1223 002b 09       		.byte	(.L213-.L215)/2
 1224 002c 09       		.byte	(.L213-.L215)/2
 1225 002d 09       		.byte	(.L213-.L215)/2
 1226 002e 21       		.byte	(.L210-.L215)/2
 1227 002f 09       		.byte	(.L213-.L215)/2
 1228 0030 09       		.byte	(.L213-.L215)/2
 1229 0031 09       		.byte	(.L213-.L215)/2
 1230 0032 84       		.byte	(.L217-.L215)/2
 1231 0033 09       		.byte	(.L213-.L215)/2
 1232 0034 09       		.byte	(.L213-.L215)/2
 1233 0035 09       		.byte	(.L213-.L215)/2
 1234 0036 45       		.byte	(.L216-.L215)/2
ARM GAS  /tmp/ccoSsvAJ.s 			page 22


 1235 0037 09       		.byte	(.L213-.L215)/2
 1236 0038 09       		.byte	(.L213-.L215)/2
 1237 0039 09       		.byte	(.L213-.L215)/2
 1238 003a 40       		.byte	(.L214-.L215)/2
 1239 003b 00       		.p2align 1
 1240              	.L213:
 1241 003c 0222     		movs	r2, #2
 1242 003e 0B1F     		subs	r3, r1, #4
 1243 0040 80F84320 		strb	r2, [r0, #67]
 1244 0044 082B     		cmp	r3, #8
 1245 0046 0BD8     		bhi	.L235
 1246 0048 DFE803F0 		tbb	[pc, r3]
 1247              	.L222:
 1248 004c 13       		.byte	(.L219-.L222)/2
 1249 004d 0A       		.byte	(.L235-.L222)/2
 1250 004e 0A       		.byte	(.L235-.L222)/2
 1251 004f 0A       		.byte	(.L235-.L222)/2
 1252 0050 76       		.byte	(.L220-.L222)/2
 1253 0051 0A       		.byte	(.L235-.L222)/2
 1254 0052 0A       		.byte	(.L235-.L222)/2
 1255 0053 0A       		.byte	(.L235-.L222)/2
 1256 0054 37       		.byte	(.L221-.L222)/2
 1257 0055 00       		.p2align 1
 1258              	.L207:
 1259 0056 90F83E30 		ldrb	r3, [r0, #62]	@ zero_extendqisi2
 1260 005a 012B     		cmp	r3, #1
 1261 005c 00F08580 		beq	.L209
 1262              	.L235:
 1263 0060 0120     		movs	r0, #1
 1264 0062 7047     		bx	lr
 1265              	.L206:
 1266 0064 90F83F30 		ldrb	r3, [r0, #63]	@ zero_extendqisi2
 1267 0068 012B     		cmp	r3, #1
 1268 006a F9D1     		bne	.L235
 1269              	.L210:
 1270 006c 0223     		movs	r3, #2
 1271 006e 80F83F30 		strb	r3, [r0, #63]
 1272              	.L219:
 1273 0072 0368     		ldr	r3, [r0]
 1274 0074 DA68     		ldr	r2, [r3, #12]
 1275 0076 42F00402 		orr	r2, r2, #4
 1276 007a DA60     		str	r2, [r3, #12]
 1277 007c 22E0     		b	.L218
 1278              	.L205:
 1279 007e 90F84030 		ldrb	r3, [r0, #64]	@ zero_extendqisi2
 1280 0082 012B     		cmp	r3, #1
 1281 0084 CDD0     		beq	.L211
 1282 0086 EBE7     		b	.L235
 1283              	.L204:
 1284 0088 90F84130 		ldrb	r3, [r0, #65]	@ zero_extendqisi2
 1285 008c 013B     		subs	r3, r3, #1
 1286 008e 18BF     		it	ne
 1287 0090 0123     		movne	r3, #1
 1288 0092 002B     		cmp	r3, #0
 1289 0094 C5D0     		beq	.L211
 1290              	.L245:
 1291 0096 0120     		movs	r0, #1
ARM GAS  /tmp/ccoSsvAJ.s 			page 23


 1292 0098 7047     		bx	lr
 1293              	.L202:
 1294 009a 90F84230 		ldrb	r3, [r0, #66]	@ zero_extendqisi2
 1295 009e 013B     		subs	r3, r3, #1
 1296 00a0 18BF     		it	ne
 1297 00a2 0123     		movne	r3, #1
 1298 00a4 002B     		cmp	r3, #0
 1299 00a6 BCD0     		beq	.L211
 1300 00a8 F5E7     		b	.L245
 1301              	.L214:
 1302 00aa 0223     		movs	r3, #2
 1303 00ac 80F84230 		strb	r3, [r0, #66]
 1304 00b0 0120     		movs	r0, #1
 1305 00b2 7047     		bx	lr
 1306              	.L216:
 1307 00b4 0223     		movs	r3, #2
 1308 00b6 80F84130 		strb	r3, [r0, #65]
 1309              	.L221:
 1310 00ba 0368     		ldr	r3, [r0]
 1311 00bc DA68     		ldr	r2, [r3, #12]
 1312 00be 42F01002 		orr	r2, r2, #16
 1313 00c2 DA60     		str	r2, [r3, #12]
 1314              	.L218:
 1315 00c4 186A     		ldr	r0, [r3, #32]
 1316 00c6 0122     		movs	r2, #1
 1317 00c8 8A40     		lsls	r2, r2, r1
 1318 00ca 20EA0200 		bic	r0, r0, r2
 1319 00ce 1862     		str	r0, [r3, #32]
 1320 00d0 186A     		ldr	r0, [r3, #32]
 1321 00d2 2A49     		ldr	r1, .L246
 1322 00d4 0243     		orrs	r2, r2, r0
 1323 00d6 8B42     		cmp	r3, r1
 1324 00d8 1A62     		str	r2, [r3, #32]
 1325 00da 33D0     		beq	.L223
 1326 00dc 284A     		ldr	r2, .L246+4
 1327 00de 9342     		cmp	r3, r2
 1328 00e0 3ED0     		beq	.L224
 1329 00e2 02F54062 		add	r2, r2, #3072
 1330 00e6 9342     		cmp	r3, r2
 1331 00e8 3AD0     		beq	.L224
 1332 00ea 02F58062 		add	r2, r2, #1024
 1333 00ee 9342     		cmp	r3, r2
 1334 00f0 36D0     		beq	.L224
 1335 00f2 02F58062 		add	r2, r2, #1024
 1336 00f6 9342     		cmp	r3, r2
 1337 00f8 32D0     		beq	.L224
 1338              	.L227:
 1339 00fa B3F1804F 		cmp	r3, #1073741824
 1340 00fe 25D0     		beq	.L225
 1341 0100 204A     		ldr	r2, .L246+8
 1342 0102 9342     		cmp	r3, r2
 1343 0104 22D0     		beq	.L225
 1344 0106 02F58062 		add	r2, r2, #1024
 1345 010a 9342     		cmp	r3, r2
 1346 010c 1ED0     		beq	.L225
 1347 010e 02F58062 		add	r2, r2, #1024
 1348 0112 9342     		cmp	r3, r2
ARM GAS  /tmp/ccoSsvAJ.s 			page 24


 1349 0114 1AD0     		beq	.L225
 1350 0116 02F59432 		add	r2, r2, #75776
 1351 011a 9342     		cmp	r3, r2
 1352 011c 16D0     		beq	.L225
 1353 011e 02F54062 		add	r2, r2, #3072
 1354 0122 9342     		cmp	r3, r2
 1355 0124 12D0     		beq	.L225
 1356              	.L226:
 1357 0126 1A68     		ldr	r2, [r3]
 1358 0128 42F00102 		orr	r2, r2, #1
 1359 012c 0020     		movs	r0, #0
 1360 012e 1A60     		str	r2, [r3]
 1361 0130 7047     		bx	lr
 1362              	.L217:
 1363 0132 0223     		movs	r3, #2
 1364 0134 80F84030 		strb	r3, [r0, #64]
 1365              	.L220:
 1366 0138 0368     		ldr	r3, [r0]
 1367 013a DA68     		ldr	r2, [r3, #12]
 1368 013c 42F00802 		orr	r2, r2, #8
 1369 0140 DA60     		str	r2, [r3, #12]
 1370 0142 BFE7     		b	.L218
 1371              	.L223:
 1372 0144 5A6C     		ldr	r2, [r3, #68]
 1373 0146 42F40042 		orr	r2, r2, #32768
 1374 014a 5A64     		str	r2, [r3, #68]
 1375              	.L225:
 1376 014c 9968     		ldr	r1, [r3, #8]
 1377 014e 0E4A     		ldr	r2, .L246+12
 1378 0150 0A40     		ands	r2, r2, r1
 1379 0152 062A     		cmp	r2, #6
 1380 0154 02D0     		beq	.L234
 1381 0156 B2F5803F 		cmp	r2, #65536
 1382 015a E4D1     		bne	.L226
 1383              	.L234:
 1384 015c 0020     		movs	r0, #0
 1385 015e 7047     		bx	lr
 1386              	.L224:
 1387 0160 5A6C     		ldr	r2, [r3, #68]
 1388 0162 42F40042 		orr	r2, r2, #32768
 1389 0166 5A64     		str	r2, [r3, #68]
 1390 0168 C7E7     		b	.L227
 1391              	.L209:
 1392 016a 0368     		ldr	r3, [r0]
 1393 016c 0222     		movs	r2, #2
 1394 016e 80F83E20 		strb	r2, [r0, #62]
 1395 0172 DA68     		ldr	r2, [r3, #12]
 1396 0174 42F00202 		orr	r2, r2, #2
 1397 0178 DA60     		str	r2, [r3, #12]
 1398 017a A3E7     		b	.L218
 1399              	.L247:
 1400              		.align	2
 1401              	.L246:
 1402 017c 002C0140 		.word	1073818624
 1403 0180 00340140 		.word	1073820672
 1404 0184 00040040 		.word	1073742848
 1405 0188 07000100 		.word	65543
ARM GAS  /tmp/ccoSsvAJ.s 			page 25


 1407              		.section	.text.HAL_TIM_OC_Stop_IT,"ax",%progbits
 1408              		.align	1
 1409              		.p2align 2,,3
 1410              		.global	HAL_TIM_OC_Stop_IT
 1411              		.syntax unified
 1412              		.thumb
 1413              		.thumb_func
 1414              		.fpu fpv4-sp-d16
 1416              	HAL_TIM_OC_Stop_IT:
 1417              		@ args = 0, pretend = 0, frame = 0
 1418              		@ frame_needed = 0, uses_anonymous_args = 0
 1419              		@ link register save eliminated.
 1420 0000 0C29     		cmp	r1, #12
 1421 0002 08D8     		bhi	.L262
 1422 0004 DFE801F0 		tbb	[pc, r1]
 1423              	.L251:
 1424 0008 4E       		.byte	(.L254-.L251)/2
 1425 0009 07       		.byte	(.L262-.L251)/2
 1426 000a 07       		.byte	(.L262-.L251)/2
 1427 000b 07       		.byte	(.L262-.L251)/2
 1428 000c 48       		.byte	(.L253-.L251)/2
 1429 000d 07       		.byte	(.L262-.L251)/2
 1430 000e 07       		.byte	(.L262-.L251)/2
 1431 000f 07       		.byte	(.L262-.L251)/2
 1432 0010 42       		.byte	(.L252-.L251)/2
 1433 0011 07       		.byte	(.L262-.L251)/2
 1434 0012 07       		.byte	(.L262-.L251)/2
 1435 0013 07       		.byte	(.L262-.L251)/2
 1436 0014 09       		.byte	(.L250-.L251)/2
 1437 0015 00       		.p2align 1
 1438              	.L262:
 1439 0016 0120     		movs	r0, #1
 1440 0018 7047     		bx	lr
 1441              	.L250:
 1442 001a 0368     		ldr	r3, [r0]
 1443 001c DA68     		ldr	r2, [r3, #12]
 1444 001e 22F01002 		bic	r2, r2, #16
 1445 0022 DA60     		str	r2, [r3, #12]
 1446              	.L255:
 1447 0024 1A6A     		ldr	r2, [r3, #32]
 1448 0026 4FF0010C 		mov	ip, #1
 1449 002a 0CFA01FC 		lsl	ip, ip, r1
 1450 002e 22EA0C02 		bic	r2, r2, ip
 1451 0032 10B4     		push	{r4}
 1452 0034 1A62     		str	r2, [r3, #32]
 1453 0036 2F4A     		ldr	r2, .L267
 1454 0038 1C6A     		ldr	r4, [r3, #32]
 1455 003a 1C62     		str	r4, [r3, #32]
 1456 003c 9342     		cmp	r3, r2
 1457 003e 37D0     		beq	.L256
 1458 0040 02F50062 		add	r2, r2, #2048
 1459 0044 9342     		cmp	r3, r2
 1460 0046 33D0     		beq	.L256
 1461 0048 02F54062 		add	r2, r2, #3072
 1462 004c 9342     		cmp	r3, r2
 1463 004e 2FD0     		beq	.L256
 1464 0050 02F58062 		add	r2, r2, #1024
ARM GAS  /tmp/ccoSsvAJ.s 			page 26


 1465 0054 9342     		cmp	r3, r2
 1466 0056 2BD0     		beq	.L256
 1467 0058 02F58062 		add	r2, r2, #1024
 1468 005c 9342     		cmp	r3, r2
 1469 005e 27D0     		beq	.L256
 1470              	.L257:
 1471 0060 1C6A     		ldr	r4, [r3, #32]
 1472 0062 41F21112 		movw	r2, #4369
 1473 0066 1442     		tst	r4, r2
 1474 0068 08D1     		bne	.L258
 1475 006a 1C6A     		ldr	r4, [r3, #32]
 1476 006c 40F24442 		movw	r2, #1092
 1477 0070 1442     		tst	r4, r2
 1478 0072 03D1     		bne	.L258
 1479 0074 1A68     		ldr	r2, [r3]
 1480 0076 22F00102 		bic	r2, r2, #1
 1481 007a 1A60     		str	r2, [r3]
 1482              	.L258:
 1483 007c 0123     		movs	r3, #1
 1484 007e 31BB     		cbnz	r1, .L259
 1485 0080 80F83E30 		strb	r3, [r0, #62]
 1486 0084 5DF8044B 		ldr	r4, [sp], #4
 1487 0088 0846     		mov	r0, r1
 1488 008a 7047     		bx	lr
 1489              	.L252:
 1490 008c 0368     		ldr	r3, [r0]
 1491 008e DA68     		ldr	r2, [r3, #12]
 1492 0090 22F00802 		bic	r2, r2, #8
 1493 0094 DA60     		str	r2, [r3, #12]
 1494 0096 C5E7     		b	.L255
 1495              	.L253:
 1496 0098 0368     		ldr	r3, [r0]
 1497 009a DA68     		ldr	r2, [r3, #12]
 1498 009c 22F00402 		bic	r2, r2, #4
 1499 00a0 DA60     		str	r2, [r3, #12]
 1500 00a2 BFE7     		b	.L255
 1501              	.L254:
 1502 00a4 0368     		ldr	r3, [r0]
 1503 00a6 DA68     		ldr	r2, [r3, #12]
 1504 00a8 22F00202 		bic	r2, r2, #2
 1505 00ac DA60     		str	r2, [r3, #12]
 1506 00ae B9E7     		b	.L255
 1507              	.L256:
 1508 00b0 1C6A     		ldr	r4, [r3, #32]
 1509 00b2 41F21112 		movw	r2, #4369
 1510 00b6 1442     		tst	r4, r2
 1511 00b8 D2D1     		bne	.L257
 1512 00ba 1C6A     		ldr	r4, [r3, #32]
 1513 00bc 40F24442 		movw	r2, #1092
 1514 00c0 1442     		tst	r4, r2
 1515 00c2 CDD1     		bne	.L257
 1516 00c4 5A6C     		ldr	r2, [r3, #68]
 1517 00c6 22F40042 		bic	r2, r2, #32768
 1518 00ca 5A64     		str	r2, [r3, #68]
 1519 00cc C8E7     		b	.L257
 1520              	.L259:
 1521 00ce 0429     		cmp	r1, #4
ARM GAS  /tmp/ccoSsvAJ.s 			page 27


 1522 00d0 09D0     		beq	.L266
 1523 00d2 0829     		cmp	r1, #8
 1524 00d4 0CBF     		ite	eq
 1525 00d6 80F84030 		strbeq	r3, [r0, #64]
 1526 00da 80F84130 		strbne	r3, [r0, #65]
 1527 00de 5DF8044B 		ldr	r4, [sp], #4
 1528 00e2 0020     		movs	r0, #0
 1529 00e4 7047     		bx	lr
 1530              	.L266:
 1531 00e6 80F83F30 		strb	r3, [r0, #63]
 1532 00ea 5DF8044B 		ldr	r4, [sp], #4
 1533 00ee 0020     		movs	r0, #0
 1534 00f0 7047     		bx	lr
 1535              	.L268:
 1536 00f2 00BF     		.align	2
 1537              	.L267:
 1538 00f4 002C0140 		.word	1073818624
 1540              		.section	.text.HAL_TIM_OC_Start_DMA,"ax",%progbits
 1541              		.align	1
 1542              		.p2align 2,,3
 1543              		.global	HAL_TIM_OC_Start_DMA
 1544              		.syntax unified
 1545              		.thumb
 1546              		.thumb_func
 1547              		.fpu fpv4-sp-d16
 1549              	HAL_TIM_OC_Start_DMA:
 1550              		@ args = 0, pretend = 0, frame = 0
 1551              		@ frame_needed = 0, uses_anonymous_args = 0
 1552 0000 70B5     		push	{r4, r5, r6, lr}
 1553 0002 0C46     		mov	r4, r1
 1554 0004 0546     		mov	r5, r0
 1555 0006 102C     		cmp	r4, #16
 1556 0008 0AD8     		bhi	.L270
 1557 000a DFE804F0 		tbb	[pc, r4]
 1558              	.L272:
 1559 000e 65       		.byte	(.L276-.L272)/2
 1560 000f 09       		.byte	(.L270-.L272)/2
 1561 0010 09       		.byte	(.L270-.L272)/2
 1562 0011 09       		.byte	(.L270-.L272)/2
 1563 0012 4D       		.byte	(.L275-.L272)/2
 1564 0013 09       		.byte	(.L270-.L272)/2
 1565 0014 09       		.byte	(.L270-.L272)/2
 1566 0015 09       		.byte	(.L270-.L272)/2
 1567 0016 6D       		.byte	(.L274-.L272)/2
 1568 0017 09       		.byte	(.L270-.L272)/2
 1569 0018 09       		.byte	(.L270-.L272)/2
 1570 0019 09       		.byte	(.L270-.L272)/2
 1571 001a 55       		.byte	(.L273-.L272)/2
 1572 001b 09       		.byte	(.L270-.L272)/2
 1573 001c 09       		.byte	(.L270-.L272)/2
 1574 001d 09       		.byte	(.L270-.L272)/2
 1575 001e 5D       		.byte	(.L271-.L272)/2
 1576 001f 00       		.p2align 1
 1577              	.L270:
 1578 0020 90F84300 		ldrb	r0, [r0, #67]	@ zero_extendqisi2
 1579 0024 A0F10200 		sub	r0, #2
 1580 0028 B0FA80F0 		clz	r0, r0
ARM GAS  /tmp/ccoSsvAJ.s 			page 28


 1581 002c 4009     		lsrs	r0, r0, #5
 1582              	.L277:
 1583 002e 0028     		cmp	r0, #0
 1584 0030 40F03381 		bne	.L332
 1585 0034 102C     		cmp	r4, #16
 1586 0036 0AD8     		bhi	.L278
 1587 0038 DFE804F0 		tbb	[pc, r4]
 1588              	.L280:
 1589 003c 7E       		.byte	(.L284-.L280)/2
 1590 003d 09       		.byte	(.L278-.L280)/2
 1591 003e 09       		.byte	(.L278-.L280)/2
 1592 003f 09       		.byte	(.L278-.L280)/2
 1593 0040 76       		.byte	(.L283-.L280)/2
 1594 0041 09       		.byte	(.L278-.L280)/2
 1595 0042 09       		.byte	(.L278-.L280)/2
 1596 0043 09       		.byte	(.L278-.L280)/2
 1597 0044 6E       		.byte	(.L282-.L280)/2
 1598 0045 09       		.byte	(.L278-.L280)/2
 1599 0046 09       		.byte	(.L278-.L280)/2
 1600 0047 09       		.byte	(.L278-.L280)/2
 1601 0048 66       		.byte	(.L281-.L280)/2
 1602 0049 09       		.byte	(.L278-.L280)/2
 1603 004a 09       		.byte	(.L278-.L280)/2
 1604 004b 09       		.byte	(.L278-.L280)/2
 1605 004c 5E       		.byte	(.L279-.L280)/2
 1606 004d 00       		.p2align 1
 1607              	.L278:
 1608 004e 95F84310 		ldrb	r1, [r5, #67]	@ zero_extendqisi2
 1609 0052 A1F10101 		sub	r1, #1
 1610 0056 B1FA81F1 		clz	r1, r1
 1611 005a 4909     		lsrs	r1, r1, #5
 1612              	.L287:
 1613 005c 0029     		cmp	r1, #0
 1614 005e 74D0     		beq	.L331
 1615 0060 002A     		cmp	r2, #0
 1616 0062 70D0     		beq	.L309
 1617              	.L289:
 1618 0064 102C     		cmp	r4, #16
 1619 0066 12D8     		bhi	.L291
 1620 0068 DFE814F0 		tbh	[pc, r4, lsl #1]
 1621              	.L293:
 1622 006c FA00     		.2byte	(.L297-.L293)/2
 1623 006e 1100     		.2byte	(.L291-.L293)/2
 1624 0070 1100     		.2byte	(.L291-.L293)/2
 1625 0072 1100     		.2byte	(.L291-.L293)/2
 1626 0074 E200     		.2byte	(.L296-.L293)/2
 1627 0076 1100     		.2byte	(.L291-.L293)/2
 1628 0078 1100     		.2byte	(.L291-.L293)/2
 1629 007a 1100     		.2byte	(.L291-.L293)/2
 1630 007c CB00     		.2byte	(.L295-.L293)/2
 1631 007e 1100     		.2byte	(.L291-.L293)/2
 1632 0080 1100     		.2byte	(.L291-.L293)/2
 1633 0082 1100     		.2byte	(.L291-.L293)/2
 1634 0084 7500     		.2byte	(.L294-.L293)/2
 1635 0086 1100     		.2byte	(.L291-.L293)/2
 1636 0088 1100     		.2byte	(.L291-.L293)/2
 1637 008a 1100     		.2byte	(.L291-.L293)/2
ARM GAS  /tmp/ccoSsvAJ.s 			page 29


 1638 008c 7100     		.2byte	(.L292-.L293)/2
 1639              		.p2align 1
 1640              	.L291:
 1641 008e 0221     		movs	r1, #2
 1642 0090 85F84310 		strb	r1, [r5, #67]
 1643 0094 211F     		subs	r1, r4, #4
 1644 0096 0829     		cmp	r1, #8
 1645 0098 57D8     		bhi	.L331
 1646 009a DFE801F0 		tbb	[pc, r1]
 1647              	.L302:
 1648 009e CC       		.byte	(.L299-.L302)/2
 1649 009f 56       		.byte	(.L331-.L302)/2
 1650 00a0 56       		.byte	(.L331-.L302)/2
 1651 00a1 56       		.byte	(.L331-.L302)/2
 1652 00a2 B5       		.byte	(.L300-.L302)/2
 1653 00a3 56       		.byte	(.L331-.L302)/2
 1654 00a4 56       		.byte	(.L331-.L302)/2
 1655 00a5 56       		.byte	(.L331-.L302)/2
 1656 00a6 5F       		.byte	(.L301-.L302)/2
 1657 00a7 00       		.p2align 1
 1658              	.L275:
 1659 00a8 90F83F00 		ldrb	r0, [r0, #63]	@ zero_extendqisi2
 1660 00ac A0F10200 		sub	r0, #2
 1661 00b0 B0FA80F0 		clz	r0, r0
 1662 00b4 4009     		lsrs	r0, r0, #5
 1663 00b6 BAE7     		b	.L277
 1664              	.L273:
 1665 00b8 90F84100 		ldrb	r0, [r0, #65]	@ zero_extendqisi2
 1666 00bc A0F10200 		sub	r0, #2
 1667 00c0 B0FA80F0 		clz	r0, r0
 1668 00c4 4009     		lsrs	r0, r0, #5
 1669 00c6 B2E7     		b	.L277
 1670              	.L271:
 1671 00c8 90F84200 		ldrb	r0, [r0, #66]	@ zero_extendqisi2
 1672 00cc A0F10200 		sub	r0, #2
 1673 00d0 B0FA80F0 		clz	r0, r0
 1674 00d4 4009     		lsrs	r0, r0, #5
 1675 00d6 AAE7     		b	.L277
 1676              	.L276:
 1677 00d8 90F83E00 		ldrb	r0, [r0, #62]	@ zero_extendqisi2
 1678 00dc A0F10200 		sub	r0, #2
 1679 00e0 B0FA80F0 		clz	r0, r0
 1680 00e4 4009     		lsrs	r0, r0, #5
 1681 00e6 A2E7     		b	.L277
 1682              	.L274:
 1683 00e8 90F84000 		ldrb	r0, [r0, #64]	@ zero_extendqisi2
 1684 00ec A0F10200 		sub	r0, #2
 1685 00f0 B0FA80F0 		clz	r0, r0
 1686 00f4 4009     		lsrs	r0, r0, #5
 1687 00f6 9AE7     		b	.L277
 1688              	.L279:
 1689 00f8 95F84210 		ldrb	r1, [r5, #66]	@ zero_extendqisi2
 1690 00fc A1F10101 		sub	r1, #1
 1691 0100 B1FA81F1 		clz	r1, r1
 1692 0104 4909     		lsrs	r1, r1, #5
 1693 0106 A9E7     		b	.L287
 1694              	.L281:
ARM GAS  /tmp/ccoSsvAJ.s 			page 30


 1695 0108 95F84110 		ldrb	r1, [r5, #65]	@ zero_extendqisi2
 1696 010c A1F10101 		sub	r1, #1
 1697 0110 B1FA81F1 		clz	r1, r1
 1698 0114 4909     		lsrs	r1, r1, #5
 1699 0116 A1E7     		b	.L287
 1700              	.L282:
 1701 0118 95F84010 		ldrb	r1, [r5, #64]	@ zero_extendqisi2
 1702 011c A1F10101 		sub	r1, #1
 1703 0120 B1FA81F1 		clz	r1, r1
 1704 0124 4909     		lsrs	r1, r1, #5
 1705 0126 99E7     		b	.L287
 1706              	.L283:
 1707 0128 95F83F10 		ldrb	r1, [r5, #63]	@ zero_extendqisi2
 1708 012c A1F10101 		sub	r1, #1
 1709 0130 B1FA81F1 		clz	r1, r1
 1710 0134 4909     		lsrs	r1, r1, #5
 1711 0136 91E7     		b	.L287
 1712              	.L284:
 1713 0138 95F83E10 		ldrb	r1, [r5, #62]	@ zero_extendqisi2
 1714 013c 0129     		cmp	r1, #1
 1715 013e 04D1     		bne	.L331
 1716 0140 002A     		cmp	r2, #0
 1717 0142 40F08D80 		bne	.L297
 1718              	.L309:
 1719 0146 002B     		cmp	r3, #0
 1720 0148 8CD0     		beq	.L289
 1721              	.L331:
 1722 014a 0120     		movs	r0, #1
 1723 014c 70BD     		pop	{r4, r5, r6, pc}
 1724              	.L292:
 1725 014e 0223     		movs	r3, #2
 1726 0150 85F84230 		strb	r3, [r5, #66]
 1727 0154 F9E7     		b	.L331
 1728              	.L294:
 1729 0156 0221     		movs	r1, #2
 1730 0158 85F84110 		strb	r1, [r5, #65]
 1731              	.L301:
 1732 015c 286B     		ldr	r0, [r5, #48]
 1733 015e 534E     		ldr	r6, .L333
 1734 0160 1146     		mov	r1, r2
 1735 0162 2A68     		ldr	r2, [r5]
 1736 0164 C662     		str	r6, [r0, #44]
 1737 0166 524E     		ldr	r6, .L333+4
 1738 0168 0663     		str	r6, [r0, #48]
 1739 016a 524E     		ldr	r6, .L333+8
 1740 016c 4663     		str	r6, [r0, #52]
 1741 016e 4032     		adds	r2, r2, #64
 1742 0170 FFF7FEFF 		bl	HAL_DMA_Start_IT
 1743 0174 0028     		cmp	r0, #0
 1744 0176 E8D1     		bne	.L331
 1745 0178 2B68     		ldr	r3, [r5]
 1746 017a DA68     		ldr	r2, [r3, #12]
 1747 017c 42F48052 		orr	r2, r2, #4096
 1748 0180 DA60     		str	r2, [r3, #12]
 1749              	.L303:
 1750 0182 196A     		ldr	r1, [r3, #32]
 1751 0184 0122     		movs	r2, #1
ARM GAS  /tmp/ccoSsvAJ.s 			page 31


 1752 0186 A240     		lsls	r2, r2, r4
 1753 0188 21EA0201 		bic	r1, r1, r2
 1754 018c 1962     		str	r1, [r3, #32]
 1755 018e 186A     		ldr	r0, [r3, #32]
 1756 0190 4949     		ldr	r1, .L333+12
 1757 0192 0243     		orrs	r2, r2, r0
 1758 0194 8B42     		cmp	r3, r1
 1759 0196 1A62     		str	r2, [r3, #32]
 1760 0198 00F08380 		beq	.L304
 1761 019c 474A     		ldr	r2, .L333+16
 1762 019e 9342     		cmp	r3, r2
 1763 01a0 76D0     		beq	.L305
 1764 01a2 02F54062 		add	r2, r2, #3072
 1765 01a6 9342     		cmp	r3, r2
 1766 01a8 72D0     		beq	.L305
 1767 01aa 02F58062 		add	r2, r2, #1024
 1768 01ae 9342     		cmp	r3, r2
 1769 01b0 6ED0     		beq	.L305
 1770 01b2 02F58062 		add	r2, r2, #1024
 1771 01b6 9342     		cmp	r3, r2
 1772 01b8 6AD0     		beq	.L305
 1773              	.L308:
 1774 01ba B3F1804F 		cmp	r3, #1073741824
 1775 01be 12D0     		beq	.L306
 1776 01c0 3F4A     		ldr	r2, .L333+20
 1777 01c2 9342     		cmp	r3, r2
 1778 01c4 0FD0     		beq	.L306
 1779 01c6 02F58062 		add	r2, r2, #1024
 1780 01ca 9342     		cmp	r3, r2
 1781 01cc 0BD0     		beq	.L306
 1782 01ce 02F58062 		add	r2, r2, #1024
 1783 01d2 9342     		cmp	r3, r2
 1784 01d4 07D0     		beq	.L306
 1785 01d6 02F59432 		add	r2, r2, #75776
 1786 01da 9342     		cmp	r3, r2
 1787 01dc 03D0     		beq	.L306
 1788 01de 02F54062 		add	r2, r2, #3072
 1789 01e2 9342     		cmp	r3, r2
 1790 01e4 07D1     		bne	.L307
 1791              	.L306:
 1792 01e6 9968     		ldr	r1, [r3, #8]
 1793 01e8 364A     		ldr	r2, .L333+24
 1794 01ea 0A40     		ands	r2, r2, r1
 1795 01ec 062A     		cmp	r2, #6
 1796 01ee 56D0     		beq	.L314
 1797 01f0 B2F5803F 		cmp	r2, #65536
 1798 01f4 53D0     		beq	.L314
 1799              	.L307:
 1800 01f6 1A68     		ldr	r2, [r3]
 1801 01f8 42F00102 		orr	r2, r2, #1
 1802 01fc 0020     		movs	r0, #0
 1803 01fe 1A60     		str	r2, [r3]
 1804 0200 70BD     		pop	{r4, r5, r6, pc}
 1805              	.L295:
 1806 0202 0221     		movs	r1, #2
 1807 0204 85F84010 		strb	r1, [r5, #64]
 1808              	.L300:
ARM GAS  /tmp/ccoSsvAJ.s 			page 32


 1809 0208 E86A     		ldr	r0, [r5, #44]
 1810 020a 284E     		ldr	r6, .L333
 1811 020c 1146     		mov	r1, r2
 1812 020e 2A68     		ldr	r2, [r5]
 1813 0210 C662     		str	r6, [r0, #44]
 1814 0212 274E     		ldr	r6, .L333+4
 1815 0214 0663     		str	r6, [r0, #48]
 1816 0216 274E     		ldr	r6, .L333+8
 1817 0218 4663     		str	r6, [r0, #52]
 1818 021a 3C32     		adds	r2, r2, #60
 1819 021c FFF7FEFF 		bl	HAL_DMA_Start_IT
 1820 0220 0028     		cmp	r0, #0
 1821 0222 92D1     		bne	.L331
 1822 0224 2B68     		ldr	r3, [r5]
 1823 0226 DA68     		ldr	r2, [r3, #12]
 1824 0228 42F40062 		orr	r2, r2, #2048
 1825 022c DA60     		str	r2, [r3, #12]
 1826 022e A8E7     		b	.L303
 1827              	.L296:
 1828 0230 0221     		movs	r1, #2
 1829 0232 85F83F10 		strb	r1, [r5, #63]
 1830              	.L299:
 1831 0236 A86A     		ldr	r0, [r5, #40]
 1832 0238 1C4E     		ldr	r6, .L333
 1833 023a 1146     		mov	r1, r2
 1834 023c 2A68     		ldr	r2, [r5]
 1835 023e C662     		str	r6, [r0, #44]
 1836 0240 1B4E     		ldr	r6, .L333+4
 1837 0242 0663     		str	r6, [r0, #48]
 1838 0244 1B4E     		ldr	r6, .L333+8
 1839 0246 4663     		str	r6, [r0, #52]
 1840 0248 3832     		adds	r2, r2, #56
 1841 024a FFF7FEFF 		bl	HAL_DMA_Start_IT
 1842 024e 0028     		cmp	r0, #0
 1843 0250 7FF47BAF 		bne	.L331
 1844 0254 2B68     		ldr	r3, [r5]
 1845 0256 DA68     		ldr	r2, [r3, #12]
 1846 0258 42F48062 		orr	r2, r2, #1024
 1847 025c DA60     		str	r2, [r3, #12]
 1848 025e 90E7     		b	.L303
 1849              	.L297:
 1850 0260 686A     		ldr	r0, [r5, #36]
 1851 0262 124E     		ldr	r6, .L333
 1852 0264 0221     		movs	r1, #2
 1853 0266 85F83E10 		strb	r1, [r5, #62]
 1854 026a 1146     		mov	r1, r2
 1855 026c 2A68     		ldr	r2, [r5]
 1856 026e C662     		str	r6, [r0, #44]
 1857 0270 0F4E     		ldr	r6, .L333+4
 1858 0272 0663     		str	r6, [r0, #48]
 1859 0274 0F4E     		ldr	r6, .L333+8
 1860 0276 4663     		str	r6, [r0, #52]
 1861 0278 3432     		adds	r2, r2, #52
 1862 027a FFF7FEFF 		bl	HAL_DMA_Start_IT
 1863 027e 0028     		cmp	r0, #0
 1864 0280 7FF463AF 		bne	.L331
 1865 0284 2B68     		ldr	r3, [r5]
ARM GAS  /tmp/ccoSsvAJ.s 			page 33


 1866 0286 DA68     		ldr	r2, [r3, #12]
 1867 0288 42F40072 		orr	r2, r2, #512
 1868 028c DA60     		str	r2, [r3, #12]
 1869 028e 78E7     		b	.L303
 1870              	.L305:
 1871 0290 5A6C     		ldr	r2, [r3, #68]
 1872 0292 42F40042 		orr	r2, r2, #32768
 1873 0296 5A64     		str	r2, [r3, #68]
 1874 0298 8FE7     		b	.L308
 1875              	.L332:
 1876 029a 0220     		movs	r0, #2
 1877 029c 70BD     		pop	{r4, r5, r6, pc}
 1878              	.L314:
 1879 029e 0020     		movs	r0, #0
 1880 02a0 70BD     		pop	{r4, r5, r6, pc}
 1881              	.L304:
 1882 02a2 5A6C     		ldr	r2, [r3, #68]
 1883 02a4 42F40042 		orr	r2, r2, #32768
 1884 02a8 5A64     		str	r2, [r3, #68]
 1885 02aa 9CE7     		b	.L306
 1886              	.L334:
 1887              		.align	2
 1888              	.L333:
 1889 02ac 00000000 		.word	TIM_DMADelayPulseCplt
 1890 02b0 00000000 		.word	TIM_DMADelayPulseHalfCplt
 1891 02b4 00000000 		.word	TIM_DMAError
 1892 02b8 002C0140 		.word	1073818624
 1893 02bc 00340140 		.word	1073820672
 1894 02c0 00040040 		.word	1073742848
 1895 02c4 07000100 		.word	65543
 1897              		.section	.text.HAL_TIM_OC_Stop_DMA,"ax",%progbits
 1898              		.align	1
 1899              		.p2align 2,,3
 1900              		.global	HAL_TIM_OC_Stop_DMA
 1901              		.syntax unified
 1902              		.thumb
 1903              		.thumb_func
 1904              		.fpu fpv4-sp-d16
 1906              	HAL_TIM_OC_Stop_DMA:
 1907              		@ args = 0, pretend = 0, frame = 0
 1908              		@ frame_needed = 0, uses_anonymous_args = 0
 1909 0000 38B5     		push	{r3, r4, r5, lr}
 1910 0002 0C46     		mov	r4, r1
 1911 0004 0546     		mov	r5, r0
 1912 0006 0C29     		cmp	r1, #12
 1913 0008 08D8     		bhi	.L349
 1914 000a DFE801F0 		tbb	[pc, r1]
 1915              	.L338:
 1916 000e 53       		.byte	(.L341-.L338)/2
 1917 000f 07       		.byte	(.L349-.L338)/2
 1918 0010 07       		.byte	(.L349-.L338)/2
 1919 0011 07       		.byte	(.L349-.L338)/2
 1920 0012 4A       		.byte	(.L340-.L338)/2
 1921 0013 07       		.byte	(.L349-.L338)/2
 1922 0014 07       		.byte	(.L349-.L338)/2
 1923 0015 07       		.byte	(.L349-.L338)/2
 1924 0016 41       		.byte	(.L339-.L338)/2
ARM GAS  /tmp/ccoSsvAJ.s 			page 34


 1925 0017 07       		.byte	(.L349-.L338)/2
 1926 0018 07       		.byte	(.L349-.L338)/2
 1927 0019 07       		.byte	(.L349-.L338)/2
 1928 001a 09       		.byte	(.L337-.L338)/2
 1929 001b 00       		.p2align 1
 1930              	.L349:
 1931 001c 0120     		movs	r0, #1
 1932 001e 38BD     		pop	{r3, r4, r5, pc}
 1933              	.L337:
 1934 0020 0268     		ldr	r2, [r0]
 1935 0022 006B     		ldr	r0, [r0, #48]
 1936 0024 D368     		ldr	r3, [r2, #12]
 1937 0026 23F48053 		bic	r3, r3, #4096
 1938 002a D360     		str	r3, [r2, #12]
 1939 002c FFF7FEFF 		bl	HAL_DMA_Abort_IT
 1940              	.L342:
 1941 0030 2B68     		ldr	r3, [r5]
 1942 0032 0121     		movs	r1, #1
 1943 0034 1A6A     		ldr	r2, [r3, #32]
 1944 0036 A140     		lsls	r1, r1, r4
 1945 0038 22EA0102 		bic	r2, r2, r1
 1946 003c 1A62     		str	r2, [r3, #32]
 1947 003e 304A     		ldr	r2, .L352
 1948 0040 196A     		ldr	r1, [r3, #32]
 1949 0042 1962     		str	r1, [r3, #32]
 1950 0044 9342     		cmp	r3, r2
 1951 0046 3ED0     		beq	.L343
 1952 0048 02F50062 		add	r2, r2, #2048
 1953 004c 9342     		cmp	r3, r2
 1954 004e 3AD0     		beq	.L343
 1955 0050 02F54062 		add	r2, r2, #3072
 1956 0054 9342     		cmp	r3, r2
 1957 0056 36D0     		beq	.L343
 1958 0058 02F58062 		add	r2, r2, #1024
 1959 005c 9342     		cmp	r3, r2
 1960 005e 32D0     		beq	.L343
 1961 0060 02F58062 		add	r2, r2, #1024
 1962 0064 9342     		cmp	r3, r2
 1963 0066 2ED0     		beq	.L343
 1964              	.L344:
 1965 0068 196A     		ldr	r1, [r3, #32]
 1966 006a 41F21112 		movw	r2, #4369
 1967 006e 1142     		tst	r1, r2
 1968 0070 08D1     		bne	.L345
 1969 0072 196A     		ldr	r1, [r3, #32]
 1970 0074 40F24442 		movw	r2, #1092
 1971 0078 1142     		tst	r1, r2
 1972 007a 03D1     		bne	.L345
 1973 007c 1A68     		ldr	r2, [r3]
 1974 007e 22F00102 		bic	r2, r2, #1
 1975 0082 1A60     		str	r2, [r3]
 1976              	.L345:
 1977 0084 0123     		movs	r3, #1
 1978 0086 6CBB     		cbnz	r4, .L346
 1979 0088 85F83E30 		strb	r3, [r5, #62]
 1980 008c 2046     		mov	r0, r4
 1981 008e 38BD     		pop	{r3, r4, r5, pc}
ARM GAS  /tmp/ccoSsvAJ.s 			page 35


 1982              	.L339:
 1983 0090 0268     		ldr	r2, [r0]
 1984 0092 C06A     		ldr	r0, [r0, #44]
 1985 0094 D368     		ldr	r3, [r2, #12]
 1986 0096 23F40063 		bic	r3, r3, #2048
 1987 009a D360     		str	r3, [r2, #12]
 1988 009c FFF7FEFF 		bl	HAL_DMA_Abort_IT
 1989 00a0 C6E7     		b	.L342
 1990              	.L340:
 1991 00a2 0268     		ldr	r2, [r0]
 1992 00a4 806A     		ldr	r0, [r0, #40]
 1993 00a6 D368     		ldr	r3, [r2, #12]
 1994 00a8 23F48063 		bic	r3, r3, #1024
 1995 00ac D360     		str	r3, [r2, #12]
 1996 00ae FFF7FEFF 		bl	HAL_DMA_Abort_IT
 1997 00b2 BDE7     		b	.L342
 1998              	.L341:
 1999 00b4 0268     		ldr	r2, [r0]
 2000 00b6 406A     		ldr	r0, [r0, #36]
 2001 00b8 D368     		ldr	r3, [r2, #12]
 2002 00ba 23F40073 		bic	r3, r3, #512
 2003 00be D360     		str	r3, [r2, #12]
 2004 00c0 FFF7FEFF 		bl	HAL_DMA_Abort_IT
 2005 00c4 B4E7     		b	.L342
 2006              	.L343:
 2007 00c6 196A     		ldr	r1, [r3, #32]
 2008 00c8 41F21112 		movw	r2, #4369
 2009 00cc 1142     		tst	r1, r2
 2010 00ce CBD1     		bne	.L344
 2011 00d0 196A     		ldr	r1, [r3, #32]
 2012 00d2 40F24442 		movw	r2, #1092
 2013 00d6 1142     		tst	r1, r2
 2014 00d8 C6D1     		bne	.L344
 2015 00da 5A6C     		ldr	r2, [r3, #68]
 2016 00dc 22F40042 		bic	r2, r2, #32768
 2017 00e0 5A64     		str	r2, [r3, #68]
 2018 00e2 C1E7     		b	.L344
 2019              	.L346:
 2020 00e4 042C     		cmp	r4, #4
 2021 00e6 07D0     		beq	.L351
 2022 00e8 082C     		cmp	r4, #8
 2023 00ea 0CBF     		ite	eq
 2024 00ec 85F84030 		strbeq	r3, [r5, #64]
 2025 00f0 85F84130 		strbne	r3, [r5, #65]
 2026 00f4 0020     		movs	r0, #0
 2027 00f6 38BD     		pop	{r3, r4, r5, pc}
 2028              	.L351:
 2029 00f8 85F83F30 		strb	r3, [r5, #63]
 2030 00fc 0020     		movs	r0, #0
 2031 00fe 38BD     		pop	{r3, r4, r5, pc}
 2032              	.L353:
 2033              		.align	2
 2034              	.L352:
 2035 0100 002C0140 		.word	1073818624
 2037              		.section	.text.HAL_TIM_PWM_MspInit,"ax",%progbits
 2038              		.align	1
 2039              		.p2align 2,,3
ARM GAS  /tmp/ccoSsvAJ.s 			page 36


 2040              		.weak	HAL_TIM_PWM_MspInit
 2041              		.syntax unified
 2042              		.thumb
 2043              		.thumb_func
 2044              		.fpu fpv4-sp-d16
 2046              	HAL_TIM_PWM_MspInit:
 2047              		@ args = 0, pretend = 0, frame = 0
 2048              		@ frame_needed = 0, uses_anonymous_args = 0
 2049              		@ link register save eliminated.
 2050 0000 7047     		bx	lr
 2052 0002 00BF     		.section	.text.HAL_TIM_PWM_Init,"ax",%progbits
 2053              		.align	1
 2054              		.p2align 2,,3
 2055              		.global	HAL_TIM_PWM_Init
 2056              		.syntax unified
 2057              		.thumb
 2058              		.thumb_func
 2059              		.fpu fpv4-sp-d16
 2061              	HAL_TIM_PWM_Init:
 2062              		@ args = 0, pretend = 0, frame = 0
 2063              		@ frame_needed = 0, uses_anonymous_args = 0
 2064 0000 0028     		cmp	r0, #0
 2065 0002 72D0     		beq	.L371
 2066 0004 70B5     		push	{r4, r5, r6, lr}
 2067 0006 90F83D30 		ldrb	r3, [r0, #61]	@ zero_extendqisi2
 2068 000a 0446     		mov	r4, r0
 2069 000c 03F0FF02 		and	r2, r3, #255
 2070 0010 002B     		cmp	r3, #0
 2071 0012 65D0     		beq	.L380
 2072              	.L357:
 2073 0014 2268     		ldr	r2, [r4]
 2074 0016 364E     		ldr	r6, .L381
 2075 0018 A569     		ldr	r5, [r4, #24]
 2076 001a E068     		ldr	r0, [r4, #12]
 2077 001c 6168     		ldr	r1, [r4, #4]
 2078 001e 0223     		movs	r3, #2
 2079 0020 84F83D30 		strb	r3, [r4, #61]
 2080 0024 B242     		cmp	r2, r6
 2081 0026 1368     		ldr	r3, [r2]
 2082 0028 49D0     		beq	.L363
 2083 002a B2F1804F 		cmp	r2, #1073741824
 2084 002e 1CD0     		beq	.L359
 2085 0030 A6F59436 		sub	r6, r6, #75776
 2086 0034 B242     		cmp	r2, r6
 2087 0036 18D0     		beq	.L359
 2088 0038 06F58066 		add	r6, r6, #1024
 2089 003c B242     		cmp	r2, r6
 2090 003e 14D0     		beq	.L359
 2091 0040 06F58066 		add	r6, r6, #1024
 2092 0044 B242     		cmp	r2, r6
 2093 0046 10D0     		beq	.L359
 2094 0048 06F59436 		add	r6, r6, #75776
 2095 004c B242     		cmp	r2, r6
 2096 004e 36D0     		beq	.L363
 2097 0050 06F54066 		add	r6, r6, #3072
 2098 0054 B242     		cmp	r2, r6
 2099 0056 36D0     		beq	.L378
ARM GAS  /tmp/ccoSsvAJ.s 			page 37


 2100 0058 06F58066 		add	r6, r6, #1024
 2101 005c B242     		cmp	r2, r6
 2102 005e 32D0     		beq	.L378
 2103 0060 06F58066 		add	r6, r6, #1024
 2104 0064 B242     		cmp	r2, r6
 2105 0066 08D1     		bne	.L379
 2106 0068 2DE0     		b	.L378
 2107              	.L359:
 2108 006a A668     		ldr	r6, [r4, #8]
 2109 006c 23F07003 		bic	r3, r3, #112
 2110 0070 3343     		orrs	r3, r3, r6
 2111 0072 2669     		ldr	r6, [r4, #16]
 2112 0074 23F44073 		bic	r3, r3, #768
 2113 0078 3343     		orrs	r3, r3, r6
 2114              	.L379:
 2115 007a 23F08003 		bic	r3, r3, #128
 2116 007e 2B43     		orrs	r3, r3, r5
 2117 0080 1360     		str	r3, [r2]
 2118 0082 D062     		str	r0, [r2, #44]
 2119 0084 9162     		str	r1, [r2, #40]
 2120              	.L368:
 2121 0086 0123     		movs	r3, #1
 2122 0088 5361     		str	r3, [r2, #20]
 2123 008a 84F84830 		strb	r3, [r4, #72]
 2124 008e 84F83E30 		strb	r3, [r4, #62]
 2125 0092 84F83F30 		strb	r3, [r4, #63]
 2126 0096 84F84030 		strb	r3, [r4, #64]
 2127 009a 84F84130 		strb	r3, [r4, #65]
 2128 009e 84F84230 		strb	r3, [r4, #66]
 2129 00a2 84F84330 		strb	r3, [r4, #67]
 2130 00a6 84F84430 		strb	r3, [r4, #68]
 2131 00aa 84F84530 		strb	r3, [r4, #69]
 2132 00ae 84F84630 		strb	r3, [r4, #70]
 2133 00b2 84F84730 		strb	r3, [r4, #71]
 2134 00b6 84F83D30 		strb	r3, [r4, #61]
 2135 00ba 0020     		movs	r0, #0
 2136 00bc 70BD     		pop	{r4, r5, r6, pc}
 2137              	.L363:
 2138 00be A668     		ldr	r6, [r4, #8]
 2139 00c0 23F07003 		bic	r3, r3, #112
 2140 00c4 3343     		orrs	r3, r3, r6
 2141              	.L378:
 2142 00c6 2669     		ldr	r6, [r4, #16]
 2143 00c8 23F44073 		bic	r3, r3, #768
 2144 00cc 3343     		orrs	r3, r3, r6
 2145 00ce 23F08003 		bic	r3, r3, #128
 2146 00d2 2B43     		orrs	r3, r3, r5
 2147 00d4 1360     		str	r3, [r2]
 2148 00d6 D062     		str	r0, [r2, #44]
 2149 00d8 9162     		str	r1, [r2, #40]
 2150 00da 6369     		ldr	r3, [r4, #20]
 2151 00dc 1363     		str	r3, [r2, #48]
 2152 00de D2E7     		b	.L368
 2153              	.L380:
 2154 00e0 80F83C20 		strb	r2, [r0, #60]
 2155 00e4 FFF7FEFF 		bl	HAL_TIM_PWM_MspInit
 2156 00e8 94E7     		b	.L357
ARM GAS  /tmp/ccoSsvAJ.s 			page 38


 2157              	.L371:
 2158 00ea 0120     		movs	r0, #1
 2159 00ec 7047     		bx	lr
 2160              	.L382:
 2161 00ee 00BF     		.align	2
 2162              	.L381:
 2163 00f0 002C0140 		.word	1073818624
 2165              		.section	.text.HAL_TIM_PWM_MspDeInit,"ax",%progbits
 2166              		.align	1
 2167              		.p2align 2,,3
 2168              		.weak	HAL_TIM_PWM_MspDeInit
 2169              		.syntax unified
 2170              		.thumb
 2171              		.thumb_func
 2172              		.fpu fpv4-sp-d16
 2174              	HAL_TIM_PWM_MspDeInit:
 2175              		@ args = 0, pretend = 0, frame = 0
 2176              		@ frame_needed = 0, uses_anonymous_args = 0
 2177              		@ link register save eliminated.
 2178 0000 7047     		bx	lr
 2180 0002 00BF     		.section	.text.HAL_TIM_PWM_DeInit,"ax",%progbits
 2181              		.align	1
 2182              		.p2align 2,,3
 2183              		.global	HAL_TIM_PWM_DeInit
 2184              		.syntax unified
 2185              		.thumb
 2186              		.thumb_func
 2187              		.fpu fpv4-sp-d16
 2189              	HAL_TIM_PWM_DeInit:
 2190              		@ args = 0, pretend = 0, frame = 0
 2191              		@ frame_needed = 0, uses_anonymous_args = 0
 2192 0000 0222     		movs	r2, #2
 2193 0002 0368     		ldr	r3, [r0]
 2194 0004 10B5     		push	{r4, lr}
 2195 0006 80F83D20 		strb	r2, [r0, #61]
 2196 000a 196A     		ldr	r1, [r3, #32]
 2197 000c 41F21112 		movw	r2, #4369
 2198 0010 1142     		tst	r1, r2
 2199 0012 0446     		mov	r4, r0
 2200 0014 08D1     		bne	.L385
 2201 0016 196A     		ldr	r1, [r3, #32]
 2202 0018 40F24442 		movw	r2, #1092
 2203 001c 1142     		tst	r1, r2
 2204 001e 03D1     		bne	.L385
 2205 0020 1A68     		ldr	r2, [r3]
 2206 0022 22F00102 		bic	r2, r2, #1
 2207 0026 1A60     		str	r2, [r3]
 2208              	.L385:
 2209 0028 2046     		mov	r0, r4
 2210 002a FFF7FEFF 		bl	HAL_TIM_PWM_MspDeInit
 2211 002e 0020     		movs	r0, #0
 2212 0030 84F84800 		strb	r0, [r4, #72]
 2213 0034 84F83C00 		strb	r0, [r4, #60]
 2214 0038 84F83E00 		strb	r0, [r4, #62]
 2215 003c 84F83F00 		strb	r0, [r4, #63]
 2216 0040 84F84000 		strb	r0, [r4, #64]
 2217 0044 84F84100 		strb	r0, [r4, #65]
ARM GAS  /tmp/ccoSsvAJ.s 			page 39


 2218 0048 84F84200 		strb	r0, [r4, #66]
 2219 004c 84F84300 		strb	r0, [r4, #67]
 2220 0050 84F84400 		strb	r0, [r4, #68]
 2221 0054 84F84500 		strb	r0, [r4, #69]
 2222 0058 84F84600 		strb	r0, [r4, #70]
 2223 005c 84F84700 		strb	r0, [r4, #71]
 2224 0060 84F83D00 		strb	r0, [r4, #61]
 2225 0064 10BD     		pop	{r4, pc}
 2227 0066 00BF     		.section	.text.HAL_TIM_PWM_Start,"ax",%progbits
 2228              		.align	1
 2229              		.p2align 2,,3
 2230              		.global	HAL_TIM_PWM_Start
 2231              		.syntax unified
 2232              		.thumb
 2233              		.thumb_func
 2234              		.fpu fpv4-sp-d16
 2236              	HAL_TIM_PWM_Start:
 2237              		@ args = 0, pretend = 0, frame = 0
 2238              		@ frame_needed = 0, uses_anonymous_args = 0
 2239              		@ link register save eliminated.
 2240 0000 1029     		cmp	r1, #16
 2241 0002 0AD8     		bhi	.L388
 2242 0004 DFE801F0 		tbb	[pc, r1]
 2243              	.L390:
 2244 0008 59       		.byte	(.L394-.L390)/2
 2245 0009 09       		.byte	(.L388-.L390)/2
 2246 000a 09       		.byte	(.L388-.L390)/2
 2247 000b 09       		.byte	(.L388-.L390)/2
 2248 000c 5F       		.byte	(.L393-.L390)/2
 2249 000d 09       		.byte	(.L388-.L390)/2
 2250 000e 09       		.byte	(.L388-.L390)/2
 2251 000f 09       		.byte	(.L388-.L390)/2
 2252 0010 67       		.byte	(.L392-.L390)/2
 2253 0011 09       		.byte	(.L388-.L390)/2
 2254 0012 09       		.byte	(.L388-.L390)/2
 2255 0013 09       		.byte	(.L388-.L390)/2
 2256 0014 6C       		.byte	(.L391-.L390)/2
 2257 0015 09       		.byte	(.L388-.L390)/2
 2258 0016 09       		.byte	(.L388-.L390)/2
 2259 0017 09       		.byte	(.L388-.L390)/2
 2260 0018 75       		.byte	(.L389-.L390)/2
 2261 0019 00       		.p2align 1
 2262              	.L388:
 2263 001a 90F84330 		ldrb	r3, [r0, #67]	@ zero_extendqisi2
 2264 001e 012B     		cmp	r3, #1
 2265 0020 4FD1     		bne	.L417
 2266              	.L398:
 2267 0022 1029     		cmp	r1, #16
 2268 0024 0AD8     		bhi	.L400
 2269 0026 DFE801F0 		tbb	[pc, r1]
 2270              	.L402:
 2271 002a 8B       		.byte	(.L396-.L402)/2
 2272 002b 09       		.byte	(.L400-.L402)/2
 2273 002c 09       		.byte	(.L400-.L402)/2
 2274 002d 09       		.byte	(.L400-.L402)/2
 2275 002e 52       		.byte	(.L397-.L402)/2
 2276 002f 09       		.byte	(.L400-.L402)/2
ARM GAS  /tmp/ccoSsvAJ.s 			page 40


 2277 0030 09       		.byte	(.L400-.L402)/2
 2278 0031 09       		.byte	(.L400-.L402)/2
 2279 0032 74       		.byte	(.L404-.L402)/2
 2280 0033 09       		.byte	(.L400-.L402)/2
 2281 0034 09       		.byte	(.L400-.L402)/2
 2282 0035 09       		.byte	(.L400-.L402)/2
 2283 0036 70       		.byte	(.L403-.L402)/2
 2284 0037 09       		.byte	(.L400-.L402)/2
 2285 0038 09       		.byte	(.L400-.L402)/2
 2286 0039 09       		.byte	(.L400-.L402)/2
 2287 003a 6C       		.byte	(.L401-.L402)/2
 2288 003b 00       		.p2align 1
 2289              	.L400:
 2290 003c 0223     		movs	r3, #2
 2291 003e 80F84330 		strb	r3, [r0, #67]
 2292              	.L405:
 2293 0042 0368     		ldr	r3, [r0]
 2294 0044 0122     		movs	r2, #1
 2295 0046 186A     		ldr	r0, [r3, #32]
 2296 0048 01F01F01 		and	r1, r1, #31
 2297 004c 02FA01F1 		lsl	r1, r2, r1
 2298 0050 20EA0100 		bic	r0, r0, r1
 2299 0054 1862     		str	r0, [r3, #32]
 2300 0056 186A     		ldr	r0, [r3, #32]
 2301 0058 3B4A     		ldr	r2, .L425
 2302 005a 0143     		orrs	r1, r1, r0
 2303 005c 9342     		cmp	r3, r2
 2304 005e 1962     		str	r1, [r3, #32]
 2305 0060 5BD0     		beq	.L406
 2306 0062 02F50062 		add	r2, r2, #2048
 2307 0066 9342     		cmp	r3, r2
 2308 0068 65D0     		beq	.L407
 2309 006a 02F54062 		add	r2, r2, #3072
 2310 006e 9342     		cmp	r3, r2
 2311 0070 61D0     		beq	.L407
 2312 0072 02F58062 		add	r2, r2, #1024
 2313 0076 9342     		cmp	r3, r2
 2314 0078 5DD0     		beq	.L407
 2315 007a 02F58062 		add	r2, r2, #1024
 2316 007e 9342     		cmp	r3, r2
 2317 0080 59D0     		beq	.L407
 2318              	.L410:
 2319 0082 B3F1804F 		cmp	r3, #1073741824
 2320 0086 4CD0     		beq	.L408
 2321 0088 304A     		ldr	r2, .L425+4
 2322 008a 9342     		cmp	r3, r2
 2323 008c 49D0     		beq	.L408
 2324 008e 02F58062 		add	r2, r2, #1024
 2325 0092 9342     		cmp	r3, r2
 2326 0094 45D0     		beq	.L408
 2327 0096 02F58062 		add	r2, r2, #1024
 2328 009a 9342     		cmp	r3, r2
 2329 009c 41D0     		beq	.L408
 2330 009e 02F59432 		add	r2, r2, #75776
 2331 00a2 9342     		cmp	r3, r2
 2332 00a4 3DD0     		beq	.L408
 2333 00a6 02F54062 		add	r2, r2, #3072
ARM GAS  /tmp/ccoSsvAJ.s 			page 41


 2334 00aa 9342     		cmp	r3, r2
 2335 00ac 39D0     		beq	.L408
 2336              	.L409:
 2337 00ae 1A68     		ldr	r2, [r3]
 2338 00b0 42F00102 		orr	r2, r2, #1
 2339 00b4 0020     		movs	r0, #0
 2340 00b6 1A60     		str	r2, [r3]
 2341 00b8 7047     		bx	lr
 2342              	.L394:
 2343 00ba 90F83E30 		ldrb	r3, [r0, #62]	@ zero_extendqisi2
 2344 00be 012B     		cmp	r3, #1
 2345 00c0 3ED0     		beq	.L396
 2346              	.L417:
 2347 00c2 0120     		movs	r0, #1
 2348 00c4 7047     		bx	lr
 2349              	.L393:
 2350 00c6 90F83F30 		ldrb	r3, [r0, #63]	@ zero_extendqisi2
 2351 00ca 012B     		cmp	r3, #1
 2352 00cc F9D1     		bne	.L417
 2353              	.L397:
 2354 00ce 0223     		movs	r3, #2
 2355 00d0 80F83F30 		strb	r3, [r0, #63]
 2356 00d4 B5E7     		b	.L405
 2357              	.L392:
 2358 00d6 90F84030 		ldrb	r3, [r0, #64]	@ zero_extendqisi2
 2359 00da 012B     		cmp	r3, #1
 2360 00dc A1D0     		beq	.L398
 2361 00de F0E7     		b	.L417
 2362              	.L391:
 2363 00e0 90F84130 		ldrb	r3, [r0, #65]	@ zero_extendqisi2
 2364 00e4 013B     		subs	r3, r3, #1
 2365 00e6 18BF     		it	ne
 2366 00e8 0123     		movne	r3, #1
 2367 00ea 002B     		cmp	r3, #0
 2368 00ec 99D0     		beq	.L398
 2369              	.L424:
 2370 00ee 0120     		movs	r0, #1
 2371 00f0 7047     		bx	lr
 2372              	.L389:
 2373 00f2 90F84230 		ldrb	r3, [r0, #66]	@ zero_extendqisi2
 2374 00f6 013B     		subs	r3, r3, #1
 2375 00f8 18BF     		it	ne
 2376 00fa 0123     		movne	r3, #1
 2377 00fc 002B     		cmp	r3, #0
 2378 00fe 90D0     		beq	.L398
 2379 0100 F5E7     		b	.L424
 2380              	.L401:
 2381 0102 0223     		movs	r3, #2
 2382 0104 80F84230 		strb	r3, [r0, #66]
 2383 0108 9BE7     		b	.L405
 2384              	.L403:
 2385 010a 0223     		movs	r3, #2
 2386 010c 80F84130 		strb	r3, [r0, #65]
 2387 0110 97E7     		b	.L405
 2388              	.L404:
 2389 0112 0223     		movs	r3, #2
 2390 0114 80F84030 		strb	r3, [r0, #64]
ARM GAS  /tmp/ccoSsvAJ.s 			page 42


 2391 0118 93E7     		b	.L405
 2392              	.L406:
 2393 011a 5A6C     		ldr	r2, [r3, #68]
 2394 011c 42F40042 		orr	r2, r2, #32768
 2395 0120 5A64     		str	r2, [r3, #68]
 2396              	.L408:
 2397 0122 9968     		ldr	r1, [r3, #8]
 2398 0124 0A4A     		ldr	r2, .L425+8
 2399 0126 0A40     		ands	r2, r2, r1
 2400 0128 062A     		cmp	r2, #6
 2401 012a 02D0     		beq	.L416
 2402 012c B2F5803F 		cmp	r2, #65536
 2403 0130 BDD1     		bne	.L409
 2404              	.L416:
 2405 0132 0020     		movs	r0, #0
 2406 0134 7047     		bx	lr
 2407              	.L407:
 2408 0136 5A6C     		ldr	r2, [r3, #68]
 2409 0138 42F40042 		orr	r2, r2, #32768
 2410 013c 5A64     		str	r2, [r3, #68]
 2411 013e A0E7     		b	.L410
 2412              	.L396:
 2413 0140 0223     		movs	r3, #2
 2414 0142 80F83E30 		strb	r3, [r0, #62]
 2415 0146 7CE7     		b	.L405
 2416              	.L426:
 2417              		.align	2
 2418              	.L425:
 2419 0148 002C0140 		.word	1073818624
 2420 014c 00040040 		.word	1073742848
 2421 0150 07000100 		.word	65543
 2423              		.section	.text.HAL_TIM_PWM_Stop,"ax",%progbits
 2424              		.align	1
 2425              		.p2align 2,,3
 2426              		.global	HAL_TIM_PWM_Stop
 2427              		.syntax unified
 2428              		.thumb
 2429              		.thumb_func
 2430              		.fpu fpv4-sp-d16
 2432              	HAL_TIM_PWM_Stop:
 2433              		@ args = 0, pretend = 0, frame = 0
 2434              		@ frame_needed = 0, uses_anonymous_args = 0
 2435              		@ link register save eliminated.
 2436 0000 0368     		ldr	r3, [r0]
 2437 0002 10B4     		push	{r4}
 2438 0004 1A6A     		ldr	r2, [r3, #32]
 2439 0006 01F01F04 		and	r4, r1, #31
 2440 000a 4FF0010C 		mov	ip, #1
 2441 000e 0CFA04FC 		lsl	ip, ip, r4
 2442 0012 22EA0C02 		bic	r2, r2, ip
 2443 0016 1A62     		str	r2, [r3, #32]
 2444 0018 354A     		ldr	r2, .L442
 2445 001a 1C6A     		ldr	r4, [r3, #32]
 2446 001c 1C62     		str	r4, [r3, #32]
 2447 001e 9342     		cmp	r3, r2
 2448 0020 21D0     		beq	.L428
 2449 0022 02F50062 		add	r2, r2, #2048
ARM GAS  /tmp/ccoSsvAJ.s 			page 43


 2450 0026 9342     		cmp	r3, r2
 2451 0028 1DD0     		beq	.L428
 2452 002a 02F54062 		add	r2, r2, #3072
 2453 002e 9342     		cmp	r3, r2
 2454 0030 19D0     		beq	.L428
 2455 0032 02F58062 		add	r2, r2, #1024
 2456 0036 9342     		cmp	r3, r2
 2457 0038 15D0     		beq	.L428
 2458 003a 02F58062 		add	r2, r2, #1024
 2459 003e 9342     		cmp	r3, r2
 2460 0040 11D0     		beq	.L428
 2461              	.L429:
 2462 0042 1C6A     		ldr	r4, [r3, #32]
 2463 0044 41F21112 		movw	r2, #4369
 2464 0048 1442     		tst	r4, r2
 2465 004a 04D1     		bne	.L430
 2466 004c 1C6A     		ldr	r4, [r3, #32]
 2467 004e 40F24442 		movw	r2, #1092
 2468 0052 1442     		tst	r4, r2
 2469 0054 16D0     		beq	.L440
 2470              	.L430:
 2471 0056 D9B9     		cbnz	r1, .L431
 2472              	.L441:
 2473 0058 0123     		movs	r3, #1
 2474 005a 80F83E30 		strb	r3, [r0, #62]
 2475 005e 5DF8044B 		ldr	r4, [sp], #4
 2476 0062 0020     		movs	r0, #0
 2477 0064 7047     		bx	lr
 2478              	.L428:
 2479 0066 1C6A     		ldr	r4, [r3, #32]
 2480 0068 41F21112 		movw	r2, #4369
 2481 006c 1442     		tst	r4, r2
 2482 006e E8D1     		bne	.L429
 2483 0070 1C6A     		ldr	r4, [r3, #32]
 2484 0072 40F24442 		movw	r2, #1092
 2485 0076 1442     		tst	r4, r2
 2486 0078 E3D1     		bne	.L429
 2487 007a 5A6C     		ldr	r2, [r3, #68]
 2488 007c 22F40042 		bic	r2, r2, #32768
 2489 0080 5A64     		str	r2, [r3, #68]
 2490 0082 DEE7     		b	.L429
 2491              	.L440:
 2492 0084 1A68     		ldr	r2, [r3]
 2493 0086 22F00102 		bic	r2, r2, #1
 2494 008a 1A60     		str	r2, [r3]
 2495 008c 0029     		cmp	r1, #0
 2496 008e E3D0     		beq	.L441
 2497              	.L431:
 2498 0090 0439     		subs	r1, r1, #4
 2499 0092 0C29     		cmp	r1, #12
 2500 0094 08D8     		bhi	.L433
 2501 0096 DFE801F0 		tbb	[pc, r1]
 2502              	.L435:
 2503 009a 23       		.byte	(.L438-.L435)/2
 2504 009b 07       		.byte	(.L433-.L435)/2
 2505 009c 07       		.byte	(.L433-.L435)/2
 2506 009d 07       		.byte	(.L433-.L435)/2
ARM GAS  /tmp/ccoSsvAJ.s 			page 44


 2507 009e 1C       		.byte	(.L437-.L435)/2
 2508 009f 07       		.byte	(.L433-.L435)/2
 2509 00a0 07       		.byte	(.L433-.L435)/2
 2510 00a1 07       		.byte	(.L433-.L435)/2
 2511 00a2 15       		.byte	(.L436-.L435)/2
 2512 00a3 07       		.byte	(.L433-.L435)/2
 2513 00a4 07       		.byte	(.L433-.L435)/2
 2514 00a5 07       		.byte	(.L433-.L435)/2
 2515 00a6 0E       		.byte	(.L434-.L435)/2
 2516 00a7 00       		.p2align 1
 2517              	.L433:
 2518 00a8 0123     		movs	r3, #1
 2519 00aa 80F84330 		strb	r3, [r0, #67]
 2520 00ae 5DF8044B 		ldr	r4, [sp], #4
 2521 00b2 0020     		movs	r0, #0
 2522 00b4 7047     		bx	lr
 2523              	.L434:
 2524 00b6 0123     		movs	r3, #1
 2525 00b8 80F84230 		strb	r3, [r0, #66]
 2526 00bc 5DF8044B 		ldr	r4, [sp], #4
 2527 00c0 0020     		movs	r0, #0
 2528 00c2 7047     		bx	lr
 2529              	.L436:
 2530 00c4 0123     		movs	r3, #1
 2531 00c6 80F84130 		strb	r3, [r0, #65]
 2532 00ca 5DF8044B 		ldr	r4, [sp], #4
 2533 00ce 0020     		movs	r0, #0
 2534 00d0 7047     		bx	lr
 2535              	.L437:
 2536 00d2 0123     		movs	r3, #1
 2537 00d4 80F84030 		strb	r3, [r0, #64]
 2538 00d8 5DF8044B 		ldr	r4, [sp], #4
 2539 00dc 0020     		movs	r0, #0
 2540 00de 7047     		bx	lr
 2541              	.L438:
 2542 00e0 0123     		movs	r3, #1
 2543 00e2 80F83F30 		strb	r3, [r0, #63]
 2544 00e6 5DF8044B 		ldr	r4, [sp], #4
 2545 00ea 0020     		movs	r0, #0
 2546 00ec 7047     		bx	lr
 2547              	.L443:
 2548 00ee 00BF     		.align	2
 2549              	.L442:
 2550 00f0 002C0140 		.word	1073818624
 2552              		.section	.text.HAL_TIM_PWM_Start_IT,"ax",%progbits
 2553              		.align	1
 2554              		.p2align 2,,3
 2555              		.global	HAL_TIM_PWM_Start_IT
 2556              		.syntax unified
 2557              		.thumb
 2558              		.thumb_func
 2559              		.fpu fpv4-sp-d16
 2561              	HAL_TIM_PWM_Start_IT:
 2562              		@ args = 0, pretend = 0, frame = 0
 2563              		@ frame_needed = 0, uses_anonymous_args = 0
 2564              		@ link register save eliminated.
 2565 0000 1029     		cmp	r1, #16
ARM GAS  /tmp/ccoSsvAJ.s 			page 45


 2566 0002 0AD8     		bhi	.L445
 2567 0004 DFE801F0 		tbb	[pc, r1]
 2568              	.L447:
 2569 0008 27       		.byte	(.L451-.L447)/2
 2570 0009 09       		.byte	(.L445-.L447)/2
 2571 000a 09       		.byte	(.L445-.L447)/2
 2572 000b 09       		.byte	(.L445-.L447)/2
 2573 000c 2E       		.byte	(.L450-.L447)/2
 2574 000d 09       		.byte	(.L445-.L447)/2
 2575 000e 09       		.byte	(.L445-.L447)/2
 2576 000f 09       		.byte	(.L445-.L447)/2
 2577 0010 3B       		.byte	(.L449-.L447)/2
 2578 0011 09       		.byte	(.L445-.L447)/2
 2579 0012 09       		.byte	(.L445-.L447)/2
 2580 0013 09       		.byte	(.L445-.L447)/2
 2581 0014 40       		.byte	(.L448-.L447)/2
 2582 0015 09       		.byte	(.L445-.L447)/2
 2583 0016 09       		.byte	(.L445-.L447)/2
 2584 0017 09       		.byte	(.L445-.L447)/2
 2585 0018 49       		.byte	(.L446-.L447)/2
 2586 0019 00       		.p2align 1
 2587              	.L445:
 2588 001a 90F84330 		ldrb	r3, [r0, #67]	@ zero_extendqisi2
 2589 001e 012B     		cmp	r3, #1
 2590 0020 1ED1     		bne	.L479
 2591              	.L455:
 2592 0022 1029     		cmp	r1, #16
 2593 0024 0AD8     		bhi	.L457
 2594 0026 DFE801F0 		tbb	[pc, r1]
 2595              	.L459:
 2596 002a A0       		.byte	(.L453-.L459)/2
 2597 002b 09       		.byte	(.L457-.L459)/2
 2598 002c 09       		.byte	(.L457-.L459)/2
 2599 002d 09       		.byte	(.L457-.L459)/2
 2600 002e 21       		.byte	(.L454-.L459)/2
 2601 002f 09       		.byte	(.L457-.L459)/2
 2602 0030 09       		.byte	(.L457-.L459)/2
 2603 0031 09       		.byte	(.L457-.L459)/2
 2604 0032 84       		.byte	(.L461-.L459)/2
 2605 0033 09       		.byte	(.L457-.L459)/2
 2606 0034 09       		.byte	(.L457-.L459)/2
 2607 0035 09       		.byte	(.L457-.L459)/2
 2608 0036 45       		.byte	(.L460-.L459)/2
 2609 0037 09       		.byte	(.L457-.L459)/2
 2610 0038 09       		.byte	(.L457-.L459)/2
 2611 0039 09       		.byte	(.L457-.L459)/2
 2612 003a 40       		.byte	(.L458-.L459)/2
 2613 003b 00       		.p2align 1
 2614              	.L457:
 2615 003c 0222     		movs	r2, #2
 2616 003e 0B1F     		subs	r3, r1, #4
 2617 0040 80F84320 		strb	r2, [r0, #67]
 2618 0044 082B     		cmp	r3, #8
 2619 0046 0BD8     		bhi	.L479
 2620 0048 DFE803F0 		tbb	[pc, r3]
 2621              	.L466:
 2622 004c 13       		.byte	(.L463-.L466)/2
ARM GAS  /tmp/ccoSsvAJ.s 			page 46


 2623 004d 0A       		.byte	(.L479-.L466)/2
 2624 004e 0A       		.byte	(.L479-.L466)/2
 2625 004f 0A       		.byte	(.L479-.L466)/2
 2626 0050 76       		.byte	(.L464-.L466)/2
 2627 0051 0A       		.byte	(.L479-.L466)/2
 2628 0052 0A       		.byte	(.L479-.L466)/2
 2629 0053 0A       		.byte	(.L479-.L466)/2
 2630 0054 37       		.byte	(.L465-.L466)/2
 2631 0055 00       		.p2align 1
 2632              	.L451:
 2633 0056 90F83E30 		ldrb	r3, [r0, #62]	@ zero_extendqisi2
 2634 005a 012B     		cmp	r3, #1
 2635 005c 00F08580 		beq	.L453
 2636              	.L479:
 2637 0060 0120     		movs	r0, #1
 2638 0062 7047     		bx	lr
 2639              	.L450:
 2640 0064 90F83F30 		ldrb	r3, [r0, #63]	@ zero_extendqisi2
 2641 0068 012B     		cmp	r3, #1
 2642 006a F9D1     		bne	.L479
 2643              	.L454:
 2644 006c 0223     		movs	r3, #2
 2645 006e 80F83F30 		strb	r3, [r0, #63]
 2646              	.L463:
 2647 0072 0368     		ldr	r3, [r0]
 2648 0074 DA68     		ldr	r2, [r3, #12]
 2649 0076 42F00402 		orr	r2, r2, #4
 2650 007a DA60     		str	r2, [r3, #12]
 2651 007c 22E0     		b	.L462
 2652              	.L449:
 2653 007e 90F84030 		ldrb	r3, [r0, #64]	@ zero_extendqisi2
 2654 0082 012B     		cmp	r3, #1
 2655 0084 CDD0     		beq	.L455
 2656 0086 EBE7     		b	.L479
 2657              	.L448:
 2658 0088 90F84130 		ldrb	r3, [r0, #65]	@ zero_extendqisi2
 2659 008c 013B     		subs	r3, r3, #1
 2660 008e 18BF     		it	ne
 2661 0090 0123     		movne	r3, #1
 2662 0092 002B     		cmp	r3, #0
 2663 0094 C5D0     		beq	.L455
 2664              	.L489:
 2665 0096 0120     		movs	r0, #1
 2666 0098 7047     		bx	lr
 2667              	.L446:
 2668 009a 90F84230 		ldrb	r3, [r0, #66]	@ zero_extendqisi2
 2669 009e 013B     		subs	r3, r3, #1
 2670 00a0 18BF     		it	ne
 2671 00a2 0123     		movne	r3, #1
 2672 00a4 002B     		cmp	r3, #0
 2673 00a6 BCD0     		beq	.L455
 2674 00a8 F5E7     		b	.L489
 2675              	.L458:
 2676 00aa 0223     		movs	r3, #2
 2677 00ac 80F84230 		strb	r3, [r0, #66]
 2678 00b0 0120     		movs	r0, #1
 2679 00b2 7047     		bx	lr
ARM GAS  /tmp/ccoSsvAJ.s 			page 47


 2680              	.L460:
 2681 00b4 0223     		movs	r3, #2
 2682 00b6 80F84130 		strb	r3, [r0, #65]
 2683              	.L465:
 2684 00ba 0368     		ldr	r3, [r0]
 2685 00bc DA68     		ldr	r2, [r3, #12]
 2686 00be 42F01002 		orr	r2, r2, #16
 2687 00c2 DA60     		str	r2, [r3, #12]
 2688              	.L462:
 2689 00c4 186A     		ldr	r0, [r3, #32]
 2690 00c6 0122     		movs	r2, #1
 2691 00c8 8A40     		lsls	r2, r2, r1
 2692 00ca 20EA0200 		bic	r0, r0, r2
 2693 00ce 1862     		str	r0, [r3, #32]
 2694 00d0 186A     		ldr	r0, [r3, #32]
 2695 00d2 2A49     		ldr	r1, .L490
 2696 00d4 0243     		orrs	r2, r2, r0
 2697 00d6 8B42     		cmp	r3, r1
 2698 00d8 1A62     		str	r2, [r3, #32]
 2699 00da 33D0     		beq	.L467
 2700 00dc 284A     		ldr	r2, .L490+4
 2701 00de 9342     		cmp	r3, r2
 2702 00e0 3ED0     		beq	.L468
 2703 00e2 02F54062 		add	r2, r2, #3072
 2704 00e6 9342     		cmp	r3, r2
 2705 00e8 3AD0     		beq	.L468
 2706 00ea 02F58062 		add	r2, r2, #1024
 2707 00ee 9342     		cmp	r3, r2
 2708 00f0 36D0     		beq	.L468
 2709 00f2 02F58062 		add	r2, r2, #1024
 2710 00f6 9342     		cmp	r3, r2
 2711 00f8 32D0     		beq	.L468
 2712              	.L471:
 2713 00fa B3F1804F 		cmp	r3, #1073741824
 2714 00fe 25D0     		beq	.L469
 2715 0100 204A     		ldr	r2, .L490+8
 2716 0102 9342     		cmp	r3, r2
 2717 0104 22D0     		beq	.L469
 2718 0106 02F58062 		add	r2, r2, #1024
 2719 010a 9342     		cmp	r3, r2
 2720 010c 1ED0     		beq	.L469
 2721 010e 02F58062 		add	r2, r2, #1024
 2722 0112 9342     		cmp	r3, r2
 2723 0114 1AD0     		beq	.L469
 2724 0116 02F59432 		add	r2, r2, #75776
 2725 011a 9342     		cmp	r3, r2
 2726 011c 16D0     		beq	.L469
 2727 011e 02F54062 		add	r2, r2, #3072
 2728 0122 9342     		cmp	r3, r2
 2729 0124 12D0     		beq	.L469
 2730              	.L470:
 2731 0126 1A68     		ldr	r2, [r3]
 2732 0128 42F00102 		orr	r2, r2, #1
 2733 012c 0020     		movs	r0, #0
 2734 012e 1A60     		str	r2, [r3]
 2735 0130 7047     		bx	lr
 2736              	.L461:
ARM GAS  /tmp/ccoSsvAJ.s 			page 48


 2737 0132 0223     		movs	r3, #2
 2738 0134 80F84030 		strb	r3, [r0, #64]
 2739              	.L464:
 2740 0138 0368     		ldr	r3, [r0]
 2741 013a DA68     		ldr	r2, [r3, #12]
 2742 013c 42F00802 		orr	r2, r2, #8
 2743 0140 DA60     		str	r2, [r3, #12]
 2744 0142 BFE7     		b	.L462
 2745              	.L467:
 2746 0144 5A6C     		ldr	r2, [r3, #68]
 2747 0146 42F40042 		orr	r2, r2, #32768
 2748 014a 5A64     		str	r2, [r3, #68]
 2749              	.L469:
 2750 014c 9968     		ldr	r1, [r3, #8]
 2751 014e 0E4A     		ldr	r2, .L490+12
 2752 0150 0A40     		ands	r2, r2, r1
 2753 0152 062A     		cmp	r2, #6
 2754 0154 02D0     		beq	.L478
 2755 0156 B2F5803F 		cmp	r2, #65536
 2756 015a E4D1     		bne	.L470
 2757              	.L478:
 2758 015c 0020     		movs	r0, #0
 2759 015e 7047     		bx	lr
 2760              	.L468:
 2761 0160 5A6C     		ldr	r2, [r3, #68]
 2762 0162 42F40042 		orr	r2, r2, #32768
 2763 0166 5A64     		str	r2, [r3, #68]
 2764 0168 C7E7     		b	.L471
 2765              	.L453:
 2766 016a 0368     		ldr	r3, [r0]
 2767 016c 0222     		movs	r2, #2
 2768 016e 80F83E20 		strb	r2, [r0, #62]
 2769 0172 DA68     		ldr	r2, [r3, #12]
 2770 0174 42F00202 		orr	r2, r2, #2
 2771 0178 DA60     		str	r2, [r3, #12]
 2772 017a A3E7     		b	.L462
 2773              	.L491:
 2774              		.align	2
 2775              	.L490:
 2776 017c 002C0140 		.word	1073818624
 2777 0180 00340140 		.word	1073820672
 2778 0184 00040040 		.word	1073742848
 2779 0188 07000100 		.word	65543
 2781              		.section	.text.HAL_TIM_PWM_Stop_IT,"ax",%progbits
 2782              		.align	1
 2783              		.p2align 2,,3
 2784              		.global	HAL_TIM_PWM_Stop_IT
 2785              		.syntax unified
 2786              		.thumb
 2787              		.thumb_func
 2788              		.fpu fpv4-sp-d16
 2790              	HAL_TIM_PWM_Stop_IT:
 2791              		@ args = 0, pretend = 0, frame = 0
 2792              		@ frame_needed = 0, uses_anonymous_args = 0
 2793              		@ link register save eliminated.
 2794 0000 0C29     		cmp	r1, #12
 2795 0002 08D8     		bhi	.L506
ARM GAS  /tmp/ccoSsvAJ.s 			page 49


 2796 0004 DFE801F0 		tbb	[pc, r1]
 2797              	.L495:
 2798 0008 4E       		.byte	(.L498-.L495)/2
 2799 0009 07       		.byte	(.L506-.L495)/2
 2800 000a 07       		.byte	(.L506-.L495)/2
 2801 000b 07       		.byte	(.L506-.L495)/2
 2802 000c 48       		.byte	(.L497-.L495)/2
 2803 000d 07       		.byte	(.L506-.L495)/2
 2804 000e 07       		.byte	(.L506-.L495)/2
 2805 000f 07       		.byte	(.L506-.L495)/2
 2806 0010 42       		.byte	(.L496-.L495)/2
 2807 0011 07       		.byte	(.L506-.L495)/2
 2808 0012 07       		.byte	(.L506-.L495)/2
 2809 0013 07       		.byte	(.L506-.L495)/2
 2810 0014 09       		.byte	(.L494-.L495)/2
 2811 0015 00       		.p2align 1
 2812              	.L506:
 2813 0016 0120     		movs	r0, #1
 2814 0018 7047     		bx	lr
 2815              	.L494:
 2816 001a 0368     		ldr	r3, [r0]
 2817 001c DA68     		ldr	r2, [r3, #12]
 2818 001e 22F01002 		bic	r2, r2, #16
 2819 0022 DA60     		str	r2, [r3, #12]
 2820              	.L499:
 2821 0024 1A6A     		ldr	r2, [r3, #32]
 2822 0026 4FF0010C 		mov	ip, #1
 2823 002a 0CFA01FC 		lsl	ip, ip, r1
 2824 002e 22EA0C02 		bic	r2, r2, ip
 2825 0032 10B4     		push	{r4}
 2826 0034 1A62     		str	r2, [r3, #32]
 2827 0036 2F4A     		ldr	r2, .L511
 2828 0038 1C6A     		ldr	r4, [r3, #32]
 2829 003a 1C62     		str	r4, [r3, #32]
 2830 003c 9342     		cmp	r3, r2
 2831 003e 37D0     		beq	.L500
 2832 0040 02F50062 		add	r2, r2, #2048
 2833 0044 9342     		cmp	r3, r2
 2834 0046 33D0     		beq	.L500
 2835 0048 02F54062 		add	r2, r2, #3072
 2836 004c 9342     		cmp	r3, r2
 2837 004e 2FD0     		beq	.L500
 2838 0050 02F58062 		add	r2, r2, #1024
 2839 0054 9342     		cmp	r3, r2
 2840 0056 2BD0     		beq	.L500
 2841 0058 02F58062 		add	r2, r2, #1024
 2842 005c 9342     		cmp	r3, r2
 2843 005e 27D0     		beq	.L500
 2844              	.L501:
 2845 0060 1C6A     		ldr	r4, [r3, #32]
 2846 0062 41F21112 		movw	r2, #4369
 2847 0066 1442     		tst	r4, r2
 2848 0068 08D1     		bne	.L502
 2849 006a 1C6A     		ldr	r4, [r3, #32]
 2850 006c 40F24442 		movw	r2, #1092
 2851 0070 1442     		tst	r4, r2
 2852 0072 03D1     		bne	.L502
ARM GAS  /tmp/ccoSsvAJ.s 			page 50


 2853 0074 1A68     		ldr	r2, [r3]
 2854 0076 22F00102 		bic	r2, r2, #1
 2855 007a 1A60     		str	r2, [r3]
 2856              	.L502:
 2857 007c 0123     		movs	r3, #1
 2858 007e 31BB     		cbnz	r1, .L503
 2859 0080 80F83E30 		strb	r3, [r0, #62]
 2860 0084 5DF8044B 		ldr	r4, [sp], #4
 2861 0088 0846     		mov	r0, r1
 2862 008a 7047     		bx	lr
 2863              	.L496:
 2864 008c 0368     		ldr	r3, [r0]
 2865 008e DA68     		ldr	r2, [r3, #12]
 2866 0090 22F00802 		bic	r2, r2, #8
 2867 0094 DA60     		str	r2, [r3, #12]
 2868 0096 C5E7     		b	.L499
 2869              	.L497:
 2870 0098 0368     		ldr	r3, [r0]
 2871 009a DA68     		ldr	r2, [r3, #12]
 2872 009c 22F00402 		bic	r2, r2, #4
 2873 00a0 DA60     		str	r2, [r3, #12]
 2874 00a2 BFE7     		b	.L499
 2875              	.L498:
 2876 00a4 0368     		ldr	r3, [r0]
 2877 00a6 DA68     		ldr	r2, [r3, #12]
 2878 00a8 22F00202 		bic	r2, r2, #2
 2879 00ac DA60     		str	r2, [r3, #12]
 2880 00ae B9E7     		b	.L499
 2881              	.L500:
 2882 00b0 1C6A     		ldr	r4, [r3, #32]
 2883 00b2 41F21112 		movw	r2, #4369
 2884 00b6 1442     		tst	r4, r2
 2885 00b8 D2D1     		bne	.L501
 2886 00ba 1C6A     		ldr	r4, [r3, #32]
 2887 00bc 40F24442 		movw	r2, #1092
 2888 00c0 1442     		tst	r4, r2
 2889 00c2 CDD1     		bne	.L501
 2890 00c4 5A6C     		ldr	r2, [r3, #68]
 2891 00c6 22F40042 		bic	r2, r2, #32768
 2892 00ca 5A64     		str	r2, [r3, #68]
 2893 00cc C8E7     		b	.L501
 2894              	.L503:
 2895 00ce 0429     		cmp	r1, #4
 2896 00d0 09D0     		beq	.L510
 2897 00d2 0829     		cmp	r1, #8
 2898 00d4 0CBF     		ite	eq
 2899 00d6 80F84030 		strbeq	r3, [r0, #64]
 2900 00da 80F84130 		strbne	r3, [r0, #65]
 2901 00de 5DF8044B 		ldr	r4, [sp], #4
 2902 00e2 0020     		movs	r0, #0
 2903 00e4 7047     		bx	lr
 2904              	.L510:
 2905 00e6 80F83F30 		strb	r3, [r0, #63]
 2906 00ea 5DF8044B 		ldr	r4, [sp], #4
 2907 00ee 0020     		movs	r0, #0
 2908 00f0 7047     		bx	lr
 2909              	.L512:
ARM GAS  /tmp/ccoSsvAJ.s 			page 51


 2910 00f2 00BF     		.align	2
 2911              	.L511:
 2912 00f4 002C0140 		.word	1073818624
 2914              		.section	.text.HAL_TIM_PWM_Start_DMA,"ax",%progbits
 2915              		.align	1
 2916              		.p2align 2,,3
 2917              		.global	HAL_TIM_PWM_Start_DMA
 2918              		.syntax unified
 2919              		.thumb
 2920              		.thumb_func
 2921              		.fpu fpv4-sp-d16
 2923              	HAL_TIM_PWM_Start_DMA:
 2924              		@ args = 0, pretend = 0, frame = 0
 2925              		@ frame_needed = 0, uses_anonymous_args = 0
 2926 0000 70B5     		push	{r4, r5, r6, lr}
 2927 0002 0C46     		mov	r4, r1
 2928 0004 0546     		mov	r5, r0
 2929 0006 102C     		cmp	r4, #16
 2930 0008 0AD8     		bhi	.L514
 2931 000a DFE804F0 		tbb	[pc, r4]
 2932              	.L516:
 2933 000e 65       		.byte	(.L520-.L516)/2
 2934 000f 09       		.byte	(.L514-.L516)/2
 2935 0010 09       		.byte	(.L514-.L516)/2
 2936 0011 09       		.byte	(.L514-.L516)/2
 2937 0012 4D       		.byte	(.L519-.L516)/2
 2938 0013 09       		.byte	(.L514-.L516)/2
 2939 0014 09       		.byte	(.L514-.L516)/2
 2940 0015 09       		.byte	(.L514-.L516)/2
 2941 0016 6D       		.byte	(.L518-.L516)/2
 2942 0017 09       		.byte	(.L514-.L516)/2
 2943 0018 09       		.byte	(.L514-.L516)/2
 2944 0019 09       		.byte	(.L514-.L516)/2
 2945 001a 55       		.byte	(.L517-.L516)/2
 2946 001b 09       		.byte	(.L514-.L516)/2
 2947 001c 09       		.byte	(.L514-.L516)/2
 2948 001d 09       		.byte	(.L514-.L516)/2
 2949 001e 5D       		.byte	(.L515-.L516)/2
 2950 001f 00       		.p2align 1
 2951              	.L514:
 2952 0020 90F84300 		ldrb	r0, [r0, #67]	@ zero_extendqisi2
 2953 0024 A0F10200 		sub	r0, #2
 2954 0028 B0FA80F0 		clz	r0, r0
 2955 002c 4009     		lsrs	r0, r0, #5
 2956              	.L521:
 2957 002e 0028     		cmp	r0, #0
 2958 0030 40F03381 		bne	.L576
 2959 0034 102C     		cmp	r4, #16
 2960 0036 0AD8     		bhi	.L522
 2961 0038 DFE804F0 		tbb	[pc, r4]
 2962              	.L524:
 2963 003c 7E       		.byte	(.L528-.L524)/2
 2964 003d 09       		.byte	(.L522-.L524)/2
 2965 003e 09       		.byte	(.L522-.L524)/2
 2966 003f 09       		.byte	(.L522-.L524)/2
 2967 0040 76       		.byte	(.L527-.L524)/2
 2968 0041 09       		.byte	(.L522-.L524)/2
ARM GAS  /tmp/ccoSsvAJ.s 			page 52


 2969 0042 09       		.byte	(.L522-.L524)/2
 2970 0043 09       		.byte	(.L522-.L524)/2
 2971 0044 6E       		.byte	(.L526-.L524)/2
 2972 0045 09       		.byte	(.L522-.L524)/2
 2973 0046 09       		.byte	(.L522-.L524)/2
 2974 0047 09       		.byte	(.L522-.L524)/2
 2975 0048 66       		.byte	(.L525-.L524)/2
 2976 0049 09       		.byte	(.L522-.L524)/2
 2977 004a 09       		.byte	(.L522-.L524)/2
 2978 004b 09       		.byte	(.L522-.L524)/2
 2979 004c 5E       		.byte	(.L523-.L524)/2
 2980 004d 00       		.p2align 1
 2981              	.L522:
 2982 004e 95F84310 		ldrb	r1, [r5, #67]	@ zero_extendqisi2
 2983 0052 A1F10101 		sub	r1, #1
 2984 0056 B1FA81F1 		clz	r1, r1
 2985 005a 4909     		lsrs	r1, r1, #5
 2986              	.L531:
 2987 005c 0029     		cmp	r1, #0
 2988 005e 74D0     		beq	.L575
 2989 0060 002A     		cmp	r2, #0
 2990 0062 70D0     		beq	.L553
 2991              	.L533:
 2992 0064 102C     		cmp	r4, #16
 2993 0066 12D8     		bhi	.L535
 2994 0068 DFE814F0 		tbh	[pc, r4, lsl #1]
 2995              	.L537:
 2996 006c FA00     		.2byte	(.L541-.L537)/2
 2997 006e 1100     		.2byte	(.L535-.L537)/2
 2998 0070 1100     		.2byte	(.L535-.L537)/2
 2999 0072 1100     		.2byte	(.L535-.L537)/2
 3000 0074 E200     		.2byte	(.L540-.L537)/2
 3001 0076 1100     		.2byte	(.L535-.L537)/2
 3002 0078 1100     		.2byte	(.L535-.L537)/2
 3003 007a 1100     		.2byte	(.L535-.L537)/2
 3004 007c CB00     		.2byte	(.L539-.L537)/2
 3005 007e 1100     		.2byte	(.L535-.L537)/2
 3006 0080 1100     		.2byte	(.L535-.L537)/2
 3007 0082 1100     		.2byte	(.L535-.L537)/2
 3008 0084 7500     		.2byte	(.L538-.L537)/2
 3009 0086 1100     		.2byte	(.L535-.L537)/2
 3010 0088 1100     		.2byte	(.L535-.L537)/2
 3011 008a 1100     		.2byte	(.L535-.L537)/2
 3012 008c 7100     		.2byte	(.L536-.L537)/2
 3013              		.p2align 1
 3014              	.L535:
 3015 008e 0221     		movs	r1, #2
 3016 0090 85F84310 		strb	r1, [r5, #67]
 3017 0094 211F     		subs	r1, r4, #4
 3018 0096 0829     		cmp	r1, #8
 3019 0098 57D8     		bhi	.L575
 3020 009a DFE801F0 		tbb	[pc, r1]
 3021              	.L546:
 3022 009e CC       		.byte	(.L543-.L546)/2
 3023 009f 56       		.byte	(.L575-.L546)/2
 3024 00a0 56       		.byte	(.L575-.L546)/2
 3025 00a1 56       		.byte	(.L575-.L546)/2
ARM GAS  /tmp/ccoSsvAJ.s 			page 53


 3026 00a2 B5       		.byte	(.L544-.L546)/2
 3027 00a3 56       		.byte	(.L575-.L546)/2
 3028 00a4 56       		.byte	(.L575-.L546)/2
 3029 00a5 56       		.byte	(.L575-.L546)/2
 3030 00a6 5F       		.byte	(.L545-.L546)/2
 3031 00a7 00       		.p2align 1
 3032              	.L519:
 3033 00a8 90F83F00 		ldrb	r0, [r0, #63]	@ zero_extendqisi2
 3034 00ac A0F10200 		sub	r0, #2
 3035 00b0 B0FA80F0 		clz	r0, r0
 3036 00b4 4009     		lsrs	r0, r0, #5
 3037 00b6 BAE7     		b	.L521
 3038              	.L517:
 3039 00b8 90F84100 		ldrb	r0, [r0, #65]	@ zero_extendqisi2
 3040 00bc A0F10200 		sub	r0, #2
 3041 00c0 B0FA80F0 		clz	r0, r0
 3042 00c4 4009     		lsrs	r0, r0, #5
 3043 00c6 B2E7     		b	.L521
 3044              	.L515:
 3045 00c8 90F84200 		ldrb	r0, [r0, #66]	@ zero_extendqisi2
 3046 00cc A0F10200 		sub	r0, #2
 3047 00d0 B0FA80F0 		clz	r0, r0
 3048 00d4 4009     		lsrs	r0, r0, #5
 3049 00d6 AAE7     		b	.L521
 3050              	.L520:
 3051 00d8 90F83E00 		ldrb	r0, [r0, #62]	@ zero_extendqisi2
 3052 00dc A0F10200 		sub	r0, #2
 3053 00e0 B0FA80F0 		clz	r0, r0
 3054 00e4 4009     		lsrs	r0, r0, #5
 3055 00e6 A2E7     		b	.L521
 3056              	.L518:
 3057 00e8 90F84000 		ldrb	r0, [r0, #64]	@ zero_extendqisi2
 3058 00ec A0F10200 		sub	r0, #2
 3059 00f0 B0FA80F0 		clz	r0, r0
 3060 00f4 4009     		lsrs	r0, r0, #5
 3061 00f6 9AE7     		b	.L521
 3062              	.L523:
 3063 00f8 95F84210 		ldrb	r1, [r5, #66]	@ zero_extendqisi2
 3064 00fc A1F10101 		sub	r1, #1
 3065 0100 B1FA81F1 		clz	r1, r1
 3066 0104 4909     		lsrs	r1, r1, #5
 3067 0106 A9E7     		b	.L531
 3068              	.L525:
 3069 0108 95F84110 		ldrb	r1, [r5, #65]	@ zero_extendqisi2
 3070 010c A1F10101 		sub	r1, #1
 3071 0110 B1FA81F1 		clz	r1, r1
 3072 0114 4909     		lsrs	r1, r1, #5
 3073 0116 A1E7     		b	.L531
 3074              	.L526:
 3075 0118 95F84010 		ldrb	r1, [r5, #64]	@ zero_extendqisi2
 3076 011c A1F10101 		sub	r1, #1
 3077 0120 B1FA81F1 		clz	r1, r1
 3078 0124 4909     		lsrs	r1, r1, #5
 3079 0126 99E7     		b	.L531
 3080              	.L527:
 3081 0128 95F83F10 		ldrb	r1, [r5, #63]	@ zero_extendqisi2
 3082 012c A1F10101 		sub	r1, #1
ARM GAS  /tmp/ccoSsvAJ.s 			page 54


 3083 0130 B1FA81F1 		clz	r1, r1
 3084 0134 4909     		lsrs	r1, r1, #5
 3085 0136 91E7     		b	.L531
 3086              	.L528:
 3087 0138 95F83E10 		ldrb	r1, [r5, #62]	@ zero_extendqisi2
 3088 013c 0129     		cmp	r1, #1
 3089 013e 04D1     		bne	.L575
 3090 0140 002A     		cmp	r2, #0
 3091 0142 40F08D80 		bne	.L541
 3092              	.L553:
 3093 0146 002B     		cmp	r3, #0
 3094 0148 8CD0     		beq	.L533
 3095              	.L575:
 3096 014a 0120     		movs	r0, #1
 3097 014c 70BD     		pop	{r4, r5, r6, pc}
 3098              	.L536:
 3099 014e 0223     		movs	r3, #2
 3100 0150 85F84230 		strb	r3, [r5, #66]
 3101 0154 F9E7     		b	.L575
 3102              	.L538:
 3103 0156 0221     		movs	r1, #2
 3104 0158 85F84110 		strb	r1, [r5, #65]
 3105              	.L545:
 3106 015c 286B     		ldr	r0, [r5, #48]
 3107 015e 534E     		ldr	r6, .L577
 3108 0160 1146     		mov	r1, r2
 3109 0162 2A68     		ldr	r2, [r5]
 3110 0164 C662     		str	r6, [r0, #44]
 3111 0166 524E     		ldr	r6, .L577+4
 3112 0168 0663     		str	r6, [r0, #48]
 3113 016a 524E     		ldr	r6, .L577+8
 3114 016c 4663     		str	r6, [r0, #52]
 3115 016e 4032     		adds	r2, r2, #64
 3116 0170 FFF7FEFF 		bl	HAL_DMA_Start_IT
 3117 0174 0028     		cmp	r0, #0
 3118 0176 E8D1     		bne	.L575
 3119 0178 2B68     		ldr	r3, [r5]
 3120 017a DA68     		ldr	r2, [r3, #12]
 3121 017c 42F48052 		orr	r2, r2, #4096
 3122 0180 DA60     		str	r2, [r3, #12]
 3123              	.L547:
 3124 0182 196A     		ldr	r1, [r3, #32]
 3125 0184 0122     		movs	r2, #1
 3126 0186 A240     		lsls	r2, r2, r4
 3127 0188 21EA0201 		bic	r1, r1, r2
 3128 018c 1962     		str	r1, [r3, #32]
 3129 018e 186A     		ldr	r0, [r3, #32]
 3130 0190 4949     		ldr	r1, .L577+12
 3131 0192 0243     		orrs	r2, r2, r0
 3132 0194 8B42     		cmp	r3, r1
 3133 0196 1A62     		str	r2, [r3, #32]
 3134 0198 00F08380 		beq	.L548
 3135 019c 474A     		ldr	r2, .L577+16
 3136 019e 9342     		cmp	r3, r2
 3137 01a0 76D0     		beq	.L549
 3138 01a2 02F54062 		add	r2, r2, #3072
 3139 01a6 9342     		cmp	r3, r2
ARM GAS  /tmp/ccoSsvAJ.s 			page 55


 3140 01a8 72D0     		beq	.L549
 3141 01aa 02F58062 		add	r2, r2, #1024
 3142 01ae 9342     		cmp	r3, r2
 3143 01b0 6ED0     		beq	.L549
 3144 01b2 02F58062 		add	r2, r2, #1024
 3145 01b6 9342     		cmp	r3, r2
 3146 01b8 6AD0     		beq	.L549
 3147              	.L552:
 3148 01ba B3F1804F 		cmp	r3, #1073741824
 3149 01be 12D0     		beq	.L550
 3150 01c0 3F4A     		ldr	r2, .L577+20
 3151 01c2 9342     		cmp	r3, r2
 3152 01c4 0FD0     		beq	.L550
 3153 01c6 02F58062 		add	r2, r2, #1024
 3154 01ca 9342     		cmp	r3, r2
 3155 01cc 0BD0     		beq	.L550
 3156 01ce 02F58062 		add	r2, r2, #1024
 3157 01d2 9342     		cmp	r3, r2
 3158 01d4 07D0     		beq	.L550
 3159 01d6 02F59432 		add	r2, r2, #75776
 3160 01da 9342     		cmp	r3, r2
 3161 01dc 03D0     		beq	.L550
 3162 01de 02F54062 		add	r2, r2, #3072
 3163 01e2 9342     		cmp	r3, r2
 3164 01e4 07D1     		bne	.L551
 3165              	.L550:
 3166 01e6 9968     		ldr	r1, [r3, #8]
 3167 01e8 364A     		ldr	r2, .L577+24
 3168 01ea 0A40     		ands	r2, r2, r1
 3169 01ec 062A     		cmp	r2, #6
 3170 01ee 56D0     		beq	.L558
 3171 01f0 B2F5803F 		cmp	r2, #65536
 3172 01f4 53D0     		beq	.L558
 3173              	.L551:
 3174 01f6 1A68     		ldr	r2, [r3]
 3175 01f8 42F00102 		orr	r2, r2, #1
 3176 01fc 0020     		movs	r0, #0
 3177 01fe 1A60     		str	r2, [r3]
 3178 0200 70BD     		pop	{r4, r5, r6, pc}
 3179              	.L539:
 3180 0202 0221     		movs	r1, #2
 3181 0204 85F84010 		strb	r1, [r5, #64]
 3182              	.L544:
 3183 0208 E86A     		ldr	r0, [r5, #44]
 3184 020a 284E     		ldr	r6, .L577
 3185 020c 1146     		mov	r1, r2
 3186 020e 2A68     		ldr	r2, [r5]
 3187 0210 C662     		str	r6, [r0, #44]
 3188 0212 274E     		ldr	r6, .L577+4
 3189 0214 0663     		str	r6, [r0, #48]
 3190 0216 274E     		ldr	r6, .L577+8
 3191 0218 4663     		str	r6, [r0, #52]
 3192 021a 3C32     		adds	r2, r2, #60
 3193 021c FFF7FEFF 		bl	HAL_DMA_Start_IT
 3194 0220 0028     		cmp	r0, #0
 3195 0222 92D1     		bne	.L575
 3196 0224 2B68     		ldr	r3, [r5]
ARM GAS  /tmp/ccoSsvAJ.s 			page 56


 3197 0226 DA68     		ldr	r2, [r3, #12]
 3198 0228 42F40062 		orr	r2, r2, #2048
 3199 022c DA60     		str	r2, [r3, #12]
 3200 022e A8E7     		b	.L547
 3201              	.L540:
 3202 0230 0221     		movs	r1, #2
 3203 0232 85F83F10 		strb	r1, [r5, #63]
 3204              	.L543:
 3205 0236 A86A     		ldr	r0, [r5, #40]
 3206 0238 1C4E     		ldr	r6, .L577
 3207 023a 1146     		mov	r1, r2
 3208 023c 2A68     		ldr	r2, [r5]
 3209 023e C662     		str	r6, [r0, #44]
 3210 0240 1B4E     		ldr	r6, .L577+4
 3211 0242 0663     		str	r6, [r0, #48]
 3212 0244 1B4E     		ldr	r6, .L577+8
 3213 0246 4663     		str	r6, [r0, #52]
 3214 0248 3832     		adds	r2, r2, #56
 3215 024a FFF7FEFF 		bl	HAL_DMA_Start_IT
 3216 024e 0028     		cmp	r0, #0
 3217 0250 7FF47BAF 		bne	.L575
 3218 0254 2B68     		ldr	r3, [r5]
 3219 0256 DA68     		ldr	r2, [r3, #12]
 3220 0258 42F48062 		orr	r2, r2, #1024
 3221 025c DA60     		str	r2, [r3, #12]
 3222 025e 90E7     		b	.L547
 3223              	.L541:
 3224 0260 686A     		ldr	r0, [r5, #36]
 3225 0262 124E     		ldr	r6, .L577
 3226 0264 0221     		movs	r1, #2
 3227 0266 85F83E10 		strb	r1, [r5, #62]
 3228 026a 1146     		mov	r1, r2
 3229 026c 2A68     		ldr	r2, [r5]
 3230 026e C662     		str	r6, [r0, #44]
 3231 0270 0F4E     		ldr	r6, .L577+4
 3232 0272 0663     		str	r6, [r0, #48]
 3233 0274 0F4E     		ldr	r6, .L577+8
 3234 0276 4663     		str	r6, [r0, #52]
 3235 0278 3432     		adds	r2, r2, #52
 3236 027a FFF7FEFF 		bl	HAL_DMA_Start_IT
 3237 027e 0028     		cmp	r0, #0
 3238 0280 7FF463AF 		bne	.L575
 3239 0284 2B68     		ldr	r3, [r5]
 3240 0286 DA68     		ldr	r2, [r3, #12]
 3241 0288 42F40072 		orr	r2, r2, #512
 3242 028c DA60     		str	r2, [r3, #12]
 3243 028e 78E7     		b	.L547
 3244              	.L549:
 3245 0290 5A6C     		ldr	r2, [r3, #68]
 3246 0292 42F40042 		orr	r2, r2, #32768
 3247 0296 5A64     		str	r2, [r3, #68]
 3248 0298 8FE7     		b	.L552
 3249              	.L576:
 3250 029a 0220     		movs	r0, #2
 3251 029c 70BD     		pop	{r4, r5, r6, pc}
 3252              	.L558:
 3253 029e 0020     		movs	r0, #0
ARM GAS  /tmp/ccoSsvAJ.s 			page 57


 3254 02a0 70BD     		pop	{r4, r5, r6, pc}
 3255              	.L548:
 3256 02a2 5A6C     		ldr	r2, [r3, #68]
 3257 02a4 42F40042 		orr	r2, r2, #32768
 3258 02a8 5A64     		str	r2, [r3, #68]
 3259 02aa 9CE7     		b	.L550
 3260              	.L578:
 3261              		.align	2
 3262              	.L577:
 3263 02ac 00000000 		.word	TIM_DMADelayPulseCplt
 3264 02b0 00000000 		.word	TIM_DMADelayPulseHalfCplt
 3265 02b4 00000000 		.word	TIM_DMAError
 3266 02b8 002C0140 		.word	1073818624
 3267 02bc 00340140 		.word	1073820672
 3268 02c0 00040040 		.word	1073742848
 3269 02c4 07000100 		.word	65543
 3271              		.section	.text.HAL_TIM_PWM_Stop_DMA,"ax",%progbits
 3272              		.align	1
 3273              		.p2align 2,,3
 3274              		.global	HAL_TIM_PWM_Stop_DMA
 3275              		.syntax unified
 3276              		.thumb
 3277              		.thumb_func
 3278              		.fpu fpv4-sp-d16
 3280              	HAL_TIM_PWM_Stop_DMA:
 3281              		@ args = 0, pretend = 0, frame = 0
 3282              		@ frame_needed = 0, uses_anonymous_args = 0
 3283 0000 38B5     		push	{r3, r4, r5, lr}
 3284 0002 0C46     		mov	r4, r1
 3285 0004 0546     		mov	r5, r0
 3286 0006 0C29     		cmp	r1, #12
 3287 0008 08D8     		bhi	.L593
 3288 000a DFE801F0 		tbb	[pc, r1]
 3289              	.L582:
 3290 000e 53       		.byte	(.L585-.L582)/2
 3291 000f 07       		.byte	(.L593-.L582)/2
 3292 0010 07       		.byte	(.L593-.L582)/2
 3293 0011 07       		.byte	(.L593-.L582)/2
 3294 0012 4A       		.byte	(.L584-.L582)/2
 3295 0013 07       		.byte	(.L593-.L582)/2
 3296 0014 07       		.byte	(.L593-.L582)/2
 3297 0015 07       		.byte	(.L593-.L582)/2
 3298 0016 41       		.byte	(.L583-.L582)/2
 3299 0017 07       		.byte	(.L593-.L582)/2
 3300 0018 07       		.byte	(.L593-.L582)/2
 3301 0019 07       		.byte	(.L593-.L582)/2
 3302 001a 09       		.byte	(.L581-.L582)/2
 3303 001b 00       		.p2align 1
 3304              	.L593:
 3305 001c 0120     		movs	r0, #1
 3306 001e 38BD     		pop	{r3, r4, r5, pc}
 3307              	.L581:
 3308 0020 0268     		ldr	r2, [r0]
 3309 0022 006B     		ldr	r0, [r0, #48]
 3310 0024 D368     		ldr	r3, [r2, #12]
 3311 0026 23F48053 		bic	r3, r3, #4096
 3312 002a D360     		str	r3, [r2, #12]
ARM GAS  /tmp/ccoSsvAJ.s 			page 58


 3313 002c FFF7FEFF 		bl	HAL_DMA_Abort_IT
 3314              	.L586:
 3315 0030 2B68     		ldr	r3, [r5]
 3316 0032 0121     		movs	r1, #1
 3317 0034 1A6A     		ldr	r2, [r3, #32]
 3318 0036 A140     		lsls	r1, r1, r4
 3319 0038 22EA0102 		bic	r2, r2, r1
 3320 003c 1A62     		str	r2, [r3, #32]
 3321 003e 304A     		ldr	r2, .L596
 3322 0040 196A     		ldr	r1, [r3, #32]
 3323 0042 1962     		str	r1, [r3, #32]
 3324 0044 9342     		cmp	r3, r2
 3325 0046 3ED0     		beq	.L587
 3326 0048 02F50062 		add	r2, r2, #2048
 3327 004c 9342     		cmp	r3, r2
 3328 004e 3AD0     		beq	.L587
 3329 0050 02F54062 		add	r2, r2, #3072
 3330 0054 9342     		cmp	r3, r2
 3331 0056 36D0     		beq	.L587
 3332 0058 02F58062 		add	r2, r2, #1024
 3333 005c 9342     		cmp	r3, r2
 3334 005e 32D0     		beq	.L587
 3335 0060 02F58062 		add	r2, r2, #1024
 3336 0064 9342     		cmp	r3, r2
 3337 0066 2ED0     		beq	.L587
 3338              	.L588:
 3339 0068 196A     		ldr	r1, [r3, #32]
 3340 006a 41F21112 		movw	r2, #4369
 3341 006e 1142     		tst	r1, r2
 3342 0070 08D1     		bne	.L589
 3343 0072 196A     		ldr	r1, [r3, #32]
 3344 0074 40F24442 		movw	r2, #1092
 3345 0078 1142     		tst	r1, r2
 3346 007a 03D1     		bne	.L589
 3347 007c 1A68     		ldr	r2, [r3]
 3348 007e 22F00102 		bic	r2, r2, #1
 3349 0082 1A60     		str	r2, [r3]
 3350              	.L589:
 3351 0084 0123     		movs	r3, #1
 3352 0086 6CBB     		cbnz	r4, .L590
 3353 0088 85F83E30 		strb	r3, [r5, #62]
 3354 008c 2046     		mov	r0, r4
 3355 008e 38BD     		pop	{r3, r4, r5, pc}
 3356              	.L583:
 3357 0090 0268     		ldr	r2, [r0]
 3358 0092 C06A     		ldr	r0, [r0, #44]
 3359 0094 D368     		ldr	r3, [r2, #12]
 3360 0096 23F40063 		bic	r3, r3, #2048
 3361 009a D360     		str	r3, [r2, #12]
 3362 009c FFF7FEFF 		bl	HAL_DMA_Abort_IT
 3363 00a0 C6E7     		b	.L586
 3364              	.L584:
 3365 00a2 0268     		ldr	r2, [r0]
 3366 00a4 806A     		ldr	r0, [r0, #40]
 3367 00a6 D368     		ldr	r3, [r2, #12]
 3368 00a8 23F48063 		bic	r3, r3, #1024
 3369 00ac D360     		str	r3, [r2, #12]
ARM GAS  /tmp/ccoSsvAJ.s 			page 59


 3370 00ae FFF7FEFF 		bl	HAL_DMA_Abort_IT
 3371 00b2 BDE7     		b	.L586
 3372              	.L585:
 3373 00b4 0268     		ldr	r2, [r0]
 3374 00b6 406A     		ldr	r0, [r0, #36]
 3375 00b8 D368     		ldr	r3, [r2, #12]
 3376 00ba 23F40073 		bic	r3, r3, #512
 3377 00be D360     		str	r3, [r2, #12]
 3378 00c0 FFF7FEFF 		bl	HAL_DMA_Abort_IT
 3379 00c4 B4E7     		b	.L586
 3380              	.L587:
 3381 00c6 196A     		ldr	r1, [r3, #32]
 3382 00c8 41F21112 		movw	r2, #4369
 3383 00cc 1142     		tst	r1, r2
 3384 00ce CBD1     		bne	.L588
 3385 00d0 196A     		ldr	r1, [r3, #32]
 3386 00d2 40F24442 		movw	r2, #1092
 3387 00d6 1142     		tst	r1, r2
 3388 00d8 C6D1     		bne	.L588
 3389 00da 5A6C     		ldr	r2, [r3, #68]
 3390 00dc 22F40042 		bic	r2, r2, #32768
 3391 00e0 5A64     		str	r2, [r3, #68]
 3392 00e2 C1E7     		b	.L588
 3393              	.L590:
 3394 00e4 042C     		cmp	r4, #4
 3395 00e6 07D0     		beq	.L595
 3396 00e8 082C     		cmp	r4, #8
 3397 00ea 0CBF     		ite	eq
 3398 00ec 85F84030 		strbeq	r3, [r5, #64]
 3399 00f0 85F84130 		strbne	r3, [r5, #65]
 3400 00f4 0020     		movs	r0, #0
 3401 00f6 38BD     		pop	{r3, r4, r5, pc}
 3402              	.L595:
 3403 00f8 85F83F30 		strb	r3, [r5, #63]
 3404 00fc 0020     		movs	r0, #0
 3405 00fe 38BD     		pop	{r3, r4, r5, pc}
 3406              	.L597:
 3407              		.align	2
 3408              	.L596:
 3409 0100 002C0140 		.word	1073818624
 3411              		.section	.text.HAL_TIM_IC_MspInit,"ax",%progbits
 3412              		.align	1
 3413              		.p2align 2,,3
 3414              		.weak	HAL_TIM_IC_MspInit
 3415              		.syntax unified
 3416              		.thumb
 3417              		.thumb_func
 3418              		.fpu fpv4-sp-d16
 3420              	HAL_TIM_IC_MspInit:
 3421              		@ args = 0, pretend = 0, frame = 0
 3422              		@ frame_needed = 0, uses_anonymous_args = 0
 3423              		@ link register save eliminated.
 3424 0000 7047     		bx	lr
 3426 0002 00BF     		.section	.text.HAL_TIM_IC_Init,"ax",%progbits
 3427              		.align	1
 3428              		.p2align 2,,3
 3429              		.global	HAL_TIM_IC_Init
ARM GAS  /tmp/ccoSsvAJ.s 			page 60


 3430              		.syntax unified
 3431              		.thumb
 3432              		.thumb_func
 3433              		.fpu fpv4-sp-d16
 3435              	HAL_TIM_IC_Init:
 3436              		@ args = 0, pretend = 0, frame = 0
 3437              		@ frame_needed = 0, uses_anonymous_args = 0
 3438 0000 0028     		cmp	r0, #0
 3439 0002 72D0     		beq	.L615
 3440 0004 70B5     		push	{r4, r5, r6, lr}
 3441 0006 90F83D30 		ldrb	r3, [r0, #61]	@ zero_extendqisi2
 3442 000a 0446     		mov	r4, r0
 3443 000c 03F0FF02 		and	r2, r3, #255
 3444 0010 002B     		cmp	r3, #0
 3445 0012 65D0     		beq	.L624
 3446              	.L601:
 3447 0014 2268     		ldr	r2, [r4]
 3448 0016 364E     		ldr	r6, .L625
 3449 0018 A569     		ldr	r5, [r4, #24]
 3450 001a E068     		ldr	r0, [r4, #12]
 3451 001c 6168     		ldr	r1, [r4, #4]
 3452 001e 0223     		movs	r3, #2
 3453 0020 84F83D30 		strb	r3, [r4, #61]
 3454 0024 B242     		cmp	r2, r6
 3455 0026 1368     		ldr	r3, [r2]
 3456 0028 49D0     		beq	.L607
 3457 002a B2F1804F 		cmp	r2, #1073741824
 3458 002e 1CD0     		beq	.L603
 3459 0030 A6F59436 		sub	r6, r6, #75776
 3460 0034 B242     		cmp	r2, r6
 3461 0036 18D0     		beq	.L603
 3462 0038 06F58066 		add	r6, r6, #1024
 3463 003c B242     		cmp	r2, r6
 3464 003e 14D0     		beq	.L603
 3465 0040 06F58066 		add	r6, r6, #1024
 3466 0044 B242     		cmp	r2, r6
 3467 0046 10D0     		beq	.L603
 3468 0048 06F59436 		add	r6, r6, #75776
 3469 004c B242     		cmp	r2, r6
 3470 004e 36D0     		beq	.L607
 3471 0050 06F54066 		add	r6, r6, #3072
 3472 0054 B242     		cmp	r2, r6
 3473 0056 36D0     		beq	.L622
 3474 0058 06F58066 		add	r6, r6, #1024
 3475 005c B242     		cmp	r2, r6
 3476 005e 32D0     		beq	.L622
 3477 0060 06F58066 		add	r6, r6, #1024
 3478 0064 B242     		cmp	r2, r6
 3479 0066 08D1     		bne	.L623
 3480 0068 2DE0     		b	.L622
 3481              	.L603:
 3482 006a A668     		ldr	r6, [r4, #8]
 3483 006c 23F07003 		bic	r3, r3, #112
 3484 0070 3343     		orrs	r3, r3, r6
 3485 0072 2669     		ldr	r6, [r4, #16]
 3486 0074 23F44073 		bic	r3, r3, #768
 3487 0078 3343     		orrs	r3, r3, r6
ARM GAS  /tmp/ccoSsvAJ.s 			page 61


 3488              	.L623:
 3489 007a 23F08003 		bic	r3, r3, #128
 3490 007e 2B43     		orrs	r3, r3, r5
 3491 0080 1360     		str	r3, [r2]
 3492 0082 D062     		str	r0, [r2, #44]
 3493 0084 9162     		str	r1, [r2, #40]
 3494              	.L612:
 3495 0086 0123     		movs	r3, #1
 3496 0088 5361     		str	r3, [r2, #20]
 3497 008a 84F84830 		strb	r3, [r4, #72]
 3498 008e 84F83E30 		strb	r3, [r4, #62]
 3499 0092 84F83F30 		strb	r3, [r4, #63]
 3500 0096 84F84030 		strb	r3, [r4, #64]
 3501 009a 84F84130 		strb	r3, [r4, #65]
 3502 009e 84F84230 		strb	r3, [r4, #66]
 3503 00a2 84F84330 		strb	r3, [r4, #67]
 3504 00a6 84F84430 		strb	r3, [r4, #68]
 3505 00aa 84F84530 		strb	r3, [r4, #69]
 3506 00ae 84F84630 		strb	r3, [r4, #70]
 3507 00b2 84F84730 		strb	r3, [r4, #71]
 3508 00b6 84F83D30 		strb	r3, [r4, #61]
 3509 00ba 0020     		movs	r0, #0
 3510 00bc 70BD     		pop	{r4, r5, r6, pc}
 3511              	.L607:
 3512 00be A668     		ldr	r6, [r4, #8]
 3513 00c0 23F07003 		bic	r3, r3, #112
 3514 00c4 3343     		orrs	r3, r3, r6
 3515              	.L622:
 3516 00c6 2669     		ldr	r6, [r4, #16]
 3517 00c8 23F44073 		bic	r3, r3, #768
 3518 00cc 3343     		orrs	r3, r3, r6
 3519 00ce 23F08003 		bic	r3, r3, #128
 3520 00d2 2B43     		orrs	r3, r3, r5
 3521 00d4 1360     		str	r3, [r2]
 3522 00d6 D062     		str	r0, [r2, #44]
 3523 00d8 9162     		str	r1, [r2, #40]
 3524 00da 6369     		ldr	r3, [r4, #20]
 3525 00dc 1363     		str	r3, [r2, #48]
 3526 00de D2E7     		b	.L612
 3527              	.L624:
 3528 00e0 80F83C20 		strb	r2, [r0, #60]
 3529 00e4 FFF7FEFF 		bl	HAL_TIM_IC_MspInit
 3530 00e8 94E7     		b	.L601
 3531              	.L615:
 3532 00ea 0120     		movs	r0, #1
 3533 00ec 7047     		bx	lr
 3534              	.L626:
 3535 00ee 00BF     		.align	2
 3536              	.L625:
 3537 00f0 002C0140 		.word	1073818624
 3539              		.section	.text.HAL_TIM_IC_MspDeInit,"ax",%progbits
 3540              		.align	1
 3541              		.p2align 2,,3
 3542              		.weak	HAL_TIM_IC_MspDeInit
 3543              		.syntax unified
 3544              		.thumb
 3545              		.thumb_func
ARM GAS  /tmp/ccoSsvAJ.s 			page 62


 3546              		.fpu fpv4-sp-d16
 3548              	HAL_TIM_IC_MspDeInit:
 3549              		@ args = 0, pretend = 0, frame = 0
 3550              		@ frame_needed = 0, uses_anonymous_args = 0
 3551              		@ link register save eliminated.
 3552 0000 7047     		bx	lr
 3554 0002 00BF     		.section	.text.HAL_TIM_IC_DeInit,"ax",%progbits
 3555              		.align	1
 3556              		.p2align 2,,3
 3557              		.global	HAL_TIM_IC_DeInit
 3558              		.syntax unified
 3559              		.thumb
 3560              		.thumb_func
 3561              		.fpu fpv4-sp-d16
 3563              	HAL_TIM_IC_DeInit:
 3564              		@ args = 0, pretend = 0, frame = 0
 3565              		@ frame_needed = 0, uses_anonymous_args = 0
 3566 0000 0222     		movs	r2, #2
 3567 0002 0368     		ldr	r3, [r0]
 3568 0004 10B5     		push	{r4, lr}
 3569 0006 80F83D20 		strb	r2, [r0, #61]
 3570 000a 196A     		ldr	r1, [r3, #32]
 3571 000c 41F21112 		movw	r2, #4369
 3572 0010 1142     		tst	r1, r2
 3573 0012 0446     		mov	r4, r0
 3574 0014 08D1     		bne	.L629
 3575 0016 196A     		ldr	r1, [r3, #32]
 3576 0018 40F24442 		movw	r2, #1092
 3577 001c 1142     		tst	r1, r2
 3578 001e 03D1     		bne	.L629
 3579 0020 1A68     		ldr	r2, [r3]
 3580 0022 22F00102 		bic	r2, r2, #1
 3581 0026 1A60     		str	r2, [r3]
 3582              	.L629:
 3583 0028 2046     		mov	r0, r4
 3584 002a FFF7FEFF 		bl	HAL_TIM_IC_MspDeInit
 3585 002e 0020     		movs	r0, #0
 3586 0030 84F84800 		strb	r0, [r4, #72]
 3587 0034 84F83C00 		strb	r0, [r4, #60]
 3588 0038 84F83E00 		strb	r0, [r4, #62]
 3589 003c 84F83F00 		strb	r0, [r4, #63]
 3590 0040 84F84000 		strb	r0, [r4, #64]
 3591 0044 84F84100 		strb	r0, [r4, #65]
 3592 0048 84F84200 		strb	r0, [r4, #66]
 3593 004c 84F84300 		strb	r0, [r4, #67]
 3594 0050 84F84400 		strb	r0, [r4, #68]
 3595 0054 84F84500 		strb	r0, [r4, #69]
 3596 0058 84F84600 		strb	r0, [r4, #70]
 3597 005c 84F84700 		strb	r0, [r4, #71]
 3598 0060 84F83D00 		strb	r0, [r4, #61]
 3599 0064 10BD     		pop	{r4, pc}
 3601 0066 00BF     		.section	.text.HAL_TIM_IC_Start,"ax",%progbits
 3602              		.align	1
 3603              		.p2align 2,,3
 3604              		.global	HAL_TIM_IC_Start
 3605              		.syntax unified
 3606              		.thumb
ARM GAS  /tmp/ccoSsvAJ.s 			page 63


 3607              		.thumb_func
 3608              		.fpu fpv4-sp-d16
 3610              	HAL_TIM_IC_Start:
 3611              		@ args = 0, pretend = 0, frame = 0
 3612              		@ frame_needed = 0, uses_anonymous_args = 0
 3613              		@ link register save eliminated.
 3614 0000 0246     		mov	r2, r0
 3615 0002 1029     		cmp	r1, #16
 3616 0004 0AD8     		bhi	.L632
 3617 0006 DFE801F0 		tbb	[pc, r1]
 3618              	.L634:
 3619 000a 22       		.byte	(.L638-.L634)/2
 3620 000b 09       		.byte	(.L632-.L634)/2
 3621 000c 09       		.byte	(.L632-.L634)/2
 3622 000d 09       		.byte	(.L632-.L634)/2
 3623 000e 69       		.byte	(.L637-.L634)/2
 3624 000f 09       		.byte	(.L632-.L634)/2
 3625 0010 09       		.byte	(.L632-.L634)/2
 3626 0011 09       		.byte	(.L632-.L634)/2
 3627 0012 71       		.byte	(.L636-.L634)/2
 3628 0013 09       		.byte	(.L632-.L634)/2
 3629 0014 09       		.byte	(.L632-.L634)/2
 3630 0015 09       		.byte	(.L632-.L634)/2
 3631 0016 78       		.byte	(.L635-.L634)/2
 3632 0017 09       		.byte	(.L632-.L634)/2
 3633 0018 09       		.byte	(.L632-.L634)/2
 3634 0019 09       		.byte	(.L632-.L634)/2
 3635 001a 7C       		.byte	(.L633-.L634)/2
 3636 001b 00       		.p2align 1
 3637              	.L632:
 3638 001c 90F84330 		ldrb	r3, [r0, #67]	@ zero_extendqisi2
 3639 0020 0829     		cmp	r1, #8
 3640 0022 D8B2     		uxtb	r0, r3
 3641 0024 65D0     		beq	.L640
 3642              	.L642:
 3643 0026 92F84730 		ldrb	r3, [r2, #71]	@ zero_extendqisi2
 3644 002a DBB2     		uxtb	r3, r3
 3645              	.L639:
 3646 002c 0128     		cmp	r0, #1
 3647 002e 17D1     		bne	.L656
 3648              	.L663:
 3649 0030 012B     		cmp	r3, #1
 3650 0032 17D1     		bne	.L659
 3651 0034 1029     		cmp	r1, #16
 3652 0036 16D8     		bhi	.L644
 3653 0038 DFE801F0 		tbb	[pc, r1]
 3654              	.L646:
 3655 003c 67       		.byte	(.L650-.L646)/2
 3656 003d 15       		.byte	(.L644-.L646)/2
 3657 003e 15       		.byte	(.L644-.L646)/2
 3658 003f 15       		.byte	(.L644-.L646)/2
 3659 0040 76       		.byte	(.L649-.L646)/2
 3660 0041 15       		.byte	(.L644-.L646)/2
 3661 0042 15       		.byte	(.L644-.L646)/2
 3662 0043 15       		.byte	(.L644-.L646)/2
 3663 0044 80       		.byte	(.L648-.L646)/2
 3664 0045 15       		.byte	(.L644-.L646)/2
ARM GAS  /tmp/ccoSsvAJ.s 			page 64


 3665 0046 15       		.byte	(.L644-.L646)/2
 3666 0047 15       		.byte	(.L644-.L646)/2
 3667 0048 6F       		.byte	(.L647-.L646)/2
 3668 0049 15       		.byte	(.L644-.L646)/2
 3669 004a 15       		.byte	(.L644-.L646)/2
 3670 004b 15       		.byte	(.L644-.L646)/2
 3671 004c 7C       		.byte	(.L645-.L646)/2
 3672 004d 00       		.p2align 1
 3673              	.L638:
 3674 004e 90F83E30 		ldrb	r3, [r0, #62]	@ zero_extendqisi2
 3675 0052 90F844C0 		ldrb	ip, [r0, #68]	@ zero_extendqisi2
 3676 0056 D8B2     		uxtb	r0, r3
 3677 0058 0128     		cmp	r0, #1
 3678 005a 5FFA8CF3 		uxtb	r3, ip
 3679 005e E7D0     		beq	.L663
 3680              	.L656:
 3681 0060 0120     		movs	r0, #1
 3682 0062 7047     		bx	lr
 3683              	.L659:
 3684 0064 7047     		bx	lr
 3685              	.L644:
 3686 0066 0223     		movs	r3, #2
 3687 0068 0829     		cmp	r1, #8
 3688 006a 82F84330 		strb	r3, [r2, #67]
 3689 006e 57D1     		bne	.L653
 3690              	.L652:
 3691 0070 0223     		movs	r3, #2
 3692 0072 82F84630 		strb	r3, [r2, #70]
 3693              	.L651:
 3694 0076 1368     		ldr	r3, [r2]
 3695 0078 01F01F00 		and	r0, r1, #31
 3696 007c 0122     		movs	r2, #1
 3697 007e 196A     		ldr	r1, [r3, #32]
 3698 0080 8240     		lsls	r2, r2, r0
 3699 0082 21EA0201 		bic	r1, r1, r2
 3700 0086 1962     		str	r1, [r3, #32]
 3701 0088 186A     		ldr	r0, [r3, #32]
 3702 008a 2E49     		ldr	r1, .L664
 3703 008c 0243     		orrs	r2, r2, r0
 3704 008e 8B42     		cmp	r3, r1
 3705 0090 1A62     		str	r2, [r3, #32]
 3706 0092 15D0     		beq	.L654
 3707 0094 B3F1804F 		cmp	r3, #1073741824
 3708 0098 12D0     		beq	.L654
 3709 009a 2B4A     		ldr	r2, .L664+4
 3710 009c 9342     		cmp	r3, r2
 3711 009e 0FD0     		beq	.L654
 3712 00a0 02F58062 		add	r2, r2, #1024
 3713 00a4 9342     		cmp	r3, r2
 3714 00a6 0BD0     		beq	.L654
 3715 00a8 02F58062 		add	r2, r2, #1024
 3716 00ac 9342     		cmp	r3, r2
 3717 00ae 07D0     		beq	.L654
 3718 00b0 02F59432 		add	r2, r2, #75776
 3719 00b4 9342     		cmp	r3, r2
 3720 00b6 03D0     		beq	.L654
 3721 00b8 02F54062 		add	r2, r2, #3072
ARM GAS  /tmp/ccoSsvAJ.s 			page 65


 3722 00bc 9342     		cmp	r3, r2
 3723 00be 07D1     		bne	.L655
 3724              	.L654:
 3725 00c0 9968     		ldr	r1, [r3, #8]
 3726 00c2 224A     		ldr	r2, .L664+8
 3727 00c4 0A40     		ands	r2, r2, r1
 3728 00c6 062A     		cmp	r2, #6
 3729 00c8 25D0     		beq	.L658
 3730 00ca B2F5803F 		cmp	r2, #65536
 3731 00ce 22D0     		beq	.L658
 3732              	.L655:
 3733 00d0 1A68     		ldr	r2, [r3]
 3734 00d2 42F00102 		orr	r2, r2, #1
 3735 00d6 0020     		movs	r0, #0
 3736 00d8 1A60     		str	r2, [r3]
 3737 00da 7047     		bx	lr
 3738              	.L637:
 3739 00dc 90F83F30 		ldrb	r3, [r0, #63]	@ zero_extendqisi2
 3740 00e0 90F845C0 		ldrb	ip, [r0, #69]	@ zero_extendqisi2
 3741 00e4 D8B2     		uxtb	r0, r3
 3742 00e6 5FFA8CF3 		uxtb	r3, ip
 3743 00ea 9FE7     		b	.L639
 3744              	.L636:
 3745 00ec 90F84030 		ldrb	r3, [r0, #64]	@ zero_extendqisi2
 3746 00f0 D8B2     		uxtb	r0, r3
 3747              	.L640:
 3748 00f2 92F84630 		ldrb	r3, [r2, #70]	@ zero_extendqisi2
 3749 00f6 DBB2     		uxtb	r3, r3
 3750 00f8 98E7     		b	.L639
 3751              	.L635:
 3752 00fa 90F84130 		ldrb	r3, [r0, #65]	@ zero_extendqisi2
 3753 00fe D8B2     		uxtb	r0, r3
 3754 0100 91E7     		b	.L642
 3755              	.L633:
 3756 0102 90F84230 		ldrb	r3, [r0, #66]	@ zero_extendqisi2
 3757 0106 D8B2     		uxtb	r0, r3
 3758 0108 8DE7     		b	.L642
 3759              	.L650:
 3760 010a 0223     		movs	r3, #2
 3761 010c 82F83E30 		strb	r3, [r2, #62]
 3762 0110 82F84430 		strb	r3, [r2, #68]
 3763 0114 AFE7     		b	.L651
 3764              	.L658:
 3765 0116 0020     		movs	r0, #0
 3766 0118 7047     		bx	lr
 3767              	.L647:
 3768 011a 0223     		movs	r3, #2
 3769 011c 82F84130 		strb	r3, [r2, #65]
 3770              	.L653:
 3771 0120 0223     		movs	r3, #2
 3772 0122 82F84730 		strb	r3, [r2, #71]
 3773 0126 A6E7     		b	.L651
 3774              	.L649:
 3775 0128 0223     		movs	r3, #2
 3776 012a 82F83F30 		strb	r3, [r2, #63]
 3777 012e 82F84530 		strb	r3, [r2, #69]
 3778 0132 A0E7     		b	.L651
ARM GAS  /tmp/ccoSsvAJ.s 			page 66


 3779              	.L645:
 3780 0134 0223     		movs	r3, #2
 3781 0136 82F84230 		strb	r3, [r2, #66]
 3782 013a F1E7     		b	.L653
 3783              	.L648:
 3784 013c 0223     		movs	r3, #2
 3785 013e 82F84030 		strb	r3, [r2, #64]
 3786 0142 95E7     		b	.L652
 3787              	.L665:
 3788              		.align	2
 3789              	.L664:
 3790 0144 002C0140 		.word	1073818624
 3791 0148 00040040 		.word	1073742848
 3792 014c 07000100 		.word	65543
 3794              		.section	.text.HAL_TIM_IC_Stop,"ax",%progbits
 3795              		.align	1
 3796              		.p2align 2,,3
 3797              		.global	HAL_TIM_IC_Stop
 3798              		.syntax unified
 3799              		.thumb
 3800              		.thumb_func
 3801              		.fpu fpv4-sp-d16
 3803              	HAL_TIM_IC_Stop:
 3804              		@ args = 0, pretend = 0, frame = 0
 3805              		@ frame_needed = 0, uses_anonymous_args = 0
 3806              		@ link register save eliminated.
 3807 0000 0368     		ldr	r3, [r0]
 3808 0002 10B4     		push	{r4}
 3809 0004 1A6A     		ldr	r2, [r3, #32]
 3810 0006 01F01F04 		and	r4, r1, #31
 3811 000a 4FF0010C 		mov	ip, #1
 3812 000e 0CFA04FC 		lsl	ip, ip, r4
 3813 0012 22EA0C02 		bic	r2, r2, ip
 3814 0016 1A62     		str	r2, [r3, #32]
 3815 0018 1A6A     		ldr	r2, [r3, #32]
 3816 001a 1A62     		str	r2, [r3, #32]
 3817 001c 1C6A     		ldr	r4, [r3, #32]
 3818 001e 41F21112 		movw	r2, #4369
 3819 0022 1442     		tst	r4, r2
 3820 0024 04D1     		bne	.L667
 3821 0026 1C6A     		ldr	r4, [r3, #32]
 3822 0028 40F24442 		movw	r2, #1092
 3823 002c 1442     		tst	r4, r2
 3824 002e 09D0     		beq	.L682
 3825              	.L667:
 3826 0030 71B9     		cbnz	r1, .L668
 3827              	.L683:
 3828 0032 0123     		movs	r3, #1
 3829 0034 80F83E30 		strb	r3, [r0, #62]
 3830 0038 80F84430 		strb	r3, [r0, #68]
 3831 003c 5DF8044B 		ldr	r4, [sp], #4
 3832 0040 0020     		movs	r0, #0
 3833 0042 7047     		bx	lr
 3834              	.L682:
 3835 0044 1A68     		ldr	r2, [r3]
 3836 0046 22F00102 		bic	r2, r2, #1
 3837 004a 1A60     		str	r2, [r3]
ARM GAS  /tmp/ccoSsvAJ.s 			page 67


 3838 004c 0029     		cmp	r1, #0
 3839 004e F0D0     		beq	.L683
 3840              	.L668:
 3841 0050 0B1F     		subs	r3, r1, #4
 3842 0052 0C2B     		cmp	r3, #12
 3843 0054 08D8     		bhi	.L670
 3844 0056 DFE803F0 		tbb	[pc, r3]
 3845              	.L672:
 3846 005a 2B       		.byte	(.L675-.L672)/2
 3847 005b 07       		.byte	(.L670-.L672)/2
 3848 005c 07       		.byte	(.L670-.L672)/2
 3849 005d 07       		.byte	(.L670-.L672)/2
 3850 005e 21       		.byte	(.L674-.L672)/2
 3851 005f 07       		.byte	(.L670-.L672)/2
 3852 0060 07       		.byte	(.L670-.L672)/2
 3853 0061 07       		.byte	(.L670-.L672)/2
 3854 0062 1D       		.byte	(.L673-.L672)/2
 3855 0063 07       		.byte	(.L670-.L672)/2
 3856 0064 07       		.byte	(.L670-.L672)/2
 3857 0065 07       		.byte	(.L670-.L672)/2
 3858 0066 13       		.byte	(.L671-.L672)/2
 3859 0067 00       		.p2align 1
 3860              	.L670:
 3861 0068 0123     		movs	r3, #1
 3862 006a 0429     		cmp	r1, #4
 3863 006c 80F84330 		strb	r3, [r0, #67]
 3864 0070 22D1     		bne	.L679
 3865              	.L676:
 3866 0072 0123     		movs	r3, #1
 3867 0074 80F84530 		strb	r3, [r0, #69]
 3868 0078 5DF8044B 		ldr	r4, [sp], #4
 3869 007c 0020     		movs	r0, #0
 3870 007e 7047     		bx	lr
 3871              	.L671:
 3872 0080 0123     		movs	r3, #1
 3873 0082 80F84230 		strb	r3, [r0, #66]
 3874              	.L678:
 3875 0086 0123     		movs	r3, #1
 3876 0088 80F84730 		strb	r3, [r0, #71]
 3877 008c 5DF8044B 		ldr	r4, [sp], #4
 3878 0090 0020     		movs	r0, #0
 3879 0092 7047     		bx	lr
 3880              	.L673:
 3881 0094 0123     		movs	r3, #1
 3882 0096 80F84130 		strb	r3, [r0, #65]
 3883 009a F4E7     		b	.L678
 3884              	.L674:
 3885 009c 0123     		movs	r3, #1
 3886 009e 80F84030 		strb	r3, [r0, #64]
 3887              	.L677:
 3888 00a2 0123     		movs	r3, #1
 3889 00a4 80F84630 		strb	r3, [r0, #70]
 3890 00a8 5DF8044B 		ldr	r4, [sp], #4
 3891 00ac 0020     		movs	r0, #0
 3892 00ae 7047     		bx	lr
 3893              	.L675:
 3894 00b0 0123     		movs	r3, #1
ARM GAS  /tmp/ccoSsvAJ.s 			page 68


 3895 00b2 80F83F30 		strb	r3, [r0, #63]
 3896 00b6 DCE7     		b	.L676
 3897              	.L679:
 3898 00b8 0829     		cmp	r1, #8
 3899 00ba E4D1     		bne	.L678
 3900 00bc F1E7     		b	.L677
 3902 00be 00BF     		.section	.text.HAL_TIM_IC_Start_IT,"ax",%progbits
 3903              		.align	1
 3904              		.p2align 2,,3
 3905              		.global	HAL_TIM_IC_Start_IT
 3906              		.syntax unified
 3907              		.thumb
 3908              		.thumb_func
 3909              		.fpu fpv4-sp-d16
 3911              	HAL_TIM_IC_Start_IT:
 3912              		@ args = 0, pretend = 0, frame = 0
 3913              		@ frame_needed = 0, uses_anonymous_args = 0
 3914              		@ link register save eliminated.
 3915 0000 0246     		mov	r2, r0
 3916 0002 1029     		cmp	r1, #16
 3917 0004 0AD8     		bhi	.L685
 3918 0006 DFE801F0 		tbb	[pc, r1]
 3919              	.L687:
 3920 000a 20       		.byte	(.L691-.L687)/2
 3921 000b 09       		.byte	(.L685-.L687)/2
 3922 000c 09       		.byte	(.L685-.L687)/2
 3923 000d 09       		.byte	(.L685-.L687)/2
 3924 000e 4B       		.byte	(.L690-.L687)/2
 3925 000f 09       		.byte	(.L685-.L687)/2
 3926 0010 09       		.byte	(.L685-.L687)/2
 3927 0011 09       		.byte	(.L685-.L687)/2
 3928 0012 53       		.byte	(.L689-.L687)/2
 3929 0013 09       		.byte	(.L685-.L687)/2
 3930 0014 09       		.byte	(.L685-.L687)/2
 3931 0015 09       		.byte	(.L685-.L687)/2
 3932 0016 5B       		.byte	(.L688-.L687)/2
 3933 0017 09       		.byte	(.L685-.L687)/2
 3934 0018 09       		.byte	(.L685-.L687)/2
 3935 0019 09       		.byte	(.L685-.L687)/2
 3936 001a 5F       		.byte	(.L686-.L687)/2
 3937 001b 00       		.p2align 1
 3938              	.L685:
 3939 001c 90F84330 		ldrb	r3, [r0, #67]	@ zero_extendqisi2
 3940 0020 D8B2     		uxtb	r0, r3
 3941              	.L709:
 3942 0022 92F84730 		ldrb	r3, [r2, #71]	@ zero_extendqisi2
 3943 0026 DBB2     		uxtb	r3, r3
 3944              	.L692:
 3945 0028 0128     		cmp	r0, #1
 3946 002a 17D1     		bne	.L711
 3947              	.L720:
 3948 002c 012B     		cmp	r3, #1
 3949 002e 18D1     		bne	.L694
 3950 0030 1029     		cmp	r1, #16
 3951 0032 17D8     		bhi	.L695
 3952 0034 DFE801F0 		tbb	[pc, r1]
 3953              	.L697:
ARM GAS  /tmp/ccoSsvAJ.s 			page 69


 3954 0038 4C       		.byte	(.L701-.L697)/2
 3955 0039 16       		.byte	(.L695-.L697)/2
 3956 003a 16       		.byte	(.L695-.L697)/2
 3957 003b 16       		.byte	(.L695-.L697)/2
 3958 003c 85       		.byte	(.L700-.L697)/2
 3959 003d 16       		.byte	(.L695-.L697)/2
 3960 003e 16       		.byte	(.L695-.L697)/2
 3961 003f 16       		.byte	(.L695-.L697)/2
 3962 0040 A2       		.byte	(.L699-.L697)/2
 3963 0041 16       		.byte	(.L695-.L697)/2
 3964 0042 16       		.byte	(.L695-.L697)/2
 3965 0043 16       		.byte	(.L695-.L697)/2
 3966 0044 90       		.byte	(.L698-.L697)/2
 3967 0045 16       		.byte	(.L695-.L697)/2
 3968 0046 16       		.byte	(.L695-.L697)/2
 3969 0047 16       		.byte	(.L695-.L697)/2
 3970 0048 9B       		.byte	(.L696-.L697)/2
 3971 0049 00       		.p2align 1
 3972              	.L691:
 3973 004a 90F83E30 		ldrb	r3, [r0, #62]	@ zero_extendqisi2
 3974 004e 90F844C0 		ldrb	ip, [r0, #68]	@ zero_extendqisi2
 3975 0052 D8B2     		uxtb	r0, r3
 3976 0054 0128     		cmp	r0, #1
 3977 0056 5FFA8CF3 		uxtb	r3, ip
 3978 005a E7D0     		beq	.L720
 3979              	.L711:
 3980 005c 0120     		movs	r0, #1
 3981 005e 7047     		bx	lr
 3982              	.L713:
 3983 0060 0020     		movs	r0, #0
 3984              	.L694:
 3985 0062 7047     		bx	lr
 3986              	.L695:
 3987 0064 0220     		movs	r0, #2
 3988 0066 0B1F     		subs	r3, r1, #4
 3989 0068 82F84300 		strb	r0, [r2, #67]
 3990 006c 82F84700 		strb	r0, [r2, #71]
 3991 0070 082B     		cmp	r3, #8
 3992 0072 F3D8     		bhi	.L711
 3993 0074 01A0     		adr	r0, .L706
 3994 0076 50F823F0 		ldr	pc, [r0, r3, lsl #2]
 3995 007a 00BF     		.p2align 2
 3996              	.L706:
 3997 007c 4D010000 		.word	.L703+1
 3998 0080 5D000000 		.word	.L711+1
 3999 0084 5D000000 		.word	.L711+1
 4000 0088 5D000000 		.word	.L711+1
 4001 008c 87010000 		.word	.L704+1
 4002 0090 5D000000 		.word	.L711+1
 4003 0094 5D000000 		.word	.L711+1
 4004 0098 5D000000 		.word	.L711+1
 4005 009c 63010000 		.word	.L705+1
 4006              		.p2align 1
 4007              	.L690:
 4008 00a0 90F83F30 		ldrb	r3, [r0, #63]	@ zero_extendqisi2
 4009 00a4 90F845C0 		ldrb	ip, [r0, #69]	@ zero_extendqisi2
 4010 00a8 D8B2     		uxtb	r0, r3
ARM GAS  /tmp/ccoSsvAJ.s 			page 70


 4011 00aa 5FFA8CF3 		uxtb	r3, ip
 4012 00ae BBE7     		b	.L692
 4013              	.L689:
 4014 00b0 90F84030 		ldrb	r3, [r0, #64]	@ zero_extendqisi2
 4015 00b4 90F846C0 		ldrb	ip, [r0, #70]	@ zero_extendqisi2
 4016 00b8 D8B2     		uxtb	r0, r3
 4017 00ba 5FFA8CF3 		uxtb	r3, ip
 4018 00be B3E7     		b	.L692
 4019              	.L688:
 4020 00c0 90F84130 		ldrb	r3, [r0, #65]	@ zero_extendqisi2
 4021 00c4 D8B2     		uxtb	r0, r3
 4022 00c6 ACE7     		b	.L709
 4023              	.L686:
 4024 00c8 90F84230 		ldrb	r3, [r0, #66]	@ zero_extendqisi2
 4025 00cc D8B2     		uxtb	r0, r3
 4026 00ce A8E7     		b	.L709
 4027              	.L701:
 4028 00d0 0220     		movs	r0, #2
 4029 00d2 1368     		ldr	r3, [r2]
 4030 00d4 82F83E00 		strb	r0, [r2, #62]
 4031 00d8 82F84400 		strb	r0, [r2, #68]
 4032 00dc DA68     		ldr	r2, [r3, #12]
 4033 00de 0243     		orrs	r2, r2, r0
 4034 00e0 DA60     		str	r2, [r3, #12]
 4035              	.L702:
 4036 00e2 186A     		ldr	r0, [r3, #32]
 4037 00e4 0122     		movs	r2, #1
 4038 00e6 8A40     		lsls	r2, r2, r1
 4039 00e8 20EA0200 		bic	r0, r0, r2
 4040 00ec 1862     		str	r0, [r3, #32]
 4041 00ee 186A     		ldr	r0, [r3, #32]
 4042 00f0 2849     		ldr	r1, .L721
 4043 00f2 0243     		orrs	r2, r2, r0
 4044 00f4 8B42     		cmp	r3, r1
 4045 00f6 1A62     		str	r2, [r3, #32]
 4046 00f8 15D0     		beq	.L707
 4047 00fa B3F1804F 		cmp	r3, #1073741824
 4048 00fe 12D0     		beq	.L707
 4049 0100 254A     		ldr	r2, .L721+4
 4050 0102 9342     		cmp	r3, r2
 4051 0104 0FD0     		beq	.L707
 4052 0106 02F58062 		add	r2, r2, #1024
 4053 010a 9342     		cmp	r3, r2
 4054 010c 0BD0     		beq	.L707
 4055 010e 02F58062 		add	r2, r2, #1024
 4056 0112 9342     		cmp	r3, r2
 4057 0114 07D0     		beq	.L707
 4058 0116 02F59432 		add	r2, r2, #75776
 4059 011a 9342     		cmp	r3, r2
 4060 011c 03D0     		beq	.L707
 4061 011e 02F54062 		add	r2, r2, #3072
 4062 0122 9342     		cmp	r3, r2
 4063 0124 07D1     		bne	.L708
 4064              	.L707:
 4065 0126 9968     		ldr	r1, [r3, #8]
 4066 0128 1C4A     		ldr	r2, .L721+8
 4067 012a 0A40     		ands	r2, r2, r1
ARM GAS  /tmp/ccoSsvAJ.s 			page 71


 4068 012c 062A     		cmp	r2, #6
 4069 012e 97D0     		beq	.L713
 4070 0130 B2F5803F 		cmp	r2, #65536
 4071 0134 94D0     		beq	.L713
 4072              	.L708:
 4073 0136 1A68     		ldr	r2, [r3]
 4074 0138 42F00102 		orr	r2, r2, #1
 4075 013c 0020     		movs	r0, #0
 4076 013e 1A60     		str	r2, [r3]
 4077 0140 7047     		bx	lr
 4078              	.L700:
 4079 0142 0223     		movs	r3, #2
 4080 0144 82F83F30 		strb	r3, [r2, #63]
 4081 0148 82F84530 		strb	r3, [r2, #69]
 4082              	.L703:
 4083 014c 1368     		ldr	r3, [r2]
 4084 014e DA68     		ldr	r2, [r3, #12]
 4085 0150 42F00402 		orr	r2, r2, #4
 4086 0154 DA60     		str	r2, [r3, #12]
 4087 0156 C4E7     		b	.L702
 4088              	.L698:
 4089 0158 0223     		movs	r3, #2
 4090 015a 82F84130 		strb	r3, [r2, #65]
 4091 015e 82F84730 		strb	r3, [r2, #71]
 4092              	.L705:
 4093 0162 1368     		ldr	r3, [r2]
 4094 0164 DA68     		ldr	r2, [r3, #12]
 4095 0166 42F01002 		orr	r2, r2, #16
 4096 016a DA60     		str	r2, [r3, #12]
 4097 016c B9E7     		b	.L702
 4098              	.L696:
 4099 016e 0223     		movs	r3, #2
 4100 0170 82F84230 		strb	r3, [r2, #66]
 4101 0174 0120     		movs	r0, #1
 4102 0176 82F84730 		strb	r3, [r2, #71]
 4103 017a 7047     		bx	lr
 4104              	.L699:
 4105 017c 0223     		movs	r3, #2
 4106 017e 82F84030 		strb	r3, [r2, #64]
 4107 0182 82F84630 		strb	r3, [r2, #70]
 4108              	.L704:
 4109 0186 1368     		ldr	r3, [r2]
 4110 0188 DA68     		ldr	r2, [r3, #12]
 4111 018a 42F00802 		orr	r2, r2, #8
 4112 018e DA60     		str	r2, [r3, #12]
 4113 0190 A7E7     		b	.L702
 4114              	.L722:
 4115 0192 00BF     		.align	2
 4116              	.L721:
 4117 0194 002C0140 		.word	1073818624
 4118 0198 00040040 		.word	1073742848
 4119 019c 07000100 		.word	65543
 4121              		.section	.text.HAL_TIM_IC_Stop_IT,"ax",%progbits
 4122              		.align	1
 4123              		.p2align 2,,3
 4124              		.global	HAL_TIM_IC_Stop_IT
 4125              		.syntax unified
ARM GAS  /tmp/ccoSsvAJ.s 			page 72


 4126              		.thumb
 4127              		.thumb_func
 4128              		.fpu fpv4-sp-d16
 4130              	HAL_TIM_IC_Stop_IT:
 4131              		@ args = 0, pretend = 0, frame = 0
 4132              		@ frame_needed = 0, uses_anonymous_args = 0
 4133              		@ link register save eliminated.
 4134 0000 10B4     		push	{r4}
 4135 0002 0346     		mov	r3, r0
 4136 0004 0C29     		cmp	r1, #12
 4137 0006 08D8     		bhi	.L741
 4138 0008 DFE801F0 		tbb	[pc, r1]
 4139              	.L726:
 4140 000c 6E       		.byte	(.L729-.L726)/2
 4141 000d 07       		.byte	(.L741-.L726)/2
 4142 000e 07       		.byte	(.L741-.L726)/2
 4143 000f 07       		.byte	(.L741-.L726)/2
 4144 0010 4F       		.byte	(.L728-.L726)/2
 4145 0011 07       		.byte	(.L741-.L726)/2
 4146 0012 07       		.byte	(.L741-.L726)/2
 4147 0013 07       		.byte	(.L741-.L726)/2
 4148 0014 2A       		.byte	(.L727-.L726)/2
 4149 0015 07       		.byte	(.L741-.L726)/2
 4150 0016 07       		.byte	(.L741-.L726)/2
 4151 0017 07       		.byte	(.L741-.L726)/2
 4152 0018 0B       		.byte	(.L725-.L726)/2
 4153 0019 00       		.p2align 1
 4154              	.L741:
 4155 001a 0120     		movs	r0, #1
 4156              	.L757:
 4157 001c 5DF8044B 		ldr	r4, [sp], #4
 4158 0020 7047     		bx	lr
 4159              	.L725:
 4160 0022 0268     		ldr	r2, [r0]
 4161 0024 D068     		ldr	r0, [r2, #12]
 4162 0026 20F01000 		bic	r0, r0, #16
 4163 002a D060     		str	r0, [r2, #12]
 4164 002c 106A     		ldr	r0, [r2, #32]
 4165 002e 20F48050 		bic	r0, r0, #4096
 4166 0032 1062     		str	r0, [r2, #32]
 4167 0034 106A     		ldr	r0, [r2, #32]
 4168 0036 1062     		str	r0, [r2, #32]
 4169 0038 106A     		ldr	r0, [r2, #32]
 4170 003a 41F2111C 		movw	ip, #4369
 4171 003e 10EA0C0F 		tst	r0, ip
 4172 0042 04D1     		bne	.L734
 4173 0044 146A     		ldr	r4, [r2, #32]
 4174 0046 40F24440 		movw	r0, #1092
 4175 004a 0442     		tst	r4, r0
 4176 004c 1ED0     		beq	.L736
 4177              	.L734:
 4178 004e 0122     		movs	r2, #1
 4179 0050 83F84120 		strb	r2, [r3, #65]
 4180 0054 83F84720 		strb	r2, [r3, #71]
 4181 0058 0020     		movs	r0, #0
 4182 005a 5DF8044B 		ldr	r4, [sp], #4
 4183 005e 7047     		bx	lr
ARM GAS  /tmp/ccoSsvAJ.s 			page 73


 4184              	.L727:
 4185 0060 0268     		ldr	r2, [r0]
 4186 0062 D068     		ldr	r0, [r2, #12]
 4187 0064 20F00800 		bic	r0, r0, #8
 4188 0068 D060     		str	r0, [r2, #12]
 4189 006a 106A     		ldr	r0, [r2, #32]
 4190 006c 20F48070 		bic	r0, r0, #256
 4191 0070 1062     		str	r0, [r2, #32]
 4192 0072 106A     		ldr	r0, [r2, #32]
 4193 0074 1062     		str	r0, [r2, #32]
 4194 0076 106A     		ldr	r0, [r2, #32]
 4195 0078 41F2111C 		movw	ip, #4369
 4196 007c 10EA0C0F 		tst	r0, ip
 4197 0080 0CD1     		bne	.L735
 4198 0082 146A     		ldr	r4, [r2, #32]
 4199 0084 40F24440 		movw	r0, #1092
 4200 0088 0442     		tst	r4, r0
 4201 008a 07D1     		bne	.L735
 4202              	.L736:
 4203 008c 1068     		ldr	r0, [r2]
 4204 008e 0429     		cmp	r1, #4
 4205 0090 20F00100 		bic	r0, r0, #1
 4206 0094 1060     		str	r0, [r2]
 4207 0096 1ED0     		beq	.L739
 4208 0098 0829     		cmp	r1, #8
 4209 009a D8D1     		bne	.L734
 4210              	.L735:
 4211 009c 0122     		movs	r2, #1
 4212 009e 83F84020 		strb	r2, [r3, #64]
 4213 00a2 0020     		movs	r0, #0
 4214 00a4 83F84620 		strb	r2, [r3, #70]
 4215 00a8 B8E7     		b	.L757
 4216              	.L728:
 4217 00aa 0268     		ldr	r2, [r0]
 4218 00ac D068     		ldr	r0, [r2, #12]
 4219 00ae 20F00400 		bic	r0, r0, #4
 4220 00b2 D060     		str	r0, [r2, #12]
 4221 00b4 106A     		ldr	r0, [r2, #32]
 4222 00b6 20F01000 		bic	r0, r0, #16
 4223 00ba 1062     		str	r0, [r2, #32]
 4224 00bc 106A     		ldr	r0, [r2, #32]
 4225 00be 1062     		str	r0, [r2, #32]
 4226 00c0 106A     		ldr	r0, [r2, #32]
 4227 00c2 41F2111C 		movw	ip, #4369
 4228 00c6 10EA0C0F 		tst	r0, ip
 4229 00ca 04D1     		bne	.L739
 4230 00cc 146A     		ldr	r4, [r2, #32]
 4231 00ce 40F24440 		movw	r0, #1092
 4232 00d2 0442     		tst	r4, r0
 4233 00d4 DAD0     		beq	.L736
 4234              	.L739:
 4235 00d6 0122     		movs	r2, #1
 4236 00d8 83F83F20 		strb	r2, [r3, #63]
 4237 00dc 83F84520 		strb	r2, [r3, #69]
 4238 00e0 0020     		movs	r0, #0
 4239 00e2 5DF8044B 		ldr	r4, [sp], #4
 4240 00e6 7047     		bx	lr
ARM GAS  /tmp/ccoSsvAJ.s 			page 74


 4241              	.L729:
 4242 00e8 0268     		ldr	r2, [r0]
 4243 00ea D168     		ldr	r1, [r2, #12]
 4244 00ec 21F00201 		bic	r1, r1, #2
 4245 00f0 D160     		str	r1, [r2, #12]
 4246 00f2 116A     		ldr	r1, [r2, #32]
 4247 00f4 21F00101 		bic	r1, r1, #1
 4248 00f8 1162     		str	r1, [r2, #32]
 4249 00fa 116A     		ldr	r1, [r2, #32]
 4250 00fc 1162     		str	r1, [r2, #32]
 4251 00fe 116A     		ldr	r1, [r2, #32]
 4252 0100 41F21110 		movw	r0, #4369
 4253 0104 0142     		tst	r1, r0
 4254 0106 04D1     		bne	.L738
 4255 0108 106A     		ldr	r0, [r2, #32]
 4256 010a 40F24441 		movw	r1, #1092
 4257 010e 0842     		tst	r0, r1
 4258 0110 08D0     		beq	.L760
 4259              	.L738:
 4260 0112 0122     		movs	r2, #1
 4261 0114 83F83E20 		strb	r2, [r3, #62]
 4262 0118 83F84420 		strb	r2, [r3, #68]
 4263 011c 0020     		movs	r0, #0
 4264 011e 5DF8044B 		ldr	r4, [sp], #4
 4265 0122 7047     		bx	lr
 4266              	.L760:
 4267 0124 1168     		ldr	r1, [r2]
 4268 0126 21F00101 		bic	r1, r1, #1
 4269 012a 1160     		str	r1, [r2]
 4270 012c F1E7     		b	.L738
 4272 012e 00BF     		.section	.text.HAL_TIM_IC_Start_DMA,"ax",%progbits
 4273              		.align	1
 4274              		.p2align 2,,3
 4275              		.global	HAL_TIM_IC_Start_DMA
 4276              		.syntax unified
 4277              		.thumb
 4278              		.thumb_func
 4279              		.fpu fpv4-sp-d16
 4281              	HAL_TIM_IC_Start_DMA:
 4282              		@ args = 0, pretend = 0, frame = 0
 4283              		@ frame_needed = 0, uses_anonymous_args = 0
 4284 0000 70B5     		push	{r4, r5, r6, lr}
 4285 0002 0446     		mov	r4, r0
 4286 0004 1029     		cmp	r1, #16
 4287 0006 0AD8     		bhi	.L762
 4288 0008 DFE801F0 		tbb	[pc, r1]
 4289              	.L764:
 4290 000c 38       		.byte	(.L768-.L764)/2
 4291 000d 09       		.byte	(.L762-.L764)/2
 4292 000e 09       		.byte	(.L762-.L764)/2
 4293 000f 09       		.byte	(.L762-.L764)/2
 4294 0010 40       		.byte	(.L767-.L764)/2
 4295 0011 09       		.byte	(.L762-.L764)/2
 4296 0012 09       		.byte	(.L762-.L764)/2
 4297 0013 09       		.byte	(.L762-.L764)/2
 4298 0014 4C       		.byte	(.L766-.L764)/2
 4299 0015 09       		.byte	(.L762-.L764)/2
ARM GAS  /tmp/ccoSsvAJ.s 			page 75


 4300 0016 09       		.byte	(.L762-.L764)/2
 4301 0017 09       		.byte	(.L762-.L764)/2
 4302 0018 54       		.byte	(.L765-.L764)/2
 4303 0019 09       		.byte	(.L762-.L764)/2
 4304 001a 09       		.byte	(.L762-.L764)/2
 4305 001b 09       		.byte	(.L762-.L764)/2
 4306 001c 48       		.byte	(.L763-.L764)/2
 4307 001d 00       		.p2align 1
 4308              	.L762:
 4309 001e 94F84300 		ldrb	r0, [r4, #67]	@ zero_extendqisi2
 4310 0022 0829     		cmp	r1, #8
 4311 0024 C0B2     		uxtb	r0, r0
 4312 0026 40D0     		beq	.L770
 4313              	.L772:
 4314 0028 94F847C0 		ldrb	ip, [r4, #71]	@ zero_extendqisi2
 4315 002c 5FFA8CFC 		uxtb	ip, ip
 4316              	.L769:
 4317 0030 0228     		cmp	r0, #2
 4318 0032 22D0     		beq	.L796
 4319 0034 BCF1020F 		cmp	ip, #2
 4320 0038 00F08A80 		beq	.L794
 4321 003c 0128     		cmp	r0, #1
 4322 003e 1BD1     		bne	.L775
 4323 0040 BCF1010F 		cmp	ip, #1
 4324 0044 18D1     		bne	.L775
 4325 0046 AAB1     		cbz	r2, .L818
 4326              	.L776:
 4327 0048 1029     		cmp	r1, #16
 4328 004a 00F20281 		bhi	.L791
 4329 004e DFE811F0 		tbh	[pc, r1, lsl #1]
 4330              	.L793:
 4331 0052 3500     		.2byte	(.L777-.L793)/2
 4332 0054 0001     		.2byte	(.L791-.L793)/2
 4333 0056 0001     		.2byte	(.L791-.L793)/2
 4334 0058 0001     		.2byte	(.L791-.L793)/2
 4335 005a 8100     		.2byte	(.L779-.L793)/2
 4336 005c 0001     		.2byte	(.L791-.L793)/2
 4337 005e 0001     		.2byte	(.L791-.L793)/2
 4338 0060 0001     		.2byte	(.L791-.L793)/2
 4339 0062 D900     		.2byte	(.L781-.L793)/2
 4340 0064 0001     		.2byte	(.L791-.L793)/2
 4341 0066 0001     		.2byte	(.L791-.L793)/2
 4342 0068 0001     		.2byte	(.L791-.L793)/2
 4343 006a B700     		.2byte	(.L783-.L793)/2
 4344 006c 0001     		.2byte	(.L791-.L793)/2
 4345 006e 0001     		.2byte	(.L791-.L793)/2
 4346 0070 0001     		.2byte	(.L791-.L793)/2
 4347 0072 A700     		.2byte	(.L785-.L793)/2
 4348              		.p2align 1
 4349              	.L818:
 4350 0074 002B     		cmp	r3, #0
 4351 0076 E7D0     		beq	.L776
 4352              	.L775:
 4353 0078 0120     		movs	r0, #1
 4354              	.L796:
 4355 007a 70BD     		pop	{r4, r5, r6, pc}
 4356              	.L768:
ARM GAS  /tmp/ccoSsvAJ.s 			page 76


 4357 007c 94F83E00 		ldrb	r0, [r4, #62]	@ zero_extendqisi2
 4358 0080 94F844C0 		ldrb	ip, [r4, #68]	@ zero_extendqisi2
 4359 0084 C0B2     		uxtb	r0, r0
 4360 0086 5FFA8CFC 		uxtb	ip, ip
 4361 008a D1E7     		b	.L769
 4362              	.L767:
 4363 008c 94F83F00 		ldrb	r0, [r4, #63]	@ zero_extendqisi2
 4364 0090 94F845C0 		ldrb	ip, [r4, #69]	@ zero_extendqisi2
 4365 0094 C0B2     		uxtb	r0, r0
 4366 0096 5FFA8CFC 		uxtb	ip, ip
 4367 009a C9E7     		b	.L769
 4368              	.L763:
 4369 009c 94F84200 		ldrb	r0, [r4, #66]	@ zero_extendqisi2
 4370 00a0 C0B2     		uxtb	r0, r0
 4371 00a2 C1E7     		b	.L772
 4372              	.L766:
 4373 00a4 94F84000 		ldrb	r0, [r4, #64]	@ zero_extendqisi2
 4374 00a8 C0B2     		uxtb	r0, r0
 4375              	.L770:
 4376 00aa 94F846C0 		ldrb	ip, [r4, #70]	@ zero_extendqisi2
 4377 00ae 5FFA8CFC 		uxtb	ip, ip
 4378 00b2 BDE7     		b	.L769
 4379              	.L765:
 4380 00b4 94F84100 		ldrb	r0, [r4, #65]	@ zero_extendqisi2
 4381 00b8 C0B2     		uxtb	r0, r0
 4382 00ba B5E7     		b	.L772
 4383              	.L777:
 4384 00bc 2568     		ldr	r5, [r4]
 4385 00be 0220     		movs	r0, #2
 4386 00c0 84F83E00 		strb	r0, [r4, #62]
 4387 00c4 84F84400 		strb	r0, [r4, #68]
 4388 00c8 2E6A     		ldr	r6, [r5, #32]
 4389 00ca 01F01F01 		and	r1, r1, #31
 4390 00ce 0120     		movs	r0, #1
 4391 00d0 8840     		lsls	r0, r0, r1
 4392 00d2 26EA0006 		bic	r6, r6, r0
 4393 00d6 2E62     		str	r6, [r5, #32]
 4394 00d8 296A     		ldr	r1, [r5, #32]
 4395 00da 0843     		orrs	r0, r0, r1
 4396 00dc 2862     		str	r0, [r5, #32]
 4397 00de 606A     		ldr	r0, [r4, #36]
 4398 00e0 05F13401 		add	r1, r5, #52
 4399 00e4 724D     		ldr	r5, .L819
 4400 00e6 C562     		str	r5, [r0, #44]
 4401 00e8 724D     		ldr	r5, .L819+4
 4402 00ea 0563     		str	r5, [r0, #48]
 4403 00ec 724D     		ldr	r5, .L819+8
 4404 00ee 4563     		str	r5, [r0, #52]
 4405 00f0 FFF7FEFF 		bl	HAL_DMA_Start_IT
 4406 00f4 0028     		cmp	r0, #0
 4407 00f6 BFD1     		bne	.L775
 4408 00f8 2568     		ldr	r5, [r4]
 4409 00fa EB68     		ldr	r3, [r5, #12]
 4410 00fc 43F40073 		orr	r3, r3, #512
 4411 0100 EB60     		str	r3, [r5, #12]
 4412              	.L786:
 4413 0102 6E4B     		ldr	r3, .L819+12
ARM GAS  /tmp/ccoSsvAJ.s 			page 77


 4414 0104 9D42     		cmp	r5, r3
 4415 0106 16D0     		beq	.L788
 4416 0108 B5F1804F 		cmp	r5, #1073741824
 4417 010c 13D0     		beq	.L788
 4418 010e A3F59433 		sub	r3, r3, #75776
 4419 0112 9D42     		cmp	r5, r3
 4420 0114 0FD0     		beq	.L788
 4421 0116 03F58063 		add	r3, r3, #1024
 4422 011a 9D42     		cmp	r5, r3
 4423 011c 0BD0     		beq	.L788
 4424 011e 03F58063 		add	r3, r3, #1024
 4425 0122 9D42     		cmp	r5, r3
 4426 0124 07D0     		beq	.L788
 4427 0126 03F59433 		add	r3, r3, #75776
 4428 012a 9D42     		cmp	r5, r3
 4429 012c 03D0     		beq	.L788
 4430 012e 03F54063 		add	r3, r3, #3072
 4431 0132 9D42     		cmp	r5, r3
 4432 0134 07D1     		bne	.L789
 4433              	.L788:
 4434 0136 AA68     		ldr	r2, [r5, #8]
 4435 0138 614B     		ldr	r3, .L819+16
 4436 013a 1340     		ands	r3, r3, r2
 4437 013c 062B     		cmp	r3, #6
 4438 013e 9CD0     		beq	.L796
 4439 0140 B3F5803F 		cmp	r3, #65536
 4440 0144 99D0     		beq	.L796
 4441              	.L789:
 4442 0146 2B68     		ldr	r3, [r5]
 4443 0148 43F00103 		orr	r3, r3, #1
 4444 014c 2B60     		str	r3, [r5]
 4445 014e 70BD     		pop	{r4, r5, r6, pc}
 4446              	.L794:
 4447 0150 6046     		mov	r0, ip
 4448 0152 70BD     		pop	{r4, r5, r6, pc}
 4449              	.L779:
 4450 0154 2568     		ldr	r5, [r4]
 4451 0156 0220     		movs	r0, #2
 4452 0158 84F83F00 		strb	r0, [r4, #63]
 4453 015c 84F84500 		strb	r0, [r4, #69]
 4454 0160 2E6A     		ldr	r6, [r5, #32]
 4455 0162 0120     		movs	r0, #1
 4456 0164 01F01F01 		and	r1, r1, #31
 4457 0168 00FA01F1 		lsl	r1, r0, r1
 4458 016c 26EA0106 		bic	r6, r6, r1
 4459 0170 2E62     		str	r6, [r5, #32]
 4460 0172 286A     		ldr	r0, [r5, #32]
 4461 0174 0143     		orrs	r1, r1, r0
 4462 0176 2962     		str	r1, [r5, #32]
 4463              	.L780:
 4464 0178 A06A     		ldr	r0, [r4, #40]
 4465 017a 05F13801 		add	r1, r5, #56
 4466 017e 4C4D     		ldr	r5, .L819
 4467 0180 C562     		str	r5, [r0, #44]
 4468 0182 4C4D     		ldr	r5, .L819+4
 4469 0184 0563     		str	r5, [r0, #48]
 4470 0186 4C4D     		ldr	r5, .L819+8
ARM GAS  /tmp/ccoSsvAJ.s 			page 78


 4471 0188 4563     		str	r5, [r0, #52]
 4472 018a FFF7FEFF 		bl	HAL_DMA_Start_IT
 4473 018e 0028     		cmp	r0, #0
 4474 0190 7FF472AF 		bne	.L775
 4475 0194 2568     		ldr	r5, [r4]
 4476 0196 EB68     		ldr	r3, [r5, #12]
 4477 0198 43F48063 		orr	r3, r3, #1024
 4478 019c EB60     		str	r3, [r5, #12]
 4479 019e B0E7     		b	.L786
 4480              	.L785:
 4481 01a0 2568     		ldr	r5, [r4]
 4482 01a2 0223     		movs	r3, #2
 4483 01a4 84F84230 		strb	r3, [r4, #66]
 4484 01a8 84F84730 		strb	r3, [r4, #71]
 4485 01ac 2B6A     		ldr	r3, [r5, #32]
 4486 01ae 23F48033 		bic	r3, r3, #65536
 4487 01b2 2B62     		str	r3, [r5, #32]
 4488 01b4 2B6A     		ldr	r3, [r5, #32]
 4489 01b6 43F48033 		orr	r3, r3, #65536
 4490 01ba 0120     		movs	r0, #1
 4491 01bc 2B62     		str	r3, [r5, #32]
 4492 01be A0E7     		b	.L786
 4493              	.L783:
 4494 01c0 2568     		ldr	r5, [r4]
 4495 01c2 0221     		movs	r1, #2
 4496 01c4 84F84110 		strb	r1, [r4, #65]
 4497 01c8 84F84710 		strb	r1, [r4, #71]
 4498 01cc 296A     		ldr	r1, [r5, #32]
 4499 01ce 21F48051 		bic	r1, r1, #4096
 4500 01d2 2962     		str	r1, [r5, #32]
 4501 01d4 296A     		ldr	r1, [r5, #32]
 4502 01d6 41F48051 		orr	r1, r1, #4096
 4503 01da 2962     		str	r1, [r5, #32]
 4504              	.L784:
 4505 01dc 206B     		ldr	r0, [r4, #48]
 4506 01de 05F14001 		add	r1, r5, #64
 4507 01e2 334D     		ldr	r5, .L819
 4508 01e4 C562     		str	r5, [r0, #44]
 4509 01e6 334D     		ldr	r5, .L819+4
 4510 01e8 0563     		str	r5, [r0, #48]
 4511 01ea 334D     		ldr	r5, .L819+8
 4512 01ec 4563     		str	r5, [r0, #52]
 4513 01ee FFF7FEFF 		bl	HAL_DMA_Start_IT
 4514 01f2 0028     		cmp	r0, #0
 4515 01f4 7FF440AF 		bne	.L775
 4516 01f8 2568     		ldr	r5, [r4]
 4517 01fa EB68     		ldr	r3, [r5, #12]
 4518 01fc 43F48053 		orr	r3, r3, #4096
 4519 0200 EB60     		str	r3, [r5, #12]
 4520 0202 7EE7     		b	.L786
 4521              	.L781:
 4522 0204 0220     		movs	r0, #2
 4523 0206 84F84000 		strb	r0, [r4, #64]
 4524              	.L782:
 4525 020a 2568     		ldr	r5, [r4]
 4526 020c 0220     		movs	r0, #2
 4527 020e 84F84600 		strb	r0, [r4, #70]
ARM GAS  /tmp/ccoSsvAJ.s 			page 79


 4528 0212 2E6A     		ldr	r6, [r5, #32]
 4529 0214 0120     		movs	r0, #1
 4530 0216 01F01F01 		and	r1, r1, #31
 4531 021a 00FA01F1 		lsl	r1, r0, r1
 4532 021e 26EA0106 		bic	r6, r6, r1
 4533 0222 2E62     		str	r6, [r5, #32]
 4534 0224 286A     		ldr	r0, [r5, #32]
 4535 0226 0143     		orrs	r1, r1, r0
 4536 0228 2962     		str	r1, [r5, #32]
 4537              	.L787:
 4538 022a E06A     		ldr	r0, [r4, #44]
 4539 022c 05F13C01 		add	r1, r5, #60
 4540 0230 1F4D     		ldr	r5, .L819
 4541 0232 C562     		str	r5, [r0, #44]
 4542 0234 1F4D     		ldr	r5, .L819+4
 4543 0236 0563     		str	r5, [r0, #48]
 4544 0238 1F4D     		ldr	r5, .L819+8
 4545 023a 4563     		str	r5, [r0, #52]
 4546 023c FFF7FEFF 		bl	HAL_DMA_Start_IT
 4547 0240 0028     		cmp	r0, #0
 4548 0242 7FF419AF 		bne	.L775
 4549 0246 2568     		ldr	r5, [r4]
 4550 0248 EB68     		ldr	r3, [r5, #12]
 4551 024a 43F40063 		orr	r3, r3, #2048
 4552 024e EB60     		str	r3, [r5, #12]
 4553 0250 57E7     		b	.L786
 4554              	.L791:
 4555 0252 0220     		movs	r0, #2
 4556 0254 0829     		cmp	r1, #8
 4557 0256 84F84300 		strb	r0, [r4, #67]
 4558 025a D6D0     		beq	.L782
 4559 025c 2568     		ldr	r5, [r4]
 4560 025e 84F84700 		strb	r0, [r4, #71]
 4561 0262 2E6A     		ldr	r6, [r5, #32]
 4562 0264 01F01F0C 		and	ip, r1, #31
 4563 0268 0120     		movs	r0, #1
 4564 026a 00FA0CF0 		lsl	r0, r0, ip
 4565 026e 26EA0006 		bic	r6, r6, r0
 4566 0272 2E62     		str	r6, [r5, #32]
 4567 0274 2E6A     		ldr	r6, [r5, #32]
 4568 0276 0439     		subs	r1, r1, #4
 4569 0278 3043     		orrs	r0, r0, r6
 4570 027a 2862     		str	r0, [r5, #32]
 4571 027c 0829     		cmp	r1, #8
 4572 027e 15D8     		bhi	.L795
 4573 0280 01A0     		adr	r0, .L790
 4574 0282 50F821F0 		ldr	pc, [r0, r1, lsl #2]
 4575 0286 00BF     		.p2align 2
 4576              	.L790:
 4577 0288 79010000 		.word	.L780+1
 4578 028c AD020000 		.word	.L795+1
 4579 0290 AD020000 		.word	.L795+1
 4580 0294 AD020000 		.word	.L795+1
 4581 0298 2B020000 		.word	.L787+1
 4582 029c AD020000 		.word	.L795+1
 4583 02a0 AD020000 		.word	.L795+1
 4584 02a4 AD020000 		.word	.L795+1
ARM GAS  /tmp/ccoSsvAJ.s 			page 80


 4585 02a8 DD010000 		.word	.L784+1
 4586              		.p2align 1
 4587              	.L795:
 4588 02ac 0120     		movs	r0, #1
 4589 02ae 28E7     		b	.L786
 4590              	.L820:
 4591              		.align	2
 4592              	.L819:
 4593 02b0 00000000 		.word	TIM_DMACaptureCplt
 4594 02b4 00000000 		.word	TIM_DMACaptureHalfCplt
 4595 02b8 00000000 		.word	TIM_DMAError
 4596 02bc 002C0140 		.word	1073818624
 4597 02c0 07000100 		.word	65543
 4599              		.section	.text.HAL_TIM_IC_Stop_DMA,"ax",%progbits
 4600              		.align	1
 4601              		.p2align 2,,3
 4602              		.global	HAL_TIM_IC_Stop_DMA
 4603              		.syntax unified
 4604              		.thumb
 4605              		.thumb_func
 4606              		.fpu fpv4-sp-d16
 4608              	HAL_TIM_IC_Stop_DMA:
 4609              		@ args = 0, pretend = 0, frame = 0
 4610              		@ frame_needed = 0, uses_anonymous_args = 0
 4611 0000 38B5     		push	{r3, r4, r5, lr}
 4612 0002 0368     		ldr	r3, [r0]
 4613 0004 0446     		mov	r4, r0
 4614 0006 1A6A     		ldr	r2, [r3, #32]
 4615 0008 01F01F00 		and	r0, r1, #31
 4616 000c 0D46     		mov	r5, r1
 4617 000e 0121     		movs	r1, #1
 4618 0010 8140     		lsls	r1, r1, r0
 4619 0012 22EA0102 		bic	r2, r2, r1
 4620 0016 1A62     		str	r2, [r3, #32]
 4621 0018 1A6A     		ldr	r2, [r3, #32]
 4622 001a 1A62     		str	r2, [r3, #32]
 4623 001c 0C2D     		cmp	r5, #12
 4624 001e 08D8     		bhi	.L839
 4625 0020 DFE805F0 		tbb	[pc, r5]
 4626              	.L824:
 4627 0024 5C       		.byte	(.L827-.L824)/2
 4628 0025 07       		.byte	(.L839-.L824)/2
 4629 0026 07       		.byte	(.L839-.L824)/2
 4630 0027 07       		.byte	(.L839-.L824)/2
 4631 0028 43       		.byte	(.L826-.L824)/2
 4632 0029 07       		.byte	(.L839-.L824)/2
 4633 002a 07       		.byte	(.L839-.L824)/2
 4634 002b 07       		.byte	(.L839-.L824)/2
 4635 002c 22       		.byte	(.L825-.L824)/2
 4636 002d 07       		.byte	(.L839-.L824)/2
 4637 002e 07       		.byte	(.L839-.L824)/2
 4638 002f 07       		.byte	(.L839-.L824)/2
 4639 0030 09       		.byte	(.L823-.L824)/2
 4640 0031 00       		.p2align 1
 4641              	.L839:
 4642 0032 0120     		movs	r0, #1
 4643 0034 38BD     		pop	{r3, r4, r5, pc}
ARM GAS  /tmp/ccoSsvAJ.s 			page 81


 4644              	.L823:
 4645 0036 DA68     		ldr	r2, [r3, #12]
 4646 0038 206B     		ldr	r0, [r4, #48]
 4647 003a 22F48052 		bic	r2, r2, #4096
 4648 003e DA60     		str	r2, [r3, #12]
 4649 0040 FFF7FEFF 		bl	HAL_DMA_Abort_IT
 4650 0044 2368     		ldr	r3, [r4]
 4651 0046 196A     		ldr	r1, [r3, #32]
 4652 0048 41F21112 		movw	r2, #4369
 4653 004c 1142     		tst	r1, r2
 4654 004e 04D1     		bne	.L832
 4655 0050 196A     		ldr	r1, [r3, #32]
 4656 0052 40F24442 		movw	r2, #1092
 4657 0056 1142     		tst	r1, r2
 4658 0058 18D0     		beq	.L834
 4659              	.L832:
 4660 005a 0123     		movs	r3, #1
 4661 005c 84F84130 		strb	r3, [r4, #65]
 4662 0060 84F84730 		strb	r3, [r4, #71]
 4663 0064 0020     		movs	r0, #0
 4664 0066 38BD     		pop	{r3, r4, r5, pc}
 4665              	.L825:
 4666 0068 DA68     		ldr	r2, [r3, #12]
 4667 006a E06A     		ldr	r0, [r4, #44]
 4668 006c 22F40062 		bic	r2, r2, #2048
 4669 0070 DA60     		str	r2, [r3, #12]
 4670 0072 FFF7FEFF 		bl	HAL_DMA_Abort_IT
 4671 0076 2368     		ldr	r3, [r4]
 4672 0078 196A     		ldr	r1, [r3, #32]
 4673 007a 41F21112 		movw	r2, #4369
 4674 007e 1142     		tst	r1, r2
 4675 0080 0CD1     		bne	.L833
 4676 0082 196A     		ldr	r1, [r3, #32]
 4677 0084 40F24442 		movw	r2, #1092
 4678 0088 1142     		tst	r1, r2
 4679 008a 07D1     		bne	.L833
 4680              	.L834:
 4681 008c 1A68     		ldr	r2, [r3]
 4682 008e 042D     		cmp	r5, #4
 4683 0090 22F00102 		bic	r2, r2, #1
 4684 0094 1A60     		str	r2, [r3]
 4685 0096 1AD0     		beq	.L837
 4686 0098 082D     		cmp	r5, #8
 4687 009a DED1     		bne	.L832
 4688              	.L833:
 4689 009c 0123     		movs	r3, #1
 4690 009e 84F84030 		strb	r3, [r4, #64]
 4691 00a2 84F84630 		strb	r3, [r4, #70]
 4692 00a6 0020     		movs	r0, #0
 4693 00a8 38BD     		pop	{r3, r4, r5, pc}
 4694              	.L826:
 4695 00aa DA68     		ldr	r2, [r3, #12]
 4696 00ac A06A     		ldr	r0, [r4, #40]
 4697 00ae 22F48062 		bic	r2, r2, #1024
 4698 00b2 DA60     		str	r2, [r3, #12]
 4699 00b4 FFF7FEFF 		bl	HAL_DMA_Abort_IT
 4700 00b8 2368     		ldr	r3, [r4]
ARM GAS  /tmp/ccoSsvAJ.s 			page 82


 4701 00ba 196A     		ldr	r1, [r3, #32]
 4702 00bc 41F21112 		movw	r2, #4369
 4703 00c0 1142     		tst	r1, r2
 4704 00c2 04D1     		bne	.L837
 4705 00c4 196A     		ldr	r1, [r3, #32]
 4706 00c6 40F24442 		movw	r2, #1092
 4707 00ca 1142     		tst	r1, r2
 4708 00cc DED0     		beq	.L834
 4709              	.L837:
 4710 00ce 0123     		movs	r3, #1
 4711 00d0 84F83F30 		strb	r3, [r4, #63]
 4712 00d4 84F84530 		strb	r3, [r4, #69]
 4713 00d8 0020     		movs	r0, #0
 4714 00da 38BD     		pop	{r3, r4, r5, pc}
 4715              	.L827:
 4716 00dc DA68     		ldr	r2, [r3, #12]
 4717 00de 606A     		ldr	r0, [r4, #36]
 4718 00e0 22F40072 		bic	r2, r2, #512
 4719 00e4 DA60     		str	r2, [r3, #12]
 4720 00e6 FFF7FEFF 		bl	HAL_DMA_Abort_IT
 4721 00ea 2368     		ldr	r3, [r4]
 4722 00ec 196A     		ldr	r1, [r3, #32]
 4723 00ee 41F21112 		movw	r2, #4369
 4724 00f2 1142     		tst	r1, r2
 4725 00f4 04D1     		bne	.L836
 4726 00f6 196A     		ldr	r1, [r3, #32]
 4727 00f8 40F24442 		movw	r2, #1092
 4728 00fc 1142     		tst	r1, r2
 4729 00fe 06D0     		beq	.L858
 4730              	.L836:
 4731 0100 0123     		movs	r3, #1
 4732 0102 84F83E30 		strb	r3, [r4, #62]
 4733 0106 84F84430 		strb	r3, [r4, #68]
 4734 010a 0020     		movs	r0, #0
 4735 010c 38BD     		pop	{r3, r4, r5, pc}
 4736              	.L858:
 4737 010e 1A68     		ldr	r2, [r3]
 4738 0110 22F00102 		bic	r2, r2, #1
 4739 0114 1A60     		str	r2, [r3]
 4740 0116 F3E7     		b	.L836
 4742              		.section	.text.HAL_TIM_OnePulse_MspInit,"ax",%progbits
 4743              		.align	1
 4744              		.p2align 2,,3
 4745              		.weak	HAL_TIM_OnePulse_MspInit
 4746              		.syntax unified
 4747              		.thumb
 4748              		.thumb_func
 4749              		.fpu fpv4-sp-d16
 4751              	HAL_TIM_OnePulse_MspInit:
 4752              		@ args = 0, pretend = 0, frame = 0
 4753              		@ frame_needed = 0, uses_anonymous_args = 0
 4754              		@ link register save eliminated.
 4755 0000 7047     		bx	lr
 4757 0002 00BF     		.section	.text.HAL_TIM_OnePulse_Init,"ax",%progbits
 4758              		.align	1
 4759              		.p2align 2,,3
 4760              		.global	HAL_TIM_OnePulse_Init
ARM GAS  /tmp/ccoSsvAJ.s 			page 83


 4761              		.syntax unified
 4762              		.thumb
 4763              		.thumb_func
 4764              		.fpu fpv4-sp-d16
 4766              	HAL_TIM_OnePulse_Init:
 4767              		@ args = 0, pretend = 0, frame = 0
 4768              		@ frame_needed = 0, uses_anonymous_args = 0
 4769 0000 0028     		cmp	r0, #0
 4770 0002 6ED0     		beq	.L876
 4771 0004 F8B5     		push	{r3, r4, r5, r6, r7, lr}
 4772 0006 90F83D30 		ldrb	r3, [r0, #61]	@ zero_extendqisi2
 4773 000a 0D46     		mov	r5, r1
 4774 000c 0446     		mov	r4, r0
 4775 000e 03F0FF02 		and	r2, r3, #255
 4776 0012 002B     		cmp	r3, #0
 4777 0014 60D0     		beq	.L885
 4778              	.L862:
 4779 0016 2368     		ldr	r3, [r4]
 4780 0018 334F     		ldr	r7, .L886
 4781 001a A669     		ldr	r6, [r4, #24]
 4782 001c E068     		ldr	r0, [r4, #12]
 4783 001e 6168     		ldr	r1, [r4, #4]
 4784 0020 0222     		movs	r2, #2
 4785 0022 84F83D20 		strb	r2, [r4, #61]
 4786 0026 BB42     		cmp	r3, r7
 4787 0028 1A68     		ldr	r2, [r3]
 4788 002a 44D0     		beq	.L868
 4789 002c B3F1804F 		cmp	r3, #1073741824
 4790 0030 1CD0     		beq	.L864
 4791 0032 A7F59437 		sub	r7, r7, #75776
 4792 0036 BB42     		cmp	r3, r7
 4793 0038 18D0     		beq	.L864
 4794 003a 07F58067 		add	r7, r7, #1024
 4795 003e BB42     		cmp	r3, r7
 4796 0040 14D0     		beq	.L864
 4797 0042 07F58067 		add	r7, r7, #1024
 4798 0046 BB42     		cmp	r3, r7
 4799 0048 10D0     		beq	.L864
 4800 004a 07F59437 		add	r7, r7, #75776
 4801 004e BB42     		cmp	r3, r7
 4802 0050 31D0     		beq	.L868
 4803 0052 07F54067 		add	r7, r7, #3072
 4804 0056 BB42     		cmp	r3, r7
 4805 0058 31D0     		beq	.L883
 4806 005a 07F58067 		add	r7, r7, #1024
 4807 005e BB42     		cmp	r3, r7
 4808 0060 2DD0     		beq	.L883
 4809 0062 07F58067 		add	r7, r7, #1024
 4810 0066 BB42     		cmp	r3, r7
 4811 0068 08D1     		bne	.L884
 4812 006a 28E0     		b	.L883
 4813              	.L864:
 4814 006c A768     		ldr	r7, [r4, #8]
 4815 006e 22F07002 		bic	r2, r2, #112
 4816 0072 3A43     		orrs	r2, r2, r7
 4817 0074 2769     		ldr	r7, [r4, #16]
 4818 0076 22F44072 		bic	r2, r2, #768
ARM GAS  /tmp/ccoSsvAJ.s 			page 84


 4819 007a 3A43     		orrs	r2, r2, r7
 4820              	.L884:
 4821 007c 22F08002 		bic	r2, r2, #128
 4822 0080 3243     		orrs	r2, r2, r6
 4823 0082 1A60     		str	r2, [r3]
 4824 0084 D862     		str	r0, [r3, #44]
 4825 0086 9962     		str	r1, [r3, #40]
 4826              	.L873:
 4827 0088 0122     		movs	r2, #1
 4828 008a 5A61     		str	r2, [r3, #20]
 4829 008c 1968     		ldr	r1, [r3]
 4830 008e 21F00801 		bic	r1, r1, #8
 4831 0092 1960     		str	r1, [r3]
 4832 0094 1968     		ldr	r1, [r3]
 4833 0096 2943     		orrs	r1, r1, r5
 4834 0098 1960     		str	r1, [r3]
 4835 009a 84F84820 		strb	r2, [r4, #72]
 4836 009e 84F83E20 		strb	r2, [r4, #62]
 4837 00a2 84F83F20 		strb	r2, [r4, #63]
 4838 00a6 84F84420 		strb	r2, [r4, #68]
 4839 00aa 84F84520 		strb	r2, [r4, #69]
 4840 00ae 84F83D20 		strb	r2, [r4, #61]
 4841 00b2 0020     		movs	r0, #0
 4842 00b4 F8BD     		pop	{r3, r4, r5, r6, r7, pc}
 4843              	.L868:
 4844 00b6 A768     		ldr	r7, [r4, #8]
 4845 00b8 22F07002 		bic	r2, r2, #112
 4846 00bc 3A43     		orrs	r2, r2, r7
 4847              	.L883:
 4848 00be 2769     		ldr	r7, [r4, #16]
 4849 00c0 22F44072 		bic	r2, r2, #768
 4850 00c4 3A43     		orrs	r2, r2, r7
 4851 00c6 22F08002 		bic	r2, r2, #128
 4852 00ca 3243     		orrs	r2, r2, r6
 4853 00cc 1A60     		str	r2, [r3]
 4854 00ce D862     		str	r0, [r3, #44]
 4855 00d0 9962     		str	r1, [r3, #40]
 4856 00d2 6269     		ldr	r2, [r4, #20]
 4857 00d4 1A63     		str	r2, [r3, #48]
 4858 00d6 D7E7     		b	.L873
 4859              	.L885:
 4860 00d8 80F83C20 		strb	r2, [r0, #60]
 4861 00dc FFF7FEFF 		bl	HAL_TIM_OnePulse_MspInit
 4862 00e0 99E7     		b	.L862
 4863              	.L876:
 4864 00e2 0120     		movs	r0, #1
 4865 00e4 7047     		bx	lr
 4866              	.L887:
 4867 00e6 00BF     		.align	2
 4868              	.L886:
 4869 00e8 002C0140 		.word	1073818624
 4871              		.section	.text.HAL_TIM_OnePulse_MspDeInit,"ax",%progbits
 4872              		.align	1
 4873              		.p2align 2,,3
 4874              		.weak	HAL_TIM_OnePulse_MspDeInit
 4875              		.syntax unified
 4876              		.thumb
ARM GAS  /tmp/ccoSsvAJ.s 			page 85


 4877              		.thumb_func
 4878              		.fpu fpv4-sp-d16
 4880              	HAL_TIM_OnePulse_MspDeInit:
 4881              		@ args = 0, pretend = 0, frame = 0
 4882              		@ frame_needed = 0, uses_anonymous_args = 0
 4883              		@ link register save eliminated.
 4884 0000 7047     		bx	lr
 4886 0002 00BF     		.section	.text.HAL_TIM_OnePulse_DeInit,"ax",%progbits
 4887              		.align	1
 4888              		.p2align 2,,3
 4889              		.global	HAL_TIM_OnePulse_DeInit
 4890              		.syntax unified
 4891              		.thumb
 4892              		.thumb_func
 4893              		.fpu fpv4-sp-d16
 4895              	HAL_TIM_OnePulse_DeInit:
 4896              		@ args = 0, pretend = 0, frame = 0
 4897              		@ frame_needed = 0, uses_anonymous_args = 0
 4898 0000 0222     		movs	r2, #2
 4899 0002 0368     		ldr	r3, [r0]
 4900 0004 10B5     		push	{r4, lr}
 4901 0006 80F83D20 		strb	r2, [r0, #61]
 4902 000a 196A     		ldr	r1, [r3, #32]
 4903 000c 41F21112 		movw	r2, #4369
 4904 0010 1142     		tst	r1, r2
 4905 0012 0446     		mov	r4, r0
 4906 0014 08D1     		bne	.L890
 4907 0016 196A     		ldr	r1, [r3, #32]
 4908 0018 40F24442 		movw	r2, #1092
 4909 001c 1142     		tst	r1, r2
 4910 001e 03D1     		bne	.L890
 4911 0020 1A68     		ldr	r2, [r3]
 4912 0022 22F00102 		bic	r2, r2, #1
 4913 0026 1A60     		str	r2, [r3]
 4914              	.L890:
 4915 0028 2046     		mov	r0, r4
 4916 002a FFF7FEFF 		bl	HAL_TIM_OnePulse_MspDeInit
 4917 002e 0020     		movs	r0, #0
 4918 0030 84F84800 		strb	r0, [r4, #72]
 4919 0034 84F83C00 		strb	r0, [r4, #60]
 4920 0038 84F83E00 		strb	r0, [r4, #62]
 4921 003c 84F83F00 		strb	r0, [r4, #63]
 4922 0040 84F84400 		strb	r0, [r4, #68]
 4923 0044 84F84500 		strb	r0, [r4, #69]
 4924 0048 84F83D00 		strb	r0, [r4, #61]
 4925 004c 10BD     		pop	{r4, pc}
 4927 004e 00BF     		.section	.text.HAL_TIM_OnePulse_Start,"ax",%progbits
 4928              		.align	1
 4929              		.p2align 2,,3
 4930              		.global	HAL_TIM_OnePulse_Start
 4931              		.syntax unified
 4932              		.thumb
 4933              		.thumb_func
 4934              		.fpu fpv4-sp-d16
 4936              	HAL_TIM_OnePulse_Start:
 4937              		@ args = 0, pretend = 0, frame = 0
 4938              		@ frame_needed = 0, uses_anonymous_args = 0
ARM GAS  /tmp/ccoSsvAJ.s 			page 86


 4939 0000 00B5     		push	{lr}
 4940 0002 90F83EC0 		ldrb	ip, [r0, #62]	@ zero_extendqisi2
 4941 0006 90F83F30 		ldrb	r3, [r0, #63]	@ zero_extendqisi2
 4942 000a 90F84420 		ldrb	r2, [r0, #68]	@ zero_extendqisi2
 4943 000e 90F84510 		ldrb	r1, [r0, #69]	@ zero_extendqisi2
 4944 0012 BCF1010F 		cmp	ip, #1
 4945 0016 07D1     		bne	.L895
 4946 0018 DBB2     		uxtb	r3, r3
 4947 001a 012B     		cmp	r3, #1
 4948 001c 5FFA8CFE 		uxtb	lr, ip
 4949 0020 07D0     		beq	.L900
 4950              	.L893:
 4951 0022 7046     		mov	r0, lr
 4952 0024 5DF804FB 		ldr	pc, [sp], #4
 4953              	.L895:
 4954 0028 4FF0010E 		mov	lr, #1
 4955 002c 7046     		mov	r0, lr
 4956 002e 5DF804FB 		ldr	pc, [sp], #4
 4957              	.L900:
 4958 0032 D2B2     		uxtb	r2, r2
 4959 0034 012A     		cmp	r2, #1
 4960 0036 F4D1     		bne	.L893
 4961 0038 C9B2     		uxtb	r1, r1
 4962 003a 0129     		cmp	r1, #1
 4963 003c F1D1     		bne	.L893
 4964 003e 0368     		ldr	r3, [r0]
 4965 0040 1A49     		ldr	r1, .L901
 4966 0042 0222     		movs	r2, #2
 4967 0044 80F83E20 		strb	r2, [r0, #62]
 4968 0048 80F83F20 		strb	r2, [r0, #63]
 4969 004c 80F84420 		strb	r2, [r0, #68]
 4970 0050 80F84520 		strb	r2, [r0, #69]
 4971 0054 1A6A     		ldr	r2, [r3, #32]
 4972 0056 22F00102 		bic	r2, r2, #1
 4973 005a 1A62     		str	r2, [r3, #32]
 4974 005c 1A6A     		ldr	r2, [r3, #32]
 4975 005e 42F00102 		orr	r2, r2, #1
 4976 0062 1A62     		str	r2, [r3, #32]
 4977 0064 1A6A     		ldr	r2, [r3, #32]
 4978 0066 22F01002 		bic	r2, r2, #16
 4979 006a 1A62     		str	r2, [r3, #32]
 4980 006c 1A6A     		ldr	r2, [r3, #32]
 4981 006e 8B42     		cmp	r3, r1
 4982 0070 42F01002 		orr	r2, r2, #16
 4983 0074 1A62     		str	r2, [r3, #32]
 4984 0076 11D0     		beq	.L894
 4985 0078 0D4A     		ldr	r2, .L901+4
 4986 007a 9342     		cmp	r3, r2
 4987 007c 0ED0     		beq	.L894
 4988 007e 02F54062 		add	r2, r2, #3072
 4989 0082 9342     		cmp	r3, r2
 4990 0084 0AD0     		beq	.L894
 4991 0086 02F58062 		add	r2, r2, #1024
 4992 008a 9342     		cmp	r3, r2
 4993 008c 06D0     		beq	.L894
 4994 008e 02F58062 		add	r2, r2, #1024
 4995 0092 9342     		cmp	r3, r2
ARM GAS  /tmp/ccoSsvAJ.s 			page 87


 4996 0094 02D0     		beq	.L894
 4997 0096 4FF0000E 		mov	lr, #0
 4998 009a C2E7     		b	.L893
 4999              	.L894:
 5000 009c 5A6C     		ldr	r2, [r3, #68]
 5001 009e 42F40042 		orr	r2, r2, #32768
 5002 00a2 4FF0000E 		mov	lr, #0
 5003 00a6 5A64     		str	r2, [r3, #68]
 5004 00a8 BBE7     		b	.L893
 5005              	.L902:
 5006 00aa 00BF     		.align	2
 5007              	.L901:
 5008 00ac 002C0140 		.word	1073818624
 5009 00b0 00340140 		.word	1073820672
 5011              		.section	.text.HAL_TIM_OnePulse_Stop,"ax",%progbits
 5012              		.align	1
 5013              		.p2align 2,,3
 5014              		.global	HAL_TIM_OnePulse_Stop
 5015              		.syntax unified
 5016              		.thumb
 5017              		.thumb_func
 5018              		.fpu fpv4-sp-d16
 5020              	HAL_TIM_OnePulse_Stop:
 5021              		@ args = 0, pretend = 0, frame = 0
 5022              		@ frame_needed = 0, uses_anonymous_args = 0
 5023              		@ link register save eliminated.
 5024 0000 0246     		mov	r2, r0
 5025 0002 2348     		ldr	r0, .L907
 5026 0004 1368     		ldr	r3, [r2]
 5027 0006 196A     		ldr	r1, [r3, #32]
 5028 0008 21F00101 		bic	r1, r1, #1
 5029 000c 1962     		str	r1, [r3, #32]
 5030 000e 196A     		ldr	r1, [r3, #32]
 5031 0010 1962     		str	r1, [r3, #32]
 5032 0012 196A     		ldr	r1, [r3, #32]
 5033 0014 21F01001 		bic	r1, r1, #16
 5034 0018 1962     		str	r1, [r3, #32]
 5035 001a 196A     		ldr	r1, [r3, #32]
 5036 001c 1962     		str	r1, [r3, #32]
 5037 001e 8342     		cmp	r3, r0
 5038 0020 27D0     		beq	.L904
 5039 0022 1C49     		ldr	r1, .L907+4
 5040 0024 8B42     		cmp	r3, r1
 5041 0026 24D0     		beq	.L904
 5042 0028 01F54061 		add	r1, r1, #3072
 5043 002c 8B42     		cmp	r3, r1
 5044 002e 20D0     		beq	.L904
 5045 0030 01F58061 		add	r1, r1, #1024
 5046 0034 8B42     		cmp	r3, r1
 5047 0036 1CD0     		beq	.L904
 5048 0038 01F58061 		add	r1, r1, #1024
 5049 003c 8B42     		cmp	r3, r1
 5050 003e 18D0     		beq	.L904
 5051              	.L905:
 5052 0040 186A     		ldr	r0, [r3, #32]
 5053 0042 41F21111 		movw	r1, #4369
 5054 0046 0842     		tst	r0, r1
ARM GAS  /tmp/ccoSsvAJ.s 			page 88


 5055 0048 08D1     		bne	.L906
 5056 004a 186A     		ldr	r0, [r3, #32]
 5057 004c 40F24441 		movw	r1, #1092
 5058 0050 0842     		tst	r0, r1
 5059 0052 03D1     		bne	.L906
 5060 0054 1968     		ldr	r1, [r3]
 5061 0056 21F00101 		bic	r1, r1, #1
 5062 005a 1960     		str	r1, [r3]
 5063              	.L906:
 5064 005c 0123     		movs	r3, #1
 5065 005e 82F83E30 		strb	r3, [r2, #62]
 5066 0062 0020     		movs	r0, #0
 5067 0064 82F83F30 		strb	r3, [r2, #63]
 5068 0068 82F84430 		strb	r3, [r2, #68]
 5069 006c 82F84530 		strb	r3, [r2, #69]
 5070 0070 7047     		bx	lr
 5071              	.L904:
 5072 0072 186A     		ldr	r0, [r3, #32]
 5073 0074 41F21111 		movw	r1, #4369
 5074 0078 0842     		tst	r0, r1
 5075 007a E1D1     		bne	.L905
 5076 007c 186A     		ldr	r0, [r3, #32]
 5077 007e 40F24441 		movw	r1, #1092
 5078 0082 0842     		tst	r0, r1
 5079 0084 DCD1     		bne	.L905
 5080 0086 596C     		ldr	r1, [r3, #68]
 5081 0088 21F40041 		bic	r1, r1, #32768
 5082 008c 5964     		str	r1, [r3, #68]
 5083 008e D7E7     		b	.L905
 5084              	.L908:
 5085              		.align	2
 5086              	.L907:
 5087 0090 002C0140 		.word	1073818624
 5088 0094 00340140 		.word	1073820672
 5090              		.section	.text.HAL_TIM_OnePulse_Start_IT,"ax",%progbits
 5091              		.align	1
 5092              		.p2align 2,,3
 5093              		.global	HAL_TIM_OnePulse_Start_IT
 5094              		.syntax unified
 5095              		.thumb
 5096              		.thumb_func
 5097              		.fpu fpv4-sp-d16
 5099              	HAL_TIM_OnePulse_Start_IT:
 5100              		@ args = 0, pretend = 0, frame = 0
 5101              		@ frame_needed = 0, uses_anonymous_args = 0
 5102 0000 00B5     		push	{lr}
 5103 0002 90F83EC0 		ldrb	ip, [r0, #62]	@ zero_extendqisi2
 5104 0006 90F83F30 		ldrb	r3, [r0, #63]	@ zero_extendqisi2
 5105 000a 90F84420 		ldrb	r2, [r0, #68]	@ zero_extendqisi2
 5106 000e 90F84510 		ldrb	r1, [r0, #69]	@ zero_extendqisi2
 5107 0012 BCF1010F 		cmp	ip, #1
 5108 0016 07D1     		bne	.L912
 5109 0018 DBB2     		uxtb	r3, r3
 5110 001a 012B     		cmp	r3, #1
 5111 001c 5FFA8CFE 		uxtb	lr, ip
 5112 0020 07D0     		beq	.L917
 5113              	.L910:
ARM GAS  /tmp/ccoSsvAJ.s 			page 89


 5114 0022 7046     		mov	r0, lr
 5115 0024 5DF804FB 		ldr	pc, [sp], #4
 5116              	.L912:
 5117 0028 4FF0010E 		mov	lr, #1
 5118 002c 7046     		mov	r0, lr
 5119 002e 5DF804FB 		ldr	pc, [sp], #4
 5120              	.L917:
 5121 0032 D2B2     		uxtb	r2, r2
 5122 0034 012A     		cmp	r2, #1
 5123 0036 F4D1     		bne	.L910
 5124 0038 C9B2     		uxtb	r1, r1
 5125 003a 0129     		cmp	r1, #1
 5126 003c F1D1     		bne	.L910
 5127 003e 0368     		ldr	r3, [r0]
 5128 0040 1E49     		ldr	r1, .L918
 5129 0042 0222     		movs	r2, #2
 5130 0044 80F83E20 		strb	r2, [r0, #62]
 5131 0048 80F83F20 		strb	r2, [r0, #63]
 5132 004c 80F84420 		strb	r2, [r0, #68]
 5133 0050 80F84520 		strb	r2, [r0, #69]
 5134 0054 DA68     		ldr	r2, [r3, #12]
 5135 0056 42F00202 		orr	r2, r2, #2
 5136 005a DA60     		str	r2, [r3, #12]
 5137 005c DA68     		ldr	r2, [r3, #12]
 5138 005e 42F00402 		orr	r2, r2, #4
 5139 0062 DA60     		str	r2, [r3, #12]
 5140 0064 1A6A     		ldr	r2, [r3, #32]
 5141 0066 22F00102 		bic	r2, r2, #1
 5142 006a 1A62     		str	r2, [r3, #32]
 5143 006c 1A6A     		ldr	r2, [r3, #32]
 5144 006e 42F00102 		orr	r2, r2, #1
 5145 0072 1A62     		str	r2, [r3, #32]
 5146 0074 1A6A     		ldr	r2, [r3, #32]
 5147 0076 22F01002 		bic	r2, r2, #16
 5148 007a 1A62     		str	r2, [r3, #32]
 5149 007c 1A6A     		ldr	r2, [r3, #32]
 5150 007e 8B42     		cmp	r3, r1
 5151 0080 42F01002 		orr	r2, r2, #16
 5152 0084 1A62     		str	r2, [r3, #32]
 5153 0086 11D0     		beq	.L911
 5154 0088 0D4A     		ldr	r2, .L918+4
 5155 008a 9342     		cmp	r3, r2
 5156 008c 0ED0     		beq	.L911
 5157 008e 02F54062 		add	r2, r2, #3072
 5158 0092 9342     		cmp	r3, r2
 5159 0094 0AD0     		beq	.L911
 5160 0096 02F58062 		add	r2, r2, #1024
 5161 009a 9342     		cmp	r3, r2
 5162 009c 06D0     		beq	.L911
 5163 009e 02F58062 		add	r2, r2, #1024
 5164 00a2 9342     		cmp	r3, r2
 5165 00a4 02D0     		beq	.L911
 5166 00a6 4FF0000E 		mov	lr, #0
 5167 00aa BAE7     		b	.L910
 5168              	.L911:
 5169 00ac 5A6C     		ldr	r2, [r3, #68]
 5170 00ae 42F40042 		orr	r2, r2, #32768
ARM GAS  /tmp/ccoSsvAJ.s 			page 90


 5171 00b2 4FF0000E 		mov	lr, #0
 5172 00b6 5A64     		str	r2, [r3, #68]
 5173 00b8 B3E7     		b	.L910
 5174              	.L919:
 5175 00ba 00BF     		.align	2
 5176              	.L918:
 5177 00bc 002C0140 		.word	1073818624
 5178 00c0 00340140 		.word	1073820672
 5180              		.section	.text.HAL_TIM_OnePulse_Stop_IT,"ax",%progbits
 5181              		.align	1
 5182              		.p2align 2,,3
 5183              		.global	HAL_TIM_OnePulse_Stop_IT
 5184              		.syntax unified
 5185              		.thumb
 5186              		.thumb_func
 5187              		.fpu fpv4-sp-d16
 5189              	HAL_TIM_OnePulse_Stop_IT:
 5190              		@ args = 0, pretend = 0, frame = 0
 5191              		@ frame_needed = 0, uses_anonymous_args = 0
 5192              		@ link register save eliminated.
 5193 0000 0246     		mov	r2, r0
 5194 0002 2748     		ldr	r0, .L924
 5195 0004 1368     		ldr	r3, [r2]
 5196 0006 D968     		ldr	r1, [r3, #12]
 5197 0008 21F00201 		bic	r1, r1, #2
 5198 000c D960     		str	r1, [r3, #12]
 5199 000e D968     		ldr	r1, [r3, #12]
 5200 0010 21F00401 		bic	r1, r1, #4
 5201 0014 D960     		str	r1, [r3, #12]
 5202 0016 196A     		ldr	r1, [r3, #32]
 5203 0018 21F00101 		bic	r1, r1, #1
 5204 001c 1962     		str	r1, [r3, #32]
 5205 001e 196A     		ldr	r1, [r3, #32]
 5206 0020 1962     		str	r1, [r3, #32]
 5207 0022 196A     		ldr	r1, [r3, #32]
 5208 0024 21F01001 		bic	r1, r1, #16
 5209 0028 1962     		str	r1, [r3, #32]
 5210 002a 196A     		ldr	r1, [r3, #32]
 5211 002c 1962     		str	r1, [r3, #32]
 5212 002e 8342     		cmp	r3, r0
 5213 0030 27D0     		beq	.L921
 5214 0032 1C49     		ldr	r1, .L924+4
 5215 0034 8B42     		cmp	r3, r1
 5216 0036 24D0     		beq	.L921
 5217 0038 01F54061 		add	r1, r1, #3072
 5218 003c 8B42     		cmp	r3, r1
 5219 003e 20D0     		beq	.L921
 5220 0040 01F58061 		add	r1, r1, #1024
 5221 0044 8B42     		cmp	r3, r1
 5222 0046 1CD0     		beq	.L921
 5223 0048 01F58061 		add	r1, r1, #1024
 5224 004c 8B42     		cmp	r3, r1
 5225 004e 18D0     		beq	.L921
 5226              	.L922:
 5227 0050 186A     		ldr	r0, [r3, #32]
 5228 0052 41F21111 		movw	r1, #4369
 5229 0056 0842     		tst	r0, r1
ARM GAS  /tmp/ccoSsvAJ.s 			page 91


 5230 0058 08D1     		bne	.L923
 5231 005a 186A     		ldr	r0, [r3, #32]
 5232 005c 40F24441 		movw	r1, #1092
 5233 0060 0842     		tst	r0, r1
 5234 0062 03D1     		bne	.L923
 5235 0064 1968     		ldr	r1, [r3]
 5236 0066 21F00101 		bic	r1, r1, #1
 5237 006a 1960     		str	r1, [r3]
 5238              	.L923:
 5239 006c 0123     		movs	r3, #1
 5240 006e 82F83E30 		strb	r3, [r2, #62]
 5241 0072 0020     		movs	r0, #0
 5242 0074 82F83F30 		strb	r3, [r2, #63]
 5243 0078 82F84430 		strb	r3, [r2, #68]
 5244 007c 82F84530 		strb	r3, [r2, #69]
 5245 0080 7047     		bx	lr
 5246              	.L921:
 5247 0082 186A     		ldr	r0, [r3, #32]
 5248 0084 41F21111 		movw	r1, #4369
 5249 0088 0842     		tst	r0, r1
 5250 008a E1D1     		bne	.L922
 5251 008c 186A     		ldr	r0, [r3, #32]
 5252 008e 40F24441 		movw	r1, #1092
 5253 0092 0842     		tst	r0, r1
 5254 0094 DCD1     		bne	.L922
 5255 0096 596C     		ldr	r1, [r3, #68]
 5256 0098 21F40041 		bic	r1, r1, #32768
 5257 009c 5964     		str	r1, [r3, #68]
 5258 009e D7E7     		b	.L922
 5259              	.L925:
 5260              		.align	2
 5261              	.L924:
 5262 00a0 002C0140 		.word	1073818624
 5263 00a4 00340140 		.word	1073820672
 5265              		.section	.text.HAL_TIM_Encoder_MspInit,"ax",%progbits
 5266              		.align	1
 5267              		.p2align 2,,3
 5268              		.weak	HAL_TIM_Encoder_MspInit
 5269              		.syntax unified
 5270              		.thumb
 5271              		.thumb_func
 5272              		.fpu fpv4-sp-d16
 5274              	HAL_TIM_Encoder_MspInit:
 5275              		@ args = 0, pretend = 0, frame = 0
 5276              		@ frame_needed = 0, uses_anonymous_args = 0
 5277              		@ link register save eliminated.
 5278 0000 7047     		bx	lr
 5280 0002 00BF     		.section	.text.HAL_TIM_Encoder_Init,"ax",%progbits
 5281              		.align	1
 5282              		.p2align 2,,3
 5283              		.global	HAL_TIM_Encoder_Init
 5284              		.syntax unified
 5285              		.thumb
 5286              		.thumb_func
 5287              		.fpu fpv4-sp-d16
 5289              	HAL_TIM_Encoder_Init:
 5290              		@ args = 0, pretend = 0, frame = 0
ARM GAS  /tmp/ccoSsvAJ.s 			page 92


 5291              		@ frame_needed = 0, uses_anonymous_args = 0
 5292 0000 0028     		cmp	r0, #0
 5293 0002 00F09780 		beq	.L943
 5294 0006 F8B5     		push	{r3, r4, r5, r6, r7, lr}
 5295 0008 90F83D30 		ldrb	r3, [r0, #61]	@ zero_extendqisi2
 5296 000c 0D46     		mov	r5, r1
 5297 000e 0446     		mov	r4, r0
 5298 0010 03F0FF02 		and	r2, r3, #255
 5299 0014 002B     		cmp	r3, #0
 5300 0016 00F08880 		beq	.L952
 5301              	.L929:
 5302 001a 2368     		ldr	r3, [r4]
 5303 001c 464F     		ldr	r7, .L953
 5304 001e A169     		ldr	r1, [r4, #24]
 5305 0020 E068     		ldr	r0, [r4, #12]
 5306 0022 6668     		ldr	r6, [r4, #4]
 5307 0024 0222     		movs	r2, #2
 5308 0026 84F83D20 		strb	r2, [r4, #61]
 5309 002a 9A68     		ldr	r2, [r3, #8]
 5310 002c 22F4A032 		bic	r2, r2, #81920
 5311 0030 22F00702 		bic	r2, r2, #7
 5312 0034 9A60     		str	r2, [r3, #8]
 5313 0036 BB42     		cmp	r3, r7
 5314 0038 1A68     		ldr	r2, [r3]
 5315 003a 65D0     		beq	.L935
 5316 003c B3F1804F 		cmp	r3, #1073741824
 5317 0040 1CD0     		beq	.L931
 5318 0042 A7F59437 		sub	r7, r7, #75776
 5319 0046 BB42     		cmp	r3, r7
 5320 0048 18D0     		beq	.L931
 5321 004a 07F58067 		add	r7, r7, #1024
 5322 004e BB42     		cmp	r3, r7
 5323 0050 14D0     		beq	.L931
 5324 0052 07F58067 		add	r7, r7, #1024
 5325 0056 BB42     		cmp	r3, r7
 5326 0058 10D0     		beq	.L931
 5327 005a 07F59437 		add	r7, r7, #75776
 5328 005e BB42     		cmp	r3, r7
 5329 0060 52D0     		beq	.L935
 5330 0062 07F54067 		add	r7, r7, #3072
 5331 0066 BB42     		cmp	r3, r7
 5332 0068 52D0     		beq	.L950
 5333 006a 07F58067 		add	r7, r7, #1024
 5334 006e BB42     		cmp	r3, r7
 5335 0070 4ED0     		beq	.L950
 5336 0072 07F58067 		add	r7, r7, #1024
 5337 0076 BB42     		cmp	r3, r7
 5338 0078 08D1     		bne	.L951
 5339 007a 49E0     		b	.L950
 5340              	.L931:
 5341 007c A768     		ldr	r7, [r4, #8]
 5342 007e 22F07002 		bic	r2, r2, #112
 5343 0082 3A43     		orrs	r2, r2, r7
 5344 0084 2769     		ldr	r7, [r4, #16]
 5345 0086 22F44072 		bic	r2, r2, #768
 5346 008a 3A43     		orrs	r2, r2, r7
 5347              	.L951:
ARM GAS  /tmp/ccoSsvAJ.s 			page 93


 5348 008c 22F08002 		bic	r2, r2, #128
 5349 0090 0A43     		orrs	r2, r2, r1
 5350 0092 1A60     		str	r2, [r3]
 5351 0094 D862     		str	r0, [r3, #44]
 5352 0096 9E62     		str	r6, [r3, #40]
 5353              	.L940:
 5354 0098 0126     		movs	r6, #1
 5355 009a 5E61     		str	r6, [r3, #20]
 5356 009c 9868     		ldr	r0, [r3, #8]
 5357 009e 9A69     		ldr	r2, [r3, #24]
 5358 00a0 AF69     		ldr	r7, [r5, #24]
 5359 00a2 A968     		ldr	r1, [r5, #8]
 5360 00a4 22F44072 		bic	r2, r2, #768
 5361 00a8 22F00302 		bic	r2, r2, #3
 5362 00ac 41EA0721 		orr	r1, r1, r7, lsl #8
 5363 00b0 1143     		orrs	r1, r1, r2
 5364 00b2 2A69     		ldr	r2, [r5, #16]
 5365 00b4 EF69     		ldr	r7, [r5, #28]
 5366 00b6 1201     		lsls	r2, r2, #4
 5367 00b8 42EA0722 		orr	r2, r2, r7, lsl #8
 5368 00bc EF68     		ldr	r7, [r5, #12]
 5369 00be 3A43     		orrs	r2, r2, r7
 5370 00c0 1F6A     		ldr	r7, [r3, #32]
 5371 00c2 27F0AA0C 		bic	ip, r7, #170
 5372 00c6 2F6A     		ldr	r7, [r5, #32]
 5373 00c8 21F47C41 		bic	r1, r1, #64512
 5374 00cc 21F0FC01 		bic	r1, r1, #252
 5375 00d0 42EA0732 		orr	r2, r2, r7, lsl #12
 5376 00d4 0A43     		orrs	r2, r2, r1
 5377 00d6 6F69     		ldr	r7, [r5, #20]
 5378 00d8 6968     		ldr	r1, [r5, #4]
 5379 00da 2D68     		ldr	r5, [r5]
 5380 00dc 41EA0711 		orr	r1, r1, r7, lsl #4
 5381 00e0 2843     		orrs	r0, r0, r5
 5382 00e2 41EA0C01 		orr	r1, r1, ip
 5383 00e6 9860     		str	r0, [r3, #8]
 5384 00e8 9A61     		str	r2, [r3, #24]
 5385 00ea 1962     		str	r1, [r3, #32]
 5386 00ec 84F84860 		strb	r6, [r4, #72]
 5387 00f0 84F83E60 		strb	r6, [r4, #62]
 5388 00f4 84F83F60 		strb	r6, [r4, #63]
 5389 00f8 84F84460 		strb	r6, [r4, #68]
 5390 00fc 84F84560 		strb	r6, [r4, #69]
 5391 0100 84F83D60 		strb	r6, [r4, #61]
 5392 0104 0020     		movs	r0, #0
 5393 0106 F8BD     		pop	{r3, r4, r5, r6, r7, pc}
 5394              	.L935:
 5395 0108 A768     		ldr	r7, [r4, #8]
 5396 010a 22F07002 		bic	r2, r2, #112
 5397 010e 3A43     		orrs	r2, r2, r7
 5398              	.L950:
 5399 0110 2769     		ldr	r7, [r4, #16]
 5400 0112 22F44072 		bic	r2, r2, #768
 5401 0116 3A43     		orrs	r2, r2, r7
 5402 0118 22F08002 		bic	r2, r2, #128
 5403 011c 0A43     		orrs	r2, r2, r1
 5404 011e 1A60     		str	r2, [r3]
ARM GAS  /tmp/ccoSsvAJ.s 			page 94


 5405 0120 D862     		str	r0, [r3, #44]
 5406 0122 9E62     		str	r6, [r3, #40]
 5407 0124 6269     		ldr	r2, [r4, #20]
 5408 0126 1A63     		str	r2, [r3, #48]
 5409 0128 B6E7     		b	.L940
 5410              	.L952:
 5411 012a 80F83C20 		strb	r2, [r0, #60]
 5412 012e FFF7FEFF 		bl	HAL_TIM_Encoder_MspInit
 5413 0132 72E7     		b	.L929
 5414              	.L943:
 5415 0134 0120     		movs	r0, #1
 5416 0136 7047     		bx	lr
 5417              	.L954:
 5418              		.align	2
 5419              	.L953:
 5420 0138 002C0140 		.word	1073818624
 5422              		.section	.text.HAL_TIM_Encoder_MspDeInit,"ax",%progbits
 5423              		.align	1
 5424              		.p2align 2,,3
 5425              		.weak	HAL_TIM_Encoder_MspDeInit
 5426              		.syntax unified
 5427              		.thumb
 5428              		.thumb_func
 5429              		.fpu fpv4-sp-d16
 5431              	HAL_TIM_Encoder_MspDeInit:
 5432              		@ args = 0, pretend = 0, frame = 0
 5433              		@ frame_needed = 0, uses_anonymous_args = 0
 5434              		@ link register save eliminated.
 5435 0000 7047     		bx	lr
 5437 0002 00BF     		.section	.text.HAL_TIM_Encoder_DeInit,"ax",%progbits
 5438              		.align	1
 5439              		.p2align 2,,3
 5440              		.global	HAL_TIM_Encoder_DeInit
 5441              		.syntax unified
 5442              		.thumb
 5443              		.thumb_func
 5444              		.fpu fpv4-sp-d16
 5446              	HAL_TIM_Encoder_DeInit:
 5447              		@ args = 0, pretend = 0, frame = 0
 5448              		@ frame_needed = 0, uses_anonymous_args = 0
 5449 0000 0222     		movs	r2, #2
 5450 0002 0368     		ldr	r3, [r0]
 5451 0004 10B5     		push	{r4, lr}
 5452 0006 80F83D20 		strb	r2, [r0, #61]
 5453 000a 196A     		ldr	r1, [r3, #32]
 5454 000c 41F21112 		movw	r2, #4369
 5455 0010 1142     		tst	r1, r2
 5456 0012 0446     		mov	r4, r0
 5457 0014 08D1     		bne	.L957
 5458 0016 196A     		ldr	r1, [r3, #32]
 5459 0018 40F24442 		movw	r2, #1092
 5460 001c 1142     		tst	r1, r2
 5461 001e 03D1     		bne	.L957
 5462 0020 1A68     		ldr	r2, [r3]
 5463 0022 22F00102 		bic	r2, r2, #1
 5464 0026 1A60     		str	r2, [r3]
 5465              	.L957:
ARM GAS  /tmp/ccoSsvAJ.s 			page 95


 5466 0028 2046     		mov	r0, r4
 5467 002a FFF7FEFF 		bl	HAL_TIM_Encoder_MspDeInit
 5468 002e 0020     		movs	r0, #0
 5469 0030 84F84800 		strb	r0, [r4, #72]
 5470 0034 84F83C00 		strb	r0, [r4, #60]
 5471 0038 84F83E00 		strb	r0, [r4, #62]
 5472 003c 84F83F00 		strb	r0, [r4, #63]
 5473 0040 84F84400 		strb	r0, [r4, #68]
 5474 0044 84F84500 		strb	r0, [r4, #69]
 5475 0048 84F83D00 		strb	r0, [r4, #61]
 5476 004c 10BD     		pop	{r4, pc}
 5478 004e 00BF     		.section	.text.HAL_TIM_Encoder_Start,"ax",%progbits
 5479              		.align	1
 5480              		.p2align 2,,3
 5481              		.global	HAL_TIM_Encoder_Start
 5482              		.syntax unified
 5483              		.thumb
 5484              		.thumb_func
 5485              		.fpu fpv4-sp-d16
 5487              	HAL_TIM_Encoder_Start:
 5488              		@ args = 0, pretend = 0, frame = 0
 5489              		@ frame_needed = 0, uses_anonymous_args = 0
 5490 0000 00B5     		push	{lr}
 5491 0002 0346     		mov	r3, r0
 5492 0004 90F83E00 		ldrb	r0, [r0, #62]	@ zero_extendqisi2
 5493 0008 93F83F20 		ldrb	r2, [r3, #63]	@ zero_extendqisi2
 5494 000c 93F844C0 		ldrb	ip, [r3, #68]	@ zero_extendqisi2
 5495 0010 93F845E0 		ldrb	lr, [r3, #69]	@ zero_extendqisi2
 5496 0014 C0B2     		uxtb	r0, r0
 5497 0016 5FFA8CFC 		uxtb	ip, ip
 5498 001a E1B9     		cbnz	r1, .L960
 5499 001c 0128     		cmp	r0, #1
 5500 001e 02D0     		beq	.L972
 5501              	.L967:
 5502 0020 0120     		movs	r0, #1
 5503              	.L961:
 5504 0022 5DF804FB 		ldr	pc, [sp], #4
 5505              	.L972:
 5506 0026 BCF1010F 		cmp	ip, #1
 5507 002a FAD1     		bne	.L961
 5508 002c 1A68     		ldr	r2, [r3]
 5509 002e 0221     		movs	r1, #2
 5510 0030 83F83E10 		strb	r1, [r3, #62]
 5511 0034 83F84410 		strb	r1, [r3, #68]
 5512 0038 136A     		ldr	r3, [r2, #32]
 5513 003a 23F00103 		bic	r3, r3, #1
 5514 003e 1362     		str	r3, [r2, #32]
 5515 0040 136A     		ldr	r3, [r2, #32]
 5516 0042 43F00103 		orr	r3, r3, #1
 5517 0046 1362     		str	r3, [r2, #32]
 5518              	.L962:
 5519 0048 1368     		ldr	r3, [r2]
 5520 004a 43F00103 		orr	r3, r3, #1
 5521 004e 0020     		movs	r0, #0
 5522 0050 1360     		str	r3, [r2]
 5523 0052 5DF804FB 		ldr	pc, [sp], #4
 5524              	.L960:
ARM GAS  /tmp/ccoSsvAJ.s 			page 96


 5525 0056 0429     		cmp	r1, #4
 5526 0058 D2B2     		uxtb	r2, r2
 5527 005a 5FFA8EFE 		uxtb	lr, lr
 5528 005e 1CD0     		beq	.L973
 5529 0060 0128     		cmp	r0, #1
 5530 0062 DDD1     		bne	.L967
 5531 0064 012A     		cmp	r2, #1
 5532 0066 DCD1     		bne	.L961
 5533 0068 BCF1010F 		cmp	ip, #1
 5534 006c D9D1     		bne	.L961
 5535 006e BEF1010F 		cmp	lr, #1
 5536 0072 D6D1     		bne	.L961
 5537 0074 1A68     		ldr	r2, [r3]
 5538 0076 0221     		movs	r1, #2
 5539 0078 83F83E10 		strb	r1, [r3, #62]
 5540 007c 83F83F10 		strb	r1, [r3, #63]
 5541 0080 83F84410 		strb	r1, [r3, #68]
 5542 0084 83F84510 		strb	r1, [r3, #69]
 5543 0088 136A     		ldr	r3, [r2, #32]
 5544 008a 23F00103 		bic	r3, r3, #1
 5545 008e 1362     		str	r3, [r2, #32]
 5546 0090 136A     		ldr	r3, [r2, #32]
 5547 0092 43F00103 		orr	r3, r3, #1
 5548 0096 1362     		str	r3, [r2, #32]
 5549 0098 0AE0     		b	.L971
 5550              	.L973:
 5551 009a 012A     		cmp	r2, #1
 5552 009c C0D1     		bne	.L967
 5553 009e BEF1010F 		cmp	lr, #1
 5554 00a2 BDD1     		bne	.L967
 5555 00a4 0221     		movs	r1, #2
 5556 00a6 1A68     		ldr	r2, [r3]
 5557 00a8 83F83F10 		strb	r1, [r3, #63]
 5558 00ac 83F84510 		strb	r1, [r3, #69]
 5559              	.L971:
 5560 00b0 136A     		ldr	r3, [r2, #32]
 5561 00b2 23F01003 		bic	r3, r3, #16
 5562 00b6 1362     		str	r3, [r2, #32]
 5563 00b8 136A     		ldr	r3, [r2, #32]
 5564 00ba 43F01003 		orr	r3, r3, #16
 5565 00be 1362     		str	r3, [r2, #32]
 5566 00c0 C2E7     		b	.L962
 5568 00c2 00BF     		.section	.text.HAL_TIM_Encoder_Stop,"ax",%progbits
 5569              		.align	1
 5570              		.p2align 2,,3
 5571              		.global	HAL_TIM_Encoder_Stop
 5572              		.syntax unified
 5573              		.thumb
 5574              		.thumb_func
 5575              		.fpu fpv4-sp-d16
 5577              	HAL_TIM_Encoder_Stop:
 5578              		@ args = 0, pretend = 0, frame = 0
 5579              		@ frame_needed = 0, uses_anonymous_args = 0
 5580              		@ link register save eliminated.
 5581 0000 10B4     		push	{r4}
 5582 0002 0368     		ldr	r3, [r0]
 5583 0004 0029     		cmp	r1, #0
ARM GAS  /tmp/ccoSsvAJ.s 			page 97


 5584 0006 34D0     		beq	.L975
 5585 0008 0429     		cmp	r1, #4
 5586 000a 43D0     		beq	.L976
 5587 000c 1A6A     		ldr	r2, [r3, #32]
 5588 000e 22F00102 		bic	r2, r2, #1
 5589 0012 1A62     		str	r2, [r3, #32]
 5590 0014 1A6A     		ldr	r2, [r3, #32]
 5591 0016 1A62     		str	r2, [r3, #32]
 5592 0018 1A6A     		ldr	r2, [r3, #32]
 5593 001a 22F01002 		bic	r2, r2, #16
 5594 001e 1A62     		str	r2, [r3, #32]
 5595 0020 1A6A     		ldr	r2, [r3, #32]
 5596 0022 1A62     		str	r2, [r3, #32]
 5597 0024 1A6A     		ldr	r2, [r3, #32]
 5598 0026 41F21114 		movw	r4, #4369
 5599 002a 2242     		tst	r2, r4
 5600 002c 14D1     		bne	.L983
 5601              	.L981:
 5602 002e 1C6A     		ldr	r4, [r3, #32]
 5603 0030 40F24442 		movw	r2, #1092
 5604 0034 1442     		tst	r4, r2
 5605 0036 03D1     		bne	.L980
 5606              	.L979:
 5607 0038 1A68     		ldr	r2, [r3]
 5608 003a 22F00102 		bic	r2, r2, #1
 5609 003e 1A60     		str	r2, [r3]
 5610              	.L980:
 5611 0040 41B9     		cbnz	r1, .L999
 5612              	.L978:
 5613 0042 0123     		movs	r3, #1
 5614 0044 80F83E30 		strb	r3, [r0, #62]
 5615 0048 80F84430 		strb	r3, [r0, #68]
 5616 004c 5DF8044B 		ldr	r4, [sp], #4
 5617 0050 0020     		movs	r0, #0
 5618 0052 7047     		bx	lr
 5619              	.L999:
 5620 0054 0429     		cmp	r1, #4
 5621 0056 28D0     		beq	.L982
 5622              	.L983:
 5623 0058 0123     		movs	r3, #1
 5624 005a 80F83E30 		strb	r3, [r0, #62]
 5625 005e 80F83F30 		strb	r3, [r0, #63]
 5626 0062 80F84430 		strb	r3, [r0, #68]
 5627 0066 80F84530 		strb	r3, [r0, #69]
 5628 006a 5DF8044B 		ldr	r4, [sp], #4
 5629 006e 0020     		movs	r0, #0
 5630 0070 7047     		bx	lr
 5631              	.L975:
 5632 0072 1A6A     		ldr	r2, [r3, #32]
 5633 0074 22F00102 		bic	r2, r2, #1
 5634 0078 1A62     		str	r2, [r3, #32]
 5635 007a 1A6A     		ldr	r2, [r3, #32]
 5636 007c 1A62     		str	r2, [r3, #32]
 5637 007e 1A6A     		ldr	r2, [r3, #32]
 5638 0080 41F21114 		movw	r4, #4369
 5639 0084 2242     		tst	r2, r4
 5640 0086 DCD1     		bne	.L978
ARM GAS  /tmp/ccoSsvAJ.s 			page 98


 5641 0088 1C6A     		ldr	r4, [r3, #32]
 5642 008a 40F24442 		movw	r2, #1092
 5643 008e 1442     		tst	r4, r2
 5644 0090 D2D0     		beq	.L979
 5645 0092 D5E7     		b	.L980
 5646              	.L976:
 5647 0094 1A6A     		ldr	r2, [r3, #32]
 5648 0096 22F01002 		bic	r2, r2, #16
 5649 009a 1A62     		str	r2, [r3, #32]
 5650 009c 1A6A     		ldr	r2, [r3, #32]
 5651 009e 1A62     		str	r2, [r3, #32]
 5652 00a0 1A6A     		ldr	r2, [r3, #32]
 5653 00a2 41F21114 		movw	r4, #4369
 5654 00a6 2242     		tst	r2, r4
 5655 00a8 C1D0     		beq	.L981
 5656              	.L982:
 5657 00aa 0123     		movs	r3, #1
 5658 00ac 80F83F30 		strb	r3, [r0, #63]
 5659 00b0 80F84530 		strb	r3, [r0, #69]
 5660 00b4 5DF8044B 		ldr	r4, [sp], #4
 5661 00b8 0020     		movs	r0, #0
 5662 00ba 7047     		bx	lr
 5664              		.section	.text.HAL_TIM_Encoder_Start_IT,"ax",%progbits
 5665              		.align	1
 5666              		.p2align 2,,3
 5667              		.global	HAL_TIM_Encoder_Start_IT
 5668              		.syntax unified
 5669              		.thumb
 5670              		.thumb_func
 5671              		.fpu fpv4-sp-d16
 5673              	HAL_TIM_Encoder_Start_IT:
 5674              		@ args = 0, pretend = 0, frame = 0
 5675              		@ frame_needed = 0, uses_anonymous_args = 0
 5676 0000 00B5     		push	{lr}
 5677 0002 0346     		mov	r3, r0
 5678 0004 90F83E00 		ldrb	r0, [r0, #62]	@ zero_extendqisi2
 5679 0008 93F83F20 		ldrb	r2, [r3, #63]	@ zero_extendqisi2
 5680 000c 93F844C0 		ldrb	ip, [r3, #68]	@ zero_extendqisi2
 5681 0010 93F845E0 		ldrb	lr, [r3, #69]	@ zero_extendqisi2
 5682 0014 C0B2     		uxtb	r0, r0
 5683 0016 5FFA8CFC 		uxtb	ip, ip
 5684 001a F9B9     		cbnz	r1, .L1001
 5685 001c 0128     		cmp	r0, #1
 5686 001e 02D0     		beq	.L1012
 5687              	.L1008:
 5688 0020 0120     		movs	r0, #1
 5689              	.L1002:
 5690 0022 5DF804FB 		ldr	pc, [sp], #4
 5691              	.L1012:
 5692 0026 BCF1010F 		cmp	ip, #1
 5693 002a FAD1     		bne	.L1002
 5694 002c 1A68     		ldr	r2, [r3]
 5695 002e 0221     		movs	r1, #2
 5696 0030 83F83E10 		strb	r1, [r3, #62]
 5697 0034 83F84410 		strb	r1, [r3, #68]
 5698 0038 136A     		ldr	r3, [r2, #32]
 5699 003a 23F00103 		bic	r3, r3, #1
ARM GAS  /tmp/ccoSsvAJ.s 			page 99


 5700 003e 1362     		str	r3, [r2, #32]
 5701 0040 136A     		ldr	r3, [r2, #32]
 5702 0042 43F00103 		orr	r3, r3, #1
 5703 0046 1362     		str	r3, [r2, #32]
 5704 0048 D368     		ldr	r3, [r2, #12]
 5705 004a 0B43     		orrs	r3, r3, r1
 5706 004c D360     		str	r3, [r2, #12]
 5707              	.L1003:
 5708 004e 1368     		ldr	r3, [r2]
 5709 0050 43F00103 		orr	r3, r3, #1
 5710 0054 0020     		movs	r0, #0
 5711 0056 1360     		str	r3, [r2]
 5712 0058 5DF804FB 		ldr	pc, [sp], #4
 5713              	.L1001:
 5714 005c 0429     		cmp	r1, #4
 5715 005e D2B2     		uxtb	r2, r2
 5716 0060 5FFA8EFE 		uxtb	lr, lr
 5717 0064 2BD0     		beq	.L1013
 5718 0066 0128     		cmp	r0, #1
 5719 0068 DAD1     		bne	.L1008
 5720 006a 012A     		cmp	r2, #1
 5721 006c D9D1     		bne	.L1002
 5722 006e BCF1010F 		cmp	ip, #1
 5723 0072 D6D1     		bne	.L1002
 5724 0074 BEF1010F 		cmp	lr, #1
 5725 0078 D3D1     		bne	.L1002
 5726 007a 1A68     		ldr	r2, [r3]
 5727 007c 0221     		movs	r1, #2
 5728 007e 83F83E10 		strb	r1, [r3, #62]
 5729 0082 83F83F10 		strb	r1, [r3, #63]
 5730 0086 83F84410 		strb	r1, [r3, #68]
 5731 008a 83F84510 		strb	r1, [r3, #69]
 5732 008e 136A     		ldr	r3, [r2, #32]
 5733 0090 23F00103 		bic	r3, r3, #1
 5734 0094 1362     		str	r3, [r2, #32]
 5735 0096 136A     		ldr	r3, [r2, #32]
 5736 0098 43F00103 		orr	r3, r3, #1
 5737 009c 1362     		str	r3, [r2, #32]
 5738 009e 136A     		ldr	r3, [r2, #32]
 5739 00a0 23F01003 		bic	r3, r3, #16
 5740 00a4 1362     		str	r3, [r2, #32]
 5741 00a6 136A     		ldr	r3, [r2, #32]
 5742 00a8 43F01003 		orr	r3, r3, #16
 5743 00ac 1362     		str	r3, [r2, #32]
 5744 00ae D368     		ldr	r3, [r2, #12]
 5745 00b0 0B43     		orrs	r3, r3, r1
 5746 00b2 D360     		str	r3, [r2, #12]
 5747 00b4 D368     		ldr	r3, [r2, #12]
 5748 00b6 43F00403 		orr	r3, r3, #4
 5749 00ba D360     		str	r3, [r2, #12]
 5750 00bc C7E7     		b	.L1003
 5751              	.L1013:
 5752 00be 012A     		cmp	r2, #1
 5753 00c0 AED1     		bne	.L1008
 5754 00c2 BEF1010F 		cmp	lr, #1
 5755 00c6 ABD1     		bne	.L1008
 5756 00c8 1A68     		ldr	r2, [r3]
ARM GAS  /tmp/ccoSsvAJ.s 			page 100


 5757 00ca 0221     		movs	r1, #2
 5758 00cc 83F83F10 		strb	r1, [r3, #63]
 5759 00d0 83F84510 		strb	r1, [r3, #69]
 5760 00d4 136A     		ldr	r3, [r2, #32]
 5761 00d6 23F01003 		bic	r3, r3, #16
 5762 00da 1362     		str	r3, [r2, #32]
 5763 00dc 136A     		ldr	r3, [r2, #32]
 5764 00de 43F01003 		orr	r3, r3, #16
 5765 00e2 1362     		str	r3, [r2, #32]
 5766 00e4 D368     		ldr	r3, [r2, #12]
 5767 00e6 43F00403 		orr	r3, r3, #4
 5768 00ea D360     		str	r3, [r2, #12]
 5769 00ec AFE7     		b	.L1003
 5771 00ee 00BF     		.section	.text.HAL_TIM_Encoder_Stop_IT,"ax",%progbits
 5772              		.align	1
 5773              		.p2align 2,,3
 5774              		.global	HAL_TIM_Encoder_Stop_IT
 5775              		.syntax unified
 5776              		.thumb
 5777              		.thumb_func
 5778              		.fpu fpv4-sp-d16
 5780              	HAL_TIM_Encoder_Stop_IT:
 5781              		@ args = 0, pretend = 0, frame = 0
 5782              		@ frame_needed = 0, uses_anonymous_args = 0
 5783              		@ link register save eliminated.
 5784 0000 0368     		ldr	r3, [r0]
 5785 0002 F1B9     		cbnz	r1, .L1015
 5786 0004 1A6A     		ldr	r2, [r3, #32]
 5787 0006 22F00102 		bic	r2, r2, #1
 5788 000a 1A62     		str	r2, [r3, #32]
 5789 000c 1A6A     		ldr	r2, [r3, #32]
 5790 000e 1A62     		str	r2, [r3, #32]
 5791 0010 DA68     		ldr	r2, [r3, #12]
 5792 0012 22F00202 		bic	r2, r2, #2
 5793 0016 DA60     		str	r2, [r3, #12]
 5794 0018 1A6A     		ldr	r2, [r3, #32]
 5795 001a 41F21111 		movw	r1, #4369
 5796 001e 0A42     		tst	r2, r1
 5797 0020 08D1     		bne	.L1023
 5798 0022 196A     		ldr	r1, [r3, #32]
 5799 0024 40F24442 		movw	r2, #1092
 5800 0028 1142     		tst	r1, r2
 5801 002a 03D1     		bne	.L1023
 5802 002c 1A68     		ldr	r2, [r3]
 5803 002e 22F00102 		bic	r2, r2, #1
 5804 0032 1A60     		str	r2, [r3]
 5805              	.L1023:
 5806 0034 0123     		movs	r3, #1
 5807 0036 80F83E30 		strb	r3, [r0, #62]
 5808 003a 80F84430 		strb	r3, [r0, #68]
 5809 003e 0020     		movs	r0, #0
 5810 0040 7047     		bx	lr
 5811              	.L1015:
 5812 0042 0429     		cmp	r1, #4
 5813 0044 10B4     		push	{r4}
 5814 0046 1A6A     		ldr	r2, [r3, #32]
 5815 0048 25D0     		beq	.L1038
ARM GAS  /tmp/ccoSsvAJ.s 			page 101


 5816 004a 22F00102 		bic	r2, r2, #1
 5817 004e 1A62     		str	r2, [r3, #32]
 5818 0050 1A6A     		ldr	r2, [r3, #32]
 5819 0052 1A62     		str	r2, [r3, #32]
 5820 0054 1A6A     		ldr	r2, [r3, #32]
 5821 0056 22F01002 		bic	r2, r2, #16
 5822 005a 1A62     		str	r2, [r3, #32]
 5823 005c 1A6A     		ldr	r2, [r3, #32]
 5824 005e 1A62     		str	r2, [r3, #32]
 5825 0060 DA68     		ldr	r2, [r3, #12]
 5826 0062 22F00202 		bic	r2, r2, #2
 5827 0066 DA60     		str	r2, [r3, #12]
 5828 0068 DA68     		ldr	r2, [r3, #12]
 5829 006a 22F00402 		bic	r2, r2, #4
 5830 006e DA60     		str	r2, [r3, #12]
 5831 0070 1A6A     		ldr	r2, [r3, #32]
 5832 0072 41F2111C 		movw	ip, #4369
 5833 0076 12EA0C0F 		tst	r2, ip
 5834 007a 1AD0     		beq	.L1019
 5835              	.L1020:
 5836 007c 0123     		movs	r3, #1
 5837 007e 80F83E30 		strb	r3, [r0, #62]
 5838 0082 80F83F30 		strb	r3, [r0, #63]
 5839 0086 80F84430 		strb	r3, [r0, #68]
 5840 008a 80F84530 		strb	r3, [r0, #69]
 5841 008e 5DF8044B 		ldr	r4, [sp], #4
 5842 0092 0020     		movs	r0, #0
 5843 0094 7047     		bx	lr
 5844              	.L1038:
 5845 0096 22F01002 		bic	r2, r2, #16
 5846 009a 1A62     		str	r2, [r3, #32]
 5847 009c 1A6A     		ldr	r2, [r3, #32]
 5848 009e 1A62     		str	r2, [r3, #32]
 5849 00a0 DA68     		ldr	r2, [r3, #12]
 5850 00a2 22F00402 		bic	r2, r2, #4
 5851 00a6 DA60     		str	r2, [r3, #12]
 5852 00a8 1A6A     		ldr	r2, [r3, #32]
 5853 00aa 41F21114 		movw	r4, #4369
 5854 00ae 2242     		tst	r2, r4
 5855 00b0 06D1     		bne	.L1021
 5856              	.L1019:
 5857 00b2 1C6A     		ldr	r4, [r3, #32]
 5858 00b4 40F24442 		movw	r2, #1092
 5859 00b8 1442     		tst	r4, r2
 5860 00ba 0AD0     		beq	.L1039
 5861 00bc 0429     		cmp	r1, #4
 5862 00be DDD1     		bne	.L1020
 5863              	.L1021:
 5864 00c0 0123     		movs	r3, #1
 5865 00c2 80F83F30 		strb	r3, [r0, #63]
 5866 00c6 80F84530 		strb	r3, [r0, #69]
 5867 00ca 5DF8044B 		ldr	r4, [sp], #4
 5868 00ce 0020     		movs	r0, #0
 5869 00d0 7047     		bx	lr
 5870              	.L1039:
 5871 00d2 1A68     		ldr	r2, [r3]
 5872 00d4 0429     		cmp	r1, #4
ARM GAS  /tmp/ccoSsvAJ.s 			page 102


 5873 00d6 22F00102 		bic	r2, r2, #1
 5874 00da 1A60     		str	r2, [r3]
 5875 00dc CED1     		bne	.L1020
 5876 00de EFE7     		b	.L1021
 5878              		.section	.text.HAL_TIM_Encoder_Start_DMA,"ax",%progbits
 5879              		.align	1
 5880              		.p2align 2,,3
 5881              		.global	HAL_TIM_Encoder_Start_DMA
 5882              		.syntax unified
 5883              		.thumb
 5884              		.thumb_func
 5885              		.fpu fpv4-sp-d16
 5887              	HAL_TIM_Encoder_Start_DMA:
 5888              		@ args = 4, pretend = 0, frame = 0
 5889              		@ frame_needed = 0, uses_anonymous_args = 0
 5890 0000 2DE9F843 		push	{r3, r4, r5, r6, r7, r8, r9, lr}
 5891 0004 0446     		mov	r4, r0
 5892 0006 90F83E00 		ldrb	r0, [r0, #62]	@ zero_extendqisi2
 5893 000a 94F83FC0 		ldrb	ip, [r4, #63]	@ zero_extendqisi2
 5894 000e BDF82060 		ldrh	r6, [sp, #32]
 5895 0012 1D46     		mov	r5, r3
 5896 0014 5FFA8CF3 		uxtb	r3, ip
 5897 0018 94F844C0 		ldrb	ip, [r4, #68]	@ zero_extendqisi2
 5898 001c 94F845E0 		ldrb	lr, [r4, #69]	@ zero_extendqisi2
 5899 0020 C0B2     		uxtb	r0, r0
 5900 0022 5FFA8CFC 		uxtb	ip, ip
 5901 0026 0029     		cmp	r1, #0
 5902 0028 31D1     		bne	.L1041
 5903 002a 0228     		cmp	r0, #2
 5904 002c 2DD0     		beq	.L1042
 5905 002e BCF1020F 		cmp	ip, #2
 5906 0032 67D0     		beq	.L1057
 5907 0034 0128     		cmp	r0, #1
 5908 0036 3CD1     		bne	.L1044
 5909 0038 BCF1010F 		cmp	ip, #1
 5910 003c 39D1     		bne	.L1044
 5911 003e 002A     		cmp	r2, #0
 5912 0040 00F0B580 		beq	.L1073
 5913              	.L1045:
 5914 0044 606A     		ldr	r0, [r4, #36]
 5915 0046 0221     		movs	r1, #2
 5916 0048 84F83E10 		strb	r1, [r4, #62]
 5917 004c 84F84410 		strb	r1, [r4, #68]
 5918 0050 5C49     		ldr	r1, .L1077
 5919 0052 C162     		str	r1, [r0, #44]
 5920 0054 5C49     		ldr	r1, .L1077+4
 5921 0056 0163     		str	r1, [r0, #48]
 5922 0058 5C49     		ldr	r1, .L1077+8
 5923 005a 4163     		str	r1, [r0, #52]
 5924 005c 2168     		ldr	r1, [r4]
 5925 005e 3346     		mov	r3, r6
 5926 0060 3431     		adds	r1, r1, #52
 5927 0062 FFF7FEFF 		bl	HAL_DMA_Start_IT
 5928 0066 20BB     		cbnz	r0, .L1044
 5929 0068 2368     		ldr	r3, [r4]
 5930 006a DA68     		ldr	r2, [r3, #12]
 5931 006c 42F40072 		orr	r2, r2, #512
ARM GAS  /tmp/ccoSsvAJ.s 			page 103


 5932 0070 DA60     		str	r2, [r3, #12]
 5933 0072 1A6A     		ldr	r2, [r3, #32]
 5934 0074 22F00102 		bic	r2, r2, #1
 5935 0078 1A62     		str	r2, [r3, #32]
 5936 007a 1A6A     		ldr	r2, [r3, #32]
 5937 007c 42F00102 		orr	r2, r2, #1
 5938 0080 1A62     		str	r2, [r3, #32]
 5939 0082 1A68     		ldr	r2, [r3]
 5940 0084 42F00102 		orr	r2, r2, #1
 5941 0088 1A60     		str	r2, [r3]
 5942              	.L1042:
 5943 008a BDE8F883 		pop	{r3, r4, r5, r6, r7, r8, r9, pc}
 5944              	.L1041:
 5945 008e 0429     		cmp	r1, #4
 5946 0090 5FFA8EFE 		uxtb	lr, lr
 5947 0094 10D0     		beq	.L1074
 5948 0096 0228     		cmp	r0, #2
 5949 0098 F7D0     		beq	.L1042
 5950 009a 022B     		cmp	r3, #2
 5951 009c 34D0     		beq	.L1056
 5952 009e BCF1020F 		cmp	ip, #2
 5953 00a2 2FD0     		beq	.L1057
 5954 00a4 BEF1020F 		cmp	lr, #2
 5955 00a8 7FD0     		beq	.L1058
 5956 00aa 0128     		cmp	r0, #1
 5957 00ac 01D1     		bne	.L1044
 5958 00ae 012B     		cmp	r3, #1
 5959 00b0 2CD0     		beq	.L1075
 5960              	.L1044:
 5961 00b2 0120     		movs	r0, #1
 5962 00b4 BDE8F883 		pop	{r3, r4, r5, r6, r7, r8, r9, pc}
 5963              	.L1074:
 5964 00b8 022B     		cmp	r3, #2
 5965 00ba 25D0     		beq	.L1056
 5966 00bc BEF1020F 		cmp	lr, #2
 5967 00c0 73D0     		beq	.L1058
 5968 00c2 012B     		cmp	r3, #1
 5969 00c4 F5D1     		bne	.L1044
 5970 00c6 BEF1010F 		cmp	lr, #1
 5971 00ca F2D1     		bne	.L1044
 5972 00cc 002D     		cmp	r5, #0
 5973 00ce 72D0     		beq	.L1076
 5974              	.L1048:
 5975 00d0 A06A     		ldr	r0, [r4, #40]
 5976 00d2 2168     		ldr	r1, [r4]
 5977 00d4 0222     		movs	r2, #2
 5978 00d6 84F83F20 		strb	r2, [r4, #63]
 5979 00da 84F84520 		strb	r2, [r4, #69]
 5980 00de 394A     		ldr	r2, .L1077
 5981 00e0 C262     		str	r2, [r0, #44]
 5982 00e2 394A     		ldr	r2, .L1077+4
 5983 00e4 0263     		str	r2, [r0, #48]
 5984 00e6 394A     		ldr	r2, .L1077+8
 5985 00e8 4263     		str	r2, [r0, #52]
 5986 00ea 3346     		mov	r3, r6
 5987 00ec 2A46     		mov	r2, r5
 5988 00ee 3831     		adds	r1, r1, #56
ARM GAS  /tmp/ccoSsvAJ.s 			page 104


 5989 00f0 FFF7FEFF 		bl	HAL_DMA_Start_IT
 5990 00f4 0028     		cmp	r0, #0
 5991 00f6 DCD1     		bne	.L1044
 5992 00f8 2368     		ldr	r3, [r4]
 5993 00fa DA68     		ldr	r2, [r3, #12]
 5994 00fc 42F48062 		orr	r2, r2, #1024
 5995 0100 DA60     		str	r2, [r3, #12]
 5996 0102 45E0     		b	.L1072
 5997              	.L1057:
 5998 0104 6046     		mov	r0, ip
 5999 0106 C0E7     		b	.L1042
 6000              	.L1056:
 6001 0108 1846     		mov	r0, r3
 6002 010a BEE7     		b	.L1042
 6003              	.L1075:
 6004 010c BCF1010F 		cmp	ip, #1
 6005 0110 CFD1     		bne	.L1044
 6006 0112 BEF1010F 		cmp	lr, #1
 6007 0116 CCD1     		bne	.L1044
 6008 0118 002A     		cmp	r2, #0
 6009 011a 4FD0     		beq	.L1050
 6010 011c 002D     		cmp	r5, #0
 6011 011e 4DD0     		beq	.L1050
 6012              	.L1051:
 6013 0120 2168     		ldr	r1, [r4]
 6014 0122 606A     		ldr	r0, [r4, #36]
 6015 0124 DFF89C90 		ldr	r9, .L1077
 6016 0128 DFF89C80 		ldr	r8, .L1077+4
 6017 012c 274F     		ldr	r7, .L1077+8
 6018 012e 0223     		movs	r3, #2
 6019 0130 84F83E30 		strb	r3, [r4, #62]
 6020 0134 3431     		adds	r1, r1, #52
 6021 0136 84F83F30 		strb	r3, [r4, #63]
 6022 013a 84F84430 		strb	r3, [r4, #68]
 6023 013e 84F84530 		strb	r3, [r4, #69]
 6024 0142 C0F82C90 		str	r9, [r0, #44]
 6025 0146 C0F83080 		str	r8, [r0, #48]
 6026 014a 4763     		str	r7, [r0, #52]
 6027 014c 3346     		mov	r3, r6
 6028 014e FFF7FEFF 		bl	HAL_DMA_Start_IT
 6029 0152 0028     		cmp	r0, #0
 6030 0154 ADD1     		bne	.L1044
 6031 0156 A06A     		ldr	r0, [r4, #40]
 6032 0158 2168     		ldr	r1, [r4]
 6033 015a 4763     		str	r7, [r0, #52]
 6034 015c C0E90B98 		strd	r9, r8, [r0, #44]
 6035 0160 3346     		mov	r3, r6
 6036 0162 2A46     		mov	r2, r5
 6037 0164 3831     		adds	r1, r1, #56
 6038 0166 FFF7FEFF 		bl	HAL_DMA_Start_IT
 6039 016a 0028     		cmp	r0, #0
 6040 016c A1D1     		bne	.L1044
 6041 016e 2368     		ldr	r3, [r4]
 6042 0170 DA68     		ldr	r2, [r3, #12]
 6043 0172 42F40072 		orr	r2, r2, #512
 6044 0176 DA60     		str	r2, [r3, #12]
 6045 0178 DA68     		ldr	r2, [r3, #12]
ARM GAS  /tmp/ccoSsvAJ.s 			page 105


 6046 017a 42F48062 		orr	r2, r2, #1024
 6047 017e DA60     		str	r2, [r3, #12]
 6048 0180 1A6A     		ldr	r2, [r3, #32]
 6049 0182 22F00102 		bic	r2, r2, #1
 6050 0186 1A62     		str	r2, [r3, #32]
 6051 0188 1A6A     		ldr	r2, [r3, #32]
 6052 018a 42F00102 		orr	r2, r2, #1
 6053 018e 1A62     		str	r2, [r3, #32]
 6054              	.L1072:
 6055 0190 1A6A     		ldr	r2, [r3, #32]
 6056 0192 22F01002 		bic	r2, r2, #16
 6057 0196 1A62     		str	r2, [r3, #32]
 6058 0198 1A6A     		ldr	r2, [r3, #32]
 6059 019a 42F01002 		orr	r2, r2, #16
 6060 019e 1A62     		str	r2, [r3, #32]
 6061 01a0 1A68     		ldr	r2, [r3]
 6062 01a2 42F00102 		orr	r2, r2, #1
 6063 01a6 1A60     		str	r2, [r3]
 6064 01a8 6FE7     		b	.L1042
 6065              	.L1058:
 6066 01aa 7046     		mov	r0, lr
 6067 01ac 6DE7     		b	.L1042
 6068              	.L1073:
 6069 01ae 002E     		cmp	r6, #0
 6070 01b0 3FF448AF 		beq	.L1045
 6071 01b4 7DE7     		b	.L1044
 6072              	.L1076:
 6073 01b6 002E     		cmp	r6, #0
 6074 01b8 8AD0     		beq	.L1048
 6075 01ba 7AE7     		b	.L1044
 6076              	.L1050:
 6077 01bc 002E     		cmp	r6, #0
 6078 01be AFD0     		beq	.L1051
 6079 01c0 77E7     		b	.L1044
 6080              	.L1078:
 6081 01c2 00BF     		.align	2
 6082              	.L1077:
 6083 01c4 00000000 		.word	TIM_DMACaptureCplt
 6084 01c8 00000000 		.word	TIM_DMACaptureHalfCplt
 6085 01cc 00000000 		.word	TIM_DMAError
 6087              		.section	.text.HAL_TIM_Encoder_Stop_DMA,"ax",%progbits
 6088              		.align	1
 6089              		.p2align 2,,3
 6090              		.global	HAL_TIM_Encoder_Stop_DMA
 6091              		.syntax unified
 6092              		.thumb
 6093              		.thumb_func
 6094              		.fpu fpv4-sp-d16
 6096              	HAL_TIM_Encoder_Stop_DMA:
 6097              		@ args = 0, pretend = 0, frame = 0
 6098              		@ frame_needed = 0, uses_anonymous_args = 0
 6099 0000 38B5     		push	{r3, r4, r5, lr}
 6100 0002 0368     		ldr	r3, [r0]
 6101 0004 0446     		mov	r4, r0
 6102 0006 0029     		cmp	r1, #0
 6103 0008 51D0     		beq	.L1101
 6104 000a 0429     		cmp	r1, #4
ARM GAS  /tmp/ccoSsvAJ.s 			page 106


 6105 000c 1A6A     		ldr	r2, [r3, #32]
 6106 000e 0D46     		mov	r5, r1
 6107 0010 34D0     		beq	.L1102
 6108 0012 22F00102 		bic	r2, r2, #1
 6109 0016 406A     		ldr	r0, [r0, #36]
 6110 0018 1A62     		str	r2, [r3, #32]
 6111 001a 1A6A     		ldr	r2, [r3, #32]
 6112 001c 1A62     		str	r2, [r3, #32]
 6113 001e 1A6A     		ldr	r2, [r3, #32]
 6114 0020 22F01002 		bic	r2, r2, #16
 6115 0024 1A62     		str	r2, [r3, #32]
 6116 0026 1A6A     		ldr	r2, [r3, #32]
 6117 0028 1A62     		str	r2, [r3, #32]
 6118 002a DA68     		ldr	r2, [r3, #12]
 6119 002c 22F40072 		bic	r2, r2, #512
 6120 0030 DA60     		str	r2, [r3, #12]
 6121 0032 DA68     		ldr	r2, [r3, #12]
 6122 0034 22F48062 		bic	r2, r2, #1024
 6123 0038 DA60     		str	r2, [r3, #12]
 6124 003a FFF7FEFF 		bl	HAL_DMA_Abort_IT
 6125 003e A06A     		ldr	r0, [r4, #40]
 6126 0040 FFF7FEFF 		bl	HAL_DMA_Abort_IT
 6127 0044 2368     		ldr	r3, [r4]
 6128 0046 196A     		ldr	r1, [r3, #32]
 6129 0048 41F21112 		movw	r2, #4369
 6130 004c 1142     		tst	r1, r2
 6131 004e 0AD1     		bne	.L1085
 6132              	.L1084:
 6133 0050 196A     		ldr	r1, [r3, #32]
 6134 0052 40F24442 		movw	r2, #1092
 6135 0056 1142     		tst	r1, r2
 6136 0058 03D1     		bne	.L1089
 6137 005a 1A68     		ldr	r2, [r3]
 6138 005c 22F00102 		bic	r2, r2, #1
 6139 0060 1A60     		str	r2, [r3]
 6140              	.L1089:
 6141 0062 042D     		cmp	r5, #4
 6142 0064 1CD0     		beq	.L1086
 6143              	.L1085:
 6144 0066 0123     		movs	r3, #1
 6145 0068 84F83E30 		strb	r3, [r4, #62]
 6146 006c 84F83F30 		strb	r3, [r4, #63]
 6147 0070 84F84430 		strb	r3, [r4, #68]
 6148 0074 84F84530 		strb	r3, [r4, #69]
 6149 0078 0020     		movs	r0, #0
 6150 007a 38BD     		pop	{r3, r4, r5, pc}
 6151              	.L1102:
 6152 007c 22F01002 		bic	r2, r2, #16
 6153 0080 806A     		ldr	r0, [r0, #40]
 6154 0082 1A62     		str	r2, [r3, #32]
 6155 0084 1A6A     		ldr	r2, [r3, #32]
 6156 0086 1A62     		str	r2, [r3, #32]
 6157 0088 DA68     		ldr	r2, [r3, #12]
 6158 008a 22F48062 		bic	r2, r2, #1024
 6159 008e DA60     		str	r2, [r3, #12]
 6160 0090 FFF7FEFF 		bl	HAL_DMA_Abort_IT
 6161 0094 2368     		ldr	r3, [r4]
ARM GAS  /tmp/ccoSsvAJ.s 			page 107


 6162 0096 196A     		ldr	r1, [r3, #32]
 6163 0098 41F21112 		movw	r2, #4369
 6164 009c 1142     		tst	r1, r2
 6165 009e D7D0     		beq	.L1084
 6166              	.L1086:
 6167 00a0 0123     		movs	r3, #1
 6168 00a2 84F83F30 		strb	r3, [r4, #63]
 6169 00a6 84F84530 		strb	r3, [r4, #69]
 6170 00aa 0020     		movs	r0, #0
 6171 00ac 38BD     		pop	{r3, r4, r5, pc}
 6172              	.L1101:
 6173 00ae 1A6A     		ldr	r2, [r3, #32]
 6174 00b0 406A     		ldr	r0, [r0, #36]
 6175 00b2 22F00102 		bic	r2, r2, #1
 6176 00b6 1A62     		str	r2, [r3, #32]
 6177 00b8 1A6A     		ldr	r2, [r3, #32]
 6178 00ba 1A62     		str	r2, [r3, #32]
 6179 00bc DA68     		ldr	r2, [r3, #12]
 6180 00be 22F40072 		bic	r2, r2, #512
 6181 00c2 DA60     		str	r2, [r3, #12]
 6182 00c4 FFF7FEFF 		bl	HAL_DMA_Abort_IT
 6183 00c8 2368     		ldr	r3, [r4]
 6184 00ca 196A     		ldr	r1, [r3, #32]
 6185 00cc 41F21112 		movw	r2, #4369
 6186 00d0 1142     		tst	r1, r2
 6187 00d2 08D1     		bne	.L1088
 6188 00d4 196A     		ldr	r1, [r3, #32]
 6189 00d6 40F24442 		movw	r2, #1092
 6190 00da 1142     		tst	r1, r2
 6191 00dc 03D1     		bne	.L1088
 6192 00de 1A68     		ldr	r2, [r3]
 6193 00e0 22F00102 		bic	r2, r2, #1
 6194 00e4 1A60     		str	r2, [r3]
 6195              	.L1088:
 6196 00e6 0123     		movs	r3, #1
 6197 00e8 84F83E30 		strb	r3, [r4, #62]
 6198 00ec 84F84430 		strb	r3, [r4, #68]
 6199 00f0 0020     		movs	r0, #0
 6200 00f2 38BD     		pop	{r3, r4, r5, pc}
 6202              		.section	.text.HAL_TIM_IC_ConfigChannel,"ax",%progbits
 6203              		.align	1
 6204              		.p2align 2,,3
 6205              		.global	HAL_TIM_IC_ConfigChannel
 6206              		.syntax unified
 6207              		.thumb
 6208              		.thumb_func
 6209              		.fpu fpv4-sp-d16
 6211              	HAL_TIM_IC_ConfigChannel:
 6212              		@ args = 0, pretend = 0, frame = 0
 6213              		@ frame_needed = 0, uses_anonymous_args = 0
 6214              		@ link register save eliminated.
 6215 0000 0346     		mov	r3, r0
 6216 0002 90F83C00 		ldrb	r0, [r0, #60]	@ zero_extendqisi2
 6217 0006 0128     		cmp	r0, #1
 6218 0008 00F0D080 		beq	.L1111
 6219 000c 0120     		movs	r0, #1
 6220 000e F0B4     		push	{r4, r5, r6, r7}
ARM GAS  /tmp/ccoSsvAJ.s 			page 108


 6221 0010 83F83C00 		strb	r0, [r3, #60]
 6222 0014 5AB1     		cbz	r2, .L1120
 6223 0016 042A     		cmp	r2, #4
 6224 0018 50D0     		beq	.L1121
 6225 001a 082A     		cmp	r2, #8
 6226 001c 00F09E80 		beq	.L1122
 6227 0020 0C2A     		cmp	r2, #12
 6228 0022 75D0     		beq	.L1123
 6229              	.L1108:
 6230 0024 0022     		movs	r2, #0
 6231 0026 83F83C20 		strb	r2, [r3, #60]
 6232 002a F0BC     		pop	{r4, r5, r6, r7}
 6233 002c 7047     		bx	lr
 6234              	.L1120:
 6235 002e 1A68     		ldr	r2, [r3]
 6236 0030 DFF87CC1 		ldr	ip, .L1124
 6237 0034 166A     		ldr	r6, [r2, #32]
 6238 0036 C868     		ldr	r0, [r1, #12]
 6239 0038 26F00106 		bic	r6, r6, #1
 6240 003c D1E90045 		ldrd	r4, r5, [r1]
 6241 0040 6245     		cmp	r2, ip
 6242 0042 1662     		str	r6, [r2, #32]
 6243 0044 9769     		ldr	r7, [r2, #24]
 6244 0046 166A     		ldr	r6, [r2, #32]
 6245 0048 19D0     		beq	.L1106
 6246 004a B2F1804F 		cmp	r2, #1073741824
 6247 004e 16D0     		beq	.L1106
 6248 0050 ACF5943C 		sub	ip, ip, #75776
 6249 0054 6245     		cmp	r2, ip
 6250 0056 12D0     		beq	.L1106
 6251 0058 0CF5806C 		add	ip, ip, #1024
 6252 005c 6245     		cmp	r2, ip
 6253 005e 0ED0     		beq	.L1106
 6254 0060 0CF5806C 		add	ip, ip, #1024
 6255 0064 6245     		cmp	r2, ip
 6256 0066 0AD0     		beq	.L1106
 6257 0068 0CF5943C 		add	ip, ip, #75776
 6258 006c 6245     		cmp	r2, ip
 6259 006e 06D0     		beq	.L1106
 6260 0070 0CF5406C 		add	ip, ip, #3072
 6261 0074 6245     		cmp	r2, ip
 6262 0076 02D0     		beq	.L1106
 6263 0078 47F0010C 		orr	ip, r7, #1
 6264 007c 03E0     		b	.L1107
 6265              	.L1106:
 6266 007e 27F00307 		bic	r7, r7, #3
 6267 0082 45EA070C 		orr	ip, r5, r7
 6268              	.L1107:
 6269 0086 0001     		lsls	r0, r0, #4
 6270 0088 2CF0F00C 		bic	ip, ip, #240
 6271 008c C0B2     		uxtb	r0, r0
 6272 008e 40EA0C00 		orr	r0, r0, ip
 6273 0092 9061     		str	r0, [r2, #24]
 6274 0094 26F00A05 		bic	r5, r6, #10
 6275 0098 04F00A00 		and	r0, r4, #10
 6276 009c 2843     		orrs	r0, r0, r5
 6277 009e 1062     		str	r0, [r2, #32]
ARM GAS  /tmp/ccoSsvAJ.s 			page 109


 6278 00a0 9069     		ldr	r0, [r2, #24]
 6279 00a2 8C68     		ldr	r4, [r1, #8]
 6280 00a4 20F00C00 		bic	r0, r0, #12
 6281 00a8 9061     		str	r0, [r2, #24]
 6282 00aa 9169     		ldr	r1, [r2, #24]
 6283 00ac 2143     		orrs	r1, r1, r4
 6284 00ae 9161     		str	r1, [r2, #24]
 6285 00b0 0022     		movs	r2, #0
 6286 00b2 83F83C20 		strb	r2, [r3, #60]
 6287 00b6 0020     		movs	r0, #0
 6288 00b8 F0BC     		pop	{r4, r5, r6, r7}
 6289 00ba 7047     		bx	lr
 6290              	.L1121:
 6291 00bc 1A68     		ldr	r2, [r3]
 6292 00be C868     		ldr	r0, [r1, #12]
 6293 00c0 146A     		ldr	r4, [r2, #32]
 6294 00c2 24F01004 		bic	r4, r4, #16
 6295 00c6 D1E90056 		ldrd	r5, r6, [r1]
 6296 00ca 1462     		str	r4, [r2, #32]
 6297 00cc 8C68     		ldr	r4, [r1, #8]
 6298 00ce 9169     		ldr	r1, [r2, #24]
 6299 00d0 21F44071 		bic	r1, r1, #768
 6300 00d4 41EA0621 		orr	r1, r1, r6, lsl #8
 6301 00d8 0003     		lsls	r0, r0, #12
 6302 00da 80B2     		uxth	r0, r0
 6303 00dc 21F47041 		bic	r1, r1, #61440
 6304 00e0 0143     		orrs	r1, r1, r0
 6305 00e2 106A     		ldr	r0, [r2, #32]
 6306 00e4 9161     		str	r1, [r2, #24]
 6307 00e6 2D01     		lsls	r5, r5, #4
 6308 00e8 05F0A005 		and	r5, r5, #160
 6309 00ec 20F0A001 		bic	r1, r0, #160
 6310 00f0 2943     		orrs	r1, r1, r5
 6311 00f2 1162     		str	r1, [r2, #32]
 6312 00f4 9169     		ldr	r1, [r2, #24]
 6313 00f6 21F44061 		bic	r1, r1, #3072
 6314 00fa 9161     		str	r1, [r2, #24]
 6315 00fc 9169     		ldr	r1, [r2, #24]
 6316 00fe 41EA0421 		orr	r1, r1, r4, lsl #8
 6317 0102 9161     		str	r1, [r2, #24]
 6318 0104 0022     		movs	r2, #0
 6319 0106 83F83C20 		strb	r2, [r3, #60]
 6320 010a 0020     		movs	r0, #0
 6321 010c F0BC     		pop	{r4, r5, r6, r7}
 6322 010e 7047     		bx	lr
 6323              	.L1123:
 6324 0110 1A68     		ldr	r2, [r3]
 6325 0112 C868     		ldr	r0, [r1, #12]
 6326 0114 146A     		ldr	r4, [r2, #32]
 6327 0116 24F48054 		bic	r4, r4, #4096
 6328 011a D1E90056 		ldrd	r5, r6, [r1]
 6329 011e 1462     		str	r4, [r2, #32]
 6330 0120 8C68     		ldr	r4, [r1, #8]
 6331 0122 D169     		ldr	r1, [r2, #28]
 6332 0124 21F44071 		bic	r1, r1, #768
 6333 0128 0003     		lsls	r0, r0, #12
 6334 012a 41EA0621 		orr	r1, r1, r6, lsl #8
ARM GAS  /tmp/ccoSsvAJ.s 			page 110


 6335 012e 80B2     		uxth	r0, r0
 6336 0130 21F47041 		bic	r1, r1, #61440
 6337 0134 0143     		orrs	r1, r1, r0
 6338 0136 106A     		ldr	r0, [r2, #32]
 6339 0138 D161     		str	r1, [r2, #28]
 6340 013a 2D03     		lsls	r5, r5, #12
 6341 013c 20F42041 		bic	r1, r0, #40960
 6342 0140 05F42045 		and	r5, r5, #40960
 6343 0144 2943     		orrs	r1, r1, r5
 6344 0146 1162     		str	r1, [r2, #32]
 6345 0148 D169     		ldr	r1, [r2, #28]
 6346 014a 21F44061 		bic	r1, r1, #3072
 6347 014e D161     		str	r1, [r2, #28]
 6348 0150 D169     		ldr	r1, [r2, #28]
 6349 0152 41EA0421 		orr	r1, r1, r4, lsl #8
 6350 0156 0020     		movs	r0, #0
 6351 0158 D161     		str	r1, [r2, #28]
 6352 015a 63E7     		b	.L1108
 6353              	.L1122:
 6354 015c 1A68     		ldr	r2, [r3]
 6355 015e C868     		ldr	r0, [r1, #12]
 6356 0160 166A     		ldr	r6, [r2, #32]
 6357 0162 26F48076 		bic	r6, r6, #256
 6358 0166 D1E90054 		ldrd	r5, r4, [r1]
 6359 016a 1662     		str	r6, [r2, #32]
 6360 016c 8E68     		ldr	r6, [r1, #8]
 6361 016e D169     		ldr	r1, [r2, #28]
 6362 0170 21F00301 		bic	r1, r1, #3
 6363 0174 2143     		orrs	r1, r1, r4
 6364 0176 0001     		lsls	r0, r0, #4
 6365 0178 C0B2     		uxtb	r0, r0
 6366 017a 21F0F001 		bic	r1, r1, #240
 6367 017e 0143     		orrs	r1, r1, r0
 6368 0180 106A     		ldr	r0, [r2, #32]
 6369 0182 D161     		str	r1, [r2, #28]
 6370 0184 2D02     		lsls	r5, r5, #8
 6371 0186 05F42065 		and	r5, r5, #2560
 6372 018a 20F42061 		bic	r1, r0, #2560
 6373 018e 2943     		orrs	r1, r1, r5
 6374 0190 1162     		str	r1, [r2, #32]
 6375 0192 D169     		ldr	r1, [r2, #28]
 6376 0194 21F00C01 		bic	r1, r1, #12
 6377 0198 D161     		str	r1, [r2, #28]
 6378 019a D169     		ldr	r1, [r2, #28]
 6379 019c 3143     		orrs	r1, r1, r6
 6380 019e D161     		str	r1, [r2, #28]
 6381 01a0 0022     		movs	r2, #0
 6382 01a2 83F83C20 		strb	r2, [r3, #60]
 6383 01a6 0020     		movs	r0, #0
 6384 01a8 F0BC     		pop	{r4, r5, r6, r7}
 6385 01aa 7047     		bx	lr
 6386              	.L1111:
 6387 01ac 0220     		movs	r0, #2
 6388 01ae 7047     		bx	lr
 6389              	.L1125:
 6390              		.align	2
 6391              	.L1124:
ARM GAS  /tmp/ccoSsvAJ.s 			page 111


 6392 01b0 002C0140 		.word	1073818624
 6394              		.section	.text.HAL_TIM_DMABurst_WriteStart,"ax",%progbits
 6395              		.align	1
 6396              		.p2align 2,,3
 6397              		.global	HAL_TIM_DMABurst_WriteStart
 6398              		.syntax unified
 6399              		.thumb
 6400              		.thumb_func
 6401              		.fpu fpv4-sp-d16
 6403              	HAL_TIM_DMABurst_WriteStart:
 6404              		@ args = 4, pretend = 0, frame = 0
 6405              		@ frame_needed = 0, uses_anonymous_args = 0
 6406 0000 F8B5     		push	{r3, r4, r5, r6, r7, lr}
 6407 0002 1446     		mov	r4, r2
 6408 0004 90F84820 		ldrb	r2, [r0, #72]	@ zero_extendqisi2
 6409 0008 069F     		ldr	r7, [sp, #24]
 6410 000a 022A     		cmp	r2, #2
 6411 000c 0546     		mov	r5, r0
 6412 000e D0B2     		uxtb	r0, r2
 6413 0010 2CD0     		beq	.L1127
 6414 0012 95F84820 		ldrb	r2, [r5, #72]	@ zero_extendqisi2
 6415 0016 0E46     		mov	r6, r1
 6416 0018 012A     		cmp	r2, #1
 6417 001a 1946     		mov	r1, r3
 6418 001c 4FEA1723 		lsr	r3, r7, #8
 6419 0020 03F10103 		add	r3, r3, #1
 6420 0024 48D0     		beq	.L1156
 6421 0026 B4F5006F 		cmp	r4, #2048
 6422 002a 4DD0     		beq	.L1130
 6423              	.L1160:
 6424 002c 1FD8     		bhi	.L1131
 6425 002e B4F5007F 		cmp	r4, #512
 6426 0032 55D0     		beq	.L1132
 6427 0034 B4F5806F 		cmp	r4, #1024
 6428 0038 31D1     		bne	.L1157
 6429 003a A86A     		ldr	r0, [r5, #40]
 6430              	.L1154:
 6431 003c 2A68     		ldr	r2, [r5]
 6432 003e DFF8A4C0 		ldr	ip, .L1161
 6433 0042 C0F82CC0 		str	ip, [r0, #44]
 6434 0046 DFF8A0C0 		ldr	ip, .L1161+4
 6435 004a 4C32     		adds	r2, r2, #76
 6436              	.L1149:
 6437 004c C0F830C0 		str	ip, [r0, #48]
 6438 0050 DFF898C0 		ldr	ip, .L1161+8
 6439 0054 C0F834C0 		str	ip, [r0, #52]
 6440 0058 FFF7FEFF 		bl	HAL_DMA_Start_IT
 6441 005c C0B9     		cbnz	r0, .L1155
 6442 005e 2B68     		ldr	r3, [r5]
 6443 0060 3E43     		orrs	r6, r6, r7
 6444 0062 9E64     		str	r6, [r3, #72]
 6445 0064 DA68     		ldr	r2, [r3, #12]
 6446 0066 2243     		orrs	r2, r2, r4
 6447 0068 0020     		movs	r0, #0
 6448 006a DA60     		str	r2, [r3, #12]
 6449              	.L1127:
 6450 006c F8BD     		pop	{r3, r4, r5, r6, r7, pc}
ARM GAS  /tmp/ccoSsvAJ.s 			page 112


 6451              	.L1131:
 6452 006e B4F5005F 		cmp	r4, #8192
 6453 0072 2BD0     		beq	.L1135
 6454 0074 B4F5804F 		cmp	r4, #16384
 6455 0078 0CD1     		bne	.L1158
 6456 007a 2A68     		ldr	r2, [r5]
 6457 007c A86B     		ldr	r0, [r5, #56]
 6458 007e DFF870C0 		ldr	ip, .L1161+12
 6459 0082 C0F82CC0 		str	ip, [r0, #44]
 6460 0086 4C32     		adds	r2, r2, #76
 6461 0088 DFF868C0 		ldr	ip, .L1161+16
 6462 008c DEE7     		b	.L1149
 6463              	.L1159:
 6464 008e AFB1     		cbz	r7, .L1129
 6465              	.L1155:
 6466 0090 0120     		movs	r0, #1
 6467 0092 F8BD     		pop	{r3, r4, r5, r6, r7, pc}
 6468              	.L1158:
 6469 0094 B4F5805F 		cmp	r4, #4096
 6470 0098 FAD1     		bne	.L1155
 6471 009a 286B     		ldr	r0, [r5, #48]
 6472 009c CEE7     		b	.L1154
 6473              	.L1157:
 6474 009e B4F5807F 		cmp	r4, #256
 6475 00a2 F5D1     		bne	.L1155
 6476 00a4 2A68     		ldr	r2, [r5]
 6477 00a6 286A     		ldr	r0, [r5, #32]
 6478 00a8 DFF84CC0 		ldr	ip, .L1161+20
 6479 00ac C0F82CC0 		str	ip, [r0, #44]
 6480 00b0 4C32     		adds	r2, r2, #76
 6481 00b2 DFF848C0 		ldr	ip, .L1161+24
 6482 00b6 C9E7     		b	.L1149
 6483              	.L1156:
 6484 00b8 0029     		cmp	r1, #0
 6485 00ba E8D0     		beq	.L1159
 6486              	.L1129:
 6487 00bc 0222     		movs	r2, #2
 6488 00be B4F5006F 		cmp	r4, #2048
 6489 00c2 85F84820 		strb	r2, [r5, #72]
 6490 00c6 B1D1     		bne	.L1160
 6491              	.L1130:
 6492 00c8 E86A     		ldr	r0, [r5, #44]
 6493 00ca B7E7     		b	.L1154
 6494              	.L1135:
 6495 00cc 2A68     		ldr	r2, [r5]
 6496 00ce 686B     		ldr	r0, [r5, #52]
 6497 00d0 DFF82CC0 		ldr	ip, .L1161+28
 6498 00d4 C0F82CC0 		str	ip, [r0, #44]
 6499 00d8 4C32     		adds	r2, r2, #76
 6500 00da DFF828C0 		ldr	ip, .L1161+32
 6501 00de B5E7     		b	.L1149
 6502              	.L1132:
 6503 00e0 686A     		ldr	r0, [r5, #36]
 6504 00e2 ABE7     		b	.L1154
 6505              	.L1162:
 6506              		.align	2
 6507              	.L1161:
ARM GAS  /tmp/ccoSsvAJ.s 			page 113


 6508 00e4 00000000 		.word	TIM_DMADelayPulseCplt
 6509 00e8 00000000 		.word	TIM_DMADelayPulseHalfCplt
 6510 00ec 00000000 		.word	TIM_DMAError
 6511 00f0 00000000 		.word	TIM_DMATriggerCplt
 6512 00f4 00000000 		.word	TIM_DMATriggerHalfCplt
 6513 00f8 00000000 		.word	TIM_DMAPeriodElapsedCplt
 6514 00fc 00000000 		.word	TIM_DMAPeriodElapsedHalfCplt
 6515 0100 00000000 		.word	TIMEx_DMACommutationCplt
 6516 0104 00000000 		.word	TIMEx_DMACommutationHalfCplt
 6518              		.section	.text.HAL_TIM_DMABurst_MultiWriteStart,"ax",%progbits
 6519              		.align	1
 6520              		.p2align 2,,3
 6521              		.global	HAL_TIM_DMABurst_MultiWriteStart
 6522              		.syntax unified
 6523              		.thumb
 6524              		.thumb_func
 6525              		.fpu fpv4-sp-d16
 6527              	HAL_TIM_DMABurst_MultiWriteStart:
 6528              		@ args = 8, pretend = 0, frame = 0
 6529              		@ frame_needed = 0, uses_anonymous_args = 0
 6530 0000 70B5     		push	{r4, r5, r6, lr}
 6531 0002 90F848C0 		ldrb	ip, [r0, #72]	@ zero_extendqisi2
 6532 0006 BCF1020F 		cmp	ip, #2
 6533 000a 0546     		mov	r5, r0
 6534 000c 5FFA8CF0 		uxtb	r0, ip
 6535 0010 25D0     		beq	.L1164
 6536 0012 1446     		mov	r4, r2
 6537 0014 95F84820 		ldrb	r2, [r5, #72]	@ zero_extendqisi2
 6538 0018 012A     		cmp	r2, #1
 6539 001a 0E46     		mov	r6, r1
 6540 001c 1946     		mov	r1, r3
 6541 001e 3FD0     		beq	.L1193
 6542 0020 B4F5006F 		cmp	r4, #2048
 6543 0024 44D0     		beq	.L1167
 6544              	.L1197:
 6545 0026 1BD8     		bhi	.L1168
 6546 0028 B4F5007F 		cmp	r4, #512
 6547 002c 49D0     		beq	.L1169
 6548 002e B4F5806F 		cmp	r4, #1024
 6549 0032 2BD1     		bne	.L1194
 6550 0034 A86A     		ldr	r0, [r5, #40]
 6551              	.L1191:
 6552 0036 2A68     		ldr	r2, [r5]
 6553 0038 234B     		ldr	r3, .L1198
 6554 003a C362     		str	r3, [r0, #44]
 6555 003c 234B     		ldr	r3, .L1198+4
 6556 003e 4C32     		adds	r2, r2, #76
 6557              	.L1186:
 6558 0040 0363     		str	r3, [r0, #48]
 6559 0042 234B     		ldr	r3, .L1198+8
 6560 0044 4363     		str	r3, [r0, #52]
 6561 0046 059B     		ldr	r3, [sp, #20]
 6562 0048 FFF7FEFF 		bl	HAL_DMA_Start_IT
 6563 004c B8B9     		cbnz	r0, .L1192
 6564 004e 049A     		ldr	r2, [sp, #16]
 6565 0050 2B68     		ldr	r3, [r5]
 6566 0052 1643     		orrs	r6, r6, r2
ARM GAS  /tmp/ccoSsvAJ.s 			page 114


 6567 0054 9E64     		str	r6, [r3, #72]
 6568 0056 DA68     		ldr	r2, [r3, #12]
 6569 0058 2243     		orrs	r2, r2, r4
 6570 005a 0020     		movs	r0, #0
 6571 005c DA60     		str	r2, [r3, #12]
 6572              	.L1164:
 6573 005e 70BD     		pop	{r4, r5, r6, pc}
 6574              	.L1168:
 6575 0060 B4F5005F 		cmp	r4, #8192
 6576 0064 26D0     		beq	.L1172
 6577 0066 B4F5804F 		cmp	r4, #16384
 6578 006a 0AD1     		bne	.L1195
 6579 006c 2A68     		ldr	r2, [r5]
 6580 006e A86B     		ldr	r0, [r5, #56]
 6581 0070 184B     		ldr	r3, .L1198+12
 6582 0072 C362     		str	r3, [r0, #44]
 6583 0074 4C32     		adds	r2, r2, #76
 6584 0076 184B     		ldr	r3, .L1198+16
 6585 0078 E2E7     		b	.L1186
 6586              	.L1196:
 6587 007a 049B     		ldr	r3, [sp, #16]
 6588 007c 93B1     		cbz	r3, .L1166
 6589              	.L1192:
 6590 007e 0120     		movs	r0, #1
 6591 0080 70BD     		pop	{r4, r5, r6, pc}
 6592              	.L1195:
 6593 0082 B4F5805F 		cmp	r4, #4096
 6594 0086 FAD1     		bne	.L1192
 6595 0088 286B     		ldr	r0, [r5, #48]
 6596 008a D4E7     		b	.L1191
 6597              	.L1194:
 6598 008c B4F5807F 		cmp	r4, #256
 6599 0090 F5D1     		bne	.L1192
 6600 0092 2A68     		ldr	r2, [r5]
 6601 0094 286A     		ldr	r0, [r5, #32]
 6602 0096 114B     		ldr	r3, .L1198+20
 6603 0098 C362     		str	r3, [r0, #44]
 6604 009a 4C32     		adds	r2, r2, #76
 6605 009c 104B     		ldr	r3, .L1198+24
 6606 009e CFE7     		b	.L1186
 6607              	.L1193:
 6608 00a0 002B     		cmp	r3, #0
 6609 00a2 EAD0     		beq	.L1196
 6610              	.L1166:
 6611 00a4 0222     		movs	r2, #2
 6612 00a6 B4F5006F 		cmp	r4, #2048
 6613 00aa 85F84820 		strb	r2, [r5, #72]
 6614 00ae BAD1     		bne	.L1197
 6615              	.L1167:
 6616 00b0 E86A     		ldr	r0, [r5, #44]
 6617 00b2 C0E7     		b	.L1191
 6618              	.L1172:
 6619 00b4 2A68     		ldr	r2, [r5]
 6620 00b6 686B     		ldr	r0, [r5, #52]
 6621 00b8 0A4B     		ldr	r3, .L1198+28
 6622 00ba C362     		str	r3, [r0, #44]
 6623 00bc 4C32     		adds	r2, r2, #76
ARM GAS  /tmp/ccoSsvAJ.s 			page 115


 6624 00be 0A4B     		ldr	r3, .L1198+32
 6625 00c0 BEE7     		b	.L1186
 6626              	.L1169:
 6627 00c2 686A     		ldr	r0, [r5, #36]
 6628 00c4 B7E7     		b	.L1191
 6629              	.L1199:
 6630 00c6 00BF     		.align	2
 6631              	.L1198:
 6632 00c8 00000000 		.word	TIM_DMADelayPulseCplt
 6633 00cc 00000000 		.word	TIM_DMADelayPulseHalfCplt
 6634 00d0 00000000 		.word	TIM_DMAError
 6635 00d4 00000000 		.word	TIM_DMATriggerCplt
 6636 00d8 00000000 		.word	TIM_DMATriggerHalfCplt
 6637 00dc 00000000 		.word	TIM_DMAPeriodElapsedCplt
 6638 00e0 00000000 		.word	TIM_DMAPeriodElapsedHalfCplt
 6639 00e4 00000000 		.word	TIMEx_DMACommutationCplt
 6640 00e8 00000000 		.word	TIMEx_DMACommutationHalfCplt
 6642              		.section	.text.HAL_TIM_DMABurst_WriteStop,"ax",%progbits
 6643              		.align	1
 6644              		.p2align 2,,3
 6645              		.global	HAL_TIM_DMABurst_WriteStop
 6646              		.syntax unified
 6647              		.thumb
 6648              		.thumb_func
 6649              		.fpu fpv4-sp-d16
 6651              	HAL_TIM_DMABurst_WriteStop:
 6652              		@ args = 0, pretend = 0, frame = 0
 6653              		@ frame_needed = 0, uses_anonymous_args = 0
 6654 0000 B1F5006F 		cmp	r1, #2048
 6655 0004 38B5     		push	{r3, r4, r5, lr}
 6656 0006 0C46     		mov	r4, r1
 6657 0008 0546     		mov	r5, r0
 6658 000a 35D0     		beq	.L1201
 6659 000c 19D8     		bhi	.L1202
 6660 000e B1F5007F 		cmp	r1, #512
 6661 0012 29D0     		beq	.L1203
 6662 0014 B1F5806F 		cmp	r1, #1024
 6663 0018 0CD1     		bne	.L1213
 6664 001a 806A     		ldr	r0, [r0, #40]
 6665 001c FFF7FEFF 		bl	HAL_DMA_Abort_IT
 6666              	.L1210:
 6667 0020 2A68     		ldr	r2, [r5]
 6668 0022 D368     		ldr	r3, [r2, #12]
 6669 0024 0121     		movs	r1, #1
 6670 0026 23EA0403 		bic	r3, r3, r4
 6671 002a D360     		str	r3, [r2, #12]
 6672 002c 85F84810 		strb	r1, [r5, #72]
 6673 0030 0020     		movs	r0, #0
 6674 0032 38BD     		pop	{r3, r4, r5, pc}
 6675              	.L1213:
 6676 0034 B1F5807F 		cmp	r1, #256
 6677 0038 14D1     		bne	.L1212
 6678 003a 006A     		ldr	r0, [r0, #32]
 6679 003c FFF7FEFF 		bl	HAL_DMA_Abort_IT
 6680 0040 EEE7     		b	.L1210
 6681              	.L1202:
 6682 0042 B1F5005F 		cmp	r1, #8192
ARM GAS  /tmp/ccoSsvAJ.s 			page 116


 6683 0046 13D0     		beq	.L1207
 6684 0048 B1F5804F 		cmp	r1, #16384
 6685 004c 03D1     		bne	.L1214
 6686 004e 806B     		ldr	r0, [r0, #56]
 6687 0050 FFF7FEFF 		bl	HAL_DMA_Abort_IT
 6688 0054 E4E7     		b	.L1210
 6689              	.L1214:
 6690 0056 B1F5805F 		cmp	r1, #4096
 6691 005a 03D1     		bne	.L1212
 6692 005c 006B     		ldr	r0, [r0, #48]
 6693 005e FFF7FEFF 		bl	HAL_DMA_Abort_IT
 6694 0062 DDE7     		b	.L1210
 6695              	.L1212:
 6696 0064 0120     		movs	r0, #1
 6697 0066 38BD     		pop	{r3, r4, r5, pc}
 6698              	.L1203:
 6699 0068 406A     		ldr	r0, [r0, #36]
 6700 006a FFF7FEFF 		bl	HAL_DMA_Abort_IT
 6701 006e D7E7     		b	.L1210
 6702              	.L1207:
 6703 0070 406B     		ldr	r0, [r0, #52]
 6704 0072 FFF7FEFF 		bl	HAL_DMA_Abort_IT
 6705 0076 D3E7     		b	.L1210
 6706              	.L1201:
 6707 0078 C06A     		ldr	r0, [r0, #44]
 6708 007a FFF7FEFF 		bl	HAL_DMA_Abort_IT
 6709 007e CFE7     		b	.L1210
 6711              		.section	.text.HAL_TIM_DMABurst_ReadStart,"ax",%progbits
 6712              		.align	1
 6713              		.p2align 2,,3
 6714              		.global	HAL_TIM_DMABurst_ReadStart
 6715              		.syntax unified
 6716              		.thumb
 6717              		.thumb_func
 6718              		.fpu fpv4-sp-d16
 6720              	HAL_TIM_DMABurst_ReadStart:
 6721              		@ args = 4, pretend = 0, frame = 0
 6722              		@ frame_needed = 0, uses_anonymous_args = 0
 6723 0000 F8B5     		push	{r3, r4, r5, r6, r7, lr}
 6724 0002 0E46     		mov	r6, r1
 6725 0004 90F84810 		ldrb	r1, [r0, #72]	@ zero_extendqisi2
 6726 0008 069F     		ldr	r7, [sp, #24]
 6727 000a 0229     		cmp	r1, #2
 6728 000c 0546     		mov	r5, r0
 6729 000e C8B2     		uxtb	r0, r1
 6730 0010 2CD0     		beq	.L1216
 6731 0012 95F84810 		ldrb	r1, [r5, #72]	@ zero_extendqisi2
 6732 0016 1446     		mov	r4, r2
 6733 0018 0129     		cmp	r1, #1
 6734 001a 1A46     		mov	r2, r3
 6735 001c 4FEA1723 		lsr	r3, r7, #8
 6736 0020 03F10103 		add	r3, r3, #1
 6737 0024 48D0     		beq	.L1245
 6738 0026 B4F5006F 		cmp	r4, #2048
 6739 002a 4DD0     		beq	.L1219
 6740              	.L1249:
 6741 002c 1FD8     		bhi	.L1220
ARM GAS  /tmp/ccoSsvAJ.s 			page 117


 6742 002e B4F5007F 		cmp	r4, #512
 6743 0032 55D0     		beq	.L1221
 6744 0034 B4F5806F 		cmp	r4, #1024
 6745 0038 31D1     		bne	.L1246
 6746 003a A86A     		ldr	r0, [r5, #40]
 6747              	.L1243:
 6748 003c 2968     		ldr	r1, [r5]
 6749 003e DFF8A4C0 		ldr	ip, .L1250
 6750 0042 C0F82CC0 		str	ip, [r0, #44]
 6751 0046 DFF8A0C0 		ldr	ip, .L1250+4
 6752 004a 4C31     		adds	r1, r1, #76
 6753              	.L1238:
 6754 004c C0F830C0 		str	ip, [r0, #48]
 6755 0050 DFF898C0 		ldr	ip, .L1250+8
 6756 0054 C0F834C0 		str	ip, [r0, #52]
 6757 0058 FFF7FEFF 		bl	HAL_DMA_Start_IT
 6758 005c C0B9     		cbnz	r0, .L1244
 6759 005e 2B68     		ldr	r3, [r5]
 6760 0060 3E43     		orrs	r6, r6, r7
 6761 0062 9E64     		str	r6, [r3, #72]
 6762 0064 DA68     		ldr	r2, [r3, #12]
 6763 0066 2243     		orrs	r2, r2, r4
 6764 0068 0020     		movs	r0, #0
 6765 006a DA60     		str	r2, [r3, #12]
 6766              	.L1216:
 6767 006c F8BD     		pop	{r3, r4, r5, r6, r7, pc}
 6768              	.L1220:
 6769 006e B4F5005F 		cmp	r4, #8192
 6770 0072 2BD0     		beq	.L1224
 6771 0074 B4F5804F 		cmp	r4, #16384
 6772 0078 0CD1     		bne	.L1247
 6773 007a 2968     		ldr	r1, [r5]
 6774 007c A86B     		ldr	r0, [r5, #56]
 6775 007e DFF870C0 		ldr	ip, .L1250+12
 6776 0082 C0F82CC0 		str	ip, [r0, #44]
 6777 0086 4C31     		adds	r1, r1, #76
 6778 0088 DFF868C0 		ldr	ip, .L1250+16
 6779 008c DEE7     		b	.L1238
 6780              	.L1248:
 6781 008e AFB1     		cbz	r7, .L1218
 6782              	.L1244:
 6783 0090 0120     		movs	r0, #1
 6784 0092 F8BD     		pop	{r3, r4, r5, r6, r7, pc}
 6785              	.L1247:
 6786 0094 B4F5805F 		cmp	r4, #4096
 6787 0098 FAD1     		bne	.L1244
 6788 009a 286B     		ldr	r0, [r5, #48]
 6789 009c CEE7     		b	.L1243
 6790              	.L1246:
 6791 009e B4F5807F 		cmp	r4, #256
 6792 00a2 F5D1     		bne	.L1244
 6793 00a4 2968     		ldr	r1, [r5]
 6794 00a6 286A     		ldr	r0, [r5, #32]
 6795 00a8 DFF84CC0 		ldr	ip, .L1250+20
 6796 00ac C0F82CC0 		str	ip, [r0, #44]
 6797 00b0 4C31     		adds	r1, r1, #76
 6798 00b2 DFF848C0 		ldr	ip, .L1250+24
ARM GAS  /tmp/ccoSsvAJ.s 			page 118


 6799 00b6 C9E7     		b	.L1238
 6800              	.L1245:
 6801 00b8 002A     		cmp	r2, #0
 6802 00ba E8D0     		beq	.L1248
 6803              	.L1218:
 6804 00bc 0221     		movs	r1, #2
 6805 00be B4F5006F 		cmp	r4, #2048
 6806 00c2 85F84810 		strb	r1, [r5, #72]
 6807 00c6 B1D1     		bne	.L1249
 6808              	.L1219:
 6809 00c8 E86A     		ldr	r0, [r5, #44]
 6810 00ca B7E7     		b	.L1243
 6811              	.L1224:
 6812 00cc 2968     		ldr	r1, [r5]
 6813 00ce 686B     		ldr	r0, [r5, #52]
 6814 00d0 DFF82CC0 		ldr	ip, .L1250+28
 6815 00d4 C0F82CC0 		str	ip, [r0, #44]
 6816 00d8 4C31     		adds	r1, r1, #76
 6817 00da DFF828C0 		ldr	ip, .L1250+32
 6818 00de B5E7     		b	.L1238
 6819              	.L1221:
 6820 00e0 686A     		ldr	r0, [r5, #36]
 6821 00e2 ABE7     		b	.L1243
 6822              	.L1251:
 6823              		.align	2
 6824              	.L1250:
 6825 00e4 00000000 		.word	TIM_DMACaptureCplt
 6826 00e8 00000000 		.word	TIM_DMACaptureHalfCplt
 6827 00ec 00000000 		.word	TIM_DMAError
 6828 00f0 00000000 		.word	TIM_DMATriggerCplt
 6829 00f4 00000000 		.word	TIM_DMATriggerHalfCplt
 6830 00f8 00000000 		.word	TIM_DMAPeriodElapsedCplt
 6831 00fc 00000000 		.word	TIM_DMAPeriodElapsedHalfCplt
 6832 0100 00000000 		.word	TIMEx_DMACommutationCplt
 6833 0104 00000000 		.word	TIMEx_DMACommutationHalfCplt
 6835              		.section	.text.HAL_TIM_DMABurst_MultiReadStart,"ax",%progbits
 6836              		.align	1
 6837              		.p2align 2,,3
 6838              		.global	HAL_TIM_DMABurst_MultiReadStart
 6839              		.syntax unified
 6840              		.thumb
 6841              		.thumb_func
 6842              		.fpu fpv4-sp-d16
 6844              	HAL_TIM_DMABurst_MultiReadStart:
 6845              		@ args = 8, pretend = 0, frame = 0
 6846              		@ frame_needed = 0, uses_anonymous_args = 0
 6847 0000 70B5     		push	{r4, r5, r6, lr}
 6848 0002 90F848C0 		ldrb	ip, [r0, #72]	@ zero_extendqisi2
 6849 0006 BCF1020F 		cmp	ip, #2
 6850 000a 0546     		mov	r5, r0
 6851 000c 5FFA8CF0 		uxtb	r0, ip
 6852 0010 25D0     		beq	.L1253
 6853 0012 1446     		mov	r4, r2
 6854 0014 95F84820 		ldrb	r2, [r5, #72]	@ zero_extendqisi2
 6855 0018 012A     		cmp	r2, #1
 6856 001a 0E46     		mov	r6, r1
 6857 001c 42D0     		beq	.L1282
ARM GAS  /tmp/ccoSsvAJ.s 			page 119


 6858 001e B4F5006F 		cmp	r4, #2048
 6859 0022 47D0     		beq	.L1256
 6860              	.L1286:
 6861 0024 1CD8     		bhi	.L1257
 6862 0026 B4F5007F 		cmp	r4, #512
 6863 002a 4DD0     		beq	.L1258
 6864 002c B4F5806F 		cmp	r4, #1024
 6865 0030 2DD1     		bne	.L1283
 6866 0032 A86A     		ldr	r0, [r5, #40]
 6867              	.L1280:
 6868 0034 2968     		ldr	r1, [r5]
 6869 0036 1A46     		mov	r2, r3
 6870 0038 244B     		ldr	r3, .L1287
 6871 003a C362     		str	r3, [r0, #44]
 6872 003c 244B     		ldr	r3, .L1287+4
 6873 003e 4C31     		adds	r1, r1, #76
 6874              	.L1275:
 6875 0040 0363     		str	r3, [r0, #48]
 6876 0042 244B     		ldr	r3, .L1287+8
 6877 0044 4363     		str	r3, [r0, #52]
 6878 0046 059B     		ldr	r3, [sp, #20]
 6879 0048 FFF7FEFF 		bl	HAL_DMA_Start_IT
 6880 004c C0B9     		cbnz	r0, .L1281
 6881 004e 049A     		ldr	r2, [sp, #16]
 6882 0050 2B68     		ldr	r3, [r5]
 6883 0052 1643     		orrs	r6, r6, r2
 6884 0054 9E64     		str	r6, [r3, #72]
 6885 0056 DA68     		ldr	r2, [r3, #12]
 6886 0058 2243     		orrs	r2, r2, r4
 6887 005a 0020     		movs	r0, #0
 6888 005c DA60     		str	r2, [r3, #12]
 6889              	.L1253:
 6890 005e 70BD     		pop	{r4, r5, r6, pc}
 6891              	.L1257:
 6892 0060 B4F5005F 		cmp	r4, #8192
 6893 0064 28D0     		beq	.L1261
 6894 0066 B4F5804F 		cmp	r4, #16384
 6895 006a 0BD1     		bne	.L1284
 6896 006c 2968     		ldr	r1, [r5]
 6897 006e A86B     		ldr	r0, [r5, #56]
 6898 0070 1A46     		mov	r2, r3
 6899 0072 194B     		ldr	r3, .L1287+12
 6900 0074 C362     		str	r3, [r0, #44]
 6901 0076 4C31     		adds	r1, r1, #76
 6902 0078 184B     		ldr	r3, .L1287+16
 6903 007a E1E7     		b	.L1275
 6904              	.L1285:
 6905 007c 049A     		ldr	r2, [sp, #16]
 6906 007e 9AB1     		cbz	r2, .L1255
 6907              	.L1281:
 6908 0080 0120     		movs	r0, #1
 6909 0082 70BD     		pop	{r4, r5, r6, pc}
 6910              	.L1284:
 6911 0084 B4F5805F 		cmp	r4, #4096
 6912 0088 FAD1     		bne	.L1281
 6913 008a 286B     		ldr	r0, [r5, #48]
 6914 008c D2E7     		b	.L1280
ARM GAS  /tmp/ccoSsvAJ.s 			page 120


 6915              	.L1283:
 6916 008e B4F5807F 		cmp	r4, #256
 6917 0092 F5D1     		bne	.L1281
 6918 0094 2968     		ldr	r1, [r5]
 6919 0096 286A     		ldr	r0, [r5, #32]
 6920 0098 1A46     		mov	r2, r3
 6921 009a 114B     		ldr	r3, .L1287+20
 6922 009c C362     		str	r3, [r0, #44]
 6923 009e 4C31     		adds	r1, r1, #76
 6924 00a0 104B     		ldr	r3, .L1287+24
 6925 00a2 CDE7     		b	.L1275
 6926              	.L1282:
 6927 00a4 002B     		cmp	r3, #0
 6928 00a6 E9D0     		beq	.L1285
 6929              	.L1255:
 6930 00a8 0222     		movs	r2, #2
 6931 00aa B4F5006F 		cmp	r4, #2048
 6932 00ae 85F84820 		strb	r2, [r5, #72]
 6933 00b2 B7D1     		bne	.L1286
 6934              	.L1256:
 6935 00b4 E86A     		ldr	r0, [r5, #44]
 6936 00b6 BDE7     		b	.L1280
 6937              	.L1261:
 6938 00b8 2968     		ldr	r1, [r5]
 6939 00ba 686B     		ldr	r0, [r5, #52]
 6940 00bc 1A46     		mov	r2, r3
 6941 00be 0A4B     		ldr	r3, .L1287+28
 6942 00c0 C362     		str	r3, [r0, #44]
 6943 00c2 4C31     		adds	r1, r1, #76
 6944 00c4 094B     		ldr	r3, .L1287+32
 6945 00c6 BBE7     		b	.L1275
 6946              	.L1258:
 6947 00c8 686A     		ldr	r0, [r5, #36]
 6948 00ca B3E7     		b	.L1280
 6949              	.L1288:
 6950              		.align	2
 6951              	.L1287:
 6952 00cc 00000000 		.word	TIM_DMACaptureCplt
 6953 00d0 00000000 		.word	TIM_DMACaptureHalfCplt
 6954 00d4 00000000 		.word	TIM_DMAError
 6955 00d8 00000000 		.word	TIM_DMATriggerCplt
 6956 00dc 00000000 		.word	TIM_DMATriggerHalfCplt
 6957 00e0 00000000 		.word	TIM_DMAPeriodElapsedCplt
 6958 00e4 00000000 		.word	TIM_DMAPeriodElapsedHalfCplt
 6959 00e8 00000000 		.word	TIMEx_DMACommutationCplt
 6960 00ec 00000000 		.word	TIMEx_DMACommutationHalfCplt
 6962              		.section	.text.HAL_TIM_DMABurst_ReadStop,"ax",%progbits
 6963              		.align	1
 6964              		.p2align 2,,3
 6965              		.global	HAL_TIM_DMABurst_ReadStop
 6966              		.syntax unified
 6967              		.thumb
 6968              		.thumb_func
 6969              		.fpu fpv4-sp-d16
 6971              	HAL_TIM_DMABurst_ReadStop:
 6972              		@ args = 0, pretend = 0, frame = 0
 6973              		@ frame_needed = 0, uses_anonymous_args = 0
ARM GAS  /tmp/ccoSsvAJ.s 			page 121


 6974 0000 B1F5006F 		cmp	r1, #2048
 6975 0004 38B5     		push	{r3, r4, r5, lr}
 6976 0006 0C46     		mov	r4, r1
 6977 0008 0546     		mov	r5, r0
 6978 000a 35D0     		beq	.L1290
 6979 000c 19D8     		bhi	.L1291
 6980 000e B1F5007F 		cmp	r1, #512
 6981 0012 29D0     		beq	.L1292
 6982 0014 B1F5806F 		cmp	r1, #1024
 6983 0018 0CD1     		bne	.L1302
 6984 001a 806A     		ldr	r0, [r0, #40]
 6985 001c FFF7FEFF 		bl	HAL_DMA_Abort_IT
 6986              	.L1299:
 6987 0020 2A68     		ldr	r2, [r5]
 6988 0022 D368     		ldr	r3, [r2, #12]
 6989 0024 0121     		movs	r1, #1
 6990 0026 23EA0403 		bic	r3, r3, r4
 6991 002a D360     		str	r3, [r2, #12]
 6992 002c 85F84810 		strb	r1, [r5, #72]
 6993 0030 0020     		movs	r0, #0
 6994 0032 38BD     		pop	{r3, r4, r5, pc}
 6995              	.L1302:
 6996 0034 B1F5807F 		cmp	r1, #256
 6997 0038 14D1     		bne	.L1301
 6998 003a 006A     		ldr	r0, [r0, #32]
 6999 003c FFF7FEFF 		bl	HAL_DMA_Abort_IT
 7000 0040 EEE7     		b	.L1299
 7001              	.L1291:
 7002 0042 B1F5005F 		cmp	r1, #8192
 7003 0046 13D0     		beq	.L1296
 7004 0048 B1F5804F 		cmp	r1, #16384
 7005 004c 03D1     		bne	.L1303
 7006 004e 806B     		ldr	r0, [r0, #56]
 7007 0050 FFF7FEFF 		bl	HAL_DMA_Abort_IT
 7008 0054 E4E7     		b	.L1299
 7009              	.L1303:
 7010 0056 B1F5805F 		cmp	r1, #4096
 7011 005a 03D1     		bne	.L1301
 7012 005c 006B     		ldr	r0, [r0, #48]
 7013 005e FFF7FEFF 		bl	HAL_DMA_Abort_IT
 7014 0062 DDE7     		b	.L1299
 7015              	.L1301:
 7016 0064 0120     		movs	r0, #1
 7017 0066 38BD     		pop	{r3, r4, r5, pc}
 7018              	.L1292:
 7019 0068 406A     		ldr	r0, [r0, #36]
 7020 006a FFF7FEFF 		bl	HAL_DMA_Abort_IT
 7021 006e D7E7     		b	.L1299
 7022              	.L1296:
 7023 0070 406B     		ldr	r0, [r0, #52]
 7024 0072 FFF7FEFF 		bl	HAL_DMA_Abort_IT
 7025 0076 D3E7     		b	.L1299
 7026              	.L1290:
 7027 0078 C06A     		ldr	r0, [r0, #44]
 7028 007a FFF7FEFF 		bl	HAL_DMA_Abort_IT
 7029 007e CFE7     		b	.L1299
 7031              		.section	.text.HAL_TIM_GenerateEvent,"ax",%progbits
ARM GAS  /tmp/ccoSsvAJ.s 			page 122


 7032              		.align	1
 7033              		.p2align 2,,3
 7034              		.global	HAL_TIM_GenerateEvent
 7035              		.syntax unified
 7036              		.thumb
 7037              		.thumb_func
 7038              		.fpu fpv4-sp-d16
 7040              	HAL_TIM_GenerateEvent:
 7041              		@ args = 0, pretend = 0, frame = 0
 7042              		@ frame_needed = 0, uses_anonymous_args = 0
 7043              		@ link register save eliminated.
 7044 0000 90F83C20 		ldrb	r2, [r0, #60]	@ zero_extendqisi2
 7045 0004 012A     		cmp	r2, #1
 7046 0006 0346     		mov	r3, r0
 7047 0008 0ED0     		beq	.L1306
 7048 000a 0068     		ldr	r0, [r0]
 7049 000c 4FF0020C 		mov	ip, #2
 7050 0010 83F83DC0 		strb	ip, [r3, #61]
 7051 0014 0022     		movs	r2, #0
 7052 0016 4FF0010C 		mov	ip, #1
 7053 001a 4161     		str	r1, [r0, #20]
 7054 001c 1046     		mov	r0, r2
 7055 001e 83F83DC0 		strb	ip, [r3, #61]
 7056 0022 83F83C20 		strb	r2, [r3, #60]
 7057 0026 7047     		bx	lr
 7058              	.L1306:
 7059 0028 0220     		movs	r0, #2
 7060 002a 7047     		bx	lr
 7062              		.section	.text.HAL_TIM_ConfigOCrefClear,"ax",%progbits
 7063              		.align	1
 7064              		.p2align 2,,3
 7065              		.global	HAL_TIM_ConfigOCrefClear
 7066              		.syntax unified
 7067              		.thumb
 7068              		.thumb_func
 7069              		.fpu fpv4-sp-d16
 7071              	HAL_TIM_ConfigOCrefClear:
 7072              		@ args = 0, pretend = 0, frame = 0
 7073              		@ frame_needed = 0, uses_anonymous_args = 0
 7074              		@ link register save eliminated.
 7075 0000 0346     		mov	r3, r0
 7076 0002 90F83C00 		ldrb	r0, [r0, #60]	@ zero_extendqisi2
 7077 0006 0128     		cmp	r0, #1
 7078 0008 7ED0     		beq	.L1327
 7079 000a 30B4     		push	{r4, r5}
 7080 000c 0120     		movs	r0, #1
 7081 000e 0224     		movs	r4, #2
 7082 0010 83F83C00 		strb	r0, [r3, #60]
 7083 0014 83F83D40 		strb	r4, [r3, #61]
 7084 0018 4C68     		ldr	r4, [r1, #4]
 7085 001a 8442     		cmp	r4, r0
 7086 001c 0AD0     		beq	.L1309
 7087 001e 022C     		cmp	r4, #2
 7088 0020 33D0     		beq	.L1310
 7089 0022 D4B1     		cbz	r4, .L1334
 7090              	.L1311:
 7091 0024 0121     		movs	r1, #1
ARM GAS  /tmp/ccoSsvAJ.s 			page 123


 7092 0026 0022     		movs	r2, #0
 7093 0028 83F83D10 		strb	r1, [r3, #61]
 7094 002c 83F83C20 		strb	r2, [r3, #60]
 7095              	.L1308:
 7096 0030 30BC     		pop	{r4, r5}
 7097 0032 7047     		bx	lr
 7098              	.L1309:
 7099 0034 C868     		ldr	r0, [r1, #12]
 7100 0036 0028     		cmp	r0, #0
 7101 0038 2DD1     		bne	.L1335
 7102 003a 1C68     		ldr	r4, [r3]
 7103 003c 0D69     		ldr	r5, [r1, #16]
 7104 003e A068     		ldr	r0, [r4, #8]
 7105 0040 20F47F4C 		bic	ip, r0, #65280
 7106 0044 8868     		ldr	r0, [r1, #8]
 7107 0046 40EA0520 		orr	r0, r0, r5, lsl #8
 7108 004a 40EA0C00 		orr	r0, r0, ip
 7109 004e A060     		str	r0, [r4, #8]
 7110 0050 A068     		ldr	r0, [r4, #8]
 7111 0052 40F00800 		orr	r0, r0, #8
 7112 0056 A060     		str	r0, [r4, #8]
 7113 0058 06E0     		b	.L1312
 7114              	.L1334:
 7115 005a 1C68     		ldr	r4, [r3]
 7116 005c A068     		ldr	r0, [r4, #8]
 7117 005e 20F47F40 		bic	r0, r0, #65280
 7118 0062 20F00800 		bic	r0, r0, #8
 7119 0066 A060     		str	r0, [r4, #8]
 7120              	.L1312:
 7121 0068 142A     		cmp	r2, #20
 7122 006a 0CD8     		bhi	.L1329
 7123 006c DFE802F0 		tbb	[pc, r2]
 7124              	.L1315:
 7125 0070 44       		.byte	(.L1320-.L1315)/2
 7126 0071 0B       		.byte	(.L1329-.L1315)/2
 7127 0072 0B       		.byte	(.L1329-.L1315)/2
 7128 0073 0B       		.byte	(.L1329-.L1315)/2
 7129 0074 3C       		.byte	(.L1319-.L1315)/2
 7130 0075 0B       		.byte	(.L1329-.L1315)/2
 7131 0076 0B       		.byte	(.L1329-.L1315)/2
 7132 0077 0B       		.byte	(.L1329-.L1315)/2
 7133 0078 34       		.byte	(.L1318-.L1315)/2
 7134 0079 0B       		.byte	(.L1329-.L1315)/2
 7135 007a 0B       		.byte	(.L1329-.L1315)/2
 7136 007b 0B       		.byte	(.L1329-.L1315)/2
 7137 007c 2C       		.byte	(.L1317-.L1315)/2
 7138 007d 0B       		.byte	(.L1329-.L1315)/2
 7139 007e 0B       		.byte	(.L1329-.L1315)/2
 7140 007f 0B       		.byte	(.L1329-.L1315)/2
 7141 0080 23       		.byte	(.L1316-.L1315)/2
 7142 0081 0B       		.byte	(.L1329-.L1315)/2
 7143 0082 0B       		.byte	(.L1329-.L1315)/2
 7144 0083 0B       		.byte	(.L1329-.L1315)/2
 7145 0084 1A       		.byte	(.L1314-.L1315)/2
 7146 0085 00       		.p2align 1
 7147              	.L1329:
 7148 0086 0020     		movs	r0, #0
ARM GAS  /tmp/ccoSsvAJ.s 			page 124


 7149 0088 CCE7     		b	.L1311
 7150              	.L1310:
 7151 008a 1C68     		ldr	r4, [r3]
 7152 008c A068     		ldr	r0, [r4, #8]
 7153 008e 20F00800 		bic	r0, r0, #8
 7154 0092 A060     		str	r0, [r4, #8]
 7155 0094 E8E7     		b	.L1312
 7156              	.L1335:
 7157 0096 0022     		movs	r2, #0
 7158 0098 83F83D40 		strb	r4, [r3, #61]
 7159 009c 83F83C20 		strb	r2, [r3, #60]
 7160 00a0 2046     		mov	r0, r4
 7161 00a2 C5E7     		b	.L1308
 7162              	.L1314:
 7163 00a4 0868     		ldr	r0, [r1]
 7164 00a6 626D     		ldr	r2, [r4, #84]
 7165 00a8 0028     		cmp	r0, #0
 7166 00aa 43D0     		beq	.L1326
 7167 00ac 42F40042 		orr	r2, r2, #32768
 7168 00b0 0020     		movs	r0, #0
 7169 00b2 6265     		str	r2, [r4, #84]
 7170 00b4 B6E7     		b	.L1311
 7171              	.L1316:
 7172 00b6 0868     		ldr	r0, [r1]
 7173 00b8 626D     		ldr	r2, [r4, #84]
 7174 00ba 0028     		cmp	r0, #0
 7175 00bc 36D0     		beq	.L1325
 7176 00be 42F08002 		orr	r2, r2, #128
 7177 00c2 0020     		movs	r0, #0
 7178 00c4 6265     		str	r2, [r4, #84]
 7179 00c6 ADE7     		b	.L1311
 7180              	.L1317:
 7181 00c8 0868     		ldr	r0, [r1]
 7182 00ca E269     		ldr	r2, [r4, #28]
 7183 00cc 50B3     		cbz	r0, .L1324
 7184 00ce 42F40042 		orr	r2, r2, #32768
 7185 00d2 0020     		movs	r0, #0
 7186 00d4 E261     		str	r2, [r4, #28]
 7187 00d6 A5E7     		b	.L1311
 7188              	.L1318:
 7189 00d8 0868     		ldr	r0, [r1]
 7190 00da E269     		ldr	r2, [r4, #28]
 7191 00dc F0B1     		cbz	r0, .L1323
 7192 00de 42F08002 		orr	r2, r2, #128
 7193 00e2 0020     		movs	r0, #0
 7194 00e4 E261     		str	r2, [r4, #28]
 7195 00e6 9DE7     		b	.L1311
 7196              	.L1319:
 7197 00e8 0868     		ldr	r0, [r1]
 7198 00ea A269     		ldr	r2, [r4, #24]
 7199 00ec 90B1     		cbz	r0, .L1322
 7200 00ee 42F40042 		orr	r2, r2, #32768
 7201 00f2 0020     		movs	r0, #0
 7202 00f4 A261     		str	r2, [r4, #24]
 7203 00f6 95E7     		b	.L1311
 7204              	.L1320:
 7205 00f8 0868     		ldr	r0, [r1]
ARM GAS  /tmp/ccoSsvAJ.s 			page 125


 7206 00fa A269     		ldr	r2, [r4, #24]
 7207 00fc 30B1     		cbz	r0, .L1321
 7208 00fe 42F08002 		orr	r2, r2, #128
 7209 0102 0020     		movs	r0, #0
 7210 0104 A261     		str	r2, [r4, #24]
 7211 0106 8DE7     		b	.L1311
 7212              	.L1327:
 7213 0108 0220     		movs	r0, #2
 7214 010a 7047     		bx	lr
 7215              	.L1321:
 7216 010c 22F08002 		bic	r2, r2, #128
 7217 0110 A261     		str	r2, [r4, #24]
 7218 0112 87E7     		b	.L1311
 7219              	.L1322:
 7220 0114 22F40042 		bic	r2, r2, #32768
 7221 0118 A261     		str	r2, [r4, #24]
 7222 011a 83E7     		b	.L1311
 7223              	.L1323:
 7224 011c 22F08002 		bic	r2, r2, #128
 7225 0120 E261     		str	r2, [r4, #28]
 7226 0122 7FE7     		b	.L1311
 7227              	.L1324:
 7228 0124 22F40042 		bic	r2, r2, #32768
 7229 0128 E261     		str	r2, [r4, #28]
 7230 012a 7BE7     		b	.L1311
 7231              	.L1325:
 7232 012c 22F08002 		bic	r2, r2, #128
 7233 0130 6265     		str	r2, [r4, #84]
 7234 0132 77E7     		b	.L1311
 7235              	.L1326:
 7236 0134 22F40042 		bic	r2, r2, #32768
 7237 0138 6265     		str	r2, [r4, #84]
 7238 013a 73E7     		b	.L1311
 7240              		.section	.text.HAL_TIM_ConfigClockSource,"ax",%progbits
 7241              		.align	1
 7242              		.p2align 2,,3
 7243              		.global	HAL_TIM_ConfigClockSource
 7244              		.syntax unified
 7245              		.thumb
 7246              		.thumb_func
 7247              		.fpu fpv4-sp-d16
 7249              	HAL_TIM_ConfigClockSource:
 7250              		@ args = 0, pretend = 0, frame = 0
 7251              		@ frame_needed = 0, uses_anonymous_args = 0
 7252              		@ link register save eliminated.
 7253 0000 90F83C30 		ldrb	r3, [r0, #60]	@ zero_extendqisi2
 7254 0004 012B     		cmp	r3, #1
 7255 0006 73D0     		beq	.L1347
 7256 0008 0246     		mov	r2, r0
 7257 000a 30B4     		push	{r4, r5}
 7258 000c 0223     		movs	r3, #2
 7259 000e 0468     		ldr	r4, [r0]
 7260 0010 82F83D30 		strb	r3, [r2, #61]
 7261 0014 0120     		movs	r0, #1
 7262 0016 82F83C00 		strb	r0, [r2, #60]
 7263 001a A568     		ldr	r5, [r4, #8]
 7264 001c 4F4B     		ldr	r3, .L1366
ARM GAS  /tmp/ccoSsvAJ.s 			page 126


 7265 001e 2B40     		ands	r3, r3, r5
 7266 0020 A360     		str	r3, [r4, #8]
 7267 0022 0B68     		ldr	r3, [r1]
 7268 0024 602B     		cmp	r3, #96
 7269 0026 65D0     		beq	.L1338
 7270 0028 24D8     		bhi	.L1339
 7271 002a 402B     		cmp	r3, #64
 7272 002c 7CD0     		beq	.L1340
 7273 002e 4BD9     		bls	.L1363
 7274 0030 502B     		cmp	r3, #80
 7275 0032 17D1     		bne	.L1344
 7276 0034 4B68     		ldr	r3, [r1, #4]
 7277 0036 CD68     		ldr	r5, [r1, #12]
 7278 0038 216A     		ldr	r1, [r4, #32]
 7279 003a 21F00A01 		bic	r1, r1, #10
 7280 003e 1943     		orrs	r1, r1, r3
 7281 0040 236A     		ldr	r3, [r4, #32]
 7282 0042 23F00103 		bic	r3, r3, #1
 7283 0046 2362     		str	r3, [r4, #32]
 7284 0048 A369     		ldr	r3, [r4, #24]
 7285 004a 23F0F003 		bic	r3, r3, #240
 7286 004e 43EA0513 		orr	r3, r3, r5, lsl #4
 7287 0052 A361     		str	r3, [r4, #24]
 7288 0054 2162     		str	r1, [r4, #32]
 7289 0056 A368     		ldr	r3, [r4, #8]
 7290 0058 23F07003 		bic	r3, r3, #112
 7291 005c 43F05703 		orr	r3, r3, #87
 7292 0060 0020     		movs	r0, #0
 7293 0062 A360     		str	r3, [r4, #8]
 7294              	.L1344:
 7295 0064 0121     		movs	r1, #1
 7296 0066 0023     		movs	r3, #0
 7297 0068 82F83D10 		strb	r1, [r2, #61]
 7298 006c 82F83C30 		strb	r3, [r2, #60]
 7299 0070 30BC     		pop	{r4, r5}
 7300 0072 7047     		bx	lr
 7301              	.L1339:
 7302 0074 B3F5805F 		cmp	r3, #4096
 7303 0078 38D0     		beq	.L1348
 7304 007a B3F5005F 		cmp	r3, #8192
 7305 007e 10D1     		bne	.L1364
 7306 0080 D1E90153 		ldrd	r5, r3, [r1, #4]
 7307 0084 A068     		ldr	r0, [r4, #8]
 7308 0086 2B43     		orrs	r3, r3, r5
 7309 0088 CD68     		ldr	r5, [r1, #12]
 7310 008a 20F47F41 		bic	r1, r0, #65280
 7311 008e 43EA0523 		orr	r3, r3, r5, lsl #8
 7312 0092 0B43     		orrs	r3, r3, r1
 7313 0094 A360     		str	r3, [r4, #8]
 7314 0096 A368     		ldr	r3, [r4, #8]
 7315 0098 43F48043 		orr	r3, r3, #16384
 7316 009c 0020     		movs	r0, #0
 7317 009e A360     		str	r3, [r4, #8]
 7318 00a0 E0E7     		b	.L1344
 7319              	.L1364:
 7320 00a2 702B     		cmp	r3, #112
 7321 00a4 DED1     		bne	.L1344
ARM GAS  /tmp/ccoSsvAJ.s 			page 127


 7322 00a6 D1E90153 		ldrd	r5, r3, [r1, #4]
 7323 00aa A068     		ldr	r0, [r4, #8]
 7324 00ac 2B43     		orrs	r3, r3, r5
 7325 00ae CD68     		ldr	r5, [r1, #12]
 7326 00b0 20F47F41 		bic	r1, r0, #65280
 7327 00b4 43EA0523 		orr	r3, r3, r5, lsl #8
 7328 00b8 0B43     		orrs	r3, r3, r1
 7329 00ba A360     		str	r3, [r4, #8]
 7330 00bc A368     		ldr	r3, [r4, #8]
 7331 00be 43F07703 		orr	r3, r3, #119
 7332 00c2 0020     		movs	r0, #0
 7333 00c4 A360     		str	r3, [r4, #8]
 7334 00c6 CDE7     		b	.L1344
 7335              	.L1363:
 7336 00c8 202B     		cmp	r3, #32
 7337 00ca 02D0     		beq	.L1342
 7338 00cc 0AD9     		bls	.L1365
 7339 00ce 302B     		cmp	r3, #48
 7340 00d0 C8D1     		bne	.L1344
 7341              	.L1342:
 7342 00d2 A168     		ldr	r1, [r4, #8]
 7343 00d4 21F07001 		bic	r1, r1, #112
 7344 00d8 0B43     		orrs	r3, r3, r1
 7345 00da 43F00703 		orr	r3, r3, #7
 7346 00de 0020     		movs	r0, #0
 7347 00e0 A360     		str	r3, [r4, #8]
 7348 00e2 BFE7     		b	.L1344
 7349              	.L1365:
 7350 00e4 33F01001 		bics	r1, r3, #16
 7351 00e8 BCD1     		bne	.L1344
 7352 00ea F2E7     		b	.L1342
 7353              	.L1348:
 7354 00ec 0020     		movs	r0, #0
 7355 00ee B9E7     		b	.L1344
 7356              	.L1347:
 7357 00f0 0220     		movs	r0, #2
 7358 00f2 7047     		bx	lr
 7359              	.L1338:
 7360 00f4 236A     		ldr	r3, [r4, #32]
 7361 00f6 4868     		ldr	r0, [r1, #4]
 7362 00f8 CD68     		ldr	r5, [r1, #12]
 7363 00fa 23F01003 		bic	r3, r3, #16
 7364 00fe 2362     		str	r3, [r4, #32]
 7365 0100 A169     		ldr	r1, [r4, #24]
 7366 0102 236A     		ldr	r3, [r4, #32]
 7367 0104 21F47041 		bic	r1, r1, #61440
 7368 0108 23F0A003 		bic	r3, r3, #160
 7369 010c 43EA0013 		orr	r3, r3, r0, lsl #4
 7370 0110 41EA0531 		orr	r1, r1, r5, lsl #12
 7371 0114 A161     		str	r1, [r4, #24]
 7372 0116 2362     		str	r3, [r4, #32]
 7373 0118 A368     		ldr	r3, [r4, #8]
 7374 011a 23F07003 		bic	r3, r3, #112
 7375 011e 43F06703 		orr	r3, r3, #103
 7376 0122 0020     		movs	r0, #0
 7377 0124 A360     		str	r3, [r4, #8]
 7378 0126 9DE7     		b	.L1344
ARM GAS  /tmp/ccoSsvAJ.s 			page 128


 7379              	.L1340:
 7380 0128 4B68     		ldr	r3, [r1, #4]
 7381 012a CD68     		ldr	r5, [r1, #12]
 7382 012c 216A     		ldr	r1, [r4, #32]
 7383 012e 21F00A01 		bic	r1, r1, #10
 7384 0132 1943     		orrs	r1, r1, r3
 7385 0134 236A     		ldr	r3, [r4, #32]
 7386 0136 23F00103 		bic	r3, r3, #1
 7387 013a 2362     		str	r3, [r4, #32]
 7388 013c A369     		ldr	r3, [r4, #24]
 7389 013e 23F0F003 		bic	r3, r3, #240
 7390 0142 43EA0513 		orr	r3, r3, r5, lsl #4
 7391 0146 A361     		str	r3, [r4, #24]
 7392 0148 2162     		str	r1, [r4, #32]
 7393 014a A368     		ldr	r3, [r4, #8]
 7394 014c 23F07003 		bic	r3, r3, #112
 7395 0150 43F04703 		orr	r3, r3, #71
 7396 0154 0020     		movs	r0, #0
 7397 0156 A360     		str	r3, [r4, #8]
 7398 0158 84E7     		b	.L1344
 7399              	.L1367:
 7400 015a 00BF     		.align	2
 7401              	.L1366:
 7402 015c 8800FEFF 		.word	-130936
 7404              		.section	.text.HAL_TIM_ConfigTI1Input,"ax",%progbits
 7405              		.align	1
 7406              		.p2align 2,,3
 7407              		.global	HAL_TIM_ConfigTI1Input
 7408              		.syntax unified
 7409              		.thumb
 7410              		.thumb_func
 7411              		.fpu fpv4-sp-d16
 7413              	HAL_TIM_ConfigTI1Input:
 7414              		@ args = 0, pretend = 0, frame = 0
 7415              		@ frame_needed = 0, uses_anonymous_args = 0
 7416              		@ link register save eliminated.
 7417 0000 0268     		ldr	r2, [r0]
 7418 0002 5368     		ldr	r3, [r2, #4]
 7419 0004 23F08003 		bic	r3, r3, #128
 7420 0008 1943     		orrs	r1, r1, r3
 7421 000a 0020     		movs	r0, #0
 7422 000c 5160     		str	r1, [r2, #4]
 7423 000e 7047     		bx	lr
 7425              		.section	.text.HAL_TIM_SlaveConfigSynchro,"ax",%progbits
 7426              		.align	1
 7427              		.p2align 2,,3
 7428              		.global	HAL_TIM_SlaveConfigSynchro
 7429              		.syntax unified
 7430              		.thumb
 7431              		.thumb_func
 7432              		.fpu fpv4-sp-d16
 7434              	HAL_TIM_SlaveConfigSynchro:
 7435              		@ args = 0, pretend = 0, frame = 0
 7436              		@ frame_needed = 0, uses_anonymous_args = 0
 7437              		@ link register save eliminated.
 7438 0000 90F83C30 		ldrb	r3, [r0, #60]	@ zero_extendqisi2
 7439 0004 012B     		cmp	r3, #1
ARM GAS  /tmp/ccoSsvAJ.s 			page 129


 7440 0006 52D0     		beq	.L1378
 7441 0008 0246     		mov	r2, r0
 7442 000a 30B4     		push	{r4, r5}
 7443 000c 0223     		movs	r3, #2
 7444 000e 0468     		ldr	r4, [r0]
 7445 0010 82F83D30 		strb	r3, [r2, #61]
 7446 0014 0120     		movs	r0, #1
 7447 0016 82F83C00 		strb	r0, [r2, #60]
 7448 001a A368     		ldr	r3, [r4, #8]
 7449 001c 4868     		ldr	r0, [r1, #4]
 7450 001e 0D68     		ldr	r5, [r1]
 7451 0020 23F07003 		bic	r3, r3, #112
 7452 0024 0343     		orrs	r3, r3, r0
 7453 0026 23F48033 		bic	r3, r3, #65536
 7454 002a 23F00703 		bic	r3, r3, #7
 7455 002e 2B43     		orrs	r3, r3, r5
 7456 0030 5028     		cmp	r0, #80
 7457 0032 A360     		str	r3, [r4, #8]
 7458 0034 60D0     		beq	.L1371
 7459 0036 0FD9     		bls	.L1396
 7460 0038 6028     		cmp	r0, #96
 7461 003a 3AD0     		beq	.L1377
 7462 003c 7028     		cmp	r0, #112
 7463 003e 0ED1     		bne	.L1374
 7464 0040 D1E90253 		ldrd	r5, r3, [r1, #8]
 7465 0044 A068     		ldr	r0, [r4, #8]
 7466 0046 2B43     		orrs	r3, r3, r5
 7467 0048 0D69     		ldr	r5, [r1, #16]
 7468 004a 20F47F41 		bic	r1, r0, #65280
 7469 004e 43EA0523 		orr	r3, r3, r5, lsl #8
 7470 0052 0B43     		orrs	r3, r3, r1
 7471 0054 A360     		str	r3, [r4, #8]
 7472 0056 0FE0     		b	.L1375
 7473              	.L1396:
 7474 0058 4028     		cmp	r0, #64
 7475 005a 3DD0     		beq	.L1373
 7476 005c 07D9     		bls	.L1397
 7477              	.L1374:
 7478 005e 0120     		movs	r0, #1
 7479 0060 0023     		movs	r3, #0
 7480 0062 82F83D00 		strb	r0, [r2, #61]
 7481 0066 82F83C30 		strb	r3, [r2, #60]
 7482              	.L1399:
 7483 006a 30BC     		pop	{r4, r5}
 7484 006c 7047     		bx	lr
 7485              	.L1397:
 7486 006e 2028     		cmp	r0, #32
 7487 0070 02D0     		beq	.L1375
 7488 0072 12D9     		bls	.L1398
 7489 0074 3028     		cmp	r0, #48
 7490 0076 F2D1     		bne	.L1374
 7491              	.L1375:
 7492 0078 E368     		ldr	r3, [r4, #12]
 7493 007a 23F04003 		bic	r3, r3, #64
 7494 007e E360     		str	r3, [r4, #12]
 7495 0080 E368     		ldr	r3, [r4, #12]
 7496 0082 0021     		movs	r1, #0
ARM GAS  /tmp/ccoSsvAJ.s 			page 130


 7497 0084 0125     		movs	r5, #1
 7498 0086 23F48043 		bic	r3, r3, #16384
 7499 008a E360     		str	r3, [r4, #12]
 7500 008c 82F83D50 		strb	r5, [r2, #61]
 7501 0090 82F83C10 		strb	r1, [r2, #60]
 7502 0094 0846     		mov	r0, r1
 7503 0096 30BC     		pop	{r4, r5}
 7504 0098 7047     		bx	lr
 7505              	.L1398:
 7506 009a 30F01003 		bics	r3, r0, #16
 7507 009e EBD0     		beq	.L1375
 7508 00a0 0120     		movs	r0, #1
 7509 00a2 0023     		movs	r3, #0
 7510 00a4 82F83D00 		strb	r0, [r2, #61]
 7511 00a8 82F83C30 		strb	r3, [r2, #60]
 7512 00ac DDE7     		b	.L1399
 7513              	.L1378:
 7514 00ae 0220     		movs	r0, #2
 7515 00b0 7047     		bx	lr
 7516              	.L1377:
 7517 00b2 236A     		ldr	r3, [r4, #32]
 7518 00b4 8868     		ldr	r0, [r1, #8]
 7519 00b6 0D69     		ldr	r5, [r1, #16]
 7520 00b8 23F01003 		bic	r3, r3, #16
 7521 00bc 2362     		str	r3, [r4, #32]
 7522 00be A169     		ldr	r1, [r4, #24]
 7523 00c0 236A     		ldr	r3, [r4, #32]
 7524 00c2 21F47041 		bic	r1, r1, #61440
 7525 00c6 23F0A003 		bic	r3, r3, #160
 7526 00ca 41EA0531 		orr	r1, r1, r5, lsl #12
 7527 00ce 43EA0013 		orr	r3, r3, r0, lsl #4
 7528 00d2 A161     		str	r1, [r4, #24]
 7529 00d4 2362     		str	r3, [r4, #32]
 7530 00d6 CFE7     		b	.L1375
 7531              	.L1373:
 7532 00d8 052D     		cmp	r5, #5
 7533 00da C0D0     		beq	.L1374
 7534 00dc 206A     		ldr	r0, [r4, #32]
 7535 00de 236A     		ldr	r3, [r4, #32]
 7536 00e0 0969     		ldr	r1, [r1, #16]
 7537 00e2 23F00103 		bic	r3, r3, #1
 7538 00e6 2362     		str	r3, [r4, #32]
 7539 00e8 A369     		ldr	r3, [r4, #24]
 7540 00ea 23F0F003 		bic	r3, r3, #240
 7541 00ee 43EA0113 		orr	r3, r3, r1, lsl #4
 7542 00f2 A361     		str	r3, [r4, #24]
 7543 00f4 2062     		str	r0, [r4, #32]
 7544 00f6 BFE7     		b	.L1375
 7545              	.L1371:
 7546 00f8 8B68     		ldr	r3, [r1, #8]
 7547 00fa 0869     		ldr	r0, [r1, #16]
 7548 00fc 216A     		ldr	r1, [r4, #32]
 7549 00fe 21F00A01 		bic	r1, r1, #10
 7550 0102 1943     		orrs	r1, r1, r3
 7551 0104 236A     		ldr	r3, [r4, #32]
 7552 0106 23F00103 		bic	r3, r3, #1
 7553 010a 2362     		str	r3, [r4, #32]
ARM GAS  /tmp/ccoSsvAJ.s 			page 131


 7554 010c A369     		ldr	r3, [r4, #24]
 7555 010e 23F0F003 		bic	r3, r3, #240
 7556 0112 43EA0013 		orr	r3, r3, r0, lsl #4
 7557 0116 A361     		str	r3, [r4, #24]
 7558 0118 2162     		str	r1, [r4, #32]
 7559 011a ADE7     		b	.L1375
 7561              		.section	.text.HAL_TIM_SlaveConfigSynchro_IT,"ax",%progbits
 7562              		.align	1
 7563              		.p2align 2,,3
 7564              		.global	HAL_TIM_SlaveConfigSynchro_IT
 7565              		.syntax unified
 7566              		.thumb
 7567              		.thumb_func
 7568              		.fpu fpv4-sp-d16
 7570              	HAL_TIM_SlaveConfigSynchro_IT:
 7571              		@ args = 0, pretend = 0, frame = 0
 7572              		@ frame_needed = 0, uses_anonymous_args = 0
 7573              		@ link register save eliminated.
 7574 0000 90F83C30 		ldrb	r3, [r0, #60]	@ zero_extendqisi2
 7575 0004 012B     		cmp	r3, #1
 7576 0006 52D0     		beq	.L1409
 7577 0008 0246     		mov	r2, r0
 7578 000a 30B4     		push	{r4, r5}
 7579 000c 0223     		movs	r3, #2
 7580 000e 0468     		ldr	r4, [r0]
 7581 0010 82F83D30 		strb	r3, [r2, #61]
 7582 0014 0120     		movs	r0, #1
 7583 0016 82F83C00 		strb	r0, [r2, #60]
 7584 001a A368     		ldr	r3, [r4, #8]
 7585 001c 4868     		ldr	r0, [r1, #4]
 7586 001e 0D68     		ldr	r5, [r1]
 7587 0020 23F07003 		bic	r3, r3, #112
 7588 0024 0343     		orrs	r3, r3, r0
 7589 0026 23F48033 		bic	r3, r3, #65536
 7590 002a 23F00703 		bic	r3, r3, #7
 7591 002e 2B43     		orrs	r3, r3, r5
 7592 0030 5028     		cmp	r0, #80
 7593 0032 A360     		str	r3, [r4, #8]
 7594 0034 60D0     		beq	.L1402
 7595 0036 0FD9     		bls	.L1427
 7596 0038 6028     		cmp	r0, #96
 7597 003a 3AD0     		beq	.L1408
 7598 003c 7028     		cmp	r0, #112
 7599 003e 0ED1     		bne	.L1405
 7600 0040 D1E90253 		ldrd	r5, r3, [r1, #8]
 7601 0044 A068     		ldr	r0, [r4, #8]
 7602 0046 2B43     		orrs	r3, r3, r5
 7603 0048 0D69     		ldr	r5, [r1, #16]
 7604 004a 20F47F41 		bic	r1, r0, #65280
 7605 004e 43EA0523 		orr	r3, r3, r5, lsl #8
 7606 0052 0B43     		orrs	r3, r3, r1
 7607 0054 A360     		str	r3, [r4, #8]
 7608 0056 0FE0     		b	.L1406
 7609              	.L1427:
 7610 0058 4028     		cmp	r0, #64
 7611 005a 3DD0     		beq	.L1404
 7612 005c 07D9     		bls	.L1428
ARM GAS  /tmp/ccoSsvAJ.s 			page 132


 7613              	.L1405:
 7614 005e 0120     		movs	r0, #1
 7615 0060 0023     		movs	r3, #0
 7616 0062 82F83D00 		strb	r0, [r2, #61]
 7617 0066 82F83C30 		strb	r3, [r2, #60]
 7618              	.L1430:
 7619 006a 30BC     		pop	{r4, r5}
 7620 006c 7047     		bx	lr
 7621              	.L1428:
 7622 006e 2028     		cmp	r0, #32
 7623 0070 02D0     		beq	.L1406
 7624 0072 12D9     		bls	.L1429
 7625 0074 3028     		cmp	r0, #48
 7626 0076 F2D1     		bne	.L1405
 7627              	.L1406:
 7628 0078 E368     		ldr	r3, [r4, #12]
 7629 007a 43F04003 		orr	r3, r3, #64
 7630 007e E360     		str	r3, [r4, #12]
 7631 0080 E368     		ldr	r3, [r4, #12]
 7632 0082 0021     		movs	r1, #0
 7633 0084 0125     		movs	r5, #1
 7634 0086 23F48043 		bic	r3, r3, #16384
 7635 008a E360     		str	r3, [r4, #12]
 7636 008c 82F83D50 		strb	r5, [r2, #61]
 7637 0090 82F83C10 		strb	r1, [r2, #60]
 7638 0094 0846     		mov	r0, r1
 7639 0096 30BC     		pop	{r4, r5}
 7640 0098 7047     		bx	lr
 7641              	.L1429:
 7642 009a 30F01003 		bics	r3, r0, #16
 7643 009e EBD0     		beq	.L1406
 7644 00a0 0120     		movs	r0, #1
 7645 00a2 0023     		movs	r3, #0
 7646 00a4 82F83D00 		strb	r0, [r2, #61]
 7647 00a8 82F83C30 		strb	r3, [r2, #60]
 7648 00ac DDE7     		b	.L1430
 7649              	.L1409:
 7650 00ae 0220     		movs	r0, #2
 7651 00b0 7047     		bx	lr
 7652              	.L1408:
 7653 00b2 236A     		ldr	r3, [r4, #32]
 7654 00b4 8868     		ldr	r0, [r1, #8]
 7655 00b6 0D69     		ldr	r5, [r1, #16]
 7656 00b8 23F01003 		bic	r3, r3, #16
 7657 00bc 2362     		str	r3, [r4, #32]
 7658 00be A169     		ldr	r1, [r4, #24]
 7659 00c0 236A     		ldr	r3, [r4, #32]
 7660 00c2 21F47041 		bic	r1, r1, #61440
 7661 00c6 23F0A003 		bic	r3, r3, #160
 7662 00ca 41EA0531 		orr	r1, r1, r5, lsl #12
 7663 00ce 43EA0013 		orr	r3, r3, r0, lsl #4
 7664 00d2 A161     		str	r1, [r4, #24]
 7665 00d4 2362     		str	r3, [r4, #32]
 7666 00d6 CFE7     		b	.L1406
 7667              	.L1404:
 7668 00d8 052D     		cmp	r5, #5
 7669 00da C0D0     		beq	.L1405
ARM GAS  /tmp/ccoSsvAJ.s 			page 133


 7670 00dc 206A     		ldr	r0, [r4, #32]
 7671 00de 236A     		ldr	r3, [r4, #32]
 7672 00e0 0969     		ldr	r1, [r1, #16]
 7673 00e2 23F00103 		bic	r3, r3, #1
 7674 00e6 2362     		str	r3, [r4, #32]
 7675 00e8 A369     		ldr	r3, [r4, #24]
 7676 00ea 23F0F003 		bic	r3, r3, #240
 7677 00ee 43EA0113 		orr	r3, r3, r1, lsl #4
 7678 00f2 A361     		str	r3, [r4, #24]
 7679 00f4 2062     		str	r0, [r4, #32]
 7680 00f6 BFE7     		b	.L1406
 7681              	.L1402:
 7682 00f8 8B68     		ldr	r3, [r1, #8]
 7683 00fa 0869     		ldr	r0, [r1, #16]
 7684 00fc 216A     		ldr	r1, [r4, #32]
 7685 00fe 21F00A01 		bic	r1, r1, #10
 7686 0102 1943     		orrs	r1, r1, r3
 7687 0104 236A     		ldr	r3, [r4, #32]
 7688 0106 23F00103 		bic	r3, r3, #1
 7689 010a 2362     		str	r3, [r4, #32]
 7690 010c A369     		ldr	r3, [r4, #24]
 7691 010e 23F0F003 		bic	r3, r3, #240
 7692 0112 43EA0013 		orr	r3, r3, r0, lsl #4
 7693 0116 A361     		str	r3, [r4, #24]
 7694 0118 2162     		str	r1, [r4, #32]
 7695 011a ADE7     		b	.L1406
 7697              		.section	.text.HAL_TIM_ReadCapturedValue,"ax",%progbits
 7698              		.align	1
 7699              		.p2align 2,,3
 7700              		.global	HAL_TIM_ReadCapturedValue
 7701              		.syntax unified
 7702              		.thumb
 7703              		.thumb_func
 7704              		.fpu fpv4-sp-d16
 7706              	HAL_TIM_ReadCapturedValue:
 7707              		@ args = 0, pretend = 0, frame = 0
 7708              		@ frame_needed = 0, uses_anonymous_args = 0
 7709              		@ link register save eliminated.
 7710 0000 0C29     		cmp	r1, #12
 7711 0002 08D8     		bhi	.L1438
 7712 0004 DFE801F0 		tbb	[pc, r1]
 7713              	.L1434:
 7714 0008 12       		.byte	(.L1437-.L1434)/2
 7715 0009 07       		.byte	(.L1438-.L1434)/2
 7716 000a 07       		.byte	(.L1438-.L1434)/2
 7717 000b 07       		.byte	(.L1438-.L1434)/2
 7718 000c 0F       		.byte	(.L1436-.L1434)/2
 7719 000d 07       		.byte	(.L1438-.L1434)/2
 7720 000e 07       		.byte	(.L1438-.L1434)/2
 7721 000f 07       		.byte	(.L1438-.L1434)/2
 7722 0010 0C       		.byte	(.L1435-.L1434)/2
 7723 0011 07       		.byte	(.L1438-.L1434)/2
 7724 0012 07       		.byte	(.L1438-.L1434)/2
 7725 0013 07       		.byte	(.L1438-.L1434)/2
 7726 0014 09       		.byte	(.L1433-.L1434)/2
 7727 0015 00       		.p2align 1
 7728              	.L1438:
ARM GAS  /tmp/ccoSsvAJ.s 			page 134


 7729 0016 0020     		movs	r0, #0
 7730 0018 7047     		bx	lr
 7731              	.L1433:
 7732 001a 0368     		ldr	r3, [r0]
 7733 001c 186C     		ldr	r0, [r3, #64]
 7734 001e 7047     		bx	lr
 7735              	.L1435:
 7736 0020 0368     		ldr	r3, [r0]
 7737 0022 D86B     		ldr	r0, [r3, #60]
 7738 0024 7047     		bx	lr
 7739              	.L1436:
 7740 0026 0368     		ldr	r3, [r0]
 7741 0028 986B     		ldr	r0, [r3, #56]
 7742 002a 7047     		bx	lr
 7743              	.L1437:
 7744 002c 0368     		ldr	r3, [r0]
 7745 002e 586B     		ldr	r0, [r3, #52]
 7746 0030 7047     		bx	lr
 7748 0032 00BF     		.section	.text.HAL_TIM_PeriodElapsedCallback,"ax",%progbits
 7749              		.align	1
 7750              		.p2align 2,,3
 7751              		.weak	HAL_TIM_PeriodElapsedCallback
 7752              		.syntax unified
 7753              		.thumb
 7754              		.thumb_func
 7755              		.fpu fpv4-sp-d16
 7757              	HAL_TIM_PeriodElapsedCallback:
 7758              		@ args = 0, pretend = 0, frame = 0
 7759              		@ frame_needed = 0, uses_anonymous_args = 0
 7760              		@ link register save eliminated.
 7761 0000 7047     		bx	lr
 7763 0002 00BF     		.section	.text.TIM_DMAPeriodElapsedCplt,"ax",%progbits
 7764              		.align	1
 7765              		.p2align 2,,3
 7766              		.syntax unified
 7767              		.thumb
 7768              		.thumb_func
 7769              		.fpu fpv4-sp-d16
 7771              	TIM_DMAPeriodElapsedCplt:
 7772              		@ args = 0, pretend = 0, frame = 0
 7773              		@ frame_needed = 0, uses_anonymous_args = 0
 7774 0000 806A     		ldr	r0, [r0, #40]
 7775 0002 08B5     		push	{r3, lr}
 7776 0004 036A     		ldr	r3, [r0, #32]
 7777 0006 DB69     		ldr	r3, [r3, #28]
 7778 0008 13B9     		cbnz	r3, .L1441
 7779 000a 0123     		movs	r3, #1
 7780 000c 80F83D30 		strb	r3, [r0, #61]
 7781              	.L1441:
 7782 0010 FFF7FEFF 		bl	HAL_TIM_PeriodElapsedCallback
 7783 0014 08BD     		pop	{r3, pc}
 7785 0016 00BF     		.section	.text.HAL_TIM_PeriodElapsedHalfCpltCallback,"ax",%progbits
 7786              		.align	1
 7787              		.p2align 2,,3
 7788              		.weak	HAL_TIM_PeriodElapsedHalfCpltCallback
 7789              		.syntax unified
 7790              		.thumb
ARM GAS  /tmp/ccoSsvAJ.s 			page 135


 7791              		.thumb_func
 7792              		.fpu fpv4-sp-d16
 7794              	HAL_TIM_PeriodElapsedHalfCpltCallback:
 7795              		@ args = 0, pretend = 0, frame = 0
 7796              		@ frame_needed = 0, uses_anonymous_args = 0
 7797              		@ link register save eliminated.
 7798 0000 7047     		bx	lr
 7800 0002 00BF     		.section	.text.TIM_DMAPeriodElapsedHalfCplt,"ax",%progbits
 7801              		.align	1
 7802              		.p2align 2,,3
 7803              		.syntax unified
 7804              		.thumb
 7805              		.thumb_func
 7806              		.fpu fpv4-sp-d16
 7808              	TIM_DMAPeriodElapsedHalfCplt:
 7809              		@ args = 0, pretend = 0, frame = 0
 7810              		@ frame_needed = 0, uses_anonymous_args = 0
 7811 0000 08B5     		push	{r3, lr}
 7812 0002 806A     		ldr	r0, [r0, #40]
 7813 0004 FFF7FEFF 		bl	HAL_TIM_PeriodElapsedHalfCpltCallback
 7814 0008 08BD     		pop	{r3, pc}
 7816 000a 00BF     		.section	.text.HAL_TIM_OC_DelayElapsedCallback,"ax",%progbits
 7817              		.align	1
 7818              		.p2align 2,,3
 7819              		.weak	HAL_TIM_OC_DelayElapsedCallback
 7820              		.syntax unified
 7821              		.thumb
 7822              		.thumb_func
 7823              		.fpu fpv4-sp-d16
 7825              	HAL_TIM_OC_DelayElapsedCallback:
 7826              		@ args = 0, pretend = 0, frame = 0
 7827              		@ frame_needed = 0, uses_anonymous_args = 0
 7828              		@ link register save eliminated.
 7829 0000 7047     		bx	lr
 7831 0002 00BF     		.section	.text.HAL_TIM_IC_CaptureCallback,"ax",%progbits
 7832              		.align	1
 7833              		.p2align 2,,3
 7834              		.weak	HAL_TIM_IC_CaptureCallback
 7835              		.syntax unified
 7836              		.thumb
 7837              		.thumb_func
 7838              		.fpu fpv4-sp-d16
 7840              	HAL_TIM_IC_CaptureCallback:
 7841              		@ args = 0, pretend = 0, frame = 0
 7842              		@ frame_needed = 0, uses_anonymous_args = 0
 7843              		@ link register save eliminated.
 7844 0000 7047     		bx	lr
 7846 0002 00BF     		.section	.text.TIM_DMACaptureCplt,"ax",%progbits
 7847              		.align	1
 7848              		.p2align 2,,3
 7849              		.global	TIM_DMACaptureCplt
 7850              		.syntax unified
 7851              		.thumb
 7852              		.thumb_func
 7853              		.fpu fpv4-sp-d16
 7855              	TIM_DMACaptureCplt:
 7856              		@ args = 0, pretend = 0, frame = 0
ARM GAS  /tmp/ccoSsvAJ.s 			page 136


 7857              		@ frame_needed = 0, uses_anonymous_args = 0
 7858 0000 10B5     		push	{r4, lr}
 7859 0002 846A     		ldr	r4, [r0, #40]
 7860 0004 636A     		ldr	r3, [r4, #36]
 7861 0006 8342     		cmp	r3, r0
 7862 0008 1ED0     		beq	.L1456
 7863 000a A36A     		ldr	r3, [r4, #40]
 7864 000c 8342     		cmp	r3, r0
 7865 000e 0BD0     		beq	.L1457
 7866 0010 E36A     		ldr	r3, [r4, #44]
 7867 0012 8342     		cmp	r3, r0
 7868 0014 27D0     		beq	.L1458
 7869 0016 236B     		ldr	r3, [r4, #48]
 7870 0018 8342     		cmp	r3, r0
 7871 001a 2FD0     		beq	.L1459
 7872              	.L1451:
 7873 001c 2046     		mov	r0, r4
 7874 001e FFF7FEFF 		bl	HAL_TIM_IC_CaptureCallback
 7875 0022 0023     		movs	r3, #0
 7876 0024 2377     		strb	r3, [r4, #28]
 7877 0026 10BD     		pop	{r4, pc}
 7878              	.L1457:
 7879 0028 0222     		movs	r2, #2
 7880 002a 2277     		strb	r2, [r4, #28]
 7881 002c DB69     		ldr	r3, [r3, #28]
 7882 002e 002B     		cmp	r3, #0
 7883 0030 F4D1     		bne	.L1451
 7884 0032 0123     		movs	r3, #1
 7885 0034 84F83F30 		strb	r3, [r4, #63]
 7886 0038 2046     		mov	r0, r4
 7887 003a 84F84530 		strb	r3, [r4, #69]
 7888 003e FFF7FEFF 		bl	HAL_TIM_IC_CaptureCallback
 7889 0042 0023     		movs	r3, #0
 7890 0044 2377     		strb	r3, [r4, #28]
 7891 0046 10BD     		pop	{r4, pc}
 7892              	.L1456:
 7893 0048 0122     		movs	r2, #1
 7894 004a 2277     		strb	r2, [r4, #28]
 7895 004c DB69     		ldr	r3, [r3, #28]
 7896 004e 002B     		cmp	r3, #0
 7897 0050 E4D1     		bne	.L1451
 7898 0052 84F83E20 		strb	r2, [r4, #62]
 7899 0056 2046     		mov	r0, r4
 7900 0058 84F84420 		strb	r2, [r4, #68]
 7901 005c FFF7FEFF 		bl	HAL_TIM_IC_CaptureCallback
 7902 0060 0023     		movs	r3, #0
 7903 0062 2377     		strb	r3, [r4, #28]
 7904 0064 10BD     		pop	{r4, pc}
 7905              	.L1458:
 7906 0066 0422     		movs	r2, #4
 7907 0068 2277     		strb	r2, [r4, #28]
 7908 006a DB69     		ldr	r3, [r3, #28]
 7909 006c 002B     		cmp	r3, #0
 7910 006e D5D1     		bne	.L1451
 7911 0070 0123     		movs	r3, #1
 7912 0072 84F84030 		strb	r3, [r4, #64]
 7913 0076 84F84630 		strb	r3, [r4, #70]
ARM GAS  /tmp/ccoSsvAJ.s 			page 137


 7914 007a CFE7     		b	.L1451
 7915              	.L1459:
 7916 007c 0822     		movs	r2, #8
 7917 007e 2277     		strb	r2, [r4, #28]
 7918 0080 DB69     		ldr	r3, [r3, #28]
 7919 0082 002B     		cmp	r3, #0
 7920 0084 CAD1     		bne	.L1451
 7921 0086 0123     		movs	r3, #1
 7922 0088 84F84130 		strb	r3, [r4, #65]
 7923 008c 84F84730 		strb	r3, [r4, #71]
 7924 0090 C4E7     		b	.L1451
 7926 0092 00BF     		.section	.text.HAL_TIM_IC_CaptureHalfCpltCallback,"ax",%progbits
 7927              		.align	1
 7928              		.p2align 2,,3
 7929              		.weak	HAL_TIM_IC_CaptureHalfCpltCallback
 7930              		.syntax unified
 7931              		.thumb
 7932              		.thumb_func
 7933              		.fpu fpv4-sp-d16
 7935              	HAL_TIM_IC_CaptureHalfCpltCallback:
 7936              		@ args = 0, pretend = 0, frame = 0
 7937              		@ frame_needed = 0, uses_anonymous_args = 0
 7938              		@ link register save eliminated.
 7939 0000 7047     		bx	lr
 7941 0002 00BF     		.section	.text.TIM_DMACaptureHalfCplt,"ax",%progbits
 7942              		.align	1
 7943              		.p2align 2,,3
 7944              		.global	TIM_DMACaptureHalfCplt
 7945              		.syntax unified
 7946              		.thumb
 7947              		.thumb_func
 7948              		.fpu fpv4-sp-d16
 7950              	TIM_DMACaptureHalfCplt:
 7951              		@ args = 0, pretend = 0, frame = 0
 7952              		@ frame_needed = 0, uses_anonymous_args = 0
 7953 0000 10B5     		push	{r4, lr}
 7954 0002 846A     		ldr	r4, [r0, #40]
 7955 0004 636A     		ldr	r3, [r4, #36]
 7956 0006 8342     		cmp	r3, r0
 7957 0008 18D0     		beq	.L1467
 7958 000a A36A     		ldr	r3, [r4, #40]
 7959 000c 8342     		cmp	r3, r0
 7960 000e 0DD0     		beq	.L1468
 7961 0010 E36A     		ldr	r3, [r4, #44]
 7962 0012 8342     		cmp	r3, r0
 7963 0014 1AD0     		beq	.L1469
 7964 0016 236B     		ldr	r3, [r4, #48]
 7965 0018 8342     		cmp	r3, r0
 7966 001a 04BF     		itt	eq
 7967 001c 0823     		moveq	r3, #8
 7968 001e 2377     		strbeq	r3, [r4, #28]
 7969 0020 2046     		mov	r0, r4
 7970 0022 FFF7FEFF 		bl	HAL_TIM_IC_CaptureHalfCpltCallback
 7971 0026 0023     		movs	r3, #0
 7972 0028 2377     		strb	r3, [r4, #28]
 7973 002a 10BD     		pop	{r4, pc}
 7974              	.L1468:
ARM GAS  /tmp/ccoSsvAJ.s 			page 138


 7975 002c 0223     		movs	r3, #2
 7976 002e 2377     		strb	r3, [r4, #28]
 7977 0030 2046     		mov	r0, r4
 7978 0032 FFF7FEFF 		bl	HAL_TIM_IC_CaptureHalfCpltCallback
 7979 0036 0023     		movs	r3, #0
 7980 0038 2377     		strb	r3, [r4, #28]
 7981 003a 10BD     		pop	{r4, pc}
 7982              	.L1467:
 7983 003c 0123     		movs	r3, #1
 7984 003e 2377     		strb	r3, [r4, #28]
 7985 0040 2046     		mov	r0, r4
 7986 0042 FFF7FEFF 		bl	HAL_TIM_IC_CaptureHalfCpltCallback
 7987 0046 0023     		movs	r3, #0
 7988 0048 2377     		strb	r3, [r4, #28]
 7989 004a 10BD     		pop	{r4, pc}
 7990              	.L1469:
 7991 004c 0423     		movs	r3, #4
 7992 004e 2377     		strb	r3, [r4, #28]
 7993 0050 2046     		mov	r0, r4
 7994 0052 FFF7FEFF 		bl	HAL_TIM_IC_CaptureHalfCpltCallback
 7995 0056 0023     		movs	r3, #0
 7996 0058 2377     		strb	r3, [r4, #28]
 7997 005a 10BD     		pop	{r4, pc}
 7999              		.section	.text.HAL_TIM_PWM_PulseFinishedCallback,"ax",%progbits
 8000              		.align	1
 8001              		.p2align 2,,3
 8002              		.weak	HAL_TIM_PWM_PulseFinishedCallback
 8003              		.syntax unified
 8004              		.thumb
 8005              		.thumb_func
 8006              		.fpu fpv4-sp-d16
 8008              	HAL_TIM_PWM_PulseFinishedCallback:
 8009              		@ args = 0, pretend = 0, frame = 0
 8010              		@ frame_needed = 0, uses_anonymous_args = 0
 8011              		@ link register save eliminated.
 8012 0000 7047     		bx	lr
 8014 0002 00BF     		.section	.text.TIM_DMADelayPulseCplt,"ax",%progbits
 8015              		.align	1
 8016              		.p2align 2,,3
 8017              		.syntax unified
 8018              		.thumb
 8019              		.thumb_func
 8020              		.fpu fpv4-sp-d16
 8022              	TIM_DMADelayPulseCplt:
 8023              		@ args = 0, pretend = 0, frame = 0
 8024              		@ frame_needed = 0, uses_anonymous_args = 0
 8025 0000 10B5     		push	{r4, lr}
 8026 0002 846A     		ldr	r4, [r0, #40]
 8027 0004 636A     		ldr	r3, [r4, #36]
 8028 0006 8342     		cmp	r3, r0
 8029 0008 1CD0     		beq	.L1479
 8030 000a A36A     		ldr	r3, [r4, #40]
 8031 000c 8342     		cmp	r3, r0
 8032 000e 0BD0     		beq	.L1480
 8033 0010 E36A     		ldr	r3, [r4, #44]
 8034 0012 8342     		cmp	r3, r0
 8035 0014 23D0     		beq	.L1481
ARM GAS  /tmp/ccoSsvAJ.s 			page 139


 8036 0016 236B     		ldr	r3, [r4, #48]
 8037 0018 8342     		cmp	r3, r0
 8038 001a 29D0     		beq	.L1482
 8039              	.L1474:
 8040 001c 2046     		mov	r0, r4
 8041 001e FFF7FEFF 		bl	HAL_TIM_PWM_PulseFinishedCallback
 8042 0022 0023     		movs	r3, #0
 8043 0024 2377     		strb	r3, [r4, #28]
 8044 0026 10BD     		pop	{r4, pc}
 8045              	.L1480:
 8046 0028 0222     		movs	r2, #2
 8047 002a 2277     		strb	r2, [r4, #28]
 8048 002c DB69     		ldr	r3, [r3, #28]
 8049 002e 002B     		cmp	r3, #0
 8050 0030 F4D1     		bne	.L1474
 8051 0032 0123     		movs	r3, #1
 8052 0034 84F83F30 		strb	r3, [r4, #63]
 8053 0038 2046     		mov	r0, r4
 8054 003a FFF7FEFF 		bl	HAL_TIM_PWM_PulseFinishedCallback
 8055 003e 0023     		movs	r3, #0
 8056 0040 2377     		strb	r3, [r4, #28]
 8057 0042 10BD     		pop	{r4, pc}
 8058              	.L1479:
 8059 0044 0122     		movs	r2, #1
 8060 0046 2277     		strb	r2, [r4, #28]
 8061 0048 DB69     		ldr	r3, [r3, #28]
 8062 004a 002B     		cmp	r3, #0
 8063 004c E6D1     		bne	.L1474
 8064 004e 84F83E20 		strb	r2, [r4, #62]
 8065 0052 2046     		mov	r0, r4
 8066 0054 FFF7FEFF 		bl	HAL_TIM_PWM_PulseFinishedCallback
 8067 0058 0023     		movs	r3, #0
 8068 005a 2377     		strb	r3, [r4, #28]
 8069 005c 10BD     		pop	{r4, pc}
 8070              	.L1481:
 8071 005e 0422     		movs	r2, #4
 8072 0060 2277     		strb	r2, [r4, #28]
 8073 0062 DB69     		ldr	r3, [r3, #28]
 8074 0064 002B     		cmp	r3, #0
 8075 0066 D9D1     		bne	.L1474
 8076 0068 0123     		movs	r3, #1
 8077 006a 84F84030 		strb	r3, [r4, #64]
 8078 006e D5E7     		b	.L1474
 8079              	.L1482:
 8080 0070 0822     		movs	r2, #8
 8081 0072 2277     		strb	r2, [r4, #28]
 8082 0074 DB69     		ldr	r3, [r3, #28]
 8083 0076 002B     		cmp	r3, #0
 8084 0078 D0D1     		bne	.L1474
 8085 007a 0123     		movs	r3, #1
 8086 007c 84F84130 		strb	r3, [r4, #65]
 8087 0080 CCE7     		b	.L1474
 8089 0082 00BF     		.section	.text.HAL_TIM_PWM_PulseFinishedHalfCpltCallback,"ax",%progbits
 8090              		.align	1
 8091              		.p2align 2,,3
 8092              		.weak	HAL_TIM_PWM_PulseFinishedHalfCpltCallback
 8093              		.syntax unified
ARM GAS  /tmp/ccoSsvAJ.s 			page 140


 8094              		.thumb
 8095              		.thumb_func
 8096              		.fpu fpv4-sp-d16
 8098              	HAL_TIM_PWM_PulseFinishedHalfCpltCallback:
 8099              		@ args = 0, pretend = 0, frame = 0
 8100              		@ frame_needed = 0, uses_anonymous_args = 0
 8101              		@ link register save eliminated.
 8102 0000 7047     		bx	lr
 8104 0002 00BF     		.section	.text.TIM_DMADelayPulseHalfCplt,"ax",%progbits
 8105              		.align	1
 8106              		.p2align 2,,3
 8107              		.global	TIM_DMADelayPulseHalfCplt
 8108              		.syntax unified
 8109              		.thumb
 8110              		.thumb_func
 8111              		.fpu fpv4-sp-d16
 8113              	TIM_DMADelayPulseHalfCplt:
 8114              		@ args = 0, pretend = 0, frame = 0
 8115              		@ frame_needed = 0, uses_anonymous_args = 0
 8116 0000 10B5     		push	{r4, lr}
 8117 0002 846A     		ldr	r4, [r0, #40]
 8118 0004 636A     		ldr	r3, [r4, #36]
 8119 0006 8342     		cmp	r3, r0
 8120 0008 18D0     		beq	.L1490
 8121 000a A36A     		ldr	r3, [r4, #40]
 8122 000c 8342     		cmp	r3, r0
 8123 000e 0DD0     		beq	.L1491
 8124 0010 E36A     		ldr	r3, [r4, #44]
 8125 0012 8342     		cmp	r3, r0
 8126 0014 1AD0     		beq	.L1492
 8127 0016 236B     		ldr	r3, [r4, #48]
 8128 0018 8342     		cmp	r3, r0
 8129 001a 04BF     		itt	eq
 8130 001c 0823     		moveq	r3, #8
 8131 001e 2377     		strbeq	r3, [r4, #28]
 8132 0020 2046     		mov	r0, r4
 8133 0022 FFF7FEFF 		bl	HAL_TIM_PWM_PulseFinishedHalfCpltCallback
 8134 0026 0023     		movs	r3, #0
 8135 0028 2377     		strb	r3, [r4, #28]
 8136 002a 10BD     		pop	{r4, pc}
 8137              	.L1491:
 8138 002c 0223     		movs	r3, #2
 8139 002e 2377     		strb	r3, [r4, #28]
 8140 0030 2046     		mov	r0, r4
 8141 0032 FFF7FEFF 		bl	HAL_TIM_PWM_PulseFinishedHalfCpltCallback
 8142 0036 0023     		movs	r3, #0
 8143 0038 2377     		strb	r3, [r4, #28]
 8144 003a 10BD     		pop	{r4, pc}
 8145              	.L1490:
 8146 003c 0123     		movs	r3, #1
 8147 003e 2377     		strb	r3, [r4, #28]
 8148 0040 2046     		mov	r0, r4
 8149 0042 FFF7FEFF 		bl	HAL_TIM_PWM_PulseFinishedHalfCpltCallback
 8150 0046 0023     		movs	r3, #0
 8151 0048 2377     		strb	r3, [r4, #28]
 8152 004a 10BD     		pop	{r4, pc}
 8153              	.L1492:
ARM GAS  /tmp/ccoSsvAJ.s 			page 141


 8154 004c 0423     		movs	r3, #4
 8155 004e 2377     		strb	r3, [r4, #28]
 8156 0050 2046     		mov	r0, r4
 8157 0052 FFF7FEFF 		bl	HAL_TIM_PWM_PulseFinishedHalfCpltCallback
 8158 0056 0023     		movs	r3, #0
 8159 0058 2377     		strb	r3, [r4, #28]
 8160 005a 10BD     		pop	{r4, pc}
 8162              		.section	.text.HAL_TIM_TriggerCallback,"ax",%progbits
 8163              		.align	1
 8164              		.p2align 2,,3
 8165              		.weak	HAL_TIM_TriggerCallback
 8166              		.syntax unified
 8167              		.thumb
 8168              		.thumb_func
 8169              		.fpu fpv4-sp-d16
 8171              	HAL_TIM_TriggerCallback:
 8172              		@ args = 0, pretend = 0, frame = 0
 8173              		@ frame_needed = 0, uses_anonymous_args = 0
 8174              		@ link register save eliminated.
 8175 0000 7047     		bx	lr
 8177 0002 00BF     		.section	.text.HAL_TIM_IRQHandler,"ax",%progbits
 8178              		.align	1
 8179              		.p2align 2,,3
 8180              		.global	HAL_TIM_IRQHandler
 8181              		.syntax unified
 8182              		.thumb
 8183              		.thumb_func
 8184              		.fpu fpv4-sp-d16
 8186              	HAL_TIM_IRQHandler:
 8187              		@ args = 0, pretend = 0, frame = 0
 8188              		@ frame_needed = 0, uses_anonymous_args = 0
 8189 0000 0368     		ldr	r3, [r0]
 8190 0002 1A69     		ldr	r2, [r3, #16]
 8191 0004 9107     		lsls	r1, r2, #30
 8192 0006 10B5     		push	{r4, lr}
 8193 0008 0446     		mov	r4, r0
 8194 000a 02D5     		bpl	.L1495
 8195 000c DA68     		ldr	r2, [r3, #12]
 8196 000e 9207     		lsls	r2, r2, #30
 8197 0010 68D4     		bmi	.L1567
 8198              	.L1495:
 8199 0012 1A69     		ldr	r2, [r3, #16]
 8200 0014 5207     		lsls	r2, r2, #29
 8201 0016 02D5     		bpl	.L1498
 8202 0018 DA68     		ldr	r2, [r3, #12]
 8203 001a 5007     		lsls	r0, r2, #29
 8204 001c 4FD4     		bmi	.L1568
 8205              	.L1498:
 8206 001e 1A69     		ldr	r2, [r3, #16]
 8207 0020 1107     		lsls	r1, r2, #28
 8208 0022 02D5     		bpl	.L1501
 8209 0024 DA68     		ldr	r2, [r3, #12]
 8210 0026 1207     		lsls	r2, r2, #28
 8211 0028 37D4     		bmi	.L1569
 8212              	.L1501:
 8213 002a 1A69     		ldr	r2, [r3, #16]
 8214 002c D006     		lsls	r0, r2, #27
ARM GAS  /tmp/ccoSsvAJ.s 			page 142


 8215 002e 02D5     		bpl	.L1504
 8216 0030 DA68     		ldr	r2, [r3, #12]
 8217 0032 D106     		lsls	r1, r2, #27
 8218 0034 1ED4     		bmi	.L1570
 8219              	.L1504:
 8220 0036 1A69     		ldr	r2, [r3, #16]
 8221 0038 D207     		lsls	r2, r2, #31
 8222 003a 02D5     		bpl	.L1507
 8223 003c DA68     		ldr	r2, [r3, #12]
 8224 003e D007     		lsls	r0, r2, #31
 8225 0040 69D4     		bmi	.L1571
 8226              	.L1507:
 8227 0042 1A69     		ldr	r2, [r3, #16]
 8228 0044 1106     		lsls	r1, r2, #24
 8229 0046 02D5     		bpl	.L1508
 8230 0048 DA68     		ldr	r2, [r3, #12]
 8231 004a 1206     		lsls	r2, r2, #24
 8232 004c 6BD4     		bmi	.L1572
 8233              	.L1508:
 8234 004e 1A69     		ldr	r2, [r3, #16]
 8235 0050 D005     		lsls	r0, r2, #23
 8236 0052 02D5     		bpl	.L1509
 8237 0054 DA68     		ldr	r2, [r3, #12]
 8238 0056 1106     		lsls	r1, r2, #24
 8239 0058 6DD4     		bmi	.L1573
 8240              	.L1509:
 8241 005a 1A69     		ldr	r2, [r3, #16]
 8242 005c 5206     		lsls	r2, r2, #25
 8243 005e 02D5     		bpl	.L1510
 8244 0060 DA68     		ldr	r2, [r3, #12]
 8245 0062 5006     		lsls	r0, r2, #25
 8246 0064 6FD4     		bmi	.L1574
 8247              	.L1510:
 8248 0066 1A69     		ldr	r2, [r3, #16]
 8249 0068 9106     		lsls	r1, r2, #26
 8250 006a 02D5     		bpl	.L1494
 8251 006c DA68     		ldr	r2, [r3, #12]
 8252 006e 9206     		lsls	r2, r2, #26
 8253 0070 49D4     		bmi	.L1575
 8254              	.L1494:
 8255 0072 10BD     		pop	{r4, pc}
 8256              	.L1570:
 8257 0074 6FF01001 		mvn	r1, #16
 8258 0078 0822     		movs	r2, #8
 8259 007a 1961     		str	r1, [r3, #16]
 8260 007c 2277     		strb	r2, [r4, #28]
 8261 007e DB69     		ldr	r3, [r3, #28]
 8262 0080 13F4407F 		tst	r3, #768
 8263 0084 2046     		mov	r0, r4
 8264 0086 6FD1     		bne	.L1576
 8265 0088 FFF7FEFF 		bl	HAL_TIM_OC_DelayElapsedCallback
 8266 008c 2046     		mov	r0, r4
 8267 008e FFF7FEFF 		bl	HAL_TIM_PWM_PulseFinishedCallback
 8268              	.L1506:
 8269 0092 0022     		movs	r2, #0
 8270 0094 2368     		ldr	r3, [r4]
 8271 0096 2277     		strb	r2, [r4, #28]
ARM GAS  /tmp/ccoSsvAJ.s 			page 143


 8272 0098 CDE7     		b	.L1504
 8273              	.L1569:
 8274 009a 6FF00801 		mvn	r1, #8
 8275 009e 0422     		movs	r2, #4
 8276 00a0 1961     		str	r1, [r3, #16]
 8277 00a2 2277     		strb	r2, [r4, #28]
 8278 00a4 DB69     		ldr	r3, [r3, #28]
 8279 00a6 9B07     		lsls	r3, r3, #30
 8280 00a8 2046     		mov	r0, r4
 8281 00aa 5AD1     		bne	.L1577
 8282 00ac FFF7FEFF 		bl	HAL_TIM_OC_DelayElapsedCallback
 8283 00b0 2046     		mov	r0, r4
 8284 00b2 FFF7FEFF 		bl	HAL_TIM_PWM_PulseFinishedCallback
 8285              	.L1503:
 8286 00b6 0022     		movs	r2, #0
 8287 00b8 2368     		ldr	r3, [r4]
 8288 00ba 2277     		strb	r2, [r4, #28]
 8289 00bc B5E7     		b	.L1501
 8290              	.L1568:
 8291 00be 6FF00401 		mvn	r1, #4
 8292 00c2 0222     		movs	r2, #2
 8293 00c4 1961     		str	r1, [r3, #16]
 8294 00c6 2277     		strb	r2, [r4, #28]
 8295 00c8 9B69     		ldr	r3, [r3, #24]
 8296 00ca 13F4407F 		tst	r3, #768
 8297 00ce 2046     		mov	r0, r4
 8298 00d0 44D1     		bne	.L1578
 8299 00d2 FFF7FEFF 		bl	HAL_TIM_OC_DelayElapsedCallback
 8300 00d6 2046     		mov	r0, r4
 8301 00d8 FFF7FEFF 		bl	HAL_TIM_PWM_PulseFinishedCallback
 8302              	.L1500:
 8303 00dc 0022     		movs	r2, #0
 8304 00de 2368     		ldr	r3, [r4]
 8305 00e0 2277     		strb	r2, [r4, #28]
 8306 00e2 9CE7     		b	.L1498
 8307              	.L1567:
 8308 00e4 6FF00201 		mvn	r1, #2
 8309 00e8 0122     		movs	r2, #1
 8310 00ea 1961     		str	r1, [r3, #16]
 8311 00ec 0277     		strb	r2, [r0, #28]
 8312 00ee 9B69     		ldr	r3, [r3, #24]
 8313 00f0 9907     		lsls	r1, r3, #30
 8314 00f2 30D1     		bne	.L1579
 8315 00f4 FFF7FEFF 		bl	HAL_TIM_OC_DelayElapsedCallback
 8316 00f8 2046     		mov	r0, r4
 8317 00fa FFF7FEFF 		bl	HAL_TIM_PWM_PulseFinishedCallback
 8318              	.L1497:
 8319 00fe 0022     		movs	r2, #0
 8320 0100 2368     		ldr	r3, [r4]
 8321 0102 2277     		strb	r2, [r4, #28]
 8322 0104 85E7     		b	.L1495
 8323              	.L1575:
 8324 0106 6FF02002 		mvn	r2, #32
 8325 010a 2046     		mov	r0, r4
 8326 010c 1A61     		str	r2, [r3, #16]
 8327 010e BDE81040 		pop	{r4, lr}
 8328 0112 FFF7FEBF 		b	HAL_TIMEx_CommutCallback
ARM GAS  /tmp/ccoSsvAJ.s 			page 144


 8329              	.L1571:
 8330 0116 6FF00102 		mvn	r2, #1
 8331 011a 1A61     		str	r2, [r3, #16]
 8332 011c 2046     		mov	r0, r4
 8333 011e FFF7FEFF 		bl	HAL_TIM_PeriodElapsedCallback
 8334 0122 2368     		ldr	r3, [r4]
 8335 0124 8DE7     		b	.L1507
 8336              	.L1572:
 8337 0126 6FF08002 		mvn	r2, #128
 8338 012a 1A61     		str	r2, [r3, #16]
 8339 012c 2046     		mov	r0, r4
 8340 012e FFF7FEFF 		bl	HAL_TIMEx_BreakCallback
 8341 0132 2368     		ldr	r3, [r4]
 8342 0134 8BE7     		b	.L1508
 8343              	.L1573:
 8344 0136 6FF48072 		mvn	r2, #256
 8345 013a 1A61     		str	r2, [r3, #16]
 8346 013c 2046     		mov	r0, r4
 8347 013e FFF7FEFF 		bl	HAL_TIMEx_Break2Callback
 8348 0142 2368     		ldr	r3, [r4]
 8349 0144 89E7     		b	.L1509
 8350              	.L1574:
 8351 0146 6FF04002 		mvn	r2, #64
 8352 014a 1A61     		str	r2, [r3, #16]
 8353 014c 2046     		mov	r0, r4
 8354 014e FFF7FEFF 		bl	HAL_TIM_TriggerCallback
 8355 0152 2368     		ldr	r3, [r4]
 8356 0154 87E7     		b	.L1510
 8357              	.L1579:
 8358 0156 FFF7FEFF 		bl	HAL_TIM_IC_CaptureCallback
 8359 015a D0E7     		b	.L1497
 8360              	.L1578:
 8361 015c FFF7FEFF 		bl	HAL_TIM_IC_CaptureCallback
 8362 0160 BCE7     		b	.L1500
 8363              	.L1577:
 8364 0162 FFF7FEFF 		bl	HAL_TIM_IC_CaptureCallback
 8365 0166 A6E7     		b	.L1503
 8366              	.L1576:
 8367 0168 FFF7FEFF 		bl	HAL_TIM_IC_CaptureCallback
 8368 016c 91E7     		b	.L1506
 8370 016e 00BF     		.section	.text.TIM_DMATriggerCplt,"ax",%progbits
 8371              		.align	1
 8372              		.p2align 2,,3
 8373              		.syntax unified
 8374              		.thumb
 8375              		.thumb_func
 8376              		.fpu fpv4-sp-d16
 8378              	TIM_DMATriggerCplt:
 8379              		@ args = 0, pretend = 0, frame = 0
 8380              		@ frame_needed = 0, uses_anonymous_args = 0
 8381 0000 806A     		ldr	r0, [r0, #40]
 8382 0002 08B5     		push	{r3, lr}
 8383 0004 836B     		ldr	r3, [r0, #56]
 8384 0006 DB69     		ldr	r3, [r3, #28]
 8385 0008 13B9     		cbnz	r3, .L1581
 8386 000a 0123     		movs	r3, #1
 8387 000c 80F83D30 		strb	r3, [r0, #61]
ARM GAS  /tmp/ccoSsvAJ.s 			page 145


 8388              	.L1581:
 8389 0010 FFF7FEFF 		bl	HAL_TIM_TriggerCallback
 8390 0014 08BD     		pop	{r3, pc}
 8392 0016 00BF     		.section	.text.HAL_TIM_TriggerHalfCpltCallback,"ax",%progbits
 8393              		.align	1
 8394              		.p2align 2,,3
 8395              		.weak	HAL_TIM_TriggerHalfCpltCallback
 8396              		.syntax unified
 8397              		.thumb
 8398              		.thumb_func
 8399              		.fpu fpv4-sp-d16
 8401              	HAL_TIM_TriggerHalfCpltCallback:
 8402              		@ args = 0, pretend = 0, frame = 0
 8403              		@ frame_needed = 0, uses_anonymous_args = 0
 8404              		@ link register save eliminated.
 8405 0000 7047     		bx	lr
 8407 0002 00BF     		.section	.text.TIM_DMATriggerHalfCplt,"ax",%progbits
 8408              		.align	1
 8409              		.p2align 2,,3
 8410              		.syntax unified
 8411              		.thumb
 8412              		.thumb_func
 8413              		.fpu fpv4-sp-d16
 8415              	TIM_DMATriggerHalfCplt:
 8416              		@ args = 0, pretend = 0, frame = 0
 8417              		@ frame_needed = 0, uses_anonymous_args = 0
 8418 0000 08B5     		push	{r3, lr}
 8419 0002 806A     		ldr	r0, [r0, #40]
 8420 0004 FFF7FEFF 		bl	HAL_TIM_TriggerHalfCpltCallback
 8421 0008 08BD     		pop	{r3, pc}
 8423 000a 00BF     		.section	.text.HAL_TIM_ErrorCallback,"ax",%progbits
 8424              		.align	1
 8425              		.p2align 2,,3
 8426              		.weak	HAL_TIM_ErrorCallback
 8427              		.syntax unified
 8428              		.thumb
 8429              		.thumb_func
 8430              		.fpu fpv4-sp-d16
 8432              	HAL_TIM_ErrorCallback:
 8433              		@ args = 0, pretend = 0, frame = 0
 8434              		@ frame_needed = 0, uses_anonymous_args = 0
 8435              		@ link register save eliminated.
 8436 0000 7047     		bx	lr
 8438 0002 00BF     		.section	.text.TIM_DMAError,"ax",%progbits
 8439              		.align	1
 8440              		.p2align 2,,3
 8441              		.global	TIM_DMAError
 8442              		.syntax unified
 8443              		.thumb
 8444              		.thumb_func
 8445              		.fpu fpv4-sp-d16
 8447              	TIM_DMAError:
 8448              		@ args = 0, pretend = 0, frame = 0
 8449              		@ frame_needed = 0, uses_anonymous_args = 0
 8450 0000 10B5     		push	{r4, lr}
 8451 0002 846A     		ldr	r4, [r0, #40]
 8452 0004 636A     		ldr	r3, [r4, #36]
ARM GAS  /tmp/ccoSsvAJ.s 			page 146


 8453 0006 8342     		cmp	r3, r0
 8454 0008 1CD0     		beq	.L1594
 8455 000a A36A     		ldr	r3, [r4, #40]
 8456 000c 8342     		cmp	r3, r0
 8457 000e 0ED0     		beq	.L1595
 8458 0010 E36A     		ldr	r3, [r4, #44]
 8459 0012 8342     		cmp	r3, r0
 8460 0014 20D0     		beq	.L1596
 8461 0016 236B     		ldr	r3, [r4, #48]
 8462 0018 8342     		cmp	r3, r0
 8463 001a 28D0     		beq	.L1597
 8464 001c 0123     		movs	r3, #1
 8465 001e 84F83D30 		strb	r3, [r4, #61]
 8466 0022 2046     		mov	r0, r4
 8467 0024 FFF7FEFF 		bl	HAL_TIM_ErrorCallback
 8468 0028 0023     		movs	r3, #0
 8469 002a 2377     		strb	r3, [r4, #28]
 8470 002c 10BD     		pop	{r4, pc}
 8471              	.L1595:
 8472 002e 0123     		movs	r3, #1
 8473 0030 0222     		movs	r2, #2
 8474 0032 84F83F30 		strb	r3, [r4, #63]
 8475 0036 2277     		strb	r2, [r4, #28]
 8476 0038 2046     		mov	r0, r4
 8477 003a FFF7FEFF 		bl	HAL_TIM_ErrorCallback
 8478 003e 0023     		movs	r3, #0
 8479 0040 2377     		strb	r3, [r4, #28]
 8480 0042 10BD     		pop	{r4, pc}
 8481              	.L1594:
 8482 0044 0123     		movs	r3, #1
 8483 0046 2377     		strb	r3, [r4, #28]
 8484 0048 84F83E30 		strb	r3, [r4, #62]
 8485 004c 2046     		mov	r0, r4
 8486 004e FFF7FEFF 		bl	HAL_TIM_ErrorCallback
 8487 0052 0023     		movs	r3, #0
 8488 0054 2377     		strb	r3, [r4, #28]
 8489 0056 10BD     		pop	{r4, pc}
 8490              	.L1596:
 8491 0058 0123     		movs	r3, #1
 8492 005a 0422     		movs	r2, #4
 8493 005c 84F84030 		strb	r3, [r4, #64]
 8494 0060 2277     		strb	r2, [r4, #28]
 8495 0062 2046     		mov	r0, r4
 8496 0064 FFF7FEFF 		bl	HAL_TIM_ErrorCallback
 8497 0068 0023     		movs	r3, #0
 8498 006a 2377     		strb	r3, [r4, #28]
 8499 006c 10BD     		pop	{r4, pc}
 8500              	.L1597:
 8501 006e 0123     		movs	r3, #1
 8502 0070 0822     		movs	r2, #8
 8503 0072 84F84130 		strb	r3, [r4, #65]
 8504 0076 2277     		strb	r2, [r4, #28]
 8505 0078 2046     		mov	r0, r4
 8506 007a FFF7FEFF 		bl	HAL_TIM_ErrorCallback
 8507 007e 0023     		movs	r3, #0
 8508 0080 2377     		strb	r3, [r4, #28]
 8509 0082 10BD     		pop	{r4, pc}
ARM GAS  /tmp/ccoSsvAJ.s 			page 147


 8511              		.section	.text.HAL_TIM_Base_GetState,"ax",%progbits
 8512              		.align	1
 8513              		.p2align 2,,3
 8514              		.global	HAL_TIM_Base_GetState
 8515              		.syntax unified
 8516              		.thumb
 8517              		.thumb_func
 8518              		.fpu fpv4-sp-d16
 8520              	HAL_TIM_Base_GetState:
 8521              		@ args = 0, pretend = 0, frame = 0
 8522              		@ frame_needed = 0, uses_anonymous_args = 0
 8523              		@ link register save eliminated.
 8524 0000 90F83D00 		ldrb	r0, [r0, #61]	@ zero_extendqisi2
 8525 0004 7047     		bx	lr
 8527 0006 00BF     		.section	.text.HAL_TIM_OC_GetState,"ax",%progbits
 8528              		.align	1
 8529              		.p2align 2,,3
 8530              		.global	HAL_TIM_OC_GetState
 8531              		.syntax unified
 8532              		.thumb
 8533              		.thumb_func
 8534              		.fpu fpv4-sp-d16
 8536              	HAL_TIM_OC_GetState:
 8537              		@ args = 0, pretend = 0, frame = 0
 8538              		@ frame_needed = 0, uses_anonymous_args = 0
 8539              		@ link register save eliminated.
 8540 0000 90F83D00 		ldrb	r0, [r0, #61]	@ zero_extendqisi2
 8541 0004 7047     		bx	lr
 8543 0006 00BF     		.section	.text.HAL_TIM_PWM_GetState,"ax",%progbits
 8544              		.align	1
 8545              		.p2align 2,,3
 8546              		.global	HAL_TIM_PWM_GetState
 8547              		.syntax unified
 8548              		.thumb
 8549              		.thumb_func
 8550              		.fpu fpv4-sp-d16
 8552              	HAL_TIM_PWM_GetState:
 8553              		@ args = 0, pretend = 0, frame = 0
 8554              		@ frame_needed = 0, uses_anonymous_args = 0
 8555              		@ link register save eliminated.
 8556 0000 90F83D00 		ldrb	r0, [r0, #61]	@ zero_extendqisi2
 8557 0004 7047     		bx	lr
 8559 0006 00BF     		.section	.text.HAL_TIM_IC_GetState,"ax",%progbits
 8560              		.align	1
 8561              		.p2align 2,,3
 8562              		.global	HAL_TIM_IC_GetState
 8563              		.syntax unified
 8564              		.thumb
 8565              		.thumb_func
 8566              		.fpu fpv4-sp-d16
 8568              	HAL_TIM_IC_GetState:
 8569              		@ args = 0, pretend = 0, frame = 0
 8570              		@ frame_needed = 0, uses_anonymous_args = 0
 8571              		@ link register save eliminated.
 8572 0000 90F83D00 		ldrb	r0, [r0, #61]	@ zero_extendqisi2
 8573 0004 7047     		bx	lr
 8575 0006 00BF     		.section	.text.HAL_TIM_OnePulse_GetState,"ax",%progbits
ARM GAS  /tmp/ccoSsvAJ.s 			page 148


 8576              		.align	1
 8577              		.p2align 2,,3
 8578              		.global	HAL_TIM_OnePulse_GetState
 8579              		.syntax unified
 8580              		.thumb
 8581              		.thumb_func
 8582              		.fpu fpv4-sp-d16
 8584              	HAL_TIM_OnePulse_GetState:
 8585              		@ args = 0, pretend = 0, frame = 0
 8586              		@ frame_needed = 0, uses_anonymous_args = 0
 8587              		@ link register save eliminated.
 8588 0000 90F83D00 		ldrb	r0, [r0, #61]	@ zero_extendqisi2
 8589 0004 7047     		bx	lr
 8591 0006 00BF     		.section	.text.HAL_TIM_Encoder_GetState,"ax",%progbits
 8592              		.align	1
 8593              		.p2align 2,,3
 8594              		.global	HAL_TIM_Encoder_GetState
 8595              		.syntax unified
 8596              		.thumb
 8597              		.thumb_func
 8598              		.fpu fpv4-sp-d16
 8600              	HAL_TIM_Encoder_GetState:
 8601              		@ args = 0, pretend = 0, frame = 0
 8602              		@ frame_needed = 0, uses_anonymous_args = 0
 8603              		@ link register save eliminated.
 8604 0000 90F83D00 		ldrb	r0, [r0, #61]	@ zero_extendqisi2
 8605 0004 7047     		bx	lr
 8607 0006 00BF     		.section	.text.HAL_TIM_GetActiveChannel,"ax",%progbits
 8608              		.align	1
 8609              		.p2align 2,,3
 8610              		.global	HAL_TIM_GetActiveChannel
 8611              		.syntax unified
 8612              		.thumb
 8613              		.thumb_func
 8614              		.fpu fpv4-sp-d16
 8616              	HAL_TIM_GetActiveChannel:
 8617              		@ args = 0, pretend = 0, frame = 0
 8618              		@ frame_needed = 0, uses_anonymous_args = 0
 8619              		@ link register save eliminated.
 8620 0000 007F     		ldrb	r0, [r0, #28]	@ zero_extendqisi2
 8621 0002 7047     		bx	lr
 8623              		.section	.text.HAL_TIM_GetChannelState,"ax",%progbits
 8624              		.align	1
 8625              		.p2align 2,,3
 8626              		.global	HAL_TIM_GetChannelState
 8627              		.syntax unified
 8628              		.thumb
 8629              		.thumb_func
 8630              		.fpu fpv4-sp-d16
 8632              	HAL_TIM_GetChannelState:
 8633              		@ args = 0, pretend = 0, frame = 0
 8634              		@ frame_needed = 0, uses_anonymous_args = 0
 8635              		@ link register save eliminated.
 8636 0000 1029     		cmp	r1, #16
 8637 0002 0AD8     		bhi	.L1606
 8638 0004 DFE801F0 		tbb	[pc, r1]
 8639              	.L1608:
ARM GAS  /tmp/ccoSsvAJ.s 			page 149


 8640 0008 0D       		.byte	(.L1612-.L1608)/2
 8641 0009 09       		.byte	(.L1606-.L1608)/2
 8642 000a 09       		.byte	(.L1606-.L1608)/2
 8643 000b 09       		.byte	(.L1606-.L1608)/2
 8644 000c 11       		.byte	(.L1611-.L1608)/2
 8645 000d 09       		.byte	(.L1606-.L1608)/2
 8646 000e 09       		.byte	(.L1606-.L1608)/2
 8647 000f 09       		.byte	(.L1606-.L1608)/2
 8648 0010 15       		.byte	(.L1610-.L1608)/2
 8649 0011 09       		.byte	(.L1606-.L1608)/2
 8650 0012 09       		.byte	(.L1606-.L1608)/2
 8651 0013 09       		.byte	(.L1606-.L1608)/2
 8652 0014 19       		.byte	(.L1609-.L1608)/2
 8653 0015 09       		.byte	(.L1606-.L1608)/2
 8654 0016 09       		.byte	(.L1606-.L1608)/2
 8655 0017 09       		.byte	(.L1606-.L1608)/2
 8656 0018 1D       		.byte	(.L1607-.L1608)/2
 8657 0019 00       		.p2align 1
 8658              	.L1606:
 8659 001a 90F84300 		ldrb	r0, [r0, #67]	@ zero_extendqisi2
 8660 001e C0B2     		uxtb	r0, r0
 8661 0020 7047     		bx	lr
 8662              	.L1612:
 8663 0022 90F83E00 		ldrb	r0, [r0, #62]	@ zero_extendqisi2
 8664 0026 C0B2     		uxtb	r0, r0
 8665 0028 7047     		bx	lr
 8666              	.L1611:
 8667 002a 90F83F00 		ldrb	r0, [r0, #63]	@ zero_extendqisi2
 8668 002e C0B2     		uxtb	r0, r0
 8669 0030 7047     		bx	lr
 8670              	.L1610:
 8671 0032 90F84000 		ldrb	r0, [r0, #64]	@ zero_extendqisi2
 8672 0036 C0B2     		uxtb	r0, r0
 8673 0038 7047     		bx	lr
 8674              	.L1609:
 8675 003a 90F84100 		ldrb	r0, [r0, #65]	@ zero_extendqisi2
 8676 003e C0B2     		uxtb	r0, r0
 8677 0040 7047     		bx	lr
 8678              	.L1607:
 8679 0042 90F84200 		ldrb	r0, [r0, #66]	@ zero_extendqisi2
 8680 0046 C0B2     		uxtb	r0, r0
 8681 0048 7047     		bx	lr
 8683 004a 00BF     		.section	.text.HAL_TIM_DMABurstState,"ax",%progbits
 8684              		.align	1
 8685              		.p2align 2,,3
 8686              		.global	HAL_TIM_DMABurstState
 8687              		.syntax unified
 8688              		.thumb
 8689              		.thumb_func
 8690              		.fpu fpv4-sp-d16
 8692              	HAL_TIM_DMABurstState:
 8693              		@ args = 0, pretend = 0, frame = 0
 8694              		@ frame_needed = 0, uses_anonymous_args = 0
 8695              		@ link register save eliminated.
 8696 0000 90F84800 		ldrb	r0, [r0, #72]	@ zero_extendqisi2
 8697 0004 7047     		bx	lr
 8699 0006 00BF     		.section	.text.TIM_Base_SetConfig,"ax",%progbits
ARM GAS  /tmp/ccoSsvAJ.s 			page 150


 8700              		.align	1
 8701              		.p2align 2,,3
 8702              		.global	TIM_Base_SetConfig
 8703              		.syntax unified
 8704              		.thumb
 8705              		.thumb_func
 8706              		.fpu fpv4-sp-d16
 8708              	TIM_Base_SetConfig:
 8709              		@ args = 0, pretend = 0, frame = 0
 8710              		@ frame_needed = 0, uses_anonymous_args = 0
 8711              		@ link register save eliminated.
 8712 0000 70B4     		push	{r4, r5, r6}
 8713 0002 264E     		ldr	r6, .L1634
 8714 0004 4D69     		ldr	r5, [r1, #20]
 8715 0006 0368     		ldr	r3, [r0]
 8716 0008 8C68     		ldr	r4, [r1, #8]
 8717 000a 0A68     		ldr	r2, [r1]
 8718 000c B042     		cmp	r0, r6
 8719 000e 31D0     		beq	.L1621
 8720 0010 B0F1804F 		cmp	r0, #1073741824
 8721 0014 1CD0     		beq	.L1619
 8722 0016 A6F59436 		sub	r6, r6, #75776
 8723 001a B042     		cmp	r0, r6
 8724 001c 18D0     		beq	.L1619
 8725 001e 06F58066 		add	r6, r6, #1024
 8726 0022 B042     		cmp	r0, r6
 8727 0024 14D0     		beq	.L1619
 8728 0026 06F58066 		add	r6, r6, #1024
 8729 002a B042     		cmp	r0, r6
 8730 002c 10D0     		beq	.L1619
 8731 002e 06F59436 		add	r6, r6, #75776
 8732 0032 B042     		cmp	r0, r6
 8733 0034 1ED0     		beq	.L1621
 8734 0036 06F54066 		add	r6, r6, #3072
 8735 003a B042     		cmp	r0, r6
 8736 003c 1ED0     		beq	.L1632
 8737 003e 06F58066 		add	r6, r6, #1024
 8738 0042 B042     		cmp	r0, r6
 8739 0044 1AD0     		beq	.L1632
 8740 0046 06F58066 		add	r6, r6, #1024
 8741 004a B042     		cmp	r0, r6
 8742 004c 08D1     		bne	.L1633
 8743 004e 15E0     		b	.L1632
 8744              	.L1619:
 8745 0050 4E68     		ldr	r6, [r1, #4]
 8746 0052 C968     		ldr	r1, [r1, #12]
 8747 0054 23F07003 		bic	r3, r3, #112
 8748 0058 3343     		orrs	r3, r3, r6
 8749 005a 23F44073 		bic	r3, r3, #768
 8750 005e 0B43     		orrs	r3, r3, r1
 8751              	.L1633:
 8752 0060 23F08003 		bic	r3, r3, #128
 8753 0064 2B43     		orrs	r3, r3, r5
 8754 0066 0360     		str	r3, [r0]
 8755 0068 0123     		movs	r3, #1
 8756 006a C462     		str	r4, [r0, #44]
 8757 006c 8262     		str	r2, [r0, #40]
ARM GAS  /tmp/ccoSsvAJ.s 			page 151


 8758 006e 70BC     		pop	{r4, r5, r6}
 8759 0070 4361     		str	r3, [r0, #20]
 8760 0072 7047     		bx	lr
 8761              	.L1621:
 8762 0074 4E68     		ldr	r6, [r1, #4]
 8763 0076 23F07003 		bic	r3, r3, #112
 8764 007a 3343     		orrs	r3, r3, r6
 8765              	.L1632:
 8766 007c CE68     		ldr	r6, [r1, #12]
 8767 007e 23F44073 		bic	r3, r3, #768
 8768 0082 3343     		orrs	r3, r3, r6
 8769 0084 23F08003 		bic	r3, r3, #128
 8770 0088 2B43     		orrs	r3, r3, r5
 8771 008a 0360     		str	r3, [r0]
 8772 008c C462     		str	r4, [r0, #44]
 8773 008e 8262     		str	r2, [r0, #40]
 8774 0090 0B69     		ldr	r3, [r1, #16]
 8775 0092 0363     		str	r3, [r0, #48]
 8776 0094 0123     		movs	r3, #1
 8777 0096 70BC     		pop	{r4, r5, r6}
 8778 0098 4361     		str	r3, [r0, #20]
 8779 009a 7047     		bx	lr
 8780              	.L1635:
 8781              		.align	2
 8782              	.L1634:
 8783 009c 002C0140 		.word	1073818624
 8785              		.section	.text.TIM_OC2_SetConfig,"ax",%progbits
 8786              		.align	1
 8787              		.p2align 2,,3
 8788              		.global	TIM_OC2_SetConfig
 8789              		.syntax unified
 8790              		.thumb
 8791              		.thumb_func
 8792              		.fpu fpv4-sp-d16
 8794              	TIM_OC2_SetConfig:
 8795              		@ args = 0, pretend = 0, frame = 0
 8796              		@ frame_needed = 0, uses_anonymous_args = 0
 8797              		@ link register save eliminated.
 8798 0000 036A     		ldr	r3, [r0, #32]
 8799 0002 23F01003 		bic	r3, r3, #16
 8800 0006 0362     		str	r3, [r0, #32]
 8801 0008 036A     		ldr	r3, [r0, #32]
 8802 000a 70B4     		push	{r4, r5, r6}
 8803 000c 4468     		ldr	r4, [r0, #4]
 8804 000e 8269     		ldr	r2, [r0, #24]
 8805 0010 0D68     		ldr	r5, [r1]
 8806 0012 22F08072 		bic	r2, r2, #16777216
 8807 0016 22F4E642 		bic	r2, r2, #29440
 8808 001a 42EA0522 		orr	r2, r2, r5, lsl #8
 8809 001e 8D68     		ldr	r5, [r1, #8]
 8810 0020 23F02003 		bic	r3, r3, #32
 8811 0024 43EA0513 		orr	r3, r3, r5, lsl #4
 8812 0028 144D     		ldr	r5, .L1643
 8813 002a A842     		cmp	r0, r5
 8814 002c 10D0     		beq	.L1638
 8815 002e 05F50065 		add	r5, r5, #2048
 8816 0032 A842     		cmp	r0, r5
ARM GAS  /tmp/ccoSsvAJ.s 			page 152


 8817 0034 0CD0     		beq	.L1638
 8818 0036 05F54065 		add	r5, r5, #3072
 8819 003a A842     		cmp	r0, r5
 8820 003c 0FD0     		beq	.L1639
 8821 003e 05F58065 		add	r5, r5, #1024
 8822 0042 A842     		cmp	r0, r5
 8823 0044 0BD0     		beq	.L1639
 8824 0046 05F58065 		add	r5, r5, #1024
 8825 004a A842     		cmp	r0, r5
 8826 004c 0FD1     		bne	.L1640
 8827 004e 06E0     		b	.L1639
 8828              	.L1638:
 8829 0050 CD68     		ldr	r5, [r1, #12]
 8830 0052 23F08003 		bic	r3, r3, #128
 8831 0056 43EA0513 		orr	r3, r3, r5, lsl #4
 8832 005a 23F04003 		bic	r3, r3, #64
 8833              	.L1639:
 8834 005e D1E90565 		ldrd	r6, r5, [r1, #20]
 8835 0062 24F44064 		bic	r4, r4, #3072
 8836 0066 46EA050C 		orr	ip, r6, r5
 8837 006a 44EA8C04 		orr	r4, r4, ip, lsl #2
 8838              	.L1640:
 8839 006e 4968     		ldr	r1, [r1, #4]
 8840 0070 4460     		str	r4, [r0, #4]
 8841 0072 8261     		str	r2, [r0, #24]
 8842 0074 70BC     		pop	{r4, r5, r6}
 8843 0076 8163     		str	r1, [r0, #56]
 8844 0078 0362     		str	r3, [r0, #32]
 8845 007a 7047     		bx	lr
 8846              	.L1644:
 8847              		.align	2
 8848              	.L1643:
 8849 007c 002C0140 		.word	1073818624
 8851              		.section	.text.HAL_TIM_OC_ConfigChannel,"ax",%progbits
 8852              		.align	1
 8853              		.p2align 2,,3
 8854              		.global	HAL_TIM_OC_ConfigChannel
 8855              		.syntax unified
 8856              		.thumb
 8857              		.thumb_func
 8858              		.fpu fpv4-sp-d16
 8860              	HAL_TIM_OC_ConfigChannel:
 8861              		@ args = 0, pretend = 0, frame = 0
 8862              		@ frame_needed = 0, uses_anonymous_args = 0
 8863 0000 90F83C30 		ldrb	r3, [r0, #60]	@ zero_extendqisi2
 8864 0004 012B     		cmp	r3, #1
 8865 0006 00F0CF80 		beq	.L1661
 8866 000a 70B5     		push	{r4, r5, r6, lr}
 8867 000c 0446     		mov	r4, r0
 8868 000e 142A     		cmp	r2, #20
 8869 0010 0CD8     		bhi	.L1662
 8870 0012 DFE802F0 		tbb	[pc, r2]
 8871              	.L1649:
 8872 0016 46       		.byte	(.L1654-.L1649)/2
 8873 0017 0B       		.byte	(.L1662-.L1649)/2
 8874 0018 0B       		.byte	(.L1662-.L1649)/2
 8875 0019 0B       		.byte	(.L1662-.L1649)/2
ARM GAS  /tmp/ccoSsvAJ.s 			page 153


 8876 001a 4E       		.byte	(.L1653-.L1649)/2
 8877 001b 0B       		.byte	(.L1662-.L1649)/2
 8878 001c 0B       		.byte	(.L1662-.L1649)/2
 8879 001d 0B       		.byte	(.L1662-.L1649)/2
 8880 001e 56       		.byte	(.L1652-.L1649)/2
 8881 001f 0B       		.byte	(.L1662-.L1649)/2
 8882 0020 0B       		.byte	(.L1662-.L1649)/2
 8883 0021 0B       		.byte	(.L1662-.L1649)/2
 8884 0022 5E       		.byte	(.L1651-.L1649)/2
 8885 0023 0B       		.byte	(.L1662-.L1649)/2
 8886 0024 0B       		.byte	(.L1662-.L1649)/2
 8887 0025 0B       		.byte	(.L1662-.L1649)/2
 8888 0026 94       		.byte	(.L1650-.L1649)/2
 8889 0027 0B       		.byte	(.L1662-.L1649)/2
 8890 0028 0B       		.byte	(.L1662-.L1649)/2
 8891 0029 0B       		.byte	(.L1662-.L1649)/2
 8892 002a 10       		.byte	(.L1648-.L1649)/2
 8893 002b 00       		.p2align 1
 8894              	.L1662:
 8895 002c 0023     		movs	r3, #0
 8896 002e 84F83C30 		strb	r3, [r4, #60]
 8897 0032 0120     		movs	r0, #1
 8898 0034 70BD     		pop	{r4, r5, r6, pc}
 8899              	.L1648:
 8900 0036 0368     		ldr	r3, [r0]
 8901 0038 0E68     		ldr	r6, [r1]
 8902 003a 1A6A     		ldr	r2, [r3, #32]
 8903 003c 22F48012 		bic	r2, r2, #1048576
 8904 0040 1A62     		str	r2, [r3, #32]
 8905 0042 1A6A     		ldr	r2, [r3, #32]
 8906 0044 5D68     		ldr	r5, [r3, #4]
 8907 0046 586D     		ldr	r0, [r3, #84]
 8908 0048 20F08070 		bic	r0, r0, #16777216
 8909 004c 20F4E040 		bic	r0, r0, #28672
 8910 0050 40EA0620 		orr	r0, r0, r6, lsl #8
 8911 0054 8E68     		ldr	r6, [r1, #8]
 8912 0056 22F40012 		bic	r2, r2, #2097152
 8913 005a 42EA0652 		orr	r2, r2, r6, lsl #20
 8914 005e 534E     		ldr	r6, .L1667
 8915 0060 B342     		cmp	r3, r6
 8916 0062 0FD0     		beq	.L1659
 8917 0064 06F50066 		add	r6, r6, #2048
 8918 0068 B342     		cmp	r3, r6
 8919 006a 0BD0     		beq	.L1659
 8920 006c 06F54066 		add	r6, r6, #3072
 8921 0070 B342     		cmp	r3, r6
 8922 0072 07D0     		beq	.L1659
 8923 0074 06F58066 		add	r6, r6, #1024
 8924 0078 B342     		cmp	r3, r6
 8925 007a 03D0     		beq	.L1659
 8926 007c 06F58066 		add	r6, r6, #1024
 8927 0080 B342     		cmp	r3, r6
 8928 0082 04D1     		bne	.L1660
 8929              	.L1659:
 8930 0084 4E69     		ldr	r6, [r1, #20]
 8931 0086 25F48025 		bic	r5, r5, #262144
 8932 008a 45EA8625 		orr	r5, r5, r6, lsl #10
ARM GAS  /tmp/ccoSsvAJ.s 			page 154


 8933              	.L1660:
 8934 008e 4968     		ldr	r1, [r1, #4]
 8935 0090 5D60     		str	r5, [r3, #4]
 8936 0092 5865     		str	r0, [r3, #84]
 8937 0094 D965     		str	r1, [r3, #92]
 8938 0096 1A62     		str	r2, [r3, #32]
 8939 0098 0023     		movs	r3, #0
 8940 009a 84F83C30 		strb	r3, [r4, #60]
 8941 009e 0020     		movs	r0, #0
 8942 00a0 70BD     		pop	{r4, r5, r6, pc}
 8943              	.L1654:
 8944 00a2 0068     		ldr	r0, [r0]
 8945 00a4 FFF7FEFF 		bl	TIM_OC1_SetConfig
 8946 00a8 0023     		movs	r3, #0
 8947 00aa 84F83C30 		strb	r3, [r4, #60]
 8948 00ae 0020     		movs	r0, #0
 8949 00b0 70BD     		pop	{r4, r5, r6, pc}
 8950              	.L1653:
 8951 00b2 0068     		ldr	r0, [r0]
 8952 00b4 FFF7FEFF 		bl	TIM_OC2_SetConfig
 8953 00b8 0023     		movs	r3, #0
 8954 00ba 84F83C30 		strb	r3, [r4, #60]
 8955 00be 0020     		movs	r0, #0
 8956 00c0 70BD     		pop	{r4, r5, r6, pc}
 8957              	.L1652:
 8958 00c2 0068     		ldr	r0, [r0]
 8959 00c4 FFF7FEFF 		bl	TIM_OC3_SetConfig
 8960 00c8 0023     		movs	r3, #0
 8961 00ca 84F83C30 		strb	r3, [r4, #60]
 8962 00ce 0020     		movs	r0, #0
 8963 00d0 70BD     		pop	{r4, r5, r6, pc}
 8964              	.L1651:
 8965 00d2 0368     		ldr	r3, [r0]
 8966 00d4 0E68     		ldr	r6, [r1]
 8967 00d6 1A6A     		ldr	r2, [r3, #32]
 8968 00d8 22F48052 		bic	r2, r2, #4096
 8969 00dc 1A62     		str	r2, [r3, #32]
 8970 00de 1A6A     		ldr	r2, [r3, #32]
 8971 00e0 5D68     		ldr	r5, [r3, #4]
 8972 00e2 D869     		ldr	r0, [r3, #28]
 8973 00e4 20F08070 		bic	r0, r0, #16777216
 8974 00e8 20F4E640 		bic	r0, r0, #29440
 8975 00ec 40EA0620 		orr	r0, r0, r6, lsl #8
 8976 00f0 8E68     		ldr	r6, [r1, #8]
 8977 00f2 22F40052 		bic	r2, r2, #8192
 8978 00f6 42EA0632 		orr	r2, r2, r6, lsl #12
 8979 00fa 2C4E     		ldr	r6, .L1667
 8980 00fc B342     		cmp	r3, r6
 8981 00fe 0FD0     		beq	.L1655
 8982 0100 06F50066 		add	r6, r6, #2048
 8983 0104 B342     		cmp	r3, r6
 8984 0106 0BD0     		beq	.L1655
 8985 0108 06F54066 		add	r6, r6, #3072
 8986 010c B342     		cmp	r3, r6
 8987 010e 07D0     		beq	.L1655
 8988 0110 06F58066 		add	r6, r6, #1024
 8989 0114 B342     		cmp	r3, r6
ARM GAS  /tmp/ccoSsvAJ.s 			page 155


 8990 0116 03D0     		beq	.L1655
 8991 0118 06F58066 		add	r6, r6, #1024
 8992 011c B342     		cmp	r3, r6
 8993 011e 04D1     		bne	.L1656
 8994              	.L1655:
 8995 0120 4E69     		ldr	r6, [r1, #20]
 8996 0122 25F48045 		bic	r5, r5, #16384
 8997 0126 45EA8615 		orr	r5, r5, r6, lsl #6
 8998              	.L1656:
 8999 012a 4968     		ldr	r1, [r1, #4]
 9000 012c 5D60     		str	r5, [r3, #4]
 9001 012e D861     		str	r0, [r3, #28]
 9002 0130 1964     		str	r1, [r3, #64]
 9003 0132 1A62     		str	r2, [r3, #32]
 9004 0134 0023     		movs	r3, #0
 9005 0136 84F83C30 		strb	r3, [r4, #60]
 9006 013a 0020     		movs	r0, #0
 9007 013c 70BD     		pop	{r4, r5, r6, pc}
 9008              	.L1650:
 9009 013e 0368     		ldr	r3, [r0]
 9010 0140 0E68     		ldr	r6, [r1]
 9011 0142 1A6A     		ldr	r2, [r3, #32]
 9012 0144 22F48032 		bic	r2, r2, #65536
 9013 0148 1A62     		str	r2, [r3, #32]
 9014 014a 1A6A     		ldr	r2, [r3, #32]
 9015 014c 5D68     		ldr	r5, [r3, #4]
 9016 014e 586D     		ldr	r0, [r3, #84]
 9017 0150 20F48030 		bic	r0, r0, #65536
 9018 0154 20F07000 		bic	r0, r0, #112
 9019 0158 3043     		orrs	r0, r0, r6
 9020 015a 8E68     		ldr	r6, [r1, #8]
 9021 015c 22F40032 		bic	r2, r2, #131072
 9022 0160 42EA0642 		orr	r2, r2, r6, lsl #16
 9023 0164 114E     		ldr	r6, .L1667
 9024 0166 B342     		cmp	r3, r6
 9025 0168 0FD0     		beq	.L1657
 9026 016a 06F50066 		add	r6, r6, #2048
 9027 016e B342     		cmp	r3, r6
 9028 0170 0BD0     		beq	.L1657
 9029 0172 06F54066 		add	r6, r6, #3072
 9030 0176 B342     		cmp	r3, r6
 9031 0178 07D0     		beq	.L1657
 9032 017a 06F58066 		add	r6, r6, #1024
 9033 017e B342     		cmp	r3, r6
 9034 0180 03D0     		beq	.L1657
 9035 0182 06F58066 		add	r6, r6, #1024
 9036 0186 B342     		cmp	r3, r6
 9037 0188 04D1     		bne	.L1658
 9038              	.L1657:
 9039 018a 4E69     		ldr	r6, [r1, #20]
 9040 018c 25F48035 		bic	r5, r5, #65536
 9041 0190 45EA0625 		orr	r5, r5, r6, lsl #8
 9042              	.L1658:
 9043 0194 4968     		ldr	r1, [r1, #4]
 9044 0196 5D60     		str	r5, [r3, #4]
 9045 0198 5865     		str	r0, [r3, #84]
 9046 019a 9965     		str	r1, [r3, #88]
ARM GAS  /tmp/ccoSsvAJ.s 			page 156


 9047 019c 1A62     		str	r2, [r3, #32]
 9048 019e 0023     		movs	r3, #0
 9049 01a0 84F83C30 		strb	r3, [r4, #60]
 9050 01a4 0020     		movs	r0, #0
 9051 01a6 70BD     		pop	{r4, r5, r6, pc}
 9052              	.L1661:
 9053 01a8 0220     		movs	r0, #2
 9054 01aa 7047     		bx	lr
 9055              	.L1668:
 9056              		.align	2
 9057              	.L1667:
 9058 01ac 002C0140 		.word	1073818624
 9060              		.section	.text.HAL_TIM_PWM_ConfigChannel,"ax",%progbits
 9061              		.align	1
 9062              		.p2align 2,,3
 9063              		.global	HAL_TIM_PWM_ConfigChannel
 9064              		.syntax unified
 9065              		.thumb
 9066              		.thumb_func
 9067              		.fpu fpv4-sp-d16
 9069              	HAL_TIM_PWM_ConfigChannel:
 9070              		@ args = 0, pretend = 0, frame = 0
 9071              		@ frame_needed = 0, uses_anonymous_args = 0
 9072 0000 90F83C30 		ldrb	r3, [r0, #60]	@ zero_extendqisi2
 9073 0004 012B     		cmp	r3, #1
 9074 0006 00F02F81 		beq	.L1685
 9075 000a 0123     		movs	r3, #1
 9076 000c 70B5     		push	{r4, r5, r6, lr}
 9077 000e 0446     		mov	r4, r0
 9078 0010 0D46     		mov	r5, r1
 9079 0012 80F83C30 		strb	r3, [r0, #60]
 9080 0016 142A     		cmp	r2, #20
 9081 0018 16D8     		bhi	.L1686
 9082 001a DFE812F0 		tbh	[pc, r2, lsl #1]
 9083              	.L1673:
 9084 001e 5F00     		.2byte	(.L1678-.L1673)/2
 9085 0020 1500     		.2byte	(.L1686-.L1673)/2
 9086 0022 1500     		.2byte	(.L1686-.L1673)/2
 9087 0024 1500     		.2byte	(.L1686-.L1673)/2
 9088 0026 7400     		.2byte	(.L1677-.L1673)/2
 9089 0028 1500     		.2byte	(.L1686-.L1673)/2
 9090 002a 1500     		.2byte	(.L1686-.L1673)/2
 9091 002c 1500     		.2byte	(.L1686-.L1673)/2
 9092 002e 8A00     		.2byte	(.L1676-.L1673)/2
 9093 0030 1500     		.2byte	(.L1686-.L1673)/2
 9094 0032 1500     		.2byte	(.L1686-.L1673)/2
 9095 0034 1500     		.2byte	(.L1686-.L1673)/2
 9096 0036 9F00     		.2byte	(.L1675-.L1673)/2
 9097 0038 1500     		.2byte	(.L1686-.L1673)/2
 9098 003a 1500     		.2byte	(.L1686-.L1673)/2
 9099 003c 1500     		.2byte	(.L1686-.L1673)/2
 9100 003e E300     		.2byte	(.L1674-.L1673)/2
 9101 0040 1500     		.2byte	(.L1686-.L1673)/2
 9102 0042 1500     		.2byte	(.L1686-.L1673)/2
 9103 0044 1500     		.2byte	(.L1686-.L1673)/2
 9104 0046 1B00     		.2byte	(.L1672-.L1673)/2
 9105              		.p2align 1
ARM GAS  /tmp/ccoSsvAJ.s 			page 157


 9106              	.L1686:
 9107 0048 0022     		movs	r2, #0
 9108 004a 0123     		movs	r3, #1
 9109 004c 84F83C20 		strb	r2, [r4, #60]
 9110 0050 1846     		mov	r0, r3
 9111 0052 70BD     		pop	{r4, r5, r6, pc}
 9112              	.L1672:
 9113 0054 0268     		ldr	r2, [r0]
 9114 0056 2E68     		ldr	r6, [r5]
 9115 0058 136A     		ldr	r3, [r2, #32]
 9116 005a 23F48013 		bic	r3, r3, #1048576
 9117 005e 1362     		str	r3, [r2, #32]
 9118 0060 136A     		ldr	r3, [r2, #32]
 9119 0062 5068     		ldr	r0, [r2, #4]
 9120 0064 516D     		ldr	r1, [r2, #84]
 9121 0066 21F08071 		bic	r1, r1, #16777216
 9122 006a 21F4E041 		bic	r1, r1, #28672
 9123 006e 41EA0621 		orr	r1, r1, r6, lsl #8
 9124 0072 AE68     		ldr	r6, [r5, #8]
 9125 0074 23F40013 		bic	r3, r3, #2097152
 9126 0078 43EA0653 		orr	r3, r3, r6, lsl #20
 9127 007c 7C4E     		ldr	r6, .L1691
 9128 007e B242     		cmp	r2, r6
 9129 0080 0FD0     		beq	.L1683
 9130 0082 06F50066 		add	r6, r6, #2048
 9131 0086 B242     		cmp	r2, r6
 9132 0088 0BD0     		beq	.L1683
 9133 008a 06F54066 		add	r6, r6, #3072
 9134 008e B242     		cmp	r2, r6
 9135 0090 07D0     		beq	.L1683
 9136 0092 06F58066 		add	r6, r6, #1024
 9137 0096 B242     		cmp	r2, r6
 9138 0098 03D0     		beq	.L1683
 9139 009a 06F58066 		add	r6, r6, #1024
 9140 009e B242     		cmp	r2, r6
 9141 00a0 04D1     		bne	.L1684
 9142              	.L1683:
 9143 00a2 6E69     		ldr	r6, [r5, #20]
 9144 00a4 20F48020 		bic	r0, r0, #262144
 9145 00a8 40EA8620 		orr	r0, r0, r6, lsl #10
 9146              	.L1684:
 9147 00ac 5060     		str	r0, [r2, #4]
 9148 00ae 5165     		str	r1, [r2, #84]
 9149 00b0 6968     		ldr	r1, [r5, #4]
 9150 00b2 D165     		str	r1, [r2, #92]
 9151 00b4 1362     		str	r3, [r2, #32]
 9152 00b6 536D     		ldr	r3, [r2, #84]
 9153 00b8 2869     		ldr	r0, [r5, #16]
 9154 00ba 43F40063 		orr	r3, r3, #2048
 9155 00be 5365     		str	r3, [r2, #84]
 9156 00c0 516D     		ldr	r1, [r2, #84]
 9157 00c2 21F48061 		bic	r1, r1, #1024
 9158 00c6 5165     		str	r1, [r2, #84]
 9159 00c8 516D     		ldr	r1, [r2, #84]
 9160 00ca 41EA0021 		orr	r1, r1, r0, lsl #8
 9161 00ce 5165     		str	r1, [r2, #84]
 9162 00d0 0022     		movs	r2, #0
ARM GAS  /tmp/ccoSsvAJ.s 			page 158


 9163 00d2 0023     		movs	r3, #0
 9164 00d4 84F83C20 		strb	r2, [r4, #60]
 9165 00d8 1846     		mov	r0, r3
 9166 00da 70BD     		pop	{r4, r5, r6, pc}
 9167              	.L1678:
 9168 00dc 0068     		ldr	r0, [r0]
 9169 00de FFF7FEFF 		bl	TIM_OC1_SetConfig
 9170 00e2 8369     		ldr	r3, [r0, #24]
 9171 00e4 2969     		ldr	r1, [r5, #16]
 9172 00e6 43F00803 		orr	r3, r3, #8
 9173 00ea 8361     		str	r3, [r0, #24]
 9174 00ec 8269     		ldr	r2, [r0, #24]
 9175 00ee 22F00402 		bic	r2, r2, #4
 9176 00f2 8261     		str	r2, [r0, #24]
 9177 00f4 8269     		ldr	r2, [r0, #24]
 9178 00f6 0A43     		orrs	r2, r2, r1
 9179 00f8 8261     		str	r2, [r0, #24]
 9180 00fa 0022     		movs	r2, #0
 9181 00fc 0023     		movs	r3, #0
 9182 00fe 84F83C20 		strb	r2, [r4, #60]
 9183 0102 1846     		mov	r0, r3
 9184 0104 70BD     		pop	{r4, r5, r6, pc}
 9185              	.L1677:
 9186 0106 0068     		ldr	r0, [r0]
 9187 0108 FFF7FEFF 		bl	TIM_OC2_SetConfig
 9188 010c 8369     		ldr	r3, [r0, #24]
 9189 010e 2969     		ldr	r1, [r5, #16]
 9190 0110 43F40063 		orr	r3, r3, #2048
 9191 0114 8361     		str	r3, [r0, #24]
 9192 0116 8269     		ldr	r2, [r0, #24]
 9193 0118 22F48062 		bic	r2, r2, #1024
 9194 011c 8261     		str	r2, [r0, #24]
 9195 011e 8269     		ldr	r2, [r0, #24]
 9196 0120 42EA0122 		orr	r2, r2, r1, lsl #8
 9197 0124 8261     		str	r2, [r0, #24]
 9198 0126 0022     		movs	r2, #0
 9199 0128 0023     		movs	r3, #0
 9200 012a 84F83C20 		strb	r2, [r4, #60]
 9201 012e 1846     		mov	r0, r3
 9202 0130 70BD     		pop	{r4, r5, r6, pc}
 9203              	.L1676:
 9204 0132 0068     		ldr	r0, [r0]
 9205 0134 FFF7FEFF 		bl	TIM_OC3_SetConfig
 9206 0138 C369     		ldr	r3, [r0, #28]
 9207 013a 2969     		ldr	r1, [r5, #16]
 9208 013c 43F00803 		orr	r3, r3, #8
 9209 0140 C361     		str	r3, [r0, #28]
 9210 0142 C269     		ldr	r2, [r0, #28]
 9211 0144 22F00402 		bic	r2, r2, #4
 9212 0148 C261     		str	r2, [r0, #28]
 9213 014a C269     		ldr	r2, [r0, #28]
 9214 014c 0A43     		orrs	r2, r2, r1
 9215 014e C261     		str	r2, [r0, #28]
 9216 0150 0022     		movs	r2, #0
 9217 0152 0023     		movs	r3, #0
 9218 0154 84F83C20 		strb	r2, [r4, #60]
 9219 0158 1846     		mov	r0, r3
ARM GAS  /tmp/ccoSsvAJ.s 			page 159


 9220 015a 70BD     		pop	{r4, r5, r6, pc}
 9221              	.L1675:
 9222 015c 0268     		ldr	r2, [r0]
 9223 015e 2E68     		ldr	r6, [r5]
 9224 0160 136A     		ldr	r3, [r2, #32]
 9225 0162 23F48053 		bic	r3, r3, #4096
 9226 0166 1362     		str	r3, [r2, #32]
 9227 0168 136A     		ldr	r3, [r2, #32]
 9228 016a 5068     		ldr	r0, [r2, #4]
 9229 016c D169     		ldr	r1, [r2, #28]
 9230 016e 21F08071 		bic	r1, r1, #16777216
 9231 0172 21F4E641 		bic	r1, r1, #29440
 9232 0176 41EA0621 		orr	r1, r1, r6, lsl #8
 9233 017a AE68     		ldr	r6, [r5, #8]
 9234 017c 23F40053 		bic	r3, r3, #8192
 9235 0180 43EA0633 		orr	r3, r3, r6, lsl #12
 9236 0184 3A4E     		ldr	r6, .L1691
 9237 0186 B242     		cmp	r2, r6
 9238 0188 0FD0     		beq	.L1679
 9239 018a 06F50066 		add	r6, r6, #2048
 9240 018e B242     		cmp	r2, r6
 9241 0190 0BD0     		beq	.L1679
 9242 0192 06F54066 		add	r6, r6, #3072
 9243 0196 B242     		cmp	r2, r6
 9244 0198 07D0     		beq	.L1679
 9245 019a 06F58066 		add	r6, r6, #1024
 9246 019e B242     		cmp	r2, r6
 9247 01a0 03D0     		beq	.L1679
 9248 01a2 06F58066 		add	r6, r6, #1024
 9249 01a6 B242     		cmp	r2, r6
 9250 01a8 04D1     		bne	.L1680
 9251              	.L1679:
 9252 01aa 6E69     		ldr	r6, [r5, #20]
 9253 01ac 20F48040 		bic	r0, r0, #16384
 9254 01b0 40EA8610 		orr	r0, r0, r6, lsl #6
 9255              	.L1680:
 9256 01b4 5060     		str	r0, [r2, #4]
 9257 01b6 D161     		str	r1, [r2, #28]
 9258 01b8 6968     		ldr	r1, [r5, #4]
 9259 01ba 1164     		str	r1, [r2, #64]
 9260 01bc 1362     		str	r3, [r2, #32]
 9261 01be D369     		ldr	r3, [r2, #28]
 9262 01c0 2869     		ldr	r0, [r5, #16]
 9263 01c2 43F40063 		orr	r3, r3, #2048
 9264 01c6 D361     		str	r3, [r2, #28]
 9265 01c8 D169     		ldr	r1, [r2, #28]
 9266 01ca 21F48061 		bic	r1, r1, #1024
 9267 01ce D161     		str	r1, [r2, #28]
 9268 01d0 D169     		ldr	r1, [r2, #28]
 9269 01d2 41EA0021 		orr	r1, r1, r0, lsl #8
 9270 01d6 D161     		str	r1, [r2, #28]
 9271 01d8 0022     		movs	r2, #0
 9272 01da 0023     		movs	r3, #0
 9273 01dc 84F83C20 		strb	r2, [r4, #60]
 9274 01e0 1846     		mov	r0, r3
 9275 01e2 70BD     		pop	{r4, r5, r6, pc}
 9276              	.L1674:
ARM GAS  /tmp/ccoSsvAJ.s 			page 160


 9277 01e4 0268     		ldr	r2, [r0]
 9278 01e6 2E68     		ldr	r6, [r5]
 9279 01e8 136A     		ldr	r3, [r2, #32]
 9280 01ea 23F48033 		bic	r3, r3, #65536
 9281 01ee 1362     		str	r3, [r2, #32]
 9282 01f0 136A     		ldr	r3, [r2, #32]
 9283 01f2 5068     		ldr	r0, [r2, #4]
 9284 01f4 516D     		ldr	r1, [r2, #84]
 9285 01f6 21F48031 		bic	r1, r1, #65536
 9286 01fa 21F07001 		bic	r1, r1, #112
 9287 01fe 3143     		orrs	r1, r1, r6
 9288 0200 AE68     		ldr	r6, [r5, #8]
 9289 0202 23F40033 		bic	r3, r3, #131072
 9290 0206 43EA0643 		orr	r3, r3, r6, lsl #16
 9291 020a 194E     		ldr	r6, .L1691
 9292 020c B242     		cmp	r2, r6
 9293 020e 0FD0     		beq	.L1681
 9294 0210 06F50066 		add	r6, r6, #2048
 9295 0214 B242     		cmp	r2, r6
 9296 0216 0BD0     		beq	.L1681
 9297 0218 06F54066 		add	r6, r6, #3072
 9298 021c B242     		cmp	r2, r6
 9299 021e 07D0     		beq	.L1681
 9300 0220 06F58066 		add	r6, r6, #1024
 9301 0224 B242     		cmp	r2, r6
 9302 0226 03D0     		beq	.L1681
 9303 0228 06F58066 		add	r6, r6, #1024
 9304 022c B242     		cmp	r2, r6
 9305 022e 04D1     		bne	.L1682
 9306              	.L1681:
 9307 0230 6E69     		ldr	r6, [r5, #20]
 9308 0232 20F48030 		bic	r0, r0, #65536
 9309 0236 40EA0620 		orr	r0, r0, r6, lsl #8
 9310              	.L1682:
 9311 023a 5060     		str	r0, [r2, #4]
 9312 023c 5165     		str	r1, [r2, #84]
 9313 023e 6968     		ldr	r1, [r5, #4]
 9314 0240 9165     		str	r1, [r2, #88]
 9315 0242 1362     		str	r3, [r2, #32]
 9316 0244 536D     		ldr	r3, [r2, #84]
 9317 0246 2869     		ldr	r0, [r5, #16]
 9318 0248 43F00803 		orr	r3, r3, #8
 9319 024c 5365     		str	r3, [r2, #84]
 9320 024e 516D     		ldr	r1, [r2, #84]
 9321 0250 21F00401 		bic	r1, r1, #4
 9322 0254 5165     		str	r1, [r2, #84]
 9323 0256 516D     		ldr	r1, [r2, #84]
 9324 0258 0143     		orrs	r1, r1, r0
 9325 025a 5165     		str	r1, [r2, #84]
 9326 025c 0022     		movs	r2, #0
 9327 025e 0023     		movs	r3, #0
 9328 0260 84F83C20 		strb	r2, [r4, #60]
 9329 0264 1846     		mov	r0, r3
 9330 0266 70BD     		pop	{r4, r5, r6, pc}
 9331              	.L1685:
 9332 0268 0223     		movs	r3, #2
 9333 026a 1846     		mov	r0, r3
ARM GAS  /tmp/ccoSsvAJ.s 			page 161


 9334 026c 7047     		bx	lr
 9335              	.L1692:
 9336 026e 00BF     		.align	2
 9337              	.L1691:
 9338 0270 002C0140 		.word	1073818624
 9340              		.section	.text.HAL_TIM_OnePulse_ConfigChannel,"ax",%progbits
 9341              		.align	1
 9342              		.p2align 2,,3
 9343              		.global	HAL_TIM_OnePulse_ConfigChannel
 9344              		.syntax unified
 9345              		.thumb
 9346              		.thumb_func
 9347              		.fpu fpv4-sp-d16
 9349              	HAL_TIM_OnePulse_ConfigChannel:
 9350              		@ args = 0, pretend = 0, frame = 32
 9351              		@ frame_needed = 0, uses_anonymous_args = 0
 9352 0000 9A42     		cmp	r2, r3
 9353 0002 00F09180 		beq	.L1704
 9354 0006 F0B5     		push	{r4, r5, r6, r7, lr}
 9355 0008 1F46     		mov	r7, r3
 9356 000a 90F83C30 		ldrb	r3, [r0, #60]	@ zero_extendqisi2
 9357 000e 012B     		cmp	r3, #1
 9358 0010 89B0     		sub	sp, sp, #36
 9359 0012 0646     		mov	r6, r0
 9360 0014 00F08A80 		beq	.L1705
 9361 0018 0123     		movs	r3, #1
 9362 001a 80F83C30 		strb	r3, [r0, #60]
 9363 001e 0223     		movs	r3, #2
 9364 0020 80F83D30 		strb	r3, [r0, #61]
 9365 0024 4B68     		ldr	r3, [r1, #4]
 9366 0026 0293     		str	r3, [sp, #8]
 9367 0028 4B69     		ldr	r3, [r1, #20]
 9368 002a 0793     		str	r3, [sp, #28]
 9369 002c 8B68     		ldr	r3, [r1, #8]
 9370 002e 0393     		str	r3, [sp, #12]
 9371 0030 CB68     		ldr	r3, [r1, #12]
 9372 0032 0493     		str	r3, [sp, #16]
 9373 0034 0B68     		ldr	r3, [r1]
 9374 0036 0193     		str	r3, [sp, #4]
 9375 0038 0B69     		ldr	r3, [r1, #16]
 9376 003a 0693     		str	r3, [sp, #24]
 9377 003c 0C46     		mov	r4, r1
 9378 003e 002A     		cmp	r2, #0
 9379 0040 45D0     		beq	.L1695
 9380 0042 042A     		cmp	r2, #4
 9381 0044 08D0     		beq	.L1696
 9382              	.L1701:
 9383 0046 0120     		movs	r0, #1
 9384              	.L1697:
 9385 0048 0122     		movs	r2, #1
 9386 004a 0023     		movs	r3, #0
 9387 004c 86F83D20 		strb	r2, [r6, #61]
 9388 0050 86F83C30 		strb	r3, [r6, #60]
 9389 0054 09B0     		add	sp, sp, #36
 9390              		@ sp needed
 9391 0056 F0BD     		pop	{r4, r5, r6, r7, pc}
 9392              	.L1696:
ARM GAS  /tmp/ccoSsvAJ.s 			page 162


 9393 0058 0568     		ldr	r5, [r0]
 9394 005a 01A9     		add	r1, sp, #4
 9395 005c 2846     		mov	r0, r5
 9396 005e FFF7FEFF 		bl	TIM_OC2_SetConfig
 9397 0062 002F     		cmp	r7, #0
 9398 0064 3AD0     		beq	.L1699
 9399              	.L1714:
 9400 0066 042F     		cmp	r7, #4
 9401 0068 EDD1     		bne	.L1701
 9402 006a 296A     		ldr	r1, [r5, #32]
 9403 006c 226A     		ldr	r2, [r4, #32]
 9404 006e 21F01001 		bic	r1, r1, #16
 9405 0072 D4E90630 		ldrd	r3, r0, [r4, #24]
 9406 0076 2962     		str	r1, [r5, #32]
 9407 0078 A969     		ldr	r1, [r5, #24]
 9408 007a 21F44071 		bic	r1, r1, #768
 9409 007e 41EA0021 		orr	r1, r1, r0, lsl #8
 9410 0082 1203     		lsls	r2, r2, #12
 9411 0084 21F47041 		bic	r1, r1, #61440
 9412 0088 92B2     		uxth	r2, r2
 9413 008a 0A43     		orrs	r2, r2, r1
 9414 008c 296A     		ldr	r1, [r5, #32]
 9415 008e AA61     		str	r2, [r5, #24]
 9416 0090 1B01     		lsls	r3, r3, #4
 9417 0092 03F0A003 		and	r3, r3, #160
 9418 0096 21F0A002 		bic	r2, r1, #160
 9419 009a 1343     		orrs	r3, r3, r2
 9420 009c 2B62     		str	r3, [r5, #32]
 9421 009e AB69     		ldr	r3, [r5, #24]
 9422 00a0 23F44063 		bic	r3, r3, #3072
 9423 00a4 AB61     		str	r3, [r5, #24]
 9424 00a6 AB68     		ldr	r3, [r5, #8]
 9425 00a8 23F07003 		bic	r3, r3, #112
 9426 00ac AB60     		str	r3, [r5, #8]
 9427 00ae AB68     		ldr	r3, [r5, #8]
 9428 00b0 0020     		movs	r0, #0
 9429 00b2 43F06003 		orr	r3, r3, #96
 9430              	.L1713:
 9431 00b6 AB60     		str	r3, [r5, #8]
 9432 00b8 AB68     		ldr	r3, [r5, #8]
 9433 00ba 23F48033 		bic	r3, r3, #65536
 9434 00be 23F00703 		bic	r3, r3, #7
 9435 00c2 AB60     		str	r3, [r5, #8]
 9436 00c4 AB68     		ldr	r3, [r5, #8]
 9437 00c6 43F00603 		orr	r3, r3, #6
 9438 00ca AB60     		str	r3, [r5, #8]
 9439 00cc BCE7     		b	.L1697
 9440              	.L1695:
 9441 00ce 0568     		ldr	r5, [r0]
 9442 00d0 01A9     		add	r1, sp, #4
 9443 00d2 2846     		mov	r0, r5
 9444 00d4 FFF7FEFF 		bl	TIM_OC1_SetConfig
 9445 00d8 002F     		cmp	r7, #0
 9446 00da C4D1     		bne	.L1714
 9447              	.L1699:
 9448 00dc 286A     		ldr	r0, [r5, #32]
 9449 00de 234F     		ldr	r7, .L1715
ARM GAS  /tmp/ccoSsvAJ.s 			page 163


 9450 00e0 236A     		ldr	r3, [r4, #32]
 9451 00e2 20F00100 		bic	r0, r0, #1
 9452 00e6 D4E90621 		ldrd	r2, r1, [r4, #24]
 9453 00ea BD42     		cmp	r5, r7
 9454 00ec 2862     		str	r0, [r5, #32]
 9455 00ee AC69     		ldr	r4, [r5, #24]
 9456 00f0 286A     		ldr	r0, [r5, #32]
 9457 00f2 1ED0     		beq	.L1702
 9458 00f4 B5F1804F 		cmp	r5, #1073741824
 9459 00f8 1BD0     		beq	.L1702
 9460 00fa A7F59437 		sub	r7, r7, #75776
 9461 00fe BD42     		cmp	r5, r7
 9462 0100 17D0     		beq	.L1702
 9463 0102 07F58067 		add	r7, r7, #1024
 9464 0106 BD42     		cmp	r5, r7
 9465 0108 13D0     		beq	.L1702
 9466 010a 07F58067 		add	r7, r7, #1024
 9467 010e BD42     		cmp	r5, r7
 9468 0110 0FD0     		beq	.L1702
 9469 0112 07F59437 		add	r7, r7, #75776
 9470 0116 BD42     		cmp	r5, r7
 9471 0118 0BD0     		beq	.L1702
 9472 011a 07F54067 		add	r7, r7, #3072
 9473 011e BD42     		cmp	r5, r7
 9474 0120 07D0     		beq	.L1702
 9475 0122 44F00101 		orr	r1, r4, #1
 9476 0126 07E0     		b	.L1703
 9477              	.L1704:
 9478 0128 0120     		movs	r0, #1
 9479 012a 7047     		bx	lr
 9480              	.L1705:
 9481 012c 0220     		movs	r0, #2
 9482 012e 09B0     		add	sp, sp, #36
 9483              		@ sp needed
 9484 0130 F0BD     		pop	{r4, r5, r6, r7, pc}
 9485              	.L1702:
 9486 0132 24F00304 		bic	r4, r4, #3
 9487 0136 2143     		orrs	r1, r1, r4
 9488              	.L1703:
 9489 0138 1B01     		lsls	r3, r3, #4
 9490 013a 21F0F001 		bic	r1, r1, #240
 9491 013e DBB2     		uxtb	r3, r3
 9492 0140 0B43     		orrs	r3, r3, r1
 9493 0142 02F00A02 		and	r2, r2, #10
 9494 0146 20F00A01 		bic	r1, r0, #10
 9495 014a 0A43     		orrs	r2, r2, r1
 9496 014c AB61     		str	r3, [r5, #24]
 9497 014e 2A62     		str	r2, [r5, #32]
 9498 0150 AB69     		ldr	r3, [r5, #24]
 9499 0152 23F00C03 		bic	r3, r3, #12
 9500 0156 AB61     		str	r3, [r5, #24]
 9501 0158 AB68     		ldr	r3, [r5, #8]
 9502 015a 23F07003 		bic	r3, r3, #112
 9503 015e AB60     		str	r3, [r5, #8]
 9504 0160 AB68     		ldr	r3, [r5, #8]
 9505 0162 0020     		movs	r0, #0
 9506 0164 43F05003 		orr	r3, r3, #80
ARM GAS  /tmp/ccoSsvAJ.s 			page 164


 9507 0168 A5E7     		b	.L1713
 9508              	.L1716:
 9509 016a 00BF     		.align	2
 9510              	.L1715:
 9511 016c 002C0140 		.word	1073818624
 9513              		.section	.text.TIM_TI1_SetConfig,"ax",%progbits
 9514              		.align	1
 9515              		.p2align 2,,3
 9516              		.global	TIM_TI1_SetConfig
 9517              		.syntax unified
 9518              		.thumb
 9519              		.thumb_func
 9520              		.fpu fpv4-sp-d16
 9522              	TIM_TI1_SetConfig:
 9523              		@ args = 0, pretend = 0, frame = 0
 9524              		@ frame_needed = 0, uses_anonymous_args = 0
 9525              		@ link register save eliminated.
 9526 0000 70B4     		push	{r4, r5, r6}
 9527 0002 046A     		ldr	r4, [r0, #32]
 9528 0004 194E     		ldr	r6, .L1724
 9529 0006 24F00104 		bic	r4, r4, #1
 9530 000a 0462     		str	r4, [r0, #32]
 9531 000c B042     		cmp	r0, r6
 9532 000e 8469     		ldr	r4, [r0, #24]
 9533 0010 056A     		ldr	r5, [r0, #32]
 9534 0012 19D0     		beq	.L1718
 9535 0014 B0F1804F 		cmp	r0, #1073741824
 9536 0018 16D0     		beq	.L1718
 9537 001a A6F59436 		sub	r6, r6, #75776
 9538 001e B042     		cmp	r0, r6
 9539 0020 12D0     		beq	.L1718
 9540 0022 06F58066 		add	r6, r6, #1024
 9541 0026 B042     		cmp	r0, r6
 9542 0028 0ED0     		beq	.L1718
 9543 002a 06F58066 		add	r6, r6, #1024
 9544 002e B042     		cmp	r0, r6
 9545 0030 0AD0     		beq	.L1718
 9546 0032 06F59436 		add	r6, r6, #75776
 9547 0036 B042     		cmp	r0, r6
 9548 0038 06D0     		beq	.L1718
 9549 003a 06F54066 		add	r6, r6, #3072
 9550 003e B042     		cmp	r0, r6
 9551 0040 02D0     		beq	.L1718
 9552 0042 44F00102 		orr	r2, r4, #1
 9553 0046 02E0     		b	.L1719
 9554              	.L1718:
 9555 0048 24F00304 		bic	r4, r4, #3
 9556 004c 2243     		orrs	r2, r2, r4
 9557              	.L1719:
 9558 004e 1B01     		lsls	r3, r3, #4
 9559 0050 25F00A04 		bic	r4, r5, #10
 9560 0054 22F0F002 		bic	r2, r2, #240
 9561 0058 DBB2     		uxtb	r3, r3
 9562 005a 01F00A01 		and	r1, r1, #10
 9563 005e 2143     		orrs	r1, r1, r4
 9564 0060 1343     		orrs	r3, r3, r2
 9565 0062 8361     		str	r3, [r0, #24]
ARM GAS  /tmp/ccoSsvAJ.s 			page 165


 9566 0064 70BC     		pop	{r4, r5, r6}
 9567 0066 0162     		str	r1, [r0, #32]
 9568 0068 7047     		bx	lr
 9569              	.L1725:
 9570 006a 00BF     		.align	2
 9571              	.L1724:
 9572 006c 002C0140 		.word	1073818624
 9574              		.section	.text.TIM_ETR_SetConfig,"ax",%progbits
 9575              		.align	1
 9576              		.p2align 2,,3
 9577              		.global	TIM_ETR_SetConfig
 9578              		.syntax unified
 9579              		.thumb
 9580              		.thumb_func
 9581              		.fpu fpv4-sp-d16
 9583              	TIM_ETR_SetConfig:
 9584              		@ args = 0, pretend = 0, frame = 0
 9585              		@ frame_needed = 0, uses_anonymous_args = 0
 9586              		@ link register save eliminated.
 9587 0000 10B4     		push	{r4}
 9588 0002 8468     		ldr	r4, [r0, #8]
 9589 0004 1143     		orrs	r1, r1, r2
 9590 0006 24F47F44 		bic	r4, r4, #65280
 9591 000a 41EA0323 		orr	r3, r1, r3, lsl #8
 9592 000e 2343     		orrs	r3, r3, r4
 9593 0010 8360     		str	r3, [r0, #8]
 9594 0012 5DF8044B 		ldr	r4, [sp], #4
 9595 0016 7047     		bx	lr
 9597              		.section	.text.TIM_CCxChannelCmd,"ax",%progbits
 9598              		.align	1
 9599              		.p2align 2,,3
 9600              		.global	TIM_CCxChannelCmd
 9601              		.syntax unified
 9602              		.thumb
 9603              		.thumb_func
 9604              		.fpu fpv4-sp-d16
 9606              	TIM_CCxChannelCmd:
 9607              		@ args = 0, pretend = 0, frame = 0
 9608              		@ frame_needed = 0, uses_anonymous_args = 0
 9609              		@ link register save eliminated.
 9610 0000 036A     		ldr	r3, [r0, #32]
 9611 0002 01F01F01 		and	r1, r1, #31
 9612 0006 4FF0010C 		mov	ip, #1
 9613 000a 0CFA01FC 		lsl	ip, ip, r1
 9614 000e 23EA0C03 		bic	r3, r3, ip
 9615 0012 0362     		str	r3, [r0, #32]
 9616 0014 036A     		ldr	r3, [r0, #32]
 9617 0016 8A40     		lsls	r2, r2, r1
 9618 0018 1A43     		orrs	r2, r2, r3
 9619 001a 0262     		str	r2, [r0, #32]
 9620 001c 7047     		bx	lr
 9622 001e 00BF     		.ident	"GCC: (Arch Repository) 11.2.0"
ARM GAS  /tmp/ccoSsvAJ.s 			page 166


DEFINED SYMBOLS
                            *ABS*:0000000000000000 stm32l4xx_hal_tim.c
     /tmp/ccoSsvAJ.s:16     .text.TIM_OC1_SetConfig:0000000000000000 $t
     /tmp/ccoSsvAJ.s:24     .text.TIM_OC1_SetConfig:0000000000000000 TIM_OC1_SetConfig
     /tmp/ccoSsvAJ.s:77     .text.TIM_OC1_SetConfig:0000000000000074 $d
     /tmp/ccoSsvAJ.s:80     .text.TIM_OC3_SetConfig:0000000000000000 $t
     /tmp/ccoSsvAJ.s:87     .text.TIM_OC3_SetConfig:0000000000000000 TIM_OC3_SetConfig
     /tmp/ccoSsvAJ.s:142    .text.TIM_OC3_SetConfig:000000000000007c $d
     /tmp/ccoSsvAJ.s:145    .text.HAL_TIM_Base_MspInit:0000000000000000 $t
     /tmp/ccoSsvAJ.s:153    .text.HAL_TIM_Base_MspInit:0000000000000000 HAL_TIM_Base_MspInit
     /tmp/ccoSsvAJ.s:160    .text.HAL_TIM_Base_Init:0000000000000000 $t
     /tmp/ccoSsvAJ.s:168    .text.HAL_TIM_Base_Init:0000000000000000 HAL_TIM_Base_Init
     /tmp/ccoSsvAJ.s:270    .text.HAL_TIM_Base_Init:00000000000000f0 $d
     /tmp/ccoSsvAJ.s:273    .text.HAL_TIM_Base_MspDeInit:0000000000000000 $t
     /tmp/ccoSsvAJ.s:281    .text.HAL_TIM_Base_MspDeInit:0000000000000000 HAL_TIM_Base_MspDeInit
     /tmp/ccoSsvAJ.s:288    .text.HAL_TIM_Base_DeInit:0000000000000000 $t
     /tmp/ccoSsvAJ.s:296    .text.HAL_TIM_Base_DeInit:0000000000000000 HAL_TIM_Base_DeInit
     /tmp/ccoSsvAJ.s:335    .text.HAL_TIM_Base_Start:0000000000000000 $t
     /tmp/ccoSsvAJ.s:343    .text.HAL_TIM_Base_Start:0000000000000000 HAL_TIM_Base_Start
     /tmp/ccoSsvAJ.s:396    .text.HAL_TIM_Base_Start:0000000000000068 $d
     /tmp/ccoSsvAJ.s:400    .text.HAL_TIM_Base_Stop:0000000000000000 $t
     /tmp/ccoSsvAJ.s:408    .text.HAL_TIM_Base_Stop:0000000000000000 HAL_TIM_Base_Stop
     /tmp/ccoSsvAJ.s:431    .text.HAL_TIM_Base_Start_IT:0000000000000000 $t
     /tmp/ccoSsvAJ.s:439    .text.HAL_TIM_Base_Start_IT:0000000000000000 HAL_TIM_Base_Start_IT
     /tmp/ccoSsvAJ.s:495    .text.HAL_TIM_Base_Start_IT:0000000000000070 $d
     /tmp/ccoSsvAJ.s:500    .text.HAL_TIM_Base_Stop_IT:0000000000000000 $t
     /tmp/ccoSsvAJ.s:508    .text.HAL_TIM_Base_Stop_IT:0000000000000000 HAL_TIM_Base_Stop_IT
     /tmp/ccoSsvAJ.s:534    .text.HAL_TIM_Base_Start_DMA:0000000000000000 $t
     /tmp/ccoSsvAJ.s:542    .text.HAL_TIM_Base_Start_DMA:0000000000000000 HAL_TIM_Base_Start_DMA
     /tmp/ccoSsvAJ.s:618    .text.HAL_TIM_Base_Start_DMA:0000000000000098 $d
     /tmp/ccoSsvAJ.s:7771   .text.TIM_DMAPeriodElapsedCplt:0000000000000000 TIM_DMAPeriodElapsedCplt
     /tmp/ccoSsvAJ.s:7808   .text.TIM_DMAPeriodElapsedHalfCplt:0000000000000000 TIM_DMAPeriodElapsedHalfCplt
     /tmp/ccoSsvAJ.s:8447   .text.TIM_DMAError:0000000000000000 TIM_DMAError
     /tmp/ccoSsvAJ.s:626    .text.HAL_TIM_Base_Stop_DMA:0000000000000000 $t
     /tmp/ccoSsvAJ.s:634    .text.HAL_TIM_Base_Stop_DMA:0000000000000000 HAL_TIM_Base_Stop_DMA
     /tmp/ccoSsvAJ.s:664    .text.HAL_TIM_OC_MspInit:0000000000000000 $t
     /tmp/ccoSsvAJ.s:672    .text.HAL_TIM_OC_MspInit:0000000000000000 HAL_TIM_OC_MspInit
     /tmp/ccoSsvAJ.s:679    .text.HAL_TIM_OC_Init:0000000000000000 $t
     /tmp/ccoSsvAJ.s:687    .text.HAL_TIM_OC_Init:0000000000000000 HAL_TIM_OC_Init
     /tmp/ccoSsvAJ.s:789    .text.HAL_TIM_OC_Init:00000000000000f0 $d
     /tmp/ccoSsvAJ.s:792    .text.HAL_TIM_OC_MspDeInit:0000000000000000 $t
     /tmp/ccoSsvAJ.s:800    .text.HAL_TIM_OC_MspDeInit:0000000000000000 HAL_TIM_OC_MspDeInit
     /tmp/ccoSsvAJ.s:807    .text.HAL_TIM_OC_DeInit:0000000000000000 $t
     /tmp/ccoSsvAJ.s:815    .text.HAL_TIM_OC_DeInit:0000000000000000 HAL_TIM_OC_DeInit
     /tmp/ccoSsvAJ.s:854    .text.HAL_TIM_OC_Start:0000000000000000 $t
     /tmp/ccoSsvAJ.s:862    .text.HAL_TIM_OC_Start:0000000000000000 HAL_TIM_OC_Start
     /tmp/ccoSsvAJ.s:870    .text.HAL_TIM_OC_Start:0000000000000008 $d
     /tmp/ccoSsvAJ.s:897    .text.HAL_TIM_OC_Start:000000000000002a $d
     /tmp/ccoSsvAJ.s:1045   .text.HAL_TIM_OC_Start:0000000000000148 $d
     /tmp/ccoSsvAJ.s:1050   .text.HAL_TIM_OC_Stop:0000000000000000 $t
     /tmp/ccoSsvAJ.s:1058   .text.HAL_TIM_OC_Stop:0000000000000000 HAL_TIM_OC_Stop
     /tmp/ccoSsvAJ.s:1129   .text.HAL_TIM_OC_Stop:000000000000009a $d
     /tmp/ccoSsvAJ.s:1176   .text.HAL_TIM_OC_Stop:00000000000000f0 $d
     /tmp/ccoSsvAJ.s:1179   .text.HAL_TIM_OC_Start_IT:0000000000000000 $t
     /tmp/ccoSsvAJ.s:1187   .text.HAL_TIM_OC_Start_IT:0000000000000000 HAL_TIM_OC_Start_IT
     /tmp/ccoSsvAJ.s:1195   .text.HAL_TIM_OC_Start_IT:0000000000000008 $d
     /tmp/ccoSsvAJ.s:1222   .text.HAL_TIM_OC_Start_IT:000000000000002a $d
ARM GAS  /tmp/ccoSsvAJ.s 			page 167


     /tmp/ccoSsvAJ.s:1248   .text.HAL_TIM_OC_Start_IT:000000000000004c $d
     /tmp/ccoSsvAJ.s:1402   .text.HAL_TIM_OC_Start_IT:000000000000017c $d
     /tmp/ccoSsvAJ.s:1408   .text.HAL_TIM_OC_Stop_IT:0000000000000000 $t
     /tmp/ccoSsvAJ.s:1416   .text.HAL_TIM_OC_Stop_IT:0000000000000000 HAL_TIM_OC_Stop_IT
     /tmp/ccoSsvAJ.s:1424   .text.HAL_TIM_OC_Stop_IT:0000000000000008 $d
     /tmp/ccoSsvAJ.s:1538   .text.HAL_TIM_OC_Stop_IT:00000000000000f4 $d
     /tmp/ccoSsvAJ.s:1541   .text.HAL_TIM_OC_Start_DMA:0000000000000000 $t
     /tmp/ccoSsvAJ.s:1549   .text.HAL_TIM_OC_Start_DMA:0000000000000000 HAL_TIM_OC_Start_DMA
     /tmp/ccoSsvAJ.s:1559   .text.HAL_TIM_OC_Start_DMA:000000000000000e $d
     /tmp/ccoSsvAJ.s:1589   .text.HAL_TIM_OC_Start_DMA:000000000000003c $d
     /tmp/ccoSsvAJ.s:1622   .text.HAL_TIM_OC_Start_DMA:000000000000006c $d
     /tmp/ccoSsvAJ.s:1639   .text.HAL_TIM_OC_Start_DMA:000000000000008e $t
     /tmp/ccoSsvAJ.s:1648   .text.HAL_TIM_OC_Start_DMA:000000000000009e $d
     /tmp/ccoSsvAJ.s:1889   .text.HAL_TIM_OC_Start_DMA:00000000000002ac $d
     /tmp/ccoSsvAJ.s:8022   .text.TIM_DMADelayPulseCplt:0000000000000000 TIM_DMADelayPulseCplt
     /tmp/ccoSsvAJ.s:8113   .text.TIM_DMADelayPulseHalfCplt:0000000000000000 TIM_DMADelayPulseHalfCplt
     /tmp/ccoSsvAJ.s:1898   .text.HAL_TIM_OC_Stop_DMA:0000000000000000 $t
     /tmp/ccoSsvAJ.s:1906   .text.HAL_TIM_OC_Stop_DMA:0000000000000000 HAL_TIM_OC_Stop_DMA
     /tmp/ccoSsvAJ.s:1916   .text.HAL_TIM_OC_Stop_DMA:000000000000000e $d
     /tmp/ccoSsvAJ.s:2035   .text.HAL_TIM_OC_Stop_DMA:0000000000000100 $d
     /tmp/ccoSsvAJ.s:2038   .text.HAL_TIM_PWM_MspInit:0000000000000000 $t
     /tmp/ccoSsvAJ.s:2046   .text.HAL_TIM_PWM_MspInit:0000000000000000 HAL_TIM_PWM_MspInit
     /tmp/ccoSsvAJ.s:2053   .text.HAL_TIM_PWM_Init:0000000000000000 $t
     /tmp/ccoSsvAJ.s:2061   .text.HAL_TIM_PWM_Init:0000000000000000 HAL_TIM_PWM_Init
     /tmp/ccoSsvAJ.s:2163   .text.HAL_TIM_PWM_Init:00000000000000f0 $d
     /tmp/ccoSsvAJ.s:2166   .text.HAL_TIM_PWM_MspDeInit:0000000000000000 $t
     /tmp/ccoSsvAJ.s:2174   .text.HAL_TIM_PWM_MspDeInit:0000000000000000 HAL_TIM_PWM_MspDeInit
     /tmp/ccoSsvAJ.s:2181   .text.HAL_TIM_PWM_DeInit:0000000000000000 $t
     /tmp/ccoSsvAJ.s:2189   .text.HAL_TIM_PWM_DeInit:0000000000000000 HAL_TIM_PWM_DeInit
     /tmp/ccoSsvAJ.s:2228   .text.HAL_TIM_PWM_Start:0000000000000000 $t
     /tmp/ccoSsvAJ.s:2236   .text.HAL_TIM_PWM_Start:0000000000000000 HAL_TIM_PWM_Start
     /tmp/ccoSsvAJ.s:2244   .text.HAL_TIM_PWM_Start:0000000000000008 $d
     /tmp/ccoSsvAJ.s:2271   .text.HAL_TIM_PWM_Start:000000000000002a $d
     /tmp/ccoSsvAJ.s:2419   .text.HAL_TIM_PWM_Start:0000000000000148 $d
     /tmp/ccoSsvAJ.s:2424   .text.HAL_TIM_PWM_Stop:0000000000000000 $t
     /tmp/ccoSsvAJ.s:2432   .text.HAL_TIM_PWM_Stop:0000000000000000 HAL_TIM_PWM_Stop
     /tmp/ccoSsvAJ.s:2503   .text.HAL_TIM_PWM_Stop:000000000000009a $d
     /tmp/ccoSsvAJ.s:2550   .text.HAL_TIM_PWM_Stop:00000000000000f0 $d
     /tmp/ccoSsvAJ.s:2553   .text.HAL_TIM_PWM_Start_IT:0000000000000000 $t
     /tmp/ccoSsvAJ.s:2561   .text.HAL_TIM_PWM_Start_IT:0000000000000000 HAL_TIM_PWM_Start_IT
     /tmp/ccoSsvAJ.s:2569   .text.HAL_TIM_PWM_Start_IT:0000000000000008 $d
     /tmp/ccoSsvAJ.s:2596   .text.HAL_TIM_PWM_Start_IT:000000000000002a $d
     /tmp/ccoSsvAJ.s:2622   .text.HAL_TIM_PWM_Start_IT:000000000000004c $d
     /tmp/ccoSsvAJ.s:2776   .text.HAL_TIM_PWM_Start_IT:000000000000017c $d
     /tmp/ccoSsvAJ.s:2782   .text.HAL_TIM_PWM_Stop_IT:0000000000000000 $t
     /tmp/ccoSsvAJ.s:2790   .text.HAL_TIM_PWM_Stop_IT:0000000000000000 HAL_TIM_PWM_Stop_IT
     /tmp/ccoSsvAJ.s:2798   .text.HAL_TIM_PWM_Stop_IT:0000000000000008 $d
     /tmp/ccoSsvAJ.s:2912   .text.HAL_TIM_PWM_Stop_IT:00000000000000f4 $d
     /tmp/ccoSsvAJ.s:2915   .text.HAL_TIM_PWM_Start_DMA:0000000000000000 $t
     /tmp/ccoSsvAJ.s:2923   .text.HAL_TIM_PWM_Start_DMA:0000000000000000 HAL_TIM_PWM_Start_DMA
     /tmp/ccoSsvAJ.s:2933   .text.HAL_TIM_PWM_Start_DMA:000000000000000e $d
     /tmp/ccoSsvAJ.s:2963   .text.HAL_TIM_PWM_Start_DMA:000000000000003c $d
     /tmp/ccoSsvAJ.s:2996   .text.HAL_TIM_PWM_Start_DMA:000000000000006c $d
     /tmp/ccoSsvAJ.s:3013   .text.HAL_TIM_PWM_Start_DMA:000000000000008e $t
     /tmp/ccoSsvAJ.s:3022   .text.HAL_TIM_PWM_Start_DMA:000000000000009e $d
     /tmp/ccoSsvAJ.s:3263   .text.HAL_TIM_PWM_Start_DMA:00000000000002ac $d
     /tmp/ccoSsvAJ.s:3272   .text.HAL_TIM_PWM_Stop_DMA:0000000000000000 $t
ARM GAS  /tmp/ccoSsvAJ.s 			page 168


     /tmp/ccoSsvAJ.s:3280   .text.HAL_TIM_PWM_Stop_DMA:0000000000000000 HAL_TIM_PWM_Stop_DMA
     /tmp/ccoSsvAJ.s:3290   .text.HAL_TIM_PWM_Stop_DMA:000000000000000e $d
     /tmp/ccoSsvAJ.s:3409   .text.HAL_TIM_PWM_Stop_DMA:0000000000000100 $d
     /tmp/ccoSsvAJ.s:3412   .text.HAL_TIM_IC_MspInit:0000000000000000 $t
     /tmp/ccoSsvAJ.s:3420   .text.HAL_TIM_IC_MspInit:0000000000000000 HAL_TIM_IC_MspInit
     /tmp/ccoSsvAJ.s:3427   .text.HAL_TIM_IC_Init:0000000000000000 $t
     /tmp/ccoSsvAJ.s:3435   .text.HAL_TIM_IC_Init:0000000000000000 HAL_TIM_IC_Init
     /tmp/ccoSsvAJ.s:3537   .text.HAL_TIM_IC_Init:00000000000000f0 $d
     /tmp/ccoSsvAJ.s:3540   .text.HAL_TIM_IC_MspDeInit:0000000000000000 $t
     /tmp/ccoSsvAJ.s:3548   .text.HAL_TIM_IC_MspDeInit:0000000000000000 HAL_TIM_IC_MspDeInit
     /tmp/ccoSsvAJ.s:3555   .text.HAL_TIM_IC_DeInit:0000000000000000 $t
     /tmp/ccoSsvAJ.s:3563   .text.HAL_TIM_IC_DeInit:0000000000000000 HAL_TIM_IC_DeInit
     /tmp/ccoSsvAJ.s:3602   .text.HAL_TIM_IC_Start:0000000000000000 $t
     /tmp/ccoSsvAJ.s:3610   .text.HAL_TIM_IC_Start:0000000000000000 HAL_TIM_IC_Start
     /tmp/ccoSsvAJ.s:3619   .text.HAL_TIM_IC_Start:000000000000000a $d
     /tmp/ccoSsvAJ.s:3655   .text.HAL_TIM_IC_Start:000000000000003c $d
     /tmp/ccoSsvAJ.s:3790   .text.HAL_TIM_IC_Start:0000000000000144 $d
     /tmp/ccoSsvAJ.s:3795   .text.HAL_TIM_IC_Stop:0000000000000000 $t
     /tmp/ccoSsvAJ.s:3803   .text.HAL_TIM_IC_Stop:0000000000000000 HAL_TIM_IC_Stop
     /tmp/ccoSsvAJ.s:3846   .text.HAL_TIM_IC_Stop:000000000000005a $d
     /tmp/ccoSsvAJ.s:3903   .text.HAL_TIM_IC_Start_IT:0000000000000000 $t
     /tmp/ccoSsvAJ.s:3911   .text.HAL_TIM_IC_Start_IT:0000000000000000 HAL_TIM_IC_Start_IT
     /tmp/ccoSsvAJ.s:3920   .text.HAL_TIM_IC_Start_IT:000000000000000a $d
     /tmp/ccoSsvAJ.s:3954   .text.HAL_TIM_IC_Start_IT:0000000000000038 $d
     /tmp/ccoSsvAJ.s:3997   .text.HAL_TIM_IC_Start_IT:000000000000007c $d
     /tmp/ccoSsvAJ.s:4006   .text.HAL_TIM_IC_Start_IT:00000000000000a0 $t
     /tmp/ccoSsvAJ.s:4117   .text.HAL_TIM_IC_Start_IT:0000000000000194 $d
     /tmp/ccoSsvAJ.s:4122   .text.HAL_TIM_IC_Stop_IT:0000000000000000 $t
     /tmp/ccoSsvAJ.s:4130   .text.HAL_TIM_IC_Stop_IT:0000000000000000 HAL_TIM_IC_Stop_IT
     /tmp/ccoSsvAJ.s:4140   .text.HAL_TIM_IC_Stop_IT:000000000000000c $d
     /tmp/ccoSsvAJ.s:4273   .text.HAL_TIM_IC_Start_DMA:0000000000000000 $t
     /tmp/ccoSsvAJ.s:4281   .text.HAL_TIM_IC_Start_DMA:0000000000000000 HAL_TIM_IC_Start_DMA
     /tmp/ccoSsvAJ.s:4290   .text.HAL_TIM_IC_Start_DMA:000000000000000c $d
     /tmp/ccoSsvAJ.s:4331   .text.HAL_TIM_IC_Start_DMA:0000000000000052 $d
     /tmp/ccoSsvAJ.s:4348   .text.HAL_TIM_IC_Start_DMA:0000000000000074 $t
     /tmp/ccoSsvAJ.s:4577   .text.HAL_TIM_IC_Start_DMA:0000000000000288 $d
     /tmp/ccoSsvAJ.s:4586   .text.HAL_TIM_IC_Start_DMA:00000000000002ac $t
     /tmp/ccoSsvAJ.s:4593   .text.HAL_TIM_IC_Start_DMA:00000000000002b0 $d
     /tmp/ccoSsvAJ.s:7855   .text.TIM_DMACaptureCplt:0000000000000000 TIM_DMACaptureCplt
     /tmp/ccoSsvAJ.s:7950   .text.TIM_DMACaptureHalfCplt:0000000000000000 TIM_DMACaptureHalfCplt
     /tmp/ccoSsvAJ.s:4600   .text.HAL_TIM_IC_Stop_DMA:0000000000000000 $t
     /tmp/ccoSsvAJ.s:4608   .text.HAL_TIM_IC_Stop_DMA:0000000000000000 HAL_TIM_IC_Stop_DMA
     /tmp/ccoSsvAJ.s:4627   .text.HAL_TIM_IC_Stop_DMA:0000000000000024 $d
     /tmp/ccoSsvAJ.s:4743   .text.HAL_TIM_OnePulse_MspInit:0000000000000000 $t
     /tmp/ccoSsvAJ.s:4751   .text.HAL_TIM_OnePulse_MspInit:0000000000000000 HAL_TIM_OnePulse_MspInit
     /tmp/ccoSsvAJ.s:4758   .text.HAL_TIM_OnePulse_Init:0000000000000000 $t
     /tmp/ccoSsvAJ.s:4766   .text.HAL_TIM_OnePulse_Init:0000000000000000 HAL_TIM_OnePulse_Init
     /tmp/ccoSsvAJ.s:4869   .text.HAL_TIM_OnePulse_Init:00000000000000e8 $d
     /tmp/ccoSsvAJ.s:4872   .text.HAL_TIM_OnePulse_MspDeInit:0000000000000000 $t
     /tmp/ccoSsvAJ.s:4880   .text.HAL_TIM_OnePulse_MspDeInit:0000000000000000 HAL_TIM_OnePulse_MspDeInit
     /tmp/ccoSsvAJ.s:4887   .text.HAL_TIM_OnePulse_DeInit:0000000000000000 $t
     /tmp/ccoSsvAJ.s:4895   .text.HAL_TIM_OnePulse_DeInit:0000000000000000 HAL_TIM_OnePulse_DeInit
     /tmp/ccoSsvAJ.s:4928   .text.HAL_TIM_OnePulse_Start:0000000000000000 $t
     /tmp/ccoSsvAJ.s:4936   .text.HAL_TIM_OnePulse_Start:0000000000000000 HAL_TIM_OnePulse_Start
     /tmp/ccoSsvAJ.s:5008   .text.HAL_TIM_OnePulse_Start:00000000000000ac $d
     /tmp/ccoSsvAJ.s:5012   .text.HAL_TIM_OnePulse_Stop:0000000000000000 $t
     /tmp/ccoSsvAJ.s:5020   .text.HAL_TIM_OnePulse_Stop:0000000000000000 HAL_TIM_OnePulse_Stop
ARM GAS  /tmp/ccoSsvAJ.s 			page 169


     /tmp/ccoSsvAJ.s:5087   .text.HAL_TIM_OnePulse_Stop:0000000000000090 $d
     /tmp/ccoSsvAJ.s:5091   .text.HAL_TIM_OnePulse_Start_IT:0000000000000000 $t
     /tmp/ccoSsvAJ.s:5099   .text.HAL_TIM_OnePulse_Start_IT:0000000000000000 HAL_TIM_OnePulse_Start_IT
     /tmp/ccoSsvAJ.s:5177   .text.HAL_TIM_OnePulse_Start_IT:00000000000000bc $d
     /tmp/ccoSsvAJ.s:5181   .text.HAL_TIM_OnePulse_Stop_IT:0000000000000000 $t
     /tmp/ccoSsvAJ.s:5189   .text.HAL_TIM_OnePulse_Stop_IT:0000000000000000 HAL_TIM_OnePulse_Stop_IT
     /tmp/ccoSsvAJ.s:5262   .text.HAL_TIM_OnePulse_Stop_IT:00000000000000a0 $d
     /tmp/ccoSsvAJ.s:5266   .text.HAL_TIM_Encoder_MspInit:0000000000000000 $t
     /tmp/ccoSsvAJ.s:5274   .text.HAL_TIM_Encoder_MspInit:0000000000000000 HAL_TIM_Encoder_MspInit
     /tmp/ccoSsvAJ.s:5281   .text.HAL_TIM_Encoder_Init:0000000000000000 $t
     /tmp/ccoSsvAJ.s:5289   .text.HAL_TIM_Encoder_Init:0000000000000000 HAL_TIM_Encoder_Init
     /tmp/ccoSsvAJ.s:5420   .text.HAL_TIM_Encoder_Init:0000000000000138 $d
     /tmp/ccoSsvAJ.s:5423   .text.HAL_TIM_Encoder_MspDeInit:0000000000000000 $t
     /tmp/ccoSsvAJ.s:5431   .text.HAL_TIM_Encoder_MspDeInit:0000000000000000 HAL_TIM_Encoder_MspDeInit
     /tmp/ccoSsvAJ.s:5438   .text.HAL_TIM_Encoder_DeInit:0000000000000000 $t
     /tmp/ccoSsvAJ.s:5446   .text.HAL_TIM_Encoder_DeInit:0000000000000000 HAL_TIM_Encoder_DeInit
     /tmp/ccoSsvAJ.s:5479   .text.HAL_TIM_Encoder_Start:0000000000000000 $t
     /tmp/ccoSsvAJ.s:5487   .text.HAL_TIM_Encoder_Start:0000000000000000 HAL_TIM_Encoder_Start
     /tmp/ccoSsvAJ.s:5569   .text.HAL_TIM_Encoder_Stop:0000000000000000 $t
     /tmp/ccoSsvAJ.s:5577   .text.HAL_TIM_Encoder_Stop:0000000000000000 HAL_TIM_Encoder_Stop
     /tmp/ccoSsvAJ.s:5665   .text.HAL_TIM_Encoder_Start_IT:0000000000000000 $t
     /tmp/ccoSsvAJ.s:5673   .text.HAL_TIM_Encoder_Start_IT:0000000000000000 HAL_TIM_Encoder_Start_IT
     /tmp/ccoSsvAJ.s:5772   .text.HAL_TIM_Encoder_Stop_IT:0000000000000000 $t
     /tmp/ccoSsvAJ.s:5780   .text.HAL_TIM_Encoder_Stop_IT:0000000000000000 HAL_TIM_Encoder_Stop_IT
     /tmp/ccoSsvAJ.s:5879   .text.HAL_TIM_Encoder_Start_DMA:0000000000000000 $t
     /tmp/ccoSsvAJ.s:5887   .text.HAL_TIM_Encoder_Start_DMA:0000000000000000 HAL_TIM_Encoder_Start_DMA
     /tmp/ccoSsvAJ.s:6083   .text.HAL_TIM_Encoder_Start_DMA:00000000000001c4 $d
     /tmp/ccoSsvAJ.s:6088   .text.HAL_TIM_Encoder_Stop_DMA:0000000000000000 $t
     /tmp/ccoSsvAJ.s:6096   .text.HAL_TIM_Encoder_Stop_DMA:0000000000000000 HAL_TIM_Encoder_Stop_DMA
     /tmp/ccoSsvAJ.s:6203   .text.HAL_TIM_IC_ConfigChannel:0000000000000000 $t
     /tmp/ccoSsvAJ.s:6211   .text.HAL_TIM_IC_ConfigChannel:0000000000000000 HAL_TIM_IC_ConfigChannel
     /tmp/ccoSsvAJ.s:6392   .text.HAL_TIM_IC_ConfigChannel:00000000000001b0 $d
     /tmp/ccoSsvAJ.s:6395   .text.HAL_TIM_DMABurst_WriteStart:0000000000000000 $t
     /tmp/ccoSsvAJ.s:6403   .text.HAL_TIM_DMABurst_WriteStart:0000000000000000 HAL_TIM_DMABurst_WriteStart
     /tmp/ccoSsvAJ.s:6508   .text.HAL_TIM_DMABurst_WriteStart:00000000000000e4 $d
     /tmp/ccoSsvAJ.s:8378   .text.TIM_DMATriggerCplt:0000000000000000 TIM_DMATriggerCplt
     /tmp/ccoSsvAJ.s:8415   .text.TIM_DMATriggerHalfCplt:0000000000000000 TIM_DMATriggerHalfCplt
     /tmp/ccoSsvAJ.s:6519   .text.HAL_TIM_DMABurst_MultiWriteStart:0000000000000000 $t
     /tmp/ccoSsvAJ.s:6527   .text.HAL_TIM_DMABurst_MultiWriteStart:0000000000000000 HAL_TIM_DMABurst_MultiWriteStart
     /tmp/ccoSsvAJ.s:6632   .text.HAL_TIM_DMABurst_MultiWriteStart:00000000000000c8 $d
     /tmp/ccoSsvAJ.s:6643   .text.HAL_TIM_DMABurst_WriteStop:0000000000000000 $t
     /tmp/ccoSsvAJ.s:6651   .text.HAL_TIM_DMABurst_WriteStop:0000000000000000 HAL_TIM_DMABurst_WriteStop
     /tmp/ccoSsvAJ.s:6712   .text.HAL_TIM_DMABurst_ReadStart:0000000000000000 $t
     /tmp/ccoSsvAJ.s:6720   .text.HAL_TIM_DMABurst_ReadStart:0000000000000000 HAL_TIM_DMABurst_ReadStart
     /tmp/ccoSsvAJ.s:6825   .text.HAL_TIM_DMABurst_ReadStart:00000000000000e4 $d
     /tmp/ccoSsvAJ.s:6836   .text.HAL_TIM_DMABurst_MultiReadStart:0000000000000000 $t
     /tmp/ccoSsvAJ.s:6844   .text.HAL_TIM_DMABurst_MultiReadStart:0000000000000000 HAL_TIM_DMABurst_MultiReadStart
     /tmp/ccoSsvAJ.s:6952   .text.HAL_TIM_DMABurst_MultiReadStart:00000000000000cc $d
     /tmp/ccoSsvAJ.s:6963   .text.HAL_TIM_DMABurst_ReadStop:0000000000000000 $t
     /tmp/ccoSsvAJ.s:6971   .text.HAL_TIM_DMABurst_ReadStop:0000000000000000 HAL_TIM_DMABurst_ReadStop
     /tmp/ccoSsvAJ.s:7032   .text.HAL_TIM_GenerateEvent:0000000000000000 $t
     /tmp/ccoSsvAJ.s:7040   .text.HAL_TIM_GenerateEvent:0000000000000000 HAL_TIM_GenerateEvent
     /tmp/ccoSsvAJ.s:7063   .text.HAL_TIM_ConfigOCrefClear:0000000000000000 $t
     /tmp/ccoSsvAJ.s:7071   .text.HAL_TIM_ConfigOCrefClear:0000000000000000 HAL_TIM_ConfigOCrefClear
     /tmp/ccoSsvAJ.s:7125   .text.HAL_TIM_ConfigOCrefClear:0000000000000070 $d
     /tmp/ccoSsvAJ.s:7241   .text.HAL_TIM_ConfigClockSource:0000000000000000 $t
     /tmp/ccoSsvAJ.s:7249   .text.HAL_TIM_ConfigClockSource:0000000000000000 HAL_TIM_ConfigClockSource
ARM GAS  /tmp/ccoSsvAJ.s 			page 170


     /tmp/ccoSsvAJ.s:7402   .text.HAL_TIM_ConfigClockSource:000000000000015c $d
     /tmp/ccoSsvAJ.s:7405   .text.HAL_TIM_ConfigTI1Input:0000000000000000 $t
     /tmp/ccoSsvAJ.s:7413   .text.HAL_TIM_ConfigTI1Input:0000000000000000 HAL_TIM_ConfigTI1Input
     /tmp/ccoSsvAJ.s:7426   .text.HAL_TIM_SlaveConfigSynchro:0000000000000000 $t
     /tmp/ccoSsvAJ.s:7434   .text.HAL_TIM_SlaveConfigSynchro:0000000000000000 HAL_TIM_SlaveConfigSynchro
     /tmp/ccoSsvAJ.s:7562   .text.HAL_TIM_SlaveConfigSynchro_IT:0000000000000000 $t
     /tmp/ccoSsvAJ.s:7570   .text.HAL_TIM_SlaveConfigSynchro_IT:0000000000000000 HAL_TIM_SlaveConfigSynchro_IT
     /tmp/ccoSsvAJ.s:7698   .text.HAL_TIM_ReadCapturedValue:0000000000000000 $t
     /tmp/ccoSsvAJ.s:7706   .text.HAL_TIM_ReadCapturedValue:0000000000000000 HAL_TIM_ReadCapturedValue
     /tmp/ccoSsvAJ.s:7714   .text.HAL_TIM_ReadCapturedValue:0000000000000008 $d
     /tmp/ccoSsvAJ.s:7749   .text.HAL_TIM_PeriodElapsedCallback:0000000000000000 $t
     /tmp/ccoSsvAJ.s:7757   .text.HAL_TIM_PeriodElapsedCallback:0000000000000000 HAL_TIM_PeriodElapsedCallback
     /tmp/ccoSsvAJ.s:7764   .text.TIM_DMAPeriodElapsedCplt:0000000000000000 $t
     /tmp/ccoSsvAJ.s:7786   .text.HAL_TIM_PeriodElapsedHalfCpltCallback:0000000000000000 $t
     /tmp/ccoSsvAJ.s:7794   .text.HAL_TIM_PeriodElapsedHalfCpltCallback:0000000000000000 HAL_TIM_PeriodElapsedHalfCpltCallback
     /tmp/ccoSsvAJ.s:7801   .text.TIM_DMAPeriodElapsedHalfCplt:0000000000000000 $t
     /tmp/ccoSsvAJ.s:7817   .text.HAL_TIM_OC_DelayElapsedCallback:0000000000000000 $t
     /tmp/ccoSsvAJ.s:7825   .text.HAL_TIM_OC_DelayElapsedCallback:0000000000000000 HAL_TIM_OC_DelayElapsedCallback
     /tmp/ccoSsvAJ.s:7832   .text.HAL_TIM_IC_CaptureCallback:0000000000000000 $t
     /tmp/ccoSsvAJ.s:7840   .text.HAL_TIM_IC_CaptureCallback:0000000000000000 HAL_TIM_IC_CaptureCallback
     /tmp/ccoSsvAJ.s:7847   .text.TIM_DMACaptureCplt:0000000000000000 $t
     /tmp/ccoSsvAJ.s:7927   .text.HAL_TIM_IC_CaptureHalfCpltCallback:0000000000000000 $t
     /tmp/ccoSsvAJ.s:7935   .text.HAL_TIM_IC_CaptureHalfCpltCallback:0000000000000000 HAL_TIM_IC_CaptureHalfCpltCallback
     /tmp/ccoSsvAJ.s:7942   .text.TIM_DMACaptureHalfCplt:0000000000000000 $t
     /tmp/ccoSsvAJ.s:8000   .text.HAL_TIM_PWM_PulseFinishedCallback:0000000000000000 $t
     /tmp/ccoSsvAJ.s:8008   .text.HAL_TIM_PWM_PulseFinishedCallback:0000000000000000 HAL_TIM_PWM_PulseFinishedCallback
     /tmp/ccoSsvAJ.s:8015   .text.TIM_DMADelayPulseCplt:0000000000000000 $t
     /tmp/ccoSsvAJ.s:8090   .text.HAL_TIM_PWM_PulseFinishedHalfCpltCallback:0000000000000000 $t
     /tmp/ccoSsvAJ.s:8098   .text.HAL_TIM_PWM_PulseFinishedHalfCpltCallback:0000000000000000 HAL_TIM_PWM_PulseFinishedHalfCpltCallback
     /tmp/ccoSsvAJ.s:8105   .text.TIM_DMADelayPulseHalfCplt:0000000000000000 $t
     /tmp/ccoSsvAJ.s:8163   .text.HAL_TIM_TriggerCallback:0000000000000000 $t
     /tmp/ccoSsvAJ.s:8171   .text.HAL_TIM_TriggerCallback:0000000000000000 HAL_TIM_TriggerCallback
     /tmp/ccoSsvAJ.s:8178   .text.HAL_TIM_IRQHandler:0000000000000000 $t
     /tmp/ccoSsvAJ.s:8186   .text.HAL_TIM_IRQHandler:0000000000000000 HAL_TIM_IRQHandler
     /tmp/ccoSsvAJ.s:8371   .text.TIM_DMATriggerCplt:0000000000000000 $t
     /tmp/ccoSsvAJ.s:8393   .text.HAL_TIM_TriggerHalfCpltCallback:0000000000000000 $t
     /tmp/ccoSsvAJ.s:8401   .text.HAL_TIM_TriggerHalfCpltCallback:0000000000000000 HAL_TIM_TriggerHalfCpltCallback
     /tmp/ccoSsvAJ.s:8408   .text.TIM_DMATriggerHalfCplt:0000000000000000 $t
     /tmp/ccoSsvAJ.s:8424   .text.HAL_TIM_ErrorCallback:0000000000000000 $t
     /tmp/ccoSsvAJ.s:8432   .text.HAL_TIM_ErrorCallback:0000000000000000 HAL_TIM_ErrorCallback
     /tmp/ccoSsvAJ.s:8439   .text.TIM_DMAError:0000000000000000 $t
     /tmp/ccoSsvAJ.s:8512   .text.HAL_TIM_Base_GetState:0000000000000000 $t
     /tmp/ccoSsvAJ.s:8520   .text.HAL_TIM_Base_GetState:0000000000000000 HAL_TIM_Base_GetState
     /tmp/ccoSsvAJ.s:8528   .text.HAL_TIM_OC_GetState:0000000000000000 $t
     /tmp/ccoSsvAJ.s:8536   .text.HAL_TIM_OC_GetState:0000000000000000 HAL_TIM_OC_GetState
     /tmp/ccoSsvAJ.s:8544   .text.HAL_TIM_PWM_GetState:0000000000000000 $t
     /tmp/ccoSsvAJ.s:8552   .text.HAL_TIM_PWM_GetState:0000000000000000 HAL_TIM_PWM_GetState
     /tmp/ccoSsvAJ.s:8560   .text.HAL_TIM_IC_GetState:0000000000000000 $t
     /tmp/ccoSsvAJ.s:8568   .text.HAL_TIM_IC_GetState:0000000000000000 HAL_TIM_IC_GetState
     /tmp/ccoSsvAJ.s:8576   .text.HAL_TIM_OnePulse_GetState:0000000000000000 $t
     /tmp/ccoSsvAJ.s:8584   .text.HAL_TIM_OnePulse_GetState:0000000000000000 HAL_TIM_OnePulse_GetState
     /tmp/ccoSsvAJ.s:8592   .text.HAL_TIM_Encoder_GetState:0000000000000000 $t
     /tmp/ccoSsvAJ.s:8600   .text.HAL_TIM_Encoder_GetState:0000000000000000 HAL_TIM_Encoder_GetState
     /tmp/ccoSsvAJ.s:8608   .text.HAL_TIM_GetActiveChannel:0000000000000000 $t
     /tmp/ccoSsvAJ.s:8616   .text.HAL_TIM_GetActiveChannel:0000000000000000 HAL_TIM_GetActiveChannel
     /tmp/ccoSsvAJ.s:8624   .text.HAL_TIM_GetChannelState:0000000000000000 $t
     /tmp/ccoSsvAJ.s:8632   .text.HAL_TIM_GetChannelState:0000000000000000 HAL_TIM_GetChannelState
ARM GAS  /tmp/ccoSsvAJ.s 			page 171


     /tmp/ccoSsvAJ.s:8640   .text.HAL_TIM_GetChannelState:0000000000000008 $d
     /tmp/ccoSsvAJ.s:8684   .text.HAL_TIM_DMABurstState:0000000000000000 $t
     /tmp/ccoSsvAJ.s:8692   .text.HAL_TIM_DMABurstState:0000000000000000 HAL_TIM_DMABurstState
     /tmp/ccoSsvAJ.s:8700   .text.TIM_Base_SetConfig:0000000000000000 $t
     /tmp/ccoSsvAJ.s:8708   .text.TIM_Base_SetConfig:0000000000000000 TIM_Base_SetConfig
     /tmp/ccoSsvAJ.s:8783   .text.TIM_Base_SetConfig:000000000000009c $d
     /tmp/ccoSsvAJ.s:8786   .text.TIM_OC2_SetConfig:0000000000000000 $t
     /tmp/ccoSsvAJ.s:8794   .text.TIM_OC2_SetConfig:0000000000000000 TIM_OC2_SetConfig
     /tmp/ccoSsvAJ.s:8849   .text.TIM_OC2_SetConfig:000000000000007c $d
     /tmp/ccoSsvAJ.s:8852   .text.HAL_TIM_OC_ConfigChannel:0000000000000000 $t
     /tmp/ccoSsvAJ.s:8860   .text.HAL_TIM_OC_ConfigChannel:0000000000000000 HAL_TIM_OC_ConfigChannel
     /tmp/ccoSsvAJ.s:8872   .text.HAL_TIM_OC_ConfigChannel:0000000000000016 $d
     /tmp/ccoSsvAJ.s:9058   .text.HAL_TIM_OC_ConfigChannel:00000000000001ac $d
     /tmp/ccoSsvAJ.s:9061   .text.HAL_TIM_PWM_ConfigChannel:0000000000000000 $t
     /tmp/ccoSsvAJ.s:9069   .text.HAL_TIM_PWM_ConfigChannel:0000000000000000 HAL_TIM_PWM_ConfigChannel
     /tmp/ccoSsvAJ.s:9084   .text.HAL_TIM_PWM_ConfigChannel:000000000000001e $d
     /tmp/ccoSsvAJ.s:9105   .text.HAL_TIM_PWM_ConfigChannel:0000000000000048 $t
     /tmp/ccoSsvAJ.s:9338   .text.HAL_TIM_PWM_ConfigChannel:0000000000000270 $d
     /tmp/ccoSsvAJ.s:9341   .text.HAL_TIM_OnePulse_ConfigChannel:0000000000000000 $t
     /tmp/ccoSsvAJ.s:9349   .text.HAL_TIM_OnePulse_ConfigChannel:0000000000000000 HAL_TIM_OnePulse_ConfigChannel
     /tmp/ccoSsvAJ.s:9511   .text.HAL_TIM_OnePulse_ConfigChannel:000000000000016c $d
     /tmp/ccoSsvAJ.s:9514   .text.TIM_TI1_SetConfig:0000000000000000 $t
     /tmp/ccoSsvAJ.s:9522   .text.TIM_TI1_SetConfig:0000000000000000 TIM_TI1_SetConfig
     /tmp/ccoSsvAJ.s:9572   .text.TIM_TI1_SetConfig:000000000000006c $d
     /tmp/ccoSsvAJ.s:9575   .text.TIM_ETR_SetConfig:0000000000000000 $t
     /tmp/ccoSsvAJ.s:9583   .text.TIM_ETR_SetConfig:0000000000000000 TIM_ETR_SetConfig
     /tmp/ccoSsvAJ.s:9598   .text.TIM_CCxChannelCmd:0000000000000000 $t
     /tmp/ccoSsvAJ.s:9606   .text.TIM_CCxChannelCmd:0000000000000000 TIM_CCxChannelCmd
     /tmp/ccoSsvAJ.s:887    .text.HAL_TIM_OC_Start:0000000000000019 $d
     /tmp/ccoSsvAJ.s:887    .text.HAL_TIM_OC_Start:000000000000001a $t
     /tmp/ccoSsvAJ.s:914    .text.HAL_TIM_OC_Start:000000000000003b $d
     /tmp/ccoSsvAJ.s:914    .text.HAL_TIM_OC_Start:000000000000003c $t
     /tmp/ccoSsvAJ.s:1142   .text.HAL_TIM_OC_Stop:00000000000000a7 $d
     /tmp/ccoSsvAJ.s:1142   .text.HAL_TIM_OC_Stop:00000000000000a8 $t
     /tmp/ccoSsvAJ.s:1212   .text.HAL_TIM_OC_Start_IT:0000000000000019 $d
     /tmp/ccoSsvAJ.s:1212   .text.HAL_TIM_OC_Start_IT:000000000000001a $t
     /tmp/ccoSsvAJ.s:1239   .text.HAL_TIM_OC_Start_IT:000000000000003b $d
     /tmp/ccoSsvAJ.s:1239   .text.HAL_TIM_OC_Start_IT:000000000000003c $t
     /tmp/ccoSsvAJ.s:1257   .text.HAL_TIM_OC_Start_IT:0000000000000055 $d
     /tmp/ccoSsvAJ.s:1257   .text.HAL_TIM_OC_Start_IT:0000000000000056 $t
     /tmp/ccoSsvAJ.s:1437   .text.HAL_TIM_OC_Stop_IT:0000000000000015 $d
     /tmp/ccoSsvAJ.s:1437   .text.HAL_TIM_OC_Stop_IT:0000000000000016 $t
     /tmp/ccoSsvAJ.s:1576   .text.HAL_TIM_OC_Start_DMA:000000000000001f $d
     /tmp/ccoSsvAJ.s:1576   .text.HAL_TIM_OC_Start_DMA:0000000000000020 $t
     /tmp/ccoSsvAJ.s:1606   .text.HAL_TIM_OC_Start_DMA:000000000000004d $d
     /tmp/ccoSsvAJ.s:1606   .text.HAL_TIM_OC_Start_DMA:000000000000004e $t
     /tmp/ccoSsvAJ.s:1657   .text.HAL_TIM_OC_Start_DMA:00000000000000a7 $d
     /tmp/ccoSsvAJ.s:1657   .text.HAL_TIM_OC_Start_DMA:00000000000000a8 $t
     /tmp/ccoSsvAJ.s:1929   .text.HAL_TIM_OC_Stop_DMA:000000000000001b $d
     /tmp/ccoSsvAJ.s:1929   .text.HAL_TIM_OC_Stop_DMA:000000000000001c $t
     /tmp/ccoSsvAJ.s:2261   .text.HAL_TIM_PWM_Start:0000000000000019 $d
     /tmp/ccoSsvAJ.s:2261   .text.HAL_TIM_PWM_Start:000000000000001a $t
     /tmp/ccoSsvAJ.s:2288   .text.HAL_TIM_PWM_Start:000000000000003b $d
     /tmp/ccoSsvAJ.s:2288   .text.HAL_TIM_PWM_Start:000000000000003c $t
     /tmp/ccoSsvAJ.s:2516   .text.HAL_TIM_PWM_Stop:00000000000000a7 $d
     /tmp/ccoSsvAJ.s:2516   .text.HAL_TIM_PWM_Stop:00000000000000a8 $t
     /tmp/ccoSsvAJ.s:2586   .text.HAL_TIM_PWM_Start_IT:0000000000000019 $d
ARM GAS  /tmp/ccoSsvAJ.s 			page 172


     /tmp/ccoSsvAJ.s:2586   .text.HAL_TIM_PWM_Start_IT:000000000000001a $t
     /tmp/ccoSsvAJ.s:2613   .text.HAL_TIM_PWM_Start_IT:000000000000003b $d
     /tmp/ccoSsvAJ.s:2613   .text.HAL_TIM_PWM_Start_IT:000000000000003c $t
     /tmp/ccoSsvAJ.s:2631   .text.HAL_TIM_PWM_Start_IT:0000000000000055 $d
     /tmp/ccoSsvAJ.s:2631   .text.HAL_TIM_PWM_Start_IT:0000000000000056 $t
     /tmp/ccoSsvAJ.s:2811   .text.HAL_TIM_PWM_Stop_IT:0000000000000015 $d
     /tmp/ccoSsvAJ.s:2811   .text.HAL_TIM_PWM_Stop_IT:0000000000000016 $t
     /tmp/ccoSsvAJ.s:2950   .text.HAL_TIM_PWM_Start_DMA:000000000000001f $d
     /tmp/ccoSsvAJ.s:2950   .text.HAL_TIM_PWM_Start_DMA:0000000000000020 $t
     /tmp/ccoSsvAJ.s:2980   .text.HAL_TIM_PWM_Start_DMA:000000000000004d $d
     /tmp/ccoSsvAJ.s:2980   .text.HAL_TIM_PWM_Start_DMA:000000000000004e $t
     /tmp/ccoSsvAJ.s:3031   .text.HAL_TIM_PWM_Start_DMA:00000000000000a7 $d
     /tmp/ccoSsvAJ.s:3031   .text.HAL_TIM_PWM_Start_DMA:00000000000000a8 $t
     /tmp/ccoSsvAJ.s:3303   .text.HAL_TIM_PWM_Stop_DMA:000000000000001b $d
     /tmp/ccoSsvAJ.s:3303   .text.HAL_TIM_PWM_Stop_DMA:000000000000001c $t
     /tmp/ccoSsvAJ.s:3636   .text.HAL_TIM_IC_Start:000000000000001b $d
     /tmp/ccoSsvAJ.s:3636   .text.HAL_TIM_IC_Start:000000000000001c $t
     /tmp/ccoSsvAJ.s:3672   .text.HAL_TIM_IC_Start:000000000000004d $d
     /tmp/ccoSsvAJ.s:3672   .text.HAL_TIM_IC_Start:000000000000004e $t
     /tmp/ccoSsvAJ.s:3859   .text.HAL_TIM_IC_Stop:0000000000000067 $d
     /tmp/ccoSsvAJ.s:3859   .text.HAL_TIM_IC_Stop:0000000000000068 $t
     /tmp/ccoSsvAJ.s:3937   .text.HAL_TIM_IC_Start_IT:000000000000001b $d
     /tmp/ccoSsvAJ.s:3937   .text.HAL_TIM_IC_Start_IT:000000000000001c $t
     /tmp/ccoSsvAJ.s:3971   .text.HAL_TIM_IC_Start_IT:0000000000000049 $d
     /tmp/ccoSsvAJ.s:3971   .text.HAL_TIM_IC_Start_IT:000000000000004a $t
     /tmp/ccoSsvAJ.s:4153   .text.HAL_TIM_IC_Stop_IT:0000000000000019 $d
     /tmp/ccoSsvAJ.s:4153   .text.HAL_TIM_IC_Stop_IT:000000000000001a $t
     /tmp/ccoSsvAJ.s:4307   .text.HAL_TIM_IC_Start_DMA:000000000000001d $d
     /tmp/ccoSsvAJ.s:4307   .text.HAL_TIM_IC_Start_DMA:000000000000001e $t
     /tmp/ccoSsvAJ.s:4640   .text.HAL_TIM_IC_Stop_DMA:0000000000000031 $d
     /tmp/ccoSsvAJ.s:4640   .text.HAL_TIM_IC_Stop_DMA:0000000000000032 $t
     /tmp/ccoSsvAJ.s:7146   .text.HAL_TIM_ConfigOCrefClear:0000000000000085 $d
     /tmp/ccoSsvAJ.s:7146   .text.HAL_TIM_ConfigOCrefClear:0000000000000086 $t
     /tmp/ccoSsvAJ.s:7727   .text.HAL_TIM_ReadCapturedValue:0000000000000015 $d
     /tmp/ccoSsvAJ.s:7727   .text.HAL_TIM_ReadCapturedValue:0000000000000016 $t
     /tmp/ccoSsvAJ.s:8657   .text.HAL_TIM_GetChannelState:0000000000000019 $d
     /tmp/ccoSsvAJ.s:8657   .text.HAL_TIM_GetChannelState:000000000000001a $t
     /tmp/ccoSsvAJ.s:8893   .text.HAL_TIM_OC_ConfigChannel:000000000000002b $d
     /tmp/ccoSsvAJ.s:8893   .text.HAL_TIM_OC_ConfigChannel:000000000000002c $t

UNDEFINED SYMBOLS
HAL_DMA_Start_IT
HAL_DMA_Abort_IT
TIMEx_DMACommutationCplt
TIMEx_DMACommutationHalfCplt
HAL_TIMEx_CommutCallback
HAL_TIMEx_BreakCallback
HAL_TIMEx_Break2Callback
