ARM GAS  /tmp/ccY9MVwg.s 			page 1


   1              		.cpu cortex-m4
   2              		.eabi_attribute 27, 1
   3              		.eabi_attribute 28, 1
   4              		.eabi_attribute 20, 1
   5              		.eabi_attribute 21, 1
   6              		.eabi_attribute 23, 3
   7              		.eabi_attribute 24, 1
   8              		.eabi_attribute 25, 1
   9              		.eabi_attribute 26, 1
  10              		.eabi_attribute 30, 2
  11              		.eabi_attribute 34, 1
  12              		.eabi_attribute 18, 4
  13              		.file	"stm32l4xx_it.c"
  14              		.text
  15              		.section	.text.NMI_Handler,"ax",%progbits
  16              		.align	1
  17              		.p2align 2,,3
  18              		.global	NMI_Handler
  19              		.arch armv7e-m
  20              		.syntax unified
  21              		.thumb
  22              		.thumb_func
  23              		.fpu fpv4-sp-d16
  25              	NMI_Handler:
  26              		@ Volatile: function does not return.
  27              		@ args = 0, pretend = 0, frame = 0
  28              		@ frame_needed = 0, uses_anonymous_args = 0
  29              		@ link register save eliminated.
  30              	.L2:
  31 0000 FEE7     		b	.L2
  33 0002 00BF     		.section	.text.HardFault_Handler,"ax",%progbits
  34              		.align	1
  35              		.p2align 2,,3
  36              		.global	HardFault_Handler
  37              		.syntax unified
  38              		.thumb
  39              		.thumb_func
  40              		.fpu fpv4-sp-d16
  42              	HardFault_Handler:
  43              		@ Volatile: function does not return.
  44              		@ args = 0, pretend = 0, frame = 0
  45              		@ frame_needed = 0, uses_anonymous_args = 0
  46              		@ link register save eliminated.
  47              	.L5:
  48 0000 FEE7     		b	.L5
  50 0002 00BF     		.section	.text.MemManage_Handler,"ax",%progbits
  51              		.align	1
  52              		.p2align 2,,3
  53              		.global	MemManage_Handler
  54              		.syntax unified
  55              		.thumb
  56              		.thumb_func
  57              		.fpu fpv4-sp-d16
  59              	MemManage_Handler:
  60              		@ Volatile: function does not return.
  61              		@ args = 0, pretend = 0, frame = 0
  62              		@ frame_needed = 0, uses_anonymous_args = 0
ARM GAS  /tmp/ccY9MVwg.s 			page 2


  63              		@ link register save eliminated.
  64              	.L7:
  65 0000 FEE7     		b	.L7
  67 0002 00BF     		.section	.text.BusFault_Handler,"ax",%progbits
  68              		.align	1
  69              		.p2align 2,,3
  70              		.global	BusFault_Handler
  71              		.syntax unified
  72              		.thumb
  73              		.thumb_func
  74              		.fpu fpv4-sp-d16
  76              	BusFault_Handler:
  77              		@ Volatile: function does not return.
  78              		@ args = 0, pretend = 0, frame = 0
  79              		@ frame_needed = 0, uses_anonymous_args = 0
  80              		@ link register save eliminated.
  81              	.L9:
  82 0000 FEE7     		b	.L9
  84 0002 00BF     		.section	.text.UsageFault_Handler,"ax",%progbits
  85              		.align	1
  86              		.p2align 2,,3
  87              		.global	UsageFault_Handler
  88              		.syntax unified
  89              		.thumb
  90              		.thumb_func
  91              		.fpu fpv4-sp-d16
  93              	UsageFault_Handler:
  94              		@ Volatile: function does not return.
  95              		@ args = 0, pretend = 0, frame = 0
  96              		@ frame_needed = 0, uses_anonymous_args = 0
  97              		@ link register save eliminated.
  98              	.L11:
  99 0000 FEE7     		b	.L11
 101 0002 00BF     		.section	.text.SVC_Handler,"ax",%progbits
 102              		.align	1
 103              		.p2align 2,,3
 104              		.global	SVC_Handler
 105              		.syntax unified
 106              		.thumb
 107              		.thumb_func
 108              		.fpu fpv4-sp-d16
 110              	SVC_Handler:
 111              		@ args = 0, pretend = 0, frame = 0
 112              		@ frame_needed = 0, uses_anonymous_args = 0
 113              		@ link register save eliminated.
 114 0000 7047     		bx	lr
 116 0002 00BF     		.section	.text.DebugMon_Handler,"ax",%progbits
 117              		.align	1
 118              		.p2align 2,,3
 119              		.global	DebugMon_Handler
 120              		.syntax unified
 121              		.thumb
 122              		.thumb_func
 123              		.fpu fpv4-sp-d16
 125              	DebugMon_Handler:
 126              		@ args = 0, pretend = 0, frame = 0
 127              		@ frame_needed = 0, uses_anonymous_args = 0
ARM GAS  /tmp/ccY9MVwg.s 			page 3


 128              		@ link register save eliminated.
 129 0000 7047     		bx	lr
 131 0002 00BF     		.section	.text.PendSV_Handler,"ax",%progbits
 132              		.align	1
 133              		.p2align 2,,3
 134              		.global	PendSV_Handler
 135              		.syntax unified
 136              		.thumb
 137              		.thumb_func
 138              		.fpu fpv4-sp-d16
 140              	PendSV_Handler:
 141              		@ args = 0, pretend = 0, frame = 0
 142              		@ frame_needed = 0, uses_anonymous_args = 0
 143              		@ link register save eliminated.
 144 0000 7047     		bx	lr
 146 0002 00BF     		.section	.text.SysTick_Handler,"ax",%progbits
 147              		.align	1
 148              		.p2align 2,,3
 149              		.global	SysTick_Handler
 150              		.syntax unified
 151              		.thumb
 152              		.thumb_func
 153              		.fpu fpv4-sp-d16
 155              	SysTick_Handler:
 156              		@ args = 0, pretend = 0, frame = 0
 157              		@ frame_needed = 0, uses_anonymous_args = 0
 158              		@ link register save eliminated.
 159 0000 FFF7FEBF 		b	HAL_IncTick
 161              		.section	.text.TIM2_IRQHandler,"ax",%progbits
 162              		.align	1
 163              		.p2align 2,,3
 164              		.global	TIM2_IRQHandler
 165              		.syntax unified
 166              		.thumb
 167              		.thumb_func
 168              		.fpu fpv4-sp-d16
 170              	TIM2_IRQHandler:
 171              		@ args = 0, pretend = 0, frame = 0
 172              		@ frame_needed = 0, uses_anonymous_args = 0
 173              		@ link register save eliminated.
 174 0000 0148     		ldr	r0, .L17
 175 0002 FFF7FEBF 		b	HAL_TIM_IRQHandler
 176              	.L18:
 177 0006 00BF     		.align	2
 178              	.L17:
 179 0008 00000000 		.word	htim2
 181              		.section	.text.USART2_IRQHandler,"ax",%progbits
 182              		.align	1
 183              		.p2align 2,,3
 184              		.global	USART2_IRQHandler
 185              		.syntax unified
 186              		.thumb
 187              		.thumb_func
 188              		.fpu fpv4-sp-d16
 190              	USART2_IRQHandler:
 191              		@ args = 0, pretend = 0, frame = 0
 192              		@ frame_needed = 0, uses_anonymous_args = 0
ARM GAS  /tmp/ccY9MVwg.s 			page 4


 193              		@ link register save eliminated.
 194 0000 0148     		ldr	r0, .L20
 195 0002 FFF7FEBF 		b	HAL_UART_IRQHandler
 196              	.L21:
 197 0006 00BF     		.align	2
 198              	.L20:
 199 0008 00000000 		.word	huart2
 201              		.section	.text.ADC3_IRQHandler,"ax",%progbits
 202              		.align	1
 203              		.p2align 2,,3
 204              		.global	ADC3_IRQHandler
 205              		.syntax unified
 206              		.thumb
 207              		.thumb_func
 208              		.fpu fpv4-sp-d16
 210              	ADC3_IRQHandler:
 211              		@ args = 0, pretend = 0, frame = 0
 212              		@ frame_needed = 0, uses_anonymous_args = 0
 213              		@ link register save eliminated.
 214 0000 0148     		ldr	r0, .L23
 215 0002 FFF7FEBF 		b	HAL_ADC_IRQHandler
 216              	.L24:
 217 0006 00BF     		.align	2
 218              	.L23:
 219 0008 00000000 		.word	hadc3
 221              		.ident	"GCC: (Arch Repository) 11.2.0"
ARM GAS  /tmp/ccY9MVwg.s 			page 5

