ARM GAS  /tmp/ccIhH5JD.s 			page 1


   1              		.cpu cortex-m4
   2              		.eabi_attribute 27, 1
   3              		.eabi_attribute 28, 1
   4              		.eabi_attribute 20, 1
   5              		.eabi_attribute 21, 1
   6              		.eabi_attribute 23, 3
   7              		.eabi_attribute 24, 1
   8              		.eabi_attribute 25, 1
   9              		.eabi_attribute 26, 1
  10              		.eabi_attribute 30, 2
  11              		.eabi_attribute 34, 1
  12              		.eabi_attribute 18, 4
  13              		.file	"stm32l4xx_hal_adc_ex.c"
  14              		.text
  15              		.section	.text.HAL_ADCEx_Calibration_Start,"ax",%progbits
  16              		.align	1
  17              		.p2align 2,,3
  18              		.global	HAL_ADCEx_Calibration_Start
  19              		.arch armv7e-m
  20              		.syntax unified
  21              		.thumb
  22              		.thumb_func
  23              		.fpu fpv4-sp-d16
  25              	HAL_ADCEx_Calibration_Start:
  26              		@ args = 0, pretend = 0, frame = 8
  27              		@ frame_needed = 0, uses_anonymous_args = 0
  28 0000 30B5     		push	{r4, r5, lr}
  29 0002 90F85030 		ldrb	r3, [r0, #80]	@ zero_extendqisi2
  30 0006 83B0     		sub	sp, sp, #12
  31 0008 0022     		movs	r2, #0
  32 000a 012B     		cmp	r3, #1
  33 000c 0192     		str	r2, [sp, #4]
  34 000e 3FD0     		beq	.L8
  35 0010 0123     		movs	r3, #1
  36 0012 80F85030 		strb	r3, [r0, #80]
  37 0016 0446     		mov	r4, r0
  38 0018 0D46     		mov	r5, r1
  39 001a FFF7FEFF 		bl	ADC_Disable
  40 001e 636D     		ldr	r3, [r4, #84]
  41 0020 E0B9     		cbnz	r0, .L3
  42 0022 23F48853 		bic	r3, r3, #4352
  43 0026 23F00203 		bic	r3, r3, #2
  44 002a 2268     		ldr	r2, [r4]
  45 002c 43F00203 		orr	r3, r3, #2
  46 0030 6365     		str	r3, [r4, #84]
  47 0032 9368     		ldr	r3, [r2, #8]
  48 0034 23F04043 		bic	r3, r3, #-1073741824
  49 0038 05F08041 		and	r1, r5, #1073741824
  50 003c 23F03F03 		bic	r3, r3, #63
  51 0040 1943     		orrs	r1, r1, r3
  52 0042 41F00041 		orr	r1, r1, #-2147483648
  53 0046 9160     		str	r1, [r2, #8]
  54              	.L4:
  55 0048 9368     		ldr	r3, [r2, #8]
  56 004a 002B     		cmp	r3, #0
  57 004c 0EDB     		blt	.L11
  58 004e 636D     		ldr	r3, [r4, #84]
ARM GAS  /tmp/ccIhH5JD.s 			page 2


  59 0050 23F00303 		bic	r3, r3, #3
  60 0054 43F00103 		orr	r3, r3, #1
  61 0058 6365     		str	r3, [r4, #84]
  62 005a 02E0     		b	.L7
  63              	.L3:
  64 005c 43F01003 		orr	r3, r3, #16
  65 0060 6365     		str	r3, [r4, #84]
  66              	.L7:
  67 0062 0023     		movs	r3, #0
  68 0064 84F85030 		strb	r3, [r4, #80]
  69              	.L2:
  70 0068 03B0     		add	sp, sp, #12
  71              		@ sp needed
  72 006a 30BD     		pop	{r4, r5, pc}
  73              	.L11:
  74 006c 019B     		ldr	r3, [sp, #4]
  75 006e 0133     		adds	r3, r3, #1
  76 0070 0193     		str	r3, [sp, #4]
  77 0072 019B     		ldr	r3, [sp, #4]
  78 0074 B3F5912F 		cmp	r3, #296960
  79 0078 E6D3     		bcc	.L4
  80 007a 636D     		ldr	r3, [r4, #84]
  81 007c 23F01203 		bic	r3, r3, #18
  82 0080 0022     		movs	r2, #0
  83 0082 43F01003 		orr	r3, r3, #16
  84 0086 6365     		str	r3, [r4, #84]
  85 0088 84F85020 		strb	r2, [r4, #80]
  86 008c 0120     		movs	r0, #1
  87 008e EBE7     		b	.L2
  88              	.L8:
  89 0090 0220     		movs	r0, #2
  90 0092 03B0     		add	sp, sp, #12
  91              		@ sp needed
  92 0094 30BD     		pop	{r4, r5, pc}
  94 0096 00BF     		.section	.text.HAL_ADCEx_Calibration_GetValue,"ax",%progbits
  95              		.align	1
  96              		.p2align 2,,3
  97              		.global	HAL_ADCEx_Calibration_GetValue
  98              		.syntax unified
  99              		.thumb
 100              		.thumb_func
 101              		.fpu fpv4-sp-d16
 103              	HAL_ADCEx_Calibration_GetValue:
 104              		@ args = 0, pretend = 0, frame = 0
 105              		@ frame_needed = 0, uses_anonymous_args = 0
 106              		@ link register save eliminated.
 107 0000 0368     		ldr	r3, [r0]
 108 0002 D3F8B430 		ldr	r3, [r3, #180]
 109 0006 080B     		lsrs	r0, r1, #12
 110 0008 1940     		ands	r1, r1, r3
 111 000a 01F07F11 		and	r1, r1, #8323199
 112 000e 00F01000 		and	r0, r0, #16
 113 0012 21FA00F0 		lsr	r0, r1, r0
 114 0016 7047     		bx	lr
 116              		.section	.text.HAL_ADCEx_Calibration_SetValue,"ax",%progbits
 117              		.align	1
 118              		.p2align 2,,3
ARM GAS  /tmp/ccIhH5JD.s 			page 3


 119              		.global	HAL_ADCEx_Calibration_SetValue
 120              		.syntax unified
 121              		.thumb
 122              		.thumb_func
 123              		.fpu fpv4-sp-d16
 125              	HAL_ADCEx_Calibration_SetValue:
 126              		@ args = 0, pretend = 0, frame = 0
 127              		@ frame_needed = 0, uses_anonymous_args = 0
 128              		@ link register save eliminated.
 129 0000 0346     		mov	r3, r0
 130 0002 90F85000 		ldrb	r0, [r0, #80]	@ zero_extendqisi2
 131 0006 0128     		cmp	r0, #1
 132 0008 32D0     		beq	.L18
 133 000a 30B4     		push	{r4, r5}
 134 000c 0120     		movs	r0, #1
 135 000e 1C68     		ldr	r4, [r3]
 136 0010 83F85000 		strb	r0, [r3, #80]
 137 0014 A568     		ldr	r5, [r4, #8]
 138 0016 A068     		ldr	r0, [r4, #8]
 139 0018 0007     		lsls	r0, r0, #28
 140 001a 0DD5     		bpl	.L15
 141 001c A268     		ldr	r2, [r4, #8]
 142              	.L16:
 143 001e 5A6D     		ldr	r2, [r3, #84]
 144 0020 42F02002 		orr	r2, r2, #32
 145 0024 5A65     		str	r2, [r3, #84]
 146 0026 9A6D     		ldr	r2, [r3, #88]
 147 0028 0120     		movs	r0, #1
 148 002a 0243     		orrs	r2, r2, r0
 149 002c 9A65     		str	r2, [r3, #88]
 150 002e 0022     		movs	r2, #0
 151 0030 83F85020 		strb	r2, [r3, #80]
 152 0034 30BC     		pop	{r4, r5}
 153 0036 7047     		bx	lr
 154              	.L15:
 155 0038 A068     		ldr	r0, [r4, #8]
 156 003a C007     		lsls	r0, r0, #31
 157 003c EFD5     		bpl	.L16
 158 003e 15F00400 		ands	r0, r5, #4
 159 0042 ECD1     		bne	.L16
 160 0044 01F07F0C 		and	ip, r1, #127
 161 0048 0D0B     		lsrs	r5, r1, #12
 162 004a 25EA0C05 		bic	r5, r5, ip
 163 004e 05F01005 		and	r5, r5, #16
 164 0052 AA40     		lsls	r2, r2, r5
 165 0054 D4F8B450 		ldr	r5, [r4, #180]
 166 0058 01F07F11 		and	r1, r1, #8323199
 167 005c 25EA0101 		bic	r1, r5, r1
 168 0060 0A43     		orrs	r2, r2, r1
 169 0062 C4F8B420 		str	r2, [r4, #180]
 170 0066 0022     		movs	r2, #0
 171 0068 83F85020 		strb	r2, [r3, #80]
 172 006c 30BC     		pop	{r4, r5}
 173 006e 7047     		bx	lr
 174              	.L18:
 175 0070 0220     		movs	r0, #2
 176 0072 7047     		bx	lr
ARM GAS  /tmp/ccIhH5JD.s 			page 4


 178              		.section	.text.HAL_ADCEx_InjectedStart,"ax",%progbits
 179              		.align	1
 180              		.p2align 2,,3
 181              		.global	HAL_ADCEx_InjectedStart
 182              		.syntax unified
 183              		.thumb
 184              		.thumb_func
 185              		.fpu fpv4-sp-d16
 187              	HAL_ADCEx_InjectedStart:
 188              		@ args = 0, pretend = 0, frame = 0
 189              		@ frame_needed = 0, uses_anonymous_args = 0
 190 0000 38B5     		push	{r3, r4, r5, lr}
 191 0002 344A     		ldr	r2, .L47
 192 0004 0368     		ldr	r3, [r0]
 193 0006 9568     		ldr	r5, [r2, #8]
 194 0008 9A68     		ldr	r2, [r3, #8]
 195 000a 1107     		lsls	r1, r2, #28
 196 000c 3AD4     		bmi	.L39
 197 000e DA68     		ldr	r2, [r3, #12]
 198 0010 DB6C     		ldr	r3, [r3, #76]
 199 0012 13F0C00F 		tst	r3, #192
 200 0016 0446     		mov	r4, r0
 201 0018 36D0     		beq	.L45
 202              	.L28:
 203 001a 94F85030 		ldrb	r3, [r4, #80]	@ zero_extendqisi2
 204 001e 012B     		cmp	r3, #1
 205 0020 30D0     		beq	.L39
 206 0022 0123     		movs	r3, #1
 207 0024 84F85030 		strb	r3, [r4, #80]
 208 0028 2046     		mov	r0, r4
 209 002a FFF7FEFF 		bl	ADC_Enable
 210 002e 0028     		cmp	r0, #0
 211 0030 32D1     		bne	.L29
 212 0032 636D     		ldr	r3, [r4, #84]
 213 0034 DA05     		lsls	r2, r3, #23
 214 0036 49BF     		itett	mi
 215 0038 A36D     		ldrmi	r3, [r4, #88]
 216 003a A065     		strpl	r0, [r4, #88]
 217 003c 23F00803 		bicmi	r3, r3, #8
 218 0040 A365     		strmi	r3, [r4, #88]
 219 0042 636D     		ldr	r3, [r4, #84]
 220 0044 2268     		ldr	r2, [r4]
 221 0046 23F44053 		bic	r3, r3, #12288
 222 004a 23F00103 		bic	r3, r3, #1
 223 004e 43F48053 		orr	r3, r3, #4096
 224 0052 6365     		str	r3, [r4, #84]
 225 0054 204B     		ldr	r3, .L47+4
 226 0056 9A42     		cmp	r2, r3
 227 0058 22D0     		beq	.L46
 228 005a 636D     		ldr	r3, [r4, #84]
 229 005c 23F48013 		bic	r3, r3, #1048576
 230 0060 6365     		str	r3, [r4, #84]
 231 0062 6021     		movs	r1, #96
 232 0064 0023     		movs	r3, #0
 233 0066 1160     		str	r1, [r2]
 234 0068 84F85030 		strb	r3, [r4, #80]
 235              	.L34:
ARM GAS  /tmp/ccIhH5JD.s 			page 5


 236 006c D368     		ldr	r3, [r2, #12]
 237 006e 9B01     		lsls	r3, r3, #6
 238 0070 07D4     		bmi	.L40
 239 0072 9368     		ldr	r3, [r2, #8]
 240 0074 23F00043 		bic	r3, r3, #-2147483648
 241 0078 23F03F03 		bic	r3, r3, #63
 242 007c 43F00803 		orr	r3, r3, #8
 243 0080 9360     		str	r3, [r2, #8]
 244              	.L40:
 245 0082 38BD     		pop	{r3, r4, r5, pc}
 246              	.L39:
 247 0084 0220     		movs	r0, #2
 248 0086 38BD     		pop	{r3, r4, r5, pc}
 249              	.L45:
 250 0088 002A     		cmp	r2, #0
 251 008a C6DB     		blt	.L28
 252 008c 436D     		ldr	r3, [r0, #84]
 253 008e 43F02003 		orr	r3, r3, #32
 254 0092 0120     		movs	r0, #1
 255 0094 6365     		str	r3, [r4, #84]
 256 0096 38BD     		pop	{r3, r4, r5, pc}
 257              	.L29:
 258 0098 0023     		movs	r3, #0
 259 009a 84F85030 		strb	r3, [r4, #80]
 260 009e 38BD     		pop	{r3, r4, r5, pc}
 261              	.L46:
 262 00a0 15F01F05 		ands	r5, r5, #31
 263 00a4 0DD0     		beq	.L36
 264 00a6 6023     		movs	r3, #96
 265 00a8 063D     		subs	r5, r5, #6
 266 00aa 1360     		str	r3, [r2]
 267 00ac 012D     		cmp	r5, #1
 268 00ae 4FF00003 		mov	r3, #0
 269 00b2 84F85030 		strb	r3, [r4, #80]
 270 00b6 D9D9     		bls	.L34
 271 00b8 636D     		ldr	r3, [r4, #84]
 272 00ba 43F48013 		orr	r3, r3, #1048576
 273 00be 6365     		str	r3, [r4, #84]
 274 00c0 38BD     		pop	{r3, r4, r5, pc}
 275              	.L36:
 276 00c2 636D     		ldr	r3, [r4, #84]
 277 00c4 23F48013 		bic	r3, r3, #1048576
 278 00c8 6365     		str	r3, [r4, #84]
 279 00ca 6023     		movs	r3, #96
 280 00cc 1360     		str	r3, [r2]
 281 00ce 84F85050 		strb	r5, [r4, #80]
 282 00d2 CBE7     		b	.L34
 283              	.L48:
 284              		.align	2
 285              	.L47:
 286 00d4 00030450 		.word	1342440192
 287 00d8 00010450 		.word	1342439680
 289              		.section	.text.HAL_ADCEx_InjectedStop,"ax",%progbits
 290              		.align	1
 291              		.p2align 2,,3
 292              		.global	HAL_ADCEx_InjectedStop
 293              		.syntax unified
ARM GAS  /tmp/ccIhH5JD.s 			page 6


 294              		.thumb
 295              		.thumb_func
 296              		.fpu fpv4-sp-d16
 298              	HAL_ADCEx_InjectedStop:
 299              		@ args = 0, pretend = 0, frame = 0
 300              		@ frame_needed = 0, uses_anonymous_args = 0
 301 0000 90F85030 		ldrb	r3, [r0, #80]	@ zero_extendqisi2
 302 0004 012B     		cmp	r3, #1
 303 0006 1CD0     		beq	.L53
 304 0008 0123     		movs	r3, #1
 305 000a 10B5     		push	{r4, lr}
 306 000c 0221     		movs	r1, #2
 307 000e 80F85030 		strb	r3, [r0, #80]
 308 0012 0446     		mov	r4, r0
 309 0014 FFF7FEFF 		bl	ADC_ConversionStop
 310 0018 78B9     		cbnz	r0, .L51
 311 001a 2368     		ldr	r3, [r4]
 312 001c 9B68     		ldr	r3, [r3, #8]
 313 001e 5B07     		lsls	r3, r3, #29
 314 0020 11D4     		bmi	.L58
 315 0022 2046     		mov	r0, r4
 316 0024 FFF7FEFF 		bl	ADC_Disable
 317 0028 38B9     		cbnz	r0, .L51
 318 002a 636D     		ldr	r3, [r4, #84]
 319 002c 23F48853 		bic	r3, r3, #4352
 320 0030 23F00103 		bic	r3, r3, #1
 321 0034 43F00103 		orr	r3, r3, #1
 322 0038 6365     		str	r3, [r4, #84]
 323              	.L51:
 324 003a 0023     		movs	r3, #0
 325 003c 84F85030 		strb	r3, [r4, #80]
 326 0040 10BD     		pop	{r4, pc}
 327              	.L53:
 328 0042 0220     		movs	r0, #2
 329 0044 7047     		bx	lr
 330              	.L58:
 331 0046 636D     		ldr	r3, [r4, #84]
 332 0048 23F48053 		bic	r3, r3, #4096
 333 004c 6365     		str	r3, [r4, #84]
 334 004e 0023     		movs	r3, #0
 335 0050 84F85030 		strb	r3, [r4, #80]
 336 0054 10BD     		pop	{r4, pc}
 338 0056 00BF     		.section	.text.HAL_ADCEx_InjectedPollForConversion,"ax",%progbits
 339              		.align	1
 340              		.p2align 2,,3
 341              		.global	HAL_ADCEx_InjectedPollForConversion
 342              		.syntax unified
 343              		.thumb
 344              		.thumb_func
 345              		.fpu fpv4-sp-d16
 347              	HAL_ADCEx_InjectedPollForConversion:
 348              		@ args = 0, pretend = 0, frame = 0
 349              		@ frame_needed = 0, uses_anonymous_args = 0
 350 0000 4269     		ldr	r2, [r0, #20]
 351 0002 3B4B     		ldr	r3, .L102
 352 0004 2DE9F041 		push	{r4, r5, r6, r7, r8, lr}
 353 0008 082A     		cmp	r2, #8
ARM GAS  /tmp/ccIhH5JD.s 			page 7


 354 000a 0546     		mov	r5, r0
 355 000c D3F80880 		ldr	r8, [r3, #8]
 356 0010 0E46     		mov	r6, r1
 357 0012 0CBF     		ite	eq
 358 0014 4024     		moveq	r4, #64
 359 0016 2024     		movne	r4, #32
 360 0018 FFF7FEFF 		bl	HAL_GetTick
 361 001c 2A68     		ldr	r2, [r5]
 362 001e 0746     		mov	r7, r0
 363              	.L86:
 364 0020 731C     		adds	r3, r6, #1
 365 0022 19D1     		bne	.L64
 366              	.L65:
 367 0024 1368     		ldr	r3, [r2]
 368 0026 1C42     		tst	r4, r3
 369 0028 FCD0     		beq	.L65
 370              	.L66:
 371 002a 324B     		ldr	r3, .L102+4
 372 002c D16C     		ldr	r1, [r2, #76]
 373 002e D668     		ldr	r6, [r2, #12]
 374 0030 9A42     		cmp	r2, r3
 375 0032 01F0C001 		and	r1, r1, #192
 376 0036 23D0     		beq	.L96
 377              	.L68:
 378 0038 D368     		ldr	r3, [r2, #12]
 379 003a 686D     		ldr	r0, [r5, #84]
 380 003c 40F40050 		orr	r0, r0, #8192
 381 0040 6865     		str	r0, [r5, #84]
 382 0042 61BB     		cbnz	r1, .L97
 383              	.L71:
 384 0044 1168     		ldr	r1, [r2]
 385 0046 4E06     		lsls	r6, r1, #25
 386 0048 39D4     		bmi	.L98
 387              	.L72:
 388 004a 402C     		cmp	r4, #64
 389 004c 45D0     		beq	.L99
 390 004e 2023     		movs	r3, #32
 391 0050 1360     		str	r3, [r2]
 392 0052 0020     		movs	r0, #0
 393              	.L91:
 394 0054 BDE8F081 		pop	{r4, r5, r6, r7, r8, pc}
 395              	.L64:
 396 0058 1368     		ldr	r3, [r2]
 397 005a 2342     		tst	r3, r4
 398 005c E5D1     		bne	.L66
 399 005e FFF7FEFF 		bl	HAL_GetTick
 400 0062 C01B     		subs	r0, r0, r7
 401 0064 B042     		cmp	r0, r6
 402 0066 2A68     		ldr	r2, [r5]
 403 0068 23D9     		bls	.L100
 404 006a 1368     		ldr	r3, [r2]
 405 006c 2340     		ands	r3, r3, r4
 406 006e D7D1     		bne	.L86
 407              	.L101:
 408 0070 6A6D     		ldr	r2, [r5, #84]
 409 0072 85F85030 		strb	r3, [r5, #80]
 410 0076 42F00402 		orr	r2, r2, #4
ARM GAS  /tmp/ccIhH5JD.s 			page 8


 411 007a 6A65     		str	r2, [r5, #84]
 412 007c 0320     		movs	r0, #3
 413 007e E9E7     		b	.L91
 414              	.L96:
 415 0080 08F01F08 		and	r8, r8, #31
 416 0084 C123     		movs	r3, #193
 417 0086 23FA08F3 		lsr	r3, r3, r8
 418 008a DB07     		lsls	r3, r3, #31
 419 008c D4D4     		bmi	.L68
 420 008e 1A4B     		ldr	r3, .L102+8
 421 0090 DB68     		ldr	r3, [r3, #12]
 422 0092 686D     		ldr	r0, [r5, #84]
 423 0094 40F40050 		orr	r0, r0, #8192
 424 0098 6865     		str	r0, [r5, #84]
 425 009a 0029     		cmp	r1, #0
 426 009c D2D0     		beq	.L71
 427              	.L97:
 428 009e 1749     		ldr	r1, .L102+12
 429 00a0 06F44066 		and	r6, r6, #3072
 430 00a4 1940     		ands	r1, r1, r3
 431 00a6 3143     		orrs	r1, r1, r6
 432 00a8 CFD1     		bne	.L72
 433 00aa 1168     		ldr	r1, [r2]
 434 00ac 4E06     		lsls	r6, r1, #25
 435 00ae CCD5     		bpl	.L72
 436 00b0 05E0     		b	.L98
 437              	.L100:
 438 00b2 002E     		cmp	r6, #0
 439 00b4 B4D1     		bne	.L86
 440 00b6 1368     		ldr	r3, [r2]
 441 00b8 2340     		ands	r3, r3, r4
 442 00ba B1D1     		bne	.L86
 443 00bc D8E7     		b	.L101
 444              	.L98:
 445 00be 9802     		lsls	r0, r3, #10
 446 00c0 C3D4     		bmi	.L72
 447 00c2 696D     		ldr	r1, [r5, #84]
 448 00c4 21F48051 		bic	r1, r1, #4096
 449 00c8 6965     		str	r1, [r5, #84]
 450 00ca 696D     		ldr	r1, [r5, #84]
 451 00cc C905     		lsls	r1, r1, #23
 452 00ce BCD4     		bmi	.L72
 453 00d0 696D     		ldr	r1, [r5, #84]
 454 00d2 41F00101 		orr	r1, r1, #1
 455 00d6 6965     		str	r1, [r5, #84]
 456 00d8 B7E7     		b	.L72
 457              	.L99:
 458 00da 13F48040 		ands	r0, r3, #16384
 459 00de 03D1     		bne	.L77
 460 00e0 6023     		movs	r3, #96
 461 00e2 1360     		str	r3, [r2]
 462 00e4 BDE8F081 		pop	{r4, r5, r6, r7, r8, pc}
 463              	.L77:
 464 00e8 0020     		movs	r0, #0
 465 00ea BDE8F081 		pop	{r4, r5, r6, r7, r8, pc}
 466              	.L103:
 467 00ee 00BF     		.align	2
ARM GAS  /tmp/ccIhH5JD.s 			page 9


 468              	.L102:
 469 00f0 00030450 		.word	1342440192
 470 00f4 00010450 		.word	1342439680
 471 00f8 00000450 		.word	1342439424
 472 00fc 00200002 		.word	33562624
 474              		.section	.text.HAL_ADCEx_InjectedStart_IT,"ax",%progbits
 475              		.align	1
 476              		.p2align 2,,3
 477              		.global	HAL_ADCEx_InjectedStart_IT
 478              		.syntax unified
 479              		.thumb
 480              		.thumb_func
 481              		.fpu fpv4-sp-d16
 483              	HAL_ADCEx_InjectedStart_IT:
 484              		@ args = 0, pretend = 0, frame = 0
 485              		@ frame_needed = 0, uses_anonymous_args = 0
 486 0000 38B5     		push	{r3, r4, r5, lr}
 487 0002 3D4A     		ldr	r2, .L128
 488 0004 0368     		ldr	r3, [r0]
 489 0006 9568     		ldr	r5, [r2, #8]
 490 0008 9A68     		ldr	r2, [r3, #8]
 491 000a 1407     		lsls	r4, r2, #28
 492 000c 55D4     		bmi	.L118
 493 000e DA68     		ldr	r2, [r3, #12]
 494 0010 DB6C     		ldr	r3, [r3, #76]
 495 0012 13F0C00F 		tst	r3, #192
 496 0016 0446     		mov	r4, r0
 497 0018 51D0     		beq	.L125
 498              	.L106:
 499 001a 94F85030 		ldrb	r3, [r4, #80]	@ zero_extendqisi2
 500 001e 012B     		cmp	r3, #1
 501 0020 4BD0     		beq	.L118
 502 0022 0123     		movs	r3, #1
 503 0024 84F85030 		strb	r3, [r4, #80]
 504 0028 2046     		mov	r0, r4
 505 002a FFF7FEFF 		bl	ADC_Enable
 506 002e 0028     		cmp	r0, #0
 507 0030 4DD1     		bne	.L107
 508 0032 636D     		ldr	r3, [r4, #84]
 509 0034 D905     		lsls	r1, r3, #23
 510 0036 49BF     		itett	mi
 511 0038 A36D     		ldrmi	r3, [r4, #88]
 512 003a A065     		strpl	r0, [r4, #88]
 513 003c 23F00803 		bicmi	r3, r3, #8
 514 0040 A365     		strmi	r3, [r4, #88]
 515 0042 626D     		ldr	r2, [r4, #84]
 516 0044 2368     		ldr	r3, [r4]
 517 0046 22F44052 		bic	r2, r2, #12288
 518 004a 22F00102 		bic	r2, r2, #1
 519 004e 42F48052 		orr	r2, r2, #4096
 520 0052 6265     		str	r2, [r4, #84]
 521 0054 294A     		ldr	r2, .L128+4
 522 0056 9342     		cmp	r3, r2
 523 0058 05F01F05 		and	r5, r5, #31
 524 005c 3BD0     		beq	.L110
 525 005e 1946     		mov	r1, r3
 526              	.L115:
ARM GAS  /tmp/ccIhH5JD.s 			page 10


 527 0060 626D     		ldr	r2, [r4, #84]
 528 0062 22F48012 		bic	r2, r2, #1048576
 529 0066 6265     		str	r2, [r4, #84]
 530              	.L116:
 531 0068 6022     		movs	r2, #96
 532 006a 1A60     		str	r2, [r3]
 533 006c 0022     		movs	r2, #0
 534 006e 84F85020 		strb	r2, [r4, #80]
 535 0072 DA68     		ldr	r2, [r3, #12]
 536 0074 9202     		lsls	r2, r2, #10
 537 0076 03D5     		bpl	.L111
 538 0078 5A68     		ldr	r2, [r3, #4]
 539 007a 42F48062 		orr	r2, r2, #1024
 540 007e 5A60     		str	r2, [r3, #4]
 541              	.L111:
 542 0080 6269     		ldr	r2, [r4, #20]
 543 0082 082A     		cmp	r2, #8
 544 0084 5A68     		ldr	r2, [r3, #4]
 545 0086 2FD0     		beq	.L126
 546 0088 22F04002 		bic	r2, r2, #64
 547 008c 5A60     		str	r2, [r3, #4]
 548 008e 5A68     		ldr	r2, [r3, #4]
 549 0090 42F02002 		orr	r2, r2, #32
 550 0094 5A60     		str	r2, [r3, #4]
 551              	.L113:
 552 0096 8B42     		cmp	r3, r1
 553 0098 03D0     		beq	.L114
 554 009a C122     		movs	r2, #193
 555 009c EA40     		lsrs	r2, r2, r5
 556 009e D107     		lsls	r1, r2, #31
 557 00a0 1DD5     		bpl	.L127
 558              	.L114:
 559 00a2 DA68     		ldr	r2, [r3, #12]
 560 00a4 9201     		lsls	r2, r2, #6
 561 00a6 07D4     		bmi	.L120
 562 00a8 9A68     		ldr	r2, [r3, #8]
 563 00aa 22F00042 		bic	r2, r2, #-2147483648
 564 00ae 22F03F02 		bic	r2, r2, #63
 565 00b2 42F00802 		orr	r2, r2, #8
 566 00b6 9A60     		str	r2, [r3, #8]
 567              	.L120:
 568 00b8 38BD     		pop	{r3, r4, r5, pc}
 569              	.L118:
 570 00ba 0220     		movs	r0, #2
 571 00bc 38BD     		pop	{r3, r4, r5, pc}
 572              	.L125:
 573 00be 002A     		cmp	r2, #0
 574 00c0 ABDB     		blt	.L106
 575 00c2 436D     		ldr	r3, [r0, #84]
 576 00c4 43F02003 		orr	r3, r3, #32
 577 00c8 0120     		movs	r0, #1
 578 00ca 6365     		str	r3, [r4, #84]
 579 00cc 38BD     		pop	{r3, r4, r5, pc}
 580              	.L107:
 581 00ce 0023     		movs	r3, #0
 582 00d0 84F85030 		strb	r3, [r4, #80]
 583 00d4 38BD     		pop	{r3, r4, r5, pc}
ARM GAS  /tmp/ccIhH5JD.s 			page 11


 584              	.L110:
 585 00d6 0A49     		ldr	r1, .L128+8
 586 00d8 002D     		cmp	r5, #0
 587 00da C1D0     		beq	.L115
 588 00dc C4E7     		b	.L116
 589              	.L127:
 590 00de 636D     		ldr	r3, [r4, #84]
 591 00e0 43F48013 		orr	r3, r3, #1048576
 592 00e4 6365     		str	r3, [r4, #84]
 593 00e6 38BD     		pop	{r3, r4, r5, pc}
 594              	.L126:
 595 00e8 22F02002 		bic	r2, r2, #32
 596 00ec 5A60     		str	r2, [r3, #4]
 597 00ee 5A68     		ldr	r2, [r3, #4]
 598 00f0 42F04002 		orr	r2, r2, #64
 599 00f4 5A60     		str	r2, [r3, #4]
 600 00f6 CEE7     		b	.L113
 601              	.L129:
 602              		.align	2
 603              	.L128:
 604 00f8 00030450 		.word	1342440192
 605 00fc 00010450 		.word	1342439680
 606 0100 00000450 		.word	1342439424
 608              		.section	.text.HAL_ADCEx_InjectedStop_IT,"ax",%progbits
 609              		.align	1
 610              		.p2align 2,,3
 611              		.global	HAL_ADCEx_InjectedStop_IT
 612              		.syntax unified
 613              		.thumb
 614              		.thumb_func
 615              		.fpu fpv4-sp-d16
 617              	HAL_ADCEx_InjectedStop_IT:
 618              		@ args = 0, pretend = 0, frame = 0
 619              		@ frame_needed = 0, uses_anonymous_args = 0
 620 0000 90F85030 		ldrb	r3, [r0, #80]	@ zero_extendqisi2
 621 0004 012B     		cmp	r3, #1
 622 0006 20D0     		beq	.L134
 623 0008 0123     		movs	r3, #1
 624 000a 10B5     		push	{r4, lr}
 625 000c 0221     		movs	r1, #2
 626 000e 80F85030 		strb	r3, [r0, #80]
 627 0012 0446     		mov	r4, r0
 628 0014 FFF7FEFF 		bl	ADC_ConversionStop
 629 0018 98B9     		cbnz	r0, .L132
 630 001a 2368     		ldr	r3, [r4]
 631 001c 5A68     		ldr	r2, [r3, #4]
 632 001e 22F48C62 		bic	r2, r2, #1120
 633 0022 5A60     		str	r2, [r3, #4]
 634 0024 9B68     		ldr	r3, [r3, #8]
 635 0026 5B07     		lsls	r3, r3, #29
 636 0028 11D4     		bmi	.L139
 637 002a 2046     		mov	r0, r4
 638 002c FFF7FEFF 		bl	ADC_Disable
 639 0030 38B9     		cbnz	r0, .L132
 640 0032 636D     		ldr	r3, [r4, #84]
 641 0034 23F48853 		bic	r3, r3, #4352
 642 0038 23F00103 		bic	r3, r3, #1
ARM GAS  /tmp/ccIhH5JD.s 			page 12


 643 003c 43F00103 		orr	r3, r3, #1
 644 0040 6365     		str	r3, [r4, #84]
 645              	.L132:
 646 0042 0023     		movs	r3, #0
 647 0044 84F85030 		strb	r3, [r4, #80]
 648 0048 10BD     		pop	{r4, pc}
 649              	.L134:
 650 004a 0220     		movs	r0, #2
 651 004c 7047     		bx	lr
 652              	.L139:
 653 004e 636D     		ldr	r3, [r4, #84]
 654 0050 23F48053 		bic	r3, r3, #4096
 655 0054 6365     		str	r3, [r4, #84]
 656 0056 0023     		movs	r3, #0
 657 0058 84F85030 		strb	r3, [r4, #80]
 658 005c 10BD     		pop	{r4, pc}
 660 005e 00BF     		.section	.text.HAL_ADCEx_MultiModeStart_DMA,"ax",%progbits
 661              		.align	1
 662              		.p2align 2,,3
 663              		.global	HAL_ADCEx_MultiModeStart_DMA
 664              		.syntax unified
 665              		.thumb
 666              		.thumb_func
 667              		.fpu fpv4-sp-d16
 669              	HAL_ADCEx_MultiModeStart_DMA:
 670              		@ args = 0, pretend = 0, frame = 104
 671              		@ frame_needed = 0, uses_anonymous_args = 0
 672 0000 2DE9F041 		push	{r4, r5, r6, r7, r8, lr}
 673 0004 0668     		ldr	r6, [r0]
 674 0006 B568     		ldr	r5, [r6, #8]
 675 0008 15F00405 		ands	r5, r5, #4
 676 000c 9AB0     		sub	sp, sp, #104
 677 000e 18D1     		bne	.L146
 678 0010 90F85030 		ldrb	r3, [r0, #80]	@ zero_extendqisi2
 679 0014 012B     		cmp	r3, #1
 680 0016 0446     		mov	r4, r0
 681 0018 13D0     		beq	.L146
 682 001a 2B4B     		ldr	r3, .L150
 683 001c 1695     		str	r5, [sp, #88]
 684 001e 4FF0010C 		mov	ip, #1
 685 0022 9E42     		cmp	r6, r3
 686 0024 1795     		str	r5, [sp, #92]
 687 0026 80F850C0 		strb	ip, [r0, #80]
 688 002a 0FD0     		beq	.L142
 689 002c 436D     		ldr	r3, [r0, #84]
 690 002e 80F85050 		strb	r5, [r0, #80]
 691 0032 43F02003 		orr	r3, r3, #32
 692 0036 6546     		mov	r5, ip
 693 0038 4365     		str	r3, [r0, #84]
 694 003a 2846     		mov	r0, r5
 695 003c 1AB0     		add	sp, sp, #104
 696              		@ sp needed
 697 003e BDE8F081 		pop	{r4, r5, r6, r7, r8, pc}
 698              	.L146:
 699 0042 0225     		movs	r5, #2
 700              	.L147:
 701 0044 2846     		mov	r0, r5
ARM GAS  /tmp/ccIhH5JD.s 			page 13


 702 0046 1AB0     		add	sp, sp, #104
 703              		@ sp needed
 704 0048 BDE8F081 		pop	{r4, r5, r6, r7, r8, pc}
 705              	.L142:
 706 004c 1F4B     		ldr	r3, .L150+4
 707 004e 0193     		str	r3, [sp, #4]
 708 0050 0F46     		mov	r7, r1
 709 0052 9046     		mov	r8, r2
 710 0054 FFF7FEFF 		bl	ADC_Enable
 711 0058 0546     		mov	r5, r0
 712 005a 30B1     		cbz	r0, .L149
 713              	.L143:
 714 005c 0023     		movs	r3, #0
 715 005e 2846     		mov	r0, r5
 716 0060 84F85030 		strb	r3, [r4, #80]
 717 0064 1AB0     		add	sp, sp, #104
 718              		@ sp needed
 719 0066 BDE8F081 		pop	{r4, r5, r6, r7, r8, pc}
 720              	.L149:
 721 006a 01A8     		add	r0, sp, #4
 722 006c FFF7FEFF 		bl	ADC_Enable
 723 0070 0546     		mov	r5, r0
 724 0072 0028     		cmp	r0, #0
 725 0074 F2D1     		bne	.L143
 726 0076 626D     		ldr	r2, [r4, #84]
 727 0078 E06C     		ldr	r0, [r4, #76]
 728 007a 154E     		ldr	r6, .L150+8
 729 007c 2168     		ldr	r1, [r4]
 730 007e 22F47062 		bic	r2, r2, #3840
 731 0082 22F00102 		bic	r2, r2, #1
 732 0086 42F48072 		orr	r2, r2, #256
 733 008a 6265     		str	r2, [r4, #84]
 734 008c A565     		str	r5, [r4, #88]
 735 008e C662     		str	r6, [r0, #44]
 736 0090 104E     		ldr	r6, .L150+12
 737 0092 0663     		str	r6, [r0, #48]
 738 0094 104E     		ldr	r6, .L150+16
 739 0096 4663     		str	r6, [r0, #52]
 740 0098 1C26     		movs	r6, #28
 741 009a 0E60     		str	r6, [r1]
 742 009c 84F85050 		strb	r5, [r4, #80]
 743 00a0 4D68     		ldr	r5, [r1, #4]
 744 00a2 45F01005 		orr	r5, r5, #16
 745 00a6 4D60     		str	r5, [r1, #4]
 746 00a8 4346     		mov	r3, r8
 747 00aa 3A46     		mov	r2, r7
 748 00ac 0B49     		ldr	r1, .L150+20
 749 00ae FFF7FEFF 		bl	HAL_DMA_Start_IT
 750 00b2 2268     		ldr	r2, [r4]
 751 00b4 9368     		ldr	r3, [r2, #8]
 752 00b6 23F00043 		bic	r3, r3, #-2147483648
 753 00ba 23F03F03 		bic	r3, r3, #63
 754 00be 43F00403 		orr	r3, r3, #4
 755 00c2 0546     		mov	r5, r0
 756 00c4 9360     		str	r3, [r2, #8]
 757 00c6 BDE7     		b	.L147
 758              	.L151:
ARM GAS  /tmp/ccIhH5JD.s 			page 14


 759              		.align	2
 760              	.L150:
 761 00c8 00000450 		.word	1342439424
 762 00cc 00010450 		.word	1342439680
 763 00d0 00000000 		.word	ADC_DMAConvCplt
 764 00d4 00000000 		.word	ADC_DMAHalfConvCplt
 765 00d8 00000000 		.word	ADC_DMAError
 766 00dc 0C030450 		.word	1342440204
 768              		.section	.text.HAL_ADCEx_MultiModeStop_DMA,"ax",%progbits
 769              		.align	1
 770              		.p2align 2,,3
 771              		.global	HAL_ADCEx_MultiModeStop_DMA
 772              		.syntax unified
 773              		.thumb
 774              		.thumb_func
 775              		.fpu fpv4-sp-d16
 777              	HAL_ADCEx_MultiModeStop_DMA:
 778              		@ args = 0, pretend = 0, frame = 104
 779              		@ frame_needed = 0, uses_anonymous_args = 0
 780 0000 70B5     		push	{r4, r5, r6, lr}
 781 0002 90F85030 		ldrb	r3, [r0, #80]	@ zero_extendqisi2
 782 0006 012B     		cmp	r3, #1
 783 0008 9AB0     		sub	sp, sp, #104
 784 000a 5CD0     		beq	.L169
 785 000c 0126     		movs	r6, #1
 786 000e 80F85060 		strb	r6, [r0, #80]
 787 0012 0321     		movs	r1, #3
 788 0014 0446     		mov	r4, r0
 789 0016 FFF7FEFF 		bl	ADC_ConversionStop
 790 001a 0546     		mov	r5, r0
 791 001c 50BB     		cbnz	r0, .L154
 792 001e 3D4B     		ldr	r3, .L182
 793 0020 2268     		ldr	r2, [r4]
 794 0022 1690     		str	r0, [sp, #88]
 795 0024 9A42     		cmp	r2, r3
 796 0026 1790     		str	r0, [sp, #92]
 797 0028 2AD0     		beq	.L155
 798 002a 636D     		ldr	r3, [r4, #84]
 799 002c 84F85000 		strb	r0, [r4, #80]
 800 0030 3546     		mov	r5, r6
 801 0032 43F02003 		orr	r3, r3, #32
 802 0036 2846     		mov	r0, r5
 803 0038 6365     		str	r3, [r4, #84]
 804 003a 1AB0     		add	sp, sp, #104
 805              		@ sp needed
 806 003c 70BD     		pop	{r4, r5, r6, pc}
 807              	.L180:
 808 003e E06C     		ldr	r0, [r4, #76]
 809 0040 FFF7FEFF 		bl	HAL_DMA_Abort
 810 0044 0128     		cmp	r0, #1
 811 0046 0546     		mov	r5, r0
 812 0048 54D0     		beq	.L179
 813 004a 2268     		ldr	r2, [r4]
 814 004c 5368     		ldr	r3, [r2, #4]
 815 004e 23F01003 		bic	r3, r3, #16
 816 0052 5360     		str	r3, [r2, #4]
 817 0054 0028     		cmp	r0, #0
ARM GAS  /tmp/ccIhH5JD.s 			page 15


 818 0056 56D1     		bne	.L164
 819 0058 01A8     		add	r0, sp, #4
 820 005a FFF7FEFF 		bl	ADC_Disable
 821 005e 2046     		mov	r0, r4
 822 0060 FFF7FEFF 		bl	ADC_Disable
 823              	.L165:
 824 0064 636D     		ldr	r3, [r4, #84]
 825 0066 23F48853 		bic	r3, r3, #4352
 826 006a 23F00103 		bic	r3, r3, #1
 827 006e 43F00103 		orr	r3, r3, #1
 828 0072 6365     		str	r3, [r4, #84]
 829              	.L154:
 830 0074 0023     		movs	r3, #0
 831 0076 2846     		mov	r0, r5
 832 0078 84F85030 		strb	r3, [r4, #80]
 833 007c 1AB0     		add	sp, sp, #104
 834              		@ sp needed
 835 007e 70BD     		pop	{r4, r5, r6, pc}
 836              	.L155:
 837 0080 254B     		ldr	r3, .L182+4
 838 0082 0193     		str	r3, [sp, #4]
 839 0084 FFF7FEFF 		bl	HAL_GetTick
 840 0088 019B     		ldr	r3, [sp, #4]
 841 008a 9B68     		ldr	r3, [r3, #8]
 842 008c 5B07     		lsls	r3, r3, #29
 843 008e 0546     		mov	r5, r0
 844 0090 1DD4     		bmi	.L167
 845 0092 2368     		ldr	r3, [r4]
 846 0094 9B68     		ldr	r3, [r3, #8]
 847              	.L178:
 848 0096 5A07     		lsls	r2, r3, #29
 849 0098 D1D5     		bpl	.L180
 850              	.L172:
 851 009a FFF7FEFF 		bl	HAL_GetTick
 852 009e 431B     		subs	r3, r0, r5
 853 00a0 052B     		cmp	r3, #5
 854 00a2 1BD9     		bls	.L156
 855              	.L181:
 856 00a4 019B     		ldr	r3, [sp, #4]
 857 00a6 2268     		ldr	r2, [r4]
 858 00a8 9968     		ldr	r1, [r3, #8]
 859 00aa 4807     		lsls	r0, r1, #29
 860 00ac 1ED5     		bpl	.L157
 861 00ae 9368     		ldr	r3, [r2, #8]
 862              	.L158:
 863 00b0 636D     		ldr	r3, [r4, #84]
 864 00b2 0125     		movs	r5, #1
 865 00b4 0022     		movs	r2, #0
 866 00b6 43F01003 		orr	r3, r3, #16
 867 00ba 2846     		mov	r0, r5
 868 00bc 6365     		str	r3, [r4, #84]
 869 00be 84F85020 		strb	r2, [r4, #80]
 870 00c2 1AB0     		add	sp, sp, #104
 871              		@ sp needed
 872 00c4 70BD     		pop	{r4, r5, r6, pc}
 873              	.L169:
 874 00c6 0225     		movs	r5, #2
ARM GAS  /tmp/ccIhH5JD.s 			page 16


 875 00c8 2846     		mov	r0, r5
 876 00ca 1AB0     		add	sp, sp, #104
 877              		@ sp needed
 878 00cc 70BD     		pop	{r4, r5, r6, pc}
 879              	.L167:
 880 00ce 2368     		ldr	r3, [r4]
 881 00d0 9B68     		ldr	r3, [r3, #8]
 882 00d2 FFF7FEFF 		bl	HAL_GetTick
 883 00d6 431B     		subs	r3, r0, r5
 884 00d8 052B     		cmp	r3, #5
 885 00da E3D8     		bhi	.L181
 886              	.L156:
 887 00dc 2268     		ldr	r2, [r4]
 888 00de 019B     		ldr	r3, [sp, #4]
 889              	.L159:
 890 00e0 9B68     		ldr	r3, [r3, #8]
 891 00e2 13F0040F 		tst	r3, #4
 892 00e6 9368     		ldr	r3, [r2, #8]
 893 00e8 D7D1     		bne	.L172
 894 00ea D4E7     		b	.L178
 895              	.L157:
 896 00ec 9168     		ldr	r1, [r2, #8]
 897 00ee 4907     		lsls	r1, r1, #29
 898 00f0 F6D5     		bpl	.L159
 899 00f2 DDE7     		b	.L158
 900              	.L179:
 901 00f4 636D     		ldr	r3, [r4, #84]
 902 00f6 2268     		ldr	r2, [r4]
 903 00f8 43F04003 		orr	r3, r3, #64
 904 00fc 6365     		str	r3, [r4, #84]
 905 00fe 5368     		ldr	r3, [r2, #4]
 906 0100 23F01003 		bic	r3, r3, #16
 907 0104 5360     		str	r3, [r2, #4]
 908              	.L164:
 909 0106 2046     		mov	r0, r4
 910 0108 FFF7FEFF 		bl	ADC_Disable
 911 010c 01A8     		add	r0, sp, #4
 912 010e FFF7FEFF 		bl	ADC_Disable
 913 0112 A7E7     		b	.L165
 914              	.L183:
 915              		.align	2
 916              	.L182:
 917 0114 00000450 		.word	1342439424
 918 0118 00010450 		.word	1342439680
 920              		.section	.text.HAL_ADCEx_MultiModeGetValue,"ax",%progbits
 921              		.align	1
 922              		.p2align 2,,3
 923              		.global	HAL_ADCEx_MultiModeGetValue
 924              		.syntax unified
 925              		.thumb
 926              		.thumb_func
 927              		.fpu fpv4-sp-d16
 929              	HAL_ADCEx_MultiModeGetValue:
 930              		@ args = 0, pretend = 0, frame = 0
 931              		@ frame_needed = 0, uses_anonymous_args = 0
 932              		@ link register save eliminated.
 933 0000 014B     		ldr	r3, .L185
ARM GAS  /tmp/ccIhH5JD.s 			page 17


 934 0002 D868     		ldr	r0, [r3, #12]
 935 0004 7047     		bx	lr
 936              	.L186:
 937 0006 00BF     		.align	2
 938              	.L185:
 939 0008 00030450 		.word	1342440192
 941              		.section	.text.HAL_ADCEx_InjectedGetValue,"ax",%progbits
 942              		.align	1
 943              		.p2align 2,,3
 944              		.global	HAL_ADCEx_InjectedGetValue
 945              		.syntax unified
 946              		.thumb
 947              		.thumb_func
 948              		.fpu fpv4-sp-d16
 950              	HAL_ADCEx_InjectedGetValue:
 951              		@ args = 0, pretend = 0, frame = 0
 952              		@ frame_needed = 0, uses_anonymous_args = 0
 953              		@ link register save eliminated.
 954 0000 B1F5057F 		cmp	r1, #532
 955 0004 0368     		ldr	r3, [r0]
 956 0006 09D0     		beq	.L188
 957 0008 40F21A32 		movw	r2, #794
 958 000c 9142     		cmp	r1, r2
 959 000e 0BD0     		beq	.L189
 960 0010 B1F5877F 		cmp	r1, #270
 961 0014 05D0     		beq	.L194
 962 0016 D3F88000 		ldr	r0, [r3, #128]
 963 001a 7047     		bx	lr
 964              	.L188:
 965 001c D3F88800 		ldr	r0, [r3, #136]
 966 0020 7047     		bx	lr
 967              	.L194:
 968 0022 D3F88400 		ldr	r0, [r3, #132]
 969 0026 7047     		bx	lr
 970              	.L189:
 971 0028 D3F88C00 		ldr	r0, [r3, #140]
 972 002c 7047     		bx	lr
 974 002e 00BF     		.section	.text.HAL_ADCEx_InjectedConvCpltCallback,"ax",%progbits
 975              		.align	1
 976              		.p2align 2,,3
 977              		.weak	HAL_ADCEx_InjectedConvCpltCallback
 978              		.syntax unified
 979              		.thumb
 980              		.thumb_func
 981              		.fpu fpv4-sp-d16
 983              	HAL_ADCEx_InjectedConvCpltCallback:
 984              		@ args = 0, pretend = 0, frame = 0
 985              		@ frame_needed = 0, uses_anonymous_args = 0
 986              		@ link register save eliminated.
 987 0000 7047     		bx	lr
 989 0002 00BF     		.section	.text.HAL_ADCEx_InjectedQueueOverflowCallback,"ax",%progbits
 990              		.align	1
 991              		.p2align 2,,3
 992              		.weak	HAL_ADCEx_InjectedQueueOverflowCallback
 993              		.syntax unified
 994              		.thumb
 995              		.thumb_func
ARM GAS  /tmp/ccIhH5JD.s 			page 18


 996              		.fpu fpv4-sp-d16
 998              	HAL_ADCEx_InjectedQueueOverflowCallback:
 999              		@ args = 0, pretend = 0, frame = 0
 1000              		@ frame_needed = 0, uses_anonymous_args = 0
 1001              		@ link register save eliminated.
 1002 0000 7047     		bx	lr
 1004 0002 00BF     		.section	.text.HAL_ADCEx_LevelOutOfWindow2Callback,"ax",%progbits
 1005              		.align	1
 1006              		.p2align 2,,3
 1007              		.weak	HAL_ADCEx_LevelOutOfWindow2Callback
 1008              		.syntax unified
 1009              		.thumb
 1010              		.thumb_func
 1011              		.fpu fpv4-sp-d16
 1013              	HAL_ADCEx_LevelOutOfWindow2Callback:
 1014              		@ args = 0, pretend = 0, frame = 0
 1015              		@ frame_needed = 0, uses_anonymous_args = 0
 1016              		@ link register save eliminated.
 1017 0000 7047     		bx	lr
 1019 0002 00BF     		.section	.text.HAL_ADCEx_LevelOutOfWindow3Callback,"ax",%progbits
 1020              		.align	1
 1021              		.p2align 2,,3
 1022              		.weak	HAL_ADCEx_LevelOutOfWindow3Callback
 1023              		.syntax unified
 1024              		.thumb
 1025              		.thumb_func
 1026              		.fpu fpv4-sp-d16
 1028              	HAL_ADCEx_LevelOutOfWindow3Callback:
 1029              		@ args = 0, pretend = 0, frame = 0
 1030              		@ frame_needed = 0, uses_anonymous_args = 0
 1031              		@ link register save eliminated.
 1032 0000 7047     		bx	lr
 1034 0002 00BF     		.section	.text.HAL_ADCEx_EndOfSamplingCallback,"ax",%progbits
 1035              		.align	1
 1036              		.p2align 2,,3
 1037              		.weak	HAL_ADCEx_EndOfSamplingCallback
 1038              		.syntax unified
 1039              		.thumb
 1040              		.thumb_func
 1041              		.fpu fpv4-sp-d16
 1043              	HAL_ADCEx_EndOfSamplingCallback:
 1044              		@ args = 0, pretend = 0, frame = 0
 1045              		@ frame_needed = 0, uses_anonymous_args = 0
 1046              		@ link register save eliminated.
 1047 0000 7047     		bx	lr
 1049 0002 00BF     		.section	.text.HAL_ADCEx_RegularStop,"ax",%progbits
 1050              		.align	1
 1051              		.p2align 2,,3
 1052              		.global	HAL_ADCEx_RegularStop
 1053              		.syntax unified
 1054              		.thumb
 1055              		.thumb_func
 1056              		.fpu fpv4-sp-d16
 1058              	HAL_ADCEx_RegularStop:
 1059              		@ args = 0, pretend = 0, frame = 0
 1060              		@ frame_needed = 0, uses_anonymous_args = 0
 1061 0000 90F85030 		ldrb	r3, [r0, #80]	@ zero_extendqisi2
ARM GAS  /tmp/ccIhH5JD.s 			page 19


 1062 0004 012B     		cmp	r3, #1
 1063 0006 1FD0     		beq	.L204
 1064 0008 0121     		movs	r1, #1
 1065 000a 10B5     		push	{r4, lr}
 1066 000c 80F85010 		strb	r1, [r0, #80]
 1067 0010 0446     		mov	r4, r0
 1068 0012 FFF7FEFF 		bl	ADC_ConversionStop
 1069 0016 98B9     		cbnz	r0, .L202
 1070 0018 636D     		ldr	r3, [r4, #84]
 1071 001a 2268     		ldr	r2, [r4]
 1072 001c 23F48073 		bic	r3, r3, #256
 1073 0020 6365     		str	r3, [r4, #84]
 1074 0022 9368     		ldr	r3, [r2, #8]
 1075 0024 1B07     		lsls	r3, r3, #28
 1076 0026 11D4     		bmi	.L209
 1077 0028 2046     		mov	r0, r4
 1078 002a FFF7FEFF 		bl	ADC_Disable
 1079 002e 38B9     		cbnz	r0, .L202
 1080 0030 636D     		ldr	r3, [r4, #84]
 1081 0032 23F48053 		bic	r3, r3, #4096
 1082 0036 23F00103 		bic	r3, r3, #1
 1083 003a 43F00103 		orr	r3, r3, #1
 1084 003e 6365     		str	r3, [r4, #84]
 1085              	.L202:
 1086 0040 0023     		movs	r3, #0
 1087 0042 84F85030 		strb	r3, [r4, #80]
 1088 0046 10BD     		pop	{r4, pc}
 1089              	.L204:
 1090 0048 0220     		movs	r0, #2
 1091 004a 7047     		bx	lr
 1092              	.L209:
 1093 004c 636D     		ldr	r3, [r4, #84]
 1094 004e 43F48053 		orr	r3, r3, #4096
 1095 0052 6365     		str	r3, [r4, #84]
 1096 0054 0023     		movs	r3, #0
 1097 0056 84F85030 		strb	r3, [r4, #80]
 1098 005a 10BD     		pop	{r4, pc}
 1100              		.section	.text.HAL_ADCEx_RegularStop_IT,"ax",%progbits
 1101              		.align	1
 1102              		.p2align 2,,3
 1103              		.global	HAL_ADCEx_RegularStop_IT
 1104              		.syntax unified
 1105              		.thumb
 1106              		.thumb_func
 1107              		.fpu fpv4-sp-d16
 1109              	HAL_ADCEx_RegularStop_IT:
 1110              		@ args = 0, pretend = 0, frame = 0
 1111              		@ frame_needed = 0, uses_anonymous_args = 0
 1112 0000 90F85030 		ldrb	r3, [r0, #80]	@ zero_extendqisi2
 1113 0004 012B     		cmp	r3, #1
 1114 0006 23D0     		beq	.L214
 1115 0008 0121     		movs	r1, #1
 1116 000a 10B5     		push	{r4, lr}
 1117 000c 80F85010 		strb	r1, [r0, #80]
 1118 0010 0446     		mov	r4, r0
 1119 0012 FFF7FEFF 		bl	ADC_ConversionStop
 1120 0016 B8B9     		cbnz	r0, .L212
ARM GAS  /tmp/ccIhH5JD.s 			page 20


 1121 0018 626D     		ldr	r2, [r4, #84]
 1122 001a 2368     		ldr	r3, [r4]
 1123 001c 22F48072 		bic	r2, r2, #256
 1124 0020 6265     		str	r2, [r4, #84]
 1125 0022 5A68     		ldr	r2, [r3, #4]
 1126 0024 22F01C02 		bic	r2, r2, #28
 1127 0028 5A60     		str	r2, [r3, #4]
 1128 002a 9B68     		ldr	r3, [r3, #8]
 1129 002c 1B07     		lsls	r3, r3, #28
 1130 002e 11D4     		bmi	.L219
 1131 0030 2046     		mov	r0, r4
 1132 0032 FFF7FEFF 		bl	ADC_Disable
 1133 0036 38B9     		cbnz	r0, .L212
 1134 0038 636D     		ldr	r3, [r4, #84]
 1135 003a 23F48053 		bic	r3, r3, #4096
 1136 003e 23F00103 		bic	r3, r3, #1
 1137 0042 43F00103 		orr	r3, r3, #1
 1138 0046 6365     		str	r3, [r4, #84]
 1139              	.L212:
 1140 0048 0023     		movs	r3, #0
 1141 004a 84F85030 		strb	r3, [r4, #80]
 1142 004e 10BD     		pop	{r4, pc}
 1143              	.L214:
 1144 0050 0220     		movs	r0, #2
 1145 0052 7047     		bx	lr
 1146              	.L219:
 1147 0054 636D     		ldr	r3, [r4, #84]
 1148 0056 43F48053 		orr	r3, r3, #4096
 1149 005a 6365     		str	r3, [r4, #84]
 1150 005c 0023     		movs	r3, #0
 1151 005e 84F85030 		strb	r3, [r4, #80]
 1152 0062 10BD     		pop	{r4, pc}
 1154              		.section	.text.HAL_ADCEx_RegularStop_DMA,"ax",%progbits
 1155              		.align	1
 1156              		.p2align 2,,3
 1157              		.global	HAL_ADCEx_RegularStop_DMA
 1158              		.syntax unified
 1159              		.thumb
 1160              		.thumb_func
 1161              		.fpu fpv4-sp-d16
 1163              	HAL_ADCEx_RegularStop_DMA:
 1164              		@ args = 0, pretend = 0, frame = 0
 1165              		@ frame_needed = 0, uses_anonymous_args = 0
 1166 0000 38B5     		push	{r3, r4, r5, lr}
 1167 0002 90F85030 		ldrb	r3, [r0, #80]	@ zero_extendqisi2
 1168 0006 012B     		cmp	r3, #1
 1169 0008 31D0     		beq	.L228
 1170 000a 0121     		movs	r1, #1
 1171 000c 80F85010 		strb	r1, [r0, #80]
 1172 0010 0446     		mov	r4, r0
 1173 0012 FFF7FEFF 		bl	ADC_ConversionStop
 1174 0016 0546     		mov	r5, r0
 1175 0018 20B1     		cbz	r0, .L232
 1176              	.L222:
 1177 001a 0023     		movs	r3, #0
 1178 001c 84F85030 		strb	r3, [r4, #80]
 1179 0020 2846     		mov	r0, r5
ARM GAS  /tmp/ccIhH5JD.s 			page 21


 1180 0022 38BD     		pop	{r3, r4, r5, pc}
 1181              	.L232:
 1182 0024 636D     		ldr	r3, [r4, #84]
 1183 0026 2268     		ldr	r2, [r4]
 1184 0028 E06C     		ldr	r0, [r4, #76]
 1185 002a 23F48073 		bic	r3, r3, #256
 1186 002e 6365     		str	r3, [r4, #84]
 1187 0030 D368     		ldr	r3, [r2, #12]
 1188 0032 23F00103 		bic	r3, r3, #1
 1189 0036 D360     		str	r3, [r2, #12]
 1190 0038 FFF7FEFF 		bl	HAL_DMA_Abort
 1191 003c 0546     		mov	r5, r0
 1192 003e C8B9     		cbnz	r0, .L233
 1193 0040 2368     		ldr	r3, [r4]
 1194 0042 5A68     		ldr	r2, [r3, #4]
 1195 0044 22F01002 		bic	r2, r2, #16
 1196 0048 5A60     		str	r2, [r3, #4]
 1197 004a 9B68     		ldr	r3, [r3, #8]
 1198 004c 1B07     		lsls	r3, r3, #28
 1199 004e 21D4     		bmi	.L226
 1200 0050 2046     		mov	r0, r4
 1201 0052 FFF7FEFF 		bl	ADC_Disable
 1202 0056 0546     		mov	r5, r0
 1203 0058 0028     		cmp	r0, #0
 1204 005a DED1     		bne	.L222
 1205 005c 636D     		ldr	r3, [r4, #84]
 1206 005e 23F48053 		bic	r3, r3, #4096
 1207 0062 23F00103 		bic	r3, r3, #1
 1208 0066 43F00103 		orr	r3, r3, #1
 1209 006a 6365     		str	r3, [r4, #84]
 1210 006c D5E7     		b	.L222
 1211              	.L228:
 1212 006e 0225     		movs	r5, #2
 1213 0070 2846     		mov	r0, r5
 1214 0072 38BD     		pop	{r3, r4, r5, pc}
 1215              	.L233:
 1216 0074 626D     		ldr	r2, [r4, #84]
 1217 0076 2368     		ldr	r3, [r4]
 1218 0078 42F04002 		orr	r2, r2, #64
 1219 007c 6265     		str	r2, [r4, #84]
 1220 007e 5A68     		ldr	r2, [r3, #4]
 1221 0080 22F01002 		bic	r2, r2, #16
 1222 0084 5A60     		str	r2, [r3, #4]
 1223 0086 9B68     		ldr	r3, [r3, #8]
 1224 0088 1A07     		lsls	r2, r3, #28
 1225 008a 03D4     		bmi	.L226
 1226 008c 2046     		mov	r0, r4
 1227 008e FFF7FEFF 		bl	ADC_Disable
 1228 0092 C2E7     		b	.L222
 1229              	.L226:
 1230 0094 636D     		ldr	r3, [r4, #84]
 1231 0096 43F48053 		orr	r3, r3, #4096
 1232 009a 6365     		str	r3, [r4, #84]
 1233 009c BDE7     		b	.L222
 1235 009e 00BF     		.section	.text.HAL_ADCEx_RegularMultiModeStop_DMA,"ax",%progbits
 1236              		.align	1
 1237              		.p2align 2,,3
ARM GAS  /tmp/ccIhH5JD.s 			page 22


 1238              		.global	HAL_ADCEx_RegularMultiModeStop_DMA
 1239              		.syntax unified
 1240              		.thumb
 1241              		.thumb_func
 1242              		.fpu fpv4-sp-d16
 1244              	HAL_ADCEx_RegularMultiModeStop_DMA:
 1245              		@ args = 0, pretend = 0, frame = 104
 1246              		@ frame_needed = 0, uses_anonymous_args = 0
 1247 0000 70B5     		push	{r4, r5, r6, lr}
 1248 0002 90F85030 		ldrb	r3, [r0, #80]	@ zero_extendqisi2
 1249 0006 012B     		cmp	r3, #1
 1250 0008 9AB0     		sub	sp, sp, #104
 1251 000a 54D0     		beq	.L252
 1252 000c 0126     		movs	r6, #1
 1253 000e 80F85060 		strb	r6, [r0, #80]
 1254 0012 3146     		mov	r1, r6
 1255 0014 0446     		mov	r4, r0
 1256 0016 FFF7FEFF 		bl	ADC_ConversionStop
 1257 001a 0546     		mov	r5, r0
 1258 001c 10BB     		cbnz	r0, .L236
 1259 001e 636D     		ldr	r3, [r4, #84]
 1260 0020 404A     		ldr	r2, .L269
 1261 0022 23F48073 		bic	r3, r3, #256
 1262 0026 6365     		str	r3, [r4, #84]
 1263 0028 2368     		ldr	r3, [r4]
 1264 002a 1690     		str	r0, [sp, #88]
 1265 002c 9342     		cmp	r3, r2
 1266 002e 1790     		str	r0, [sp, #92]
 1267 0030 1ED0     		beq	.L237
 1268 0032 636D     		ldr	r3, [r4, #84]
 1269 0034 84F85000 		strb	r0, [r4, #80]
 1270 0038 3546     		mov	r5, r6
 1271 003a 43F02003 		orr	r3, r3, #32
 1272 003e 2846     		mov	r0, r5
 1273 0040 6365     		str	r3, [r4, #84]
 1274 0042 1AB0     		add	sp, sp, #104
 1275              		@ sp needed
 1276 0044 70BD     		pop	{r4, r5, r6, pc}
 1277              	.L267:
 1278 0046 E06C     		ldr	r0, [r4, #76]
 1279 0048 FFF7FEFF 		bl	HAL_DMA_Abort
 1280 004c 0546     		mov	r5, r0
 1281 004e 0028     		cmp	r0, #0
 1282 0050 48D0     		beq	.L245
 1283 0052 636D     		ldr	r3, [r4, #84]
 1284 0054 2268     		ldr	r2, [r4]
 1285 0056 43F04003 		orr	r3, r3, #64
 1286 005a 6365     		str	r3, [r4, #84]
 1287 005c 5368     		ldr	r3, [r2, #4]
 1288 005e 23F01003 		bic	r3, r3, #16
 1289 0062 5360     		str	r3, [r2, #4]
 1290              	.L236:
 1291 0064 0023     		movs	r3, #0
 1292 0066 2846     		mov	r0, r5
 1293 0068 84F85030 		strb	r3, [r4, #80]
 1294 006c 1AB0     		add	sp, sp, #104
 1295              		@ sp needed
ARM GAS  /tmp/ccIhH5JD.s 			page 23


 1296 006e 70BD     		pop	{r4, r5, r6, pc}
 1297              	.L237:
 1298 0070 2D4B     		ldr	r3, .L269+4
 1299 0072 0193     		str	r3, [sp, #4]
 1300 0074 FFF7FEFF 		bl	HAL_GetTick
 1301 0078 019B     		ldr	r3, [sp, #4]
 1302 007a 9B68     		ldr	r3, [r3, #8]
 1303 007c 5B07     		lsls	r3, r3, #29
 1304 007e 0546     		mov	r5, r0
 1305 0080 1DD4     		bmi	.L250
 1306 0082 2368     		ldr	r3, [r4]
 1307 0084 9B68     		ldr	r3, [r3, #8]
 1308              	.L266:
 1309 0086 5A07     		lsls	r2, r3, #29
 1310 0088 DDD5     		bpl	.L267
 1311              	.L258:
 1312 008a FFF7FEFF 		bl	HAL_GetTick
 1313 008e 431B     		subs	r3, r0, r5
 1314 0090 052B     		cmp	r3, #5
 1315 0092 1BD9     		bls	.L238
 1316              	.L268:
 1317 0094 019B     		ldr	r3, [sp, #4]
 1318 0096 2268     		ldr	r2, [r4]
 1319 0098 9968     		ldr	r1, [r3, #8]
 1320 009a 4907     		lsls	r1, r1, #29
 1321 009c 1ED5     		bpl	.L239
 1322 009e 9368     		ldr	r3, [r2, #8]
 1323              	.L240:
 1324 00a0 636D     		ldr	r3, [r4, #84]
 1325 00a2 0125     		movs	r5, #1
 1326 00a4 0022     		movs	r2, #0
 1327 00a6 43F01003 		orr	r3, r3, #16
 1328 00aa 2846     		mov	r0, r5
 1329 00ac 6365     		str	r3, [r4, #84]
 1330 00ae 84F85020 		strb	r2, [r4, #80]
 1331 00b2 1AB0     		add	sp, sp, #104
 1332              		@ sp needed
 1333 00b4 70BD     		pop	{r4, r5, r6, pc}
 1334              	.L252:
 1335 00b6 0225     		movs	r5, #2
 1336 00b8 2846     		mov	r0, r5
 1337 00ba 1AB0     		add	sp, sp, #104
 1338              		@ sp needed
 1339 00bc 70BD     		pop	{r4, r5, r6, pc}
 1340              	.L250:
 1341 00be 2368     		ldr	r3, [r4]
 1342 00c0 9B68     		ldr	r3, [r3, #8]
 1343 00c2 FFF7FEFF 		bl	HAL_GetTick
 1344 00c6 431B     		subs	r3, r0, r5
 1345 00c8 052B     		cmp	r3, #5
 1346 00ca E3D8     		bhi	.L268
 1347              	.L238:
 1348 00cc 2268     		ldr	r2, [r4]
 1349 00ce 019B     		ldr	r3, [sp, #4]
 1350              	.L241:
 1351 00d0 9B68     		ldr	r3, [r3, #8]
 1352 00d2 13F0040F 		tst	r3, #4
ARM GAS  /tmp/ccIhH5JD.s 			page 24


 1353 00d6 9368     		ldr	r3, [r2, #8]
 1354 00d8 D7D1     		bne	.L258
 1355 00da D4E7     		b	.L266
 1356              	.L239:
 1357 00dc 9168     		ldr	r1, [r2, #8]
 1358 00de 4E07     		lsls	r6, r1, #29
 1359 00e0 F6D5     		bpl	.L241
 1360 00e2 DDE7     		b	.L240
 1361              	.L245:
 1362 00e4 2368     		ldr	r3, [r4]
 1363 00e6 5A68     		ldr	r2, [r3, #4]
 1364 00e8 22F01002 		bic	r2, r2, #16
 1365 00ec 5A60     		str	r2, [r3, #4]
 1366 00ee 9B68     		ldr	r3, [r3, #8]
 1367 00f0 1907     		lsls	r1, r3, #28
 1368 00f2 0DD4     		bmi	.L247
 1369 00f4 2046     		mov	r0, r4
 1370 00f6 FFF7FEFF 		bl	ADC_Disable
 1371 00fa 38B9     		cbnz	r0, .L253
 1372 00fc 019B     		ldr	r3, [sp, #4]
 1373 00fe 9B68     		ldr	r3, [r3, #8]
 1374 0100 1807     		lsls	r0, r3, #28
 1375 0102 05D4     		bmi	.L247
 1376 0104 01A8     		add	r0, sp, #4
 1377 0106 FFF7FEFF 		bl	ADC_Disable
 1378 010a 08B1     		cbz	r0, .L247
 1379              	.L253:
 1380 010c 0546     		mov	r5, r0
 1381 010e A9E7     		b	.L236
 1382              	.L247:
 1383 0110 636D     		ldr	r3, [r4, #84]
 1384 0112 23F48053 		bic	r3, r3, #4096
 1385 0116 23F00103 		bic	r3, r3, #1
 1386 011a 43F00103 		orr	r3, r3, #1
 1387 011e 6365     		str	r3, [r4, #84]
 1388 0120 A0E7     		b	.L236
 1389              	.L270:
 1390 0122 00BF     		.align	2
 1391              	.L269:
 1392 0124 00000450 		.word	1342439424
 1393 0128 00010450 		.word	1342439680
 1395              		.section	.text.HAL_ADCEx_InjectedConfigChannel,"ax",%progbits
 1396              		.align	1
 1397              		.p2align 2,,3
 1398              		.global	HAL_ADCEx_InjectedConfigChannel
 1399              		.syntax unified
 1400              		.thumb
 1401              		.thumb_func
 1402              		.fpu fpv4-sp-d16
 1404              	HAL_ADCEx_InjectedConfigChannel:
 1405              		@ args = 0, pretend = 0, frame = 8
 1406              		@ frame_needed = 0, uses_anonymous_args = 0
 1407 0000 F0B5     		push	{r4, r5, r6, r7, lr}
 1408 0002 90F85030 		ldrb	r3, [r0, #80]	@ zero_extendqisi2
 1409 0006 0246     		mov	r2, r0
 1410 0008 83B0     		sub	sp, sp, #12
 1411 000a 0020     		movs	r0, #0
ARM GAS  /tmp/ccIhH5JD.s 			page 25


 1412 000c 012B     		cmp	r3, #1
 1413 000e 1569     		ldr	r5, [r2, #16]
 1414 0010 0190     		str	r0, [sp, #4]
 1415 0012 00F09481 		beq	.L338
 1416 0016 0123     		movs	r3, #1
 1417 0018 82F85030 		strb	r3, [r2, #80]
 1418 001c D1E90040 		ldrd	r4, r0, [r1]
 1419 0020 1368     		ldr	r3, [r2]
 1420 0022 002D     		cmp	r5, #0
 1421 0024 64D0     		beq	.L273
 1422 0026 8D69     		ldr	r5, [r1, #24]
 1423 0028 012D     		cmp	r5, #1
 1424 002a 61D0     		beq	.L273
 1425 002c 176E     		ldr	r7, [r2, #96]
 1426 002e 00F01F00 		and	r0, r0, #31
 1427 0032 C4F38466 		ubfx	r6, r4, #26, #5
 1428 0036 8640     		lsls	r6, r6, r0
 1429 0038 002F     		cmp	r7, #0
 1430 003a 40F0C580 		bne	.L278
 1431 003e 086A     		ldr	r0, [r1, #32]
 1432 0040 013D     		subs	r5, r5, #1
 1433 0042 0028     		cmp	r0, #0
 1434 0044 00F0E081 		beq	.L339
 1435 0048 4F6A     		ldr	r7, [r1, #36]
 1436 004a 00F03C00 		and	r0, r0, #60
 1437 004e 2843     		orrs	r0, r0, r5
 1438 0050 3843     		orrs	r0, r0, r7
 1439              	.L279:
 1440 0052 3043     		orrs	r0, r0, r6
 1441 0054 C2E91705 		strd	r0, r5, [r2, #92]
 1442              	.L276:
 1443 0058 9868     		ldr	r0, [r3, #8]
 1444 005a 0707     		lsls	r7, r0, #28
 1445 005c 0DD4     		bmi	.L281
 1446              	.L389:
 1447 005e 887F     		ldrb	r0, [r1, #30]	@ zero_extendqisi2
 1448 0060 4D7F     		ldrb	r5, [r1, #29]	@ zero_extendqisi2
 1449 0062 4005     		lsls	r0, r0, #21
 1450 0064 002D     		cmp	r5, #0
 1451 0066 40F0A480 		bne	.L282
 1452 006a DD68     		ldr	r5, [r3, #12]
 1453 006c 0E7F     		ldrb	r6, [r1, #28]	@ zero_extendqisi2
 1454 006e 25F44015 		bic	r5, r5, #3145728
 1455 0072 40EA0650 		orr	r0, r0, r6, lsl #20
 1456 0076 2843     		orrs	r0, r0, r5
 1457 0078 D860     		str	r0, [r3, #12]
 1458              	.L281:
 1459 007a 9868     		ldr	r0, [r3, #8]
 1460 007c 10F00400 		ands	r0, r0, #4
 1461 0080 4CD0     		beq	.L384
 1462              	.L283:
 1463 0082 9868     		ldr	r0, [r3, #8]
 1464 0084 0020     		movs	r0, #0
 1465              	.L293:
 1466 0086 9D68     		ldr	r5, [r3, #8]
 1467 0088 EE07     		lsls	r6, r5, #31
 1468 008a 14D4     		bmi	.L311
ARM GAS  /tmp/ccIhH5JD.s 			page 26


 1469 008c CF68     		ldr	r7, [r1, #12]
 1470 008e AD4D     		ldr	r5, .L394
 1471 0090 D3F8B060 		ldr	r6, [r3, #176]
 1472 0094 07F0180C 		and	ip, r7, #24
 1473 0098 25FA0CF5 		lsr	r5, r5, ip
 1474 009c C4F3120E 		ubfx	lr, r4, #0, #19
 1475 00a0 2540     		ands	r5, r5, r4
 1476 00a2 26EA0E0C 		bic	ip, r6, lr
 1477 00a6 45EA0C05 		orr	r5, r5, ip
 1478 00aa C3F8B050 		str	r5, [r3, #176]
 1479 00ae A64D     		ldr	r5, .L394+4
 1480 00b0 AF42     		cmp	r7, r5
 1481 00b2 00F0BB80 		beq	.L385
 1482              	.L311:
 1483 00b6 A549     		ldr	r1, .L394+8
 1484 00b8 0C42     		tst	r4, r1
 1485 00ba 14D0     		beq	.L327
 1486 00bc A44D     		ldr	r5, .L394+12
 1487 00be A54E     		ldr	r6, .L394+16
 1488 00c0 A968     		ldr	r1, [r5, #8]
 1489 00c2 B442     		cmp	r4, r6
 1490 00c4 01F0E077 		and	r7, r1, #29360128
 1491 00c8 00F00F81 		beq	.L386
 1492 00cc A24E     		ldr	r6, .L394+20
 1493 00ce B442     		cmp	r4, r6
 1494 00d0 00F08C80 		beq	.L387
 1495 00d4 A14E     		ldr	r6, .L394+24
 1496 00d6 B442     		cmp	r4, r6
 1497 00d8 05D1     		bne	.L327
 1498 00da 4902     		lsls	r1, r1, #9
 1499 00dc 03D4     		bmi	.L327
 1500 00de A049     		ldr	r1, .L394+28
 1501 00e0 8B42     		cmp	r3, r1
 1502 00e2 00F0D981 		beq	.L388
 1503              	.L327:
 1504 00e6 0023     		movs	r3, #0
 1505 00e8 82F85030 		strb	r3, [r2, #80]
 1506 00ec 03B0     		add	sp, sp, #12
 1507              		@ sp needed
 1508 00ee F0BD     		pop	{r4, r5, r6, r7, pc}
 1509              	.L273:
 1510 00f0 0828     		cmp	r0, #8
 1511 00f2 B1D1     		bne	.L276
 1512 00f4 086A     		ldr	r0, [r1, #32]
 1513 00f6 A50C     		lsrs	r5, r4, #18
 1514 00f8 05F4F855 		and	r5, r5, #7936
 1515 00fc 20B1     		cbz	r0, .L277
 1516 00fe 4E6A     		ldr	r6, [r1, #36]
 1517 0100 00F03C00 		and	r0, r0, #60
 1518 0104 3043     		orrs	r0, r0, r6
 1519 0106 0543     		orrs	r5, r5, r0
 1520              	.L277:
 1521 0108 D86C     		ldr	r0, [r3, #76]
 1522 010a 964E     		ldr	r6, .L394+32
 1523 010c 3040     		ands	r0, r0, r6
 1524 010e 2843     		orrs	r0, r0, r5
 1525 0110 D864     		str	r0, [r3, #76]
ARM GAS  /tmp/ccIhH5JD.s 			page 27


 1526 0112 9868     		ldr	r0, [r3, #8]
 1527 0114 D565     		str	r5, [r2, #92]
 1528 0116 0707     		lsls	r7, r0, #28
 1529 0118 AFD4     		bmi	.L281
 1530 011a A0E7     		b	.L389
 1531              	.L384:
 1532 011c 9D68     		ldr	r5, [r3, #8]
 1533 011e 15F00805 		ands	r5, r5, #8
 1534 0122 B0D1     		bne	.L293
 1535 0124 0E6A     		ldr	r6, [r1, #32]
 1536 0126 487F     		ldrb	r0, [r1, #29]	@ zero_extendqisi2
 1537 0128 002E     		cmp	r6, #0
 1538 012a 73D1     		bne	.L390
 1539              	.L285:
 1540 012c 0128     		cmp	r0, #1
 1541 012e D868     		ldr	r0, [r3, #12]
 1542 0130 0CBF     		ite	eq
 1543 0132 40F00070 		orreq	r0, r0, #33554432
 1544 0136 20F00070 		bicne	r0, r0, #33554432
 1545 013a D860     		str	r0, [r3, #12]
 1546 013c 0020     		movs	r0, #0
 1547              	.L288:
 1548 013e 91F82850 		ldrb	r5, [r1, #40]	@ zero_extendqisi2
 1549 0142 012D     		cmp	r5, #1
 1550 0144 00F05581 		beq	.L391
 1551 0148 1D69     		ldr	r5, [r3, #16]
 1552 014a 25F00205 		bic	r5, r5, #2
 1553 014e 1D61     		str	r5, [r3, #16]
 1554              	.L291:
 1555 0150 E50D     		lsrs	r5, r4, #23
 1556 0152 05F00405 		and	r5, r5, #4
 1557 0156 03F11406 		add	r6, r3, #20
 1558 015a C4F3045E 		ubfx	lr, r4, #20, #5
 1559 015e 8F68     		ldr	r7, [r1, #8]
 1560 0160 7459     		ldr	r4, [r6, r5]
 1561 0162 4FF0070C 		mov	ip, #7
 1562 0166 0CFA0EFC 		lsl	ip, ip, lr
 1563 016a 07FA0EF7 		lsl	r7, r7, lr
 1564 016e 24EA0C04 		bic	r4, r4, ip
 1565 0172 3C43     		orrs	r4, r4, r7
 1566 0174 7451     		str	r4, [r6, r5]
 1567 0176 D1E90467 		ldrd	r6, r7, [r1, #16]
 1568 017a 042E     		cmp	r6, #4
 1569 017c DC68     		ldr	r4, [r3, #12]
 1570 017e 03F16005 		add	r5, r3, #96
 1571 0182 00F0F780 		beq	.L292
 1572 0186 C4F3C104 		ubfx	r4, r4, #3, #2
 1573 018a 6400     		lsls	r4, r4, #1
 1574 018c 55F826E0 		ldr	lr, [r5, r6, lsl #2]
 1575 0190 DFF8DCC1 		ldr	ip, .L394+44
 1576 0194 A740     		lsls	r7, r7, r4
 1577 0196 0C68     		ldr	r4, [r1]
 1578 0198 0EEA0C0C 		and	ip, lr, ip
 1579 019c 04F0F844 		and	r4, r4, #2080374784
 1580 01a0 44EA0C04 		orr	r4, r4, ip
 1581 01a4 3C43     		orrs	r4, r4, r7
 1582 01a6 44F00044 		orr	r4, r4, #-2147483648
ARM GAS  /tmp/ccIhH5JD.s 			page 28


 1583 01aa 45F82640 		str	r4, [r5, r6, lsl #2]
 1584 01ae 0C68     		ldr	r4, [r1]
 1585 01b0 69E7     		b	.L293
 1586              	.L282:
 1587 01b2 DD68     		ldr	r5, [r3, #12]
 1588 01b4 25F44015 		bic	r5, r5, #3145728
 1589 01b8 2843     		orrs	r0, r0, r5
 1590 01ba D860     		str	r0, [r3, #12]
 1591 01bc 9868     		ldr	r0, [r3, #8]
 1592 01be 10F00400 		ands	r0, r0, #4
 1593 01c2 7FF45EAF 		bne	.L283
 1594 01c6 A9E7     		b	.L384
 1595              	.L278:
 1596 01c8 D56D     		ldr	r5, [r2, #92]
 1597 01ca 013F     		subs	r7, r7, #1
 1598 01cc 3543     		orrs	r5, r5, r6
 1599 01ce 1766     		str	r7, [r2, #96]
 1600 01d0 D565     		str	r5, [r2, #92]
 1601 01d2 002F     		cmp	r7, #0
 1602 01d4 7FF440AF 		bne	.L276
 1603 01d8 D86C     		ldr	r0, [r3, #76]
 1604 01da 624E     		ldr	r6, .L394+32
 1605 01dc 3040     		ands	r0, r0, r6
 1606 01de 2843     		orrs	r0, r0, r5
 1607 01e0 D864     		str	r0, [r3, #76]
 1608 01e2 9868     		ldr	r0, [r3, #8]
 1609 01e4 0707     		lsls	r7, r0, #28
 1610 01e6 3FF548AF 		bmi	.L281
 1611 01ea 38E7     		b	.L389
 1612              	.L387:
 1613 01ec CC01     		lsls	r4, r1, #7
 1614 01ee 3FF57AAF 		bmi	.L327
 1615 01f2 5B49     		ldr	r1, .L394+28
 1616 01f4 8B42     		cmp	r3, r1
 1617 01f6 04D0     		beq	.L333
 1618 01f8 01F50071 		add	r1, r1, #512
 1619 01fc 8B42     		cmp	r3, r1
 1620 01fe 7FF472AF 		bne	.L327
 1621              	.L333:
 1622 0202 5349     		ldr	r1, .L394+12
 1623 0204 8B68     		ldr	r3, [r1, #8]
 1624 0206 23F0E073 		bic	r3, r3, #29360128
 1625 020a 3B43     		orrs	r3, r3, r7
 1626 020c 43F08073 		orr	r3, r3, #16777216
 1627 0210 8B60     		str	r3, [r1, #8]
 1628 0212 68E7     		b	.L327
 1629              	.L390:
 1630 0214 4E6A     		ldr	r6, [r1, #36]
 1631 0216 002E     		cmp	r6, #0
 1632 0218 88D0     		beq	.L285
 1633 021a 0128     		cmp	r0, #1
 1634 021c 00F03781 		beq	.L392
 1635 0220 2846     		mov	r0, r5
 1636 0222 DD68     		ldr	r5, [r3, #12]
 1637 0224 25F00075 		bic	r5, r5, #33554432
 1638 0228 DD60     		str	r5, [r3, #12]
 1639 022a 88E7     		b	.L288
ARM GAS  /tmp/ccIhH5JD.s 			page 29


 1640              	.L385:
 1641 022c BEF1000F 		cmp	lr, #0
 1642 0230 13D1     		bne	.L312
 1643 0232 A40E     		lsrs	r4, r4, #26
 1644 0234 0134     		adds	r4, r4, #1
 1645 0236 04F01F06 		and	r6, r4, #31
 1646 023a 0125     		movs	r5, #1
 1647 023c A406     		lsls	r4, r4, #26
 1648 023e 04F0F844 		and	r4, r4, #2080374784
 1649 0242 B540     		lsls	r5, r5, r6
 1650 0244 092E     		cmp	r6, #9
 1651 0246 45EA0405 		orr	r5, r5, r4
 1652 024a 06EB4604 		add	r4, r6, r6, lsl #1
 1653 024e 34D9     		bls	.L383
 1654 0250 1E3C     		subs	r4, r4, #30
 1655 0252 2405     		lsls	r4, r4, #20
 1656 0254 44F00074 		orr	r4, r4, #33554432
 1657 0258 30E0     		b	.L322
 1658              	.L312:
 1659              		.syntax unified
 1660              	@ 1055 "Drivers/CMSIS/Include/cmsis_gcc.h" 1
 1661 025a 94FAA4F5 		rbit r5, r4
 1662              	@ 0 "" 2
 1663              		.thumb
 1664              		.syntax unified
 1665 025e 3DB1     		cbz	r5, .L315
 1666 0260 B5FA85F5 		clz	r5, r5
 1667 0264 0135     		adds	r5, r5, #1
 1668 0266 05F01F05 		and	r5, r5, #31
 1669 026a 092D     		cmp	r5, #9
 1670 026c 00F2E680 		bhi	.L379
 1671              	.L315:
 1672              		.syntax unified
 1673              	@ 1055 "Drivers/CMSIS/Include/cmsis_gcc.h" 1
 1674 0270 94FAA4F5 		rbit r5, r4
 1675              	@ 0 "" 2
 1676              		.thumb
 1677              		.syntax unified
 1678 0274 002D     		cmp	r5, #0
 1679 0276 00F05081 		beq	.L340
 1680 027a B5FA85F5 		clz	r5, r5
 1681 027e 0135     		adds	r5, r5, #1
 1682 0280 AD06     		lsls	r5, r5, #26
 1683 0282 05F0F845 		and	r5, r5, #2080374784
 1684              	.L318:
 1685              		.syntax unified
 1686              	@ 1055 "Drivers/CMSIS/Include/cmsis_gcc.h" 1
 1687 0286 94FAA4F6 		rbit r6, r4
 1688              	@ 0 "" 2
 1689              		.thumb
 1690              		.syntax unified
 1691 028a 002E     		cmp	r6, #0
 1692 028c 00F04381 		beq	.L341
 1693 0290 B6FA86F6 		clz	r6, r6
 1694 0294 0136     		adds	r6, r6, #1
 1695 0296 06F01F06 		and	r6, r6, #31
 1696 029a 0127     		movs	r7, #1
ARM GAS  /tmp/ccIhH5JD.s 			page 30


 1697 029c 07FA06F6 		lsl	r6, r7, r6
 1698              	.L319:
 1699 02a0 3543     		orrs	r5, r5, r6
 1700              		.syntax unified
 1701              	@ 1055 "Drivers/CMSIS/Include/cmsis_gcc.h" 1
 1702 02a2 94FAA4F4 		rbit r4, r4
 1703              	@ 0 "" 2
 1704              		.thumb
 1705              		.syntax unified
 1706 02a6 002C     		cmp	r4, #0
 1707 02a8 00F03A81 		beq	.L342
 1708 02ac B4FA84F4 		clz	r4, r4
 1709 02b0 0134     		adds	r4, r4, #1
 1710 02b2 04F01F04 		and	r4, r4, #31
 1711 02b6 04EB4404 		add	r4, r4, r4, lsl #1
 1712              	.L383:
 1713 02ba 2405     		lsls	r4, r4, #20
 1714              	.L322:
 1715 02bc 2C43     		orrs	r4, r4, r5
 1716 02be E60D     		lsrs	r6, r4, #23
 1717 02c0 8D68     		ldr	r5, [r1, #8]
 1718 02c2 06F00406 		and	r6, r6, #4
 1719 02c6 03F11407 		add	r7, r3, #20
 1720 02ca C4F30454 		ubfx	r4, r4, #20, #5
 1721 02ce 05FA04FC 		lsl	ip, r5, r4
 1722 02d2 4FF0070E 		mov	lr, #7
 1723 02d6 BD59     		ldr	r5, [r7, r6]
 1724 02d8 0EFA04F4 		lsl	r4, lr, r4
 1725 02dc 25EA0404 		bic	r4, r5, r4
 1726 02e0 44EA0C04 		orr	r4, r4, ip
 1727 02e4 BC51     		str	r4, [r7, r6]
 1728 02e6 0C68     		ldr	r4, [r1]
 1729 02e8 E5E6     		b	.L311
 1730              	.L386:
 1731 02ea 0D02     		lsls	r5, r1, #8
 1732 02ec 3FF5FBAE 		bmi	.L327
 1733 02f0 1B49     		ldr	r1, .L394+28
 1734 02f2 8B42     		cmp	r3, r1
 1735 02f4 04D0     		beq	.L330
 1736 02f6 01F50071 		add	r1, r1, #512
 1737 02fa 8B42     		cmp	r3, r1
 1738 02fc 7FF4F3AE 		bne	.L327
 1739              	.L330:
 1740 0300 1349     		ldr	r1, .L394+12
 1741 0302 194C     		ldr	r4, .L394+36
 1742 0304 8B68     		ldr	r3, [r1, #8]
 1743 0306 23F0E073 		bic	r3, r3, #29360128
 1744 030a 3B43     		orrs	r3, r3, r7
 1745 030c 43F40003 		orr	r3, r3, #8388608
 1746 0310 8B60     		str	r3, [r1, #8]
 1747 0312 2368     		ldr	r3, [r4]
 1748 0314 1549     		ldr	r1, .L394+40
 1749 0316 9B09     		lsrs	r3, r3, #6
 1750 0318 A1FB0313 		umull	r1, r3, r1, r3
 1751 031c 9B09     		lsrs	r3, r3, #6
 1752 031e 03EB4303 		add	r3, r3, r3, lsl #1
 1753 0322 9B00     		lsls	r3, r3, #2
ARM GAS  /tmp/ccIhH5JD.s 			page 31


 1754 0324 1833     		adds	r3, r3, #24
 1755 0326 0193     		str	r3, [sp, #4]
 1756 0328 019B     		ldr	r3, [sp, #4]
 1757 032a 002B     		cmp	r3, #0
 1758 032c 3FF4DBAE 		beq	.L327
 1759              	.L331:
 1760 0330 019B     		ldr	r3, [sp, #4]
 1761 0332 013B     		subs	r3, r3, #1
 1762 0334 0193     		str	r3, [sp, #4]
 1763 0336 019B     		ldr	r3, [sp, #4]
 1764 0338 002B     		cmp	r3, #0
 1765 033a F9D1     		bne	.L331
 1766 033c D3E6     		b	.L327
 1767              	.L338:
 1768 033e 0220     		movs	r0, #2
 1769 0340 03B0     		add	sp, sp, #12
 1770              		@ sp needed
 1771 0342 F0BD     		pop	{r4, r5, r6, r7, pc}
 1772              	.L395:
 1773              		.align	2
 1774              	.L394:
 1775 0344 FFFF0700 		.word	524287
 1776 0348 00007F40 		.word	1082064896
 1777 034c 00000880 		.word	-2146959360
 1778 0350 00030450 		.word	1342440192
 1779 0354 000052C7 		.word	-950927360
 1780 0358 000084CB 		.word	-880541696
 1781 035c 01000080 		.word	-2147483647
 1782 0360 00000450 		.word	1342439424
 1783 0364 00200882 		.word	-2113396736
 1784 0368 00000000 		.word	SystemCoreClock
 1785 036c 632D3E05 		.word	87960931
 1786 0370 00F0FF03 		.word	67104768
 1787              	.L292:
 1788 0374 1C6E     		ldr	r4, [r3, #96]
 1789 0376 0C68     		ldr	r4, [r1]
 1790 0378 1F6E     		ldr	r7, [r3, #96]
 1791 037a C4F31206 		ubfx	r6, r4, #0, #19
 1792 037e C7F38467 		ubfx	r7, r7, #26, #5
 1793 0382 002E     		cmp	r6, #0
 1794 0384 42D0     		beq	.L393
 1795              		.syntax unified
 1796              	@ 1055 "Drivers/CMSIS/Include/cmsis_gcc.h" 1
 1797 0386 94FAA4F6 		rbit r6, r4
 1798              	@ 0 "" 2
 1799              		.thumb
 1800              		.syntax unified
 1801 038a 26B1     		cbz	r6, .L297
 1802 038c B6FA86F6 		clz	r6, r6
 1803 0390 B742     		cmp	r7, r6
 1804 0392 00F09C80 		beq	.L295
 1805              	.L297:
 1806 0396 5E6E     		ldr	r6, [r3, #100]
 1807 0398 5F6E     		ldr	r7, [r3, #100]
 1808 039a C7F38467 		ubfx	r7, r7, #26, #5
 1809              	.L298:
 1810              		.syntax unified
ARM GAS  /tmp/ccIhH5JD.s 			page 32


 1811              	@ 1055 "Drivers/CMSIS/Include/cmsis_gcc.h" 1
 1812 039e 94FAA4F6 		rbit r6, r4
 1813              	@ 0 "" 2
 1814              		.thumb
 1815              		.syntax unified
 1816 03a2 26B1     		cbz	r6, .L302
 1817 03a4 B6FA86F6 		clz	r6, r6
 1818 03a8 B742     		cmp	r7, r6
 1819 03aa 00F0A180 		beq	.L303
 1820              	.L302:
 1821 03ae AE68     		ldr	r6, [r5, #8]
 1822 03b0 AF68     		ldr	r7, [r5, #8]
 1823 03b2 05F1080C 		add	ip, r5, #8
 1824 03b6 C7F38467 		ubfx	r7, r7, #26, #5
 1825              	.L301:
 1826              		.syntax unified
 1827              	@ 1055 "Drivers/CMSIS/Include/cmsis_gcc.h" 1
 1828 03ba 94FAA4F6 		rbit r6, r4
 1829              	@ 0 "" 2
 1830              		.thumb
 1831              		.syntax unified
 1832 03be 1EB1     		cbz	r6, .L306
 1833 03c0 B6FA86F6 		clz	r6, r6
 1834 03c4 B742     		cmp	r7, r6
 1835 03c6 6FD0     		beq	.L304
 1836              	.L306:
 1837 03c8 EE68     		ldr	r6, [r5, #12]
 1838 03ca EF68     		ldr	r7, [r5, #12]
 1839 03cc 0C35     		adds	r5, r5, #12
 1840 03ce C7F38467 		ubfx	r7, r7, #26, #5
 1841              	.L307:
 1842              		.syntax unified
 1843              	@ 1055 "Drivers/CMSIS/Include/cmsis_gcc.h" 1
 1844 03d2 94FAA4F6 		rbit r6, r4
 1845              	@ 0 "" 2
 1846              		.thumb
 1847              		.syntax unified
 1848 03d6 002E     		cmp	r6, #0
 1849 03d8 3FF455AE 		beq	.L293
 1850 03dc B6FA86F6 		clz	r6, r6
 1851              	.L308:
 1852 03e0 BE42     		cmp	r6, r7
 1853 03e2 7FF450AE 		bne	.L293
 1854 03e6 2C68     		ldr	r4, [r5]
 1855 03e8 24F00044 		bic	r4, r4, #-2147483648
 1856 03ec 2C60     		str	r4, [r5]
 1857 03ee 0C68     		ldr	r4, [r1]
 1858 03f0 49E6     		b	.L293
 1859              	.L391:
 1860 03f2 D1E90B57 		ldrd	r5, r7, [r1, #44]
 1861 03f6 1E69     		ldr	r6, [r3, #16]
 1862 03f8 3D43     		orrs	r5, r5, r7
 1863 03fa 26F4FF76 		bic	r6, r6, #510
 1864 03fe 3543     		orrs	r5, r5, r6
 1865 0400 45F00205 		orr	r5, r5, #2
 1866 0404 1D61     		str	r5, [r3, #16]
 1867 0406 A3E6     		b	.L291
ARM GAS  /tmp/ccIhH5JD.s 			page 33


 1868              	.L339:
 1869 0408 2846     		mov	r0, r5
 1870 040a 22E6     		b	.L279
 1871              	.L393:
 1872 040c C4F38466 		ubfx	r6, r4, #26, #5
 1873 0410 B742     		cmp	r7, r6
 1874 0412 5CD0     		beq	.L295
 1875 0414 5F6E     		ldr	r7, [r3, #100]
 1876 0416 5F6E     		ldr	r7, [r3, #100]
 1877 0418 C7F38467 		ubfx	r7, r7, #26, #5
 1878              	.L337:
 1879 041c B742     		cmp	r7, r6
 1880 041e 67D0     		beq	.L303
 1881 0420 AF68     		ldr	r7, [r5, #8]
 1882 0422 AF68     		ldr	r7, [r5, #8]
 1883 0424 05F1080C 		add	ip, r5, #8
 1884 0428 C7F38467 		ubfx	r7, r7, #26, #5
 1885              	.L336:
 1886 042c B742     		cmp	r7, r6
 1887 042e 3BD0     		beq	.L304
 1888 0430 EF68     		ldr	r7, [r5, #12]
 1889 0432 EF68     		ldr	r7, [r5, #12]
 1890 0434 0C35     		adds	r5, r5, #12
 1891 0436 C7F38467 		ubfx	r7, r7, #26, #5
 1892 043a D1E7     		b	.L308
 1893              	.L379:
 1894              		.syntax unified
 1895              	@ 1055 "Drivers/CMSIS/Include/cmsis_gcc.h" 1
 1896 043c 94FAA4F5 		rbit r5, r4
 1897              	@ 0 "" 2
 1898              		.thumb
 1899              		.syntax unified
 1900 0440 002D     		cmp	r5, #0
 1901 0442 74D0     		beq	.L343
 1902 0444 B5FA85F5 		clz	r5, r5
 1903 0448 0135     		adds	r5, r5, #1
 1904 044a AD06     		lsls	r5, r5, #26
 1905 044c 05F0F845 		and	r5, r5, #2080374784
 1906              	.L323:
 1907              		.syntax unified
 1908              	@ 1055 "Drivers/CMSIS/Include/cmsis_gcc.h" 1
 1909 0450 94FAA4F6 		rbit r6, r4
 1910              	@ 0 "" 2
 1911              		.thumb
 1912              		.syntax unified
 1913 0454 002E     		cmp	r6, #0
 1914 0456 68D0     		beq	.L344
 1915 0458 B6FA86F6 		clz	r6, r6
 1916 045c 0136     		adds	r6, r6, #1
 1917 045e 06F01F06 		and	r6, r6, #31
 1918 0462 0127     		movs	r7, #1
 1919 0464 07FA06F6 		lsl	r6, r7, r6
 1920              	.L324:
 1921 0468 3543     		orrs	r5, r5, r6
 1922              		.syntax unified
 1923              	@ 1055 "Drivers/CMSIS/Include/cmsis_gcc.h" 1
 1924 046a 94FAA4F4 		rbit r4, r4
ARM GAS  /tmp/ccIhH5JD.s 			page 34


 1925              	@ 0 "" 2
 1926              		.thumb
 1927              		.syntax unified
 1928 046e 002C     		cmp	r4, #0
 1929 0470 59D0     		beq	.L345
 1930 0472 B4FA84F4 		clz	r4, r4
 1931 0476 661C     		adds	r6, r4, #1
 1932 0478 06F01F06 		and	r6, r6, #31
 1933 047c 0324     		movs	r4, #3
 1934 047e 6FF01D07 		mvn	r7, #29
 1935 0482 14FB0674 		smlabb	r4, r4, r6, r7
 1936 0486 2405     		lsls	r4, r4, #20
 1937 0488 44F00074 		orr	r4, r4, #33554432
 1938 048c 16E7     		b	.L322
 1939              	.L392:
 1940 048e 556D     		ldr	r5, [r2, #84]
 1941 0490 45F02005 		orr	r5, r5, #32
 1942 0494 5565     		str	r5, [r2, #84]
 1943 0496 52E6     		b	.L288
 1944              	.L388:
 1945 0498 AB68     		ldr	r3, [r5, #8]
 1946 049a 23F0E073 		bic	r3, r3, #29360128
 1947 049e 3B43     		orrs	r3, r3, r7
 1948 04a0 43F48003 		orr	r3, r3, #4194304
 1949 04a4 AB60     		str	r3, [r5, #8]
 1950 04a6 1EE6     		b	.L327
 1951              	.L304:
 1952 04a8 DCF80040 		ldr	r4, [ip]
 1953 04ac 24F00044 		bic	r4, r4, #-2147483648
 1954 04b0 CCF80040 		str	r4, [ip]
 1955 04b4 EC68     		ldr	r4, [r5, #12]
 1956 04b6 0C68     		ldr	r4, [r1]
 1957 04b8 EF68     		ldr	r7, [r5, #12]
 1958 04ba C4F31206 		ubfx	r6, r4, #0, #19
 1959 04be 0C35     		adds	r5, r5, #12
 1960 04c0 C7F38467 		ubfx	r7, r7, #26, #5
 1961 04c4 002E     		cmp	r6, #0
 1962 04c6 84D1     		bne	.L307
 1963 04c8 C4F38466 		ubfx	r6, r4, #26, #5
 1964 04cc 88E7     		b	.L308
 1965              	.L295:
 1966 04ce 1C6E     		ldr	r4, [r3, #96]
 1967 04d0 24F00044 		bic	r4, r4, #-2147483648
 1968 04d4 1C66     		str	r4, [r3, #96]
 1969 04d6 5C6E     		ldr	r4, [r3, #100]
 1970 04d8 0C68     		ldr	r4, [r1]
 1971 04da 5F6E     		ldr	r7, [r3, #100]
 1972 04dc C4F31206 		ubfx	r6, r4, #0, #19
 1973 04e0 C7F38467 		ubfx	r7, r7, #26, #5
 1974 04e4 002E     		cmp	r6, #0
 1975 04e6 7FF45AAF 		bne	.L298
 1976 04ea C4F38466 		ubfx	r6, r4, #26, #5
 1977 04ee 95E7     		b	.L337
 1978              	.L303:
 1979 04f0 5C6E     		ldr	r4, [r3, #100]
 1980 04f2 24F00044 		bic	r4, r4, #-2147483648
 1981 04f6 5C66     		str	r4, [r3, #100]
ARM GAS  /tmp/ccIhH5JD.s 			page 35


 1982 04f8 AC68     		ldr	r4, [r5, #8]
 1983 04fa 0C68     		ldr	r4, [r1]
 1984 04fc AF68     		ldr	r7, [r5, #8]
 1985 04fe C4F31206 		ubfx	r6, r4, #0, #19
 1986 0502 C7F38467 		ubfx	r7, r7, #26, #5
 1987 0506 05F1080C 		add	ip, r5, #8
 1988 050a 002E     		cmp	r6, #0
 1989 050c 7FF455AF 		bne	.L301
 1990 0510 C4F38466 		ubfx	r6, r4, #26, #5
 1991 0514 8AE7     		b	.L336
 1992              	.L341:
 1993 0516 0226     		movs	r6, #2
 1994 0518 C2E6     		b	.L319
 1995              	.L340:
 1996 051a 4FF08065 		mov	r5, #67108864
 1997 051e B2E6     		b	.L318
 1998              	.L342:
 1999 0520 4FF44014 		mov	r4, #3145728
 2000 0524 CAE6     		b	.L322
 2001              	.L345:
 2002 0526 034C     		ldr	r4, .L396
 2003 0528 C8E6     		b	.L322
 2004              	.L344:
 2005 052a 0226     		movs	r6, #2
 2006 052c 9CE7     		b	.L324
 2007              	.L343:
 2008 052e 4FF08065 		mov	r5, #67108864
 2009 0532 8DE7     		b	.L323
 2010              	.L397:
 2011              		.align	2
 2012              	.L396:
 2013 0534 000050FE 		.word	-28311552
 2015              		.section	.text.HAL_ADCEx_MultiModeConfigChannel,"ax",%progbits
 2016              		.align	1
 2017              		.p2align 2,,3
 2018              		.global	HAL_ADCEx_MultiModeConfigChannel
 2019              		.syntax unified
 2020              		.thumb
 2021              		.thumb_func
 2022              		.fpu fpv4-sp-d16
 2024              	HAL_ADCEx_MultiModeConfigChannel:
 2025              		@ args = 0, pretend = 0, frame = 104
 2026              		@ frame_needed = 0, uses_anonymous_args = 0
 2027 0000 F0B5     		push	{r4, r5, r6, r7, lr}
 2028 0002 90F85020 		ldrb	r2, [r0, #80]	@ zero_extendqisi2
 2029 0006 0E68     		ldr	r6, [r1]
 2030 0008 012A     		cmp	r2, #1
 2031 000a 9BB0     		sub	sp, sp, #108
 2032 000c 4BD0     		beq	.L409
 2033 000e 0346     		mov	r3, r0
 2034 0010 334C     		ldr	r4, .L415
 2035 0012 1D68     		ldr	r5, [r3]
 2036 0014 0022     		movs	r2, #0
 2037 0016 0120     		movs	r0, #1
 2038 0018 A542     		cmp	r5, r4
 2039 001a 1692     		str	r2, [sp, #88]
 2040 001c 83F85000 		strb	r0, [r3, #80]
ARM GAS  /tmp/ccIhH5JD.s 			page 36


 2041 0020 1792     		str	r2, [sp, #92]
 2042 0022 07D0     		beq	.L400
 2043 0024 596D     		ldr	r1, [r3, #84]
 2044 0026 83F85020 		strb	r2, [r3, #80]
 2045 002a 41F02001 		orr	r1, r1, #32
 2046 002e 5965     		str	r1, [r3, #84]
 2047 0030 1BB0     		add	sp, sp, #108
 2048              		@ sp needed
 2049 0032 F0BD     		pop	{r4, r5, r6, r7, pc}
 2050              	.L400:
 2051 0034 2B4C     		ldr	r4, .L415+4
 2052 0036 A268     		ldr	r2, [r4, #8]
 2053 0038 5207     		lsls	r2, r2, #29
 2054 003a 0AD5     		bpl	.L413
 2055 003c AA68     		ldr	r2, [r5, #8]
 2056              	.L401:
 2057 003e 5A6D     		ldr	r2, [r3, #84]
 2058 0040 42F02002 		orr	r2, r2, #32
 2059 0044 0120     		movs	r0, #1
 2060 0046 5A65     		str	r2, [r3, #84]
 2061              	.L405:
 2062 0048 0022     		movs	r2, #0
 2063 004a 83F85020 		strb	r2, [r3, #80]
 2064 004e 1BB0     		add	sp, sp, #108
 2065              		@ sp needed
 2066 0050 F0BD     		pop	{r4, r5, r6, r7, pc}
 2067              	.L413:
 2068 0052 A868     		ldr	r0, [r5, #8]
 2069 0054 10F00400 		ands	r0, r0, #4
 2070 0058 F1D1     		bne	.L401
 2071 005a 3EB3     		cbz	r6, .L402
 2072 005c DFF88CE0 		ldr	lr, .L415+12
 2073 0060 4F68     		ldr	r7, [r1, #4]
 2074 0062 DEF80820 		ldr	r2, [lr, #8]
 2075 0066 93F830C0 		ldrb	ip, [r3, #48]	@ zero_extendqisi2
 2076 006a 22F46042 		bic	r2, r2, #57344
 2077 006e 3A43     		orrs	r2, r2, r7
 2078 0070 42EA4C32 		orr	r2, r2, ip, lsl #13
 2079 0074 CEF80820 		str	r2, [lr, #8]
 2080 0078 AD68     		ldr	r5, [r5, #8]
 2081 007a A268     		ldr	r2, [r4, #8]
 2082 007c 12F0010F 		tst	r2, #1
 2083 0080 194A     		ldr	r2, .L415+8
 2084 0082 2AD1     		bne	.L403
 2085 0084 9068     		ldr	r0, [r2, #8]
 2086 0086 2843     		orrs	r0, r0, r5
 2087 0088 10F00100 		ands	r0, r0, #1
 2088 008c 1CD1     		bne	.L406
 2089 008e 8A68     		ldr	r2, [r1, #8]
 2090 0090 DEF80810 		ldr	r1, [lr, #8]
 2091 0094 21F47161 		bic	r1, r1, #3856
 2092 0098 3243     		orrs	r2, r2, r6
 2093 009a 21F00F01 		bic	r1, r1, #15
 2094 009e 0A43     		orrs	r2, r2, r1
 2095 00a0 CEF80820 		str	r2, [lr, #8]
 2096 00a4 D0E7     		b	.L405
 2097              	.L409:
ARM GAS  /tmp/ccIhH5JD.s 			page 37


 2098 00a6 0220     		movs	r0, #2
 2099 00a8 1BB0     		add	sp, sp, #108
 2100              		@ sp needed
 2101 00aa F0BD     		pop	{r4, r5, r6, r7, pc}
 2102              	.L402:
 2103 00ac 0F49     		ldr	r1, .L415+12
 2104 00ae 8A68     		ldr	r2, [r1, #8]
 2105 00b0 22F46042 		bic	r2, r2, #57344
 2106 00b4 8A60     		str	r2, [r1, #8]
 2107 00b6 0C4A     		ldr	r2, .L415+8
 2108 00b8 AD68     		ldr	r5, [r5, #8]
 2109 00ba A068     		ldr	r0, [r4, #8]
 2110 00bc 9268     		ldr	r2, [r2, #8]
 2111 00be 2843     		orrs	r0, r0, r5
 2112 00c0 1043     		orrs	r0, r0, r2
 2113 00c2 10F00100 		ands	r0, r0, #1
 2114 00c6 01D0     		beq	.L414
 2115              	.L406:
 2116 00c8 0020     		movs	r0, #0
 2117 00ca BDE7     		b	.L405
 2118              	.L414:
 2119 00cc 8A68     		ldr	r2, [r1, #8]
 2120 00ce 22F47162 		bic	r2, r2, #3856
 2121 00d2 22F00F02 		bic	r2, r2, #15
 2122 00d6 8A60     		str	r2, [r1, #8]
 2123 00d8 B6E7     		b	.L405
 2124              	.L403:
 2125 00da 9268     		ldr	r2, [r2, #8]
 2126 00dc B4E7     		b	.L405
 2127              	.L416:
 2128 00de 00BF     		.align	2
 2129              	.L415:
 2130 00e0 00000450 		.word	1342439424
 2131 00e4 00010450 		.word	1342439680
 2132 00e8 00020450 		.word	1342439936
 2133 00ec 00030450 		.word	1342440192
 2135              		.section	.text.HAL_ADCEx_EnableInjectedQueue,"ax",%progbits
 2136              		.align	1
 2137              		.p2align 2,,3
 2138              		.global	HAL_ADCEx_EnableInjectedQueue
 2139              		.syntax unified
 2140              		.thumb
 2141              		.thumb_func
 2142              		.fpu fpv4-sp-d16
 2144              	HAL_ADCEx_EnableInjectedQueue:
 2145              		@ args = 0, pretend = 0, frame = 0
 2146              		@ frame_needed = 0, uses_anonymous_args = 0
 2147              		@ link register save eliminated.
 2148 0000 0268     		ldr	r2, [r0]
 2149 0002 9168     		ldr	r1, [r2, #8]
 2150 0004 4907     		lsls	r1, r1, #29
 2151 0006 0346     		mov	r3, r0
 2152 0008 02D5     		bpl	.L427
 2153 000a 9368     		ldr	r3, [r2, #8]
 2154              	.L426:
 2155 000c 0120     		movs	r0, #1
 2156 000e 7047     		bx	lr
ARM GAS  /tmp/ccIhH5JD.s 			page 38


 2157              	.L427:
 2158 0010 9068     		ldr	r0, [r2, #8]
 2159 0012 10F00800 		ands	r0, r0, #8
 2160 0016 F9D1     		bne	.L426
 2161 0018 D168     		ldr	r1, [r2, #12]
 2162 001a 21F00041 		bic	r1, r1, #-2147483648
 2163 001e D160     		str	r1, [r2, #12]
 2164 0020 5A6D     		ldr	r2, [r3, #84]
 2165 0022 22F48042 		bic	r2, r2, #16384
 2166 0026 5A65     		str	r2, [r3, #84]
 2167 0028 7047     		bx	lr
 2169 002a 00BF     		.section	.text.HAL_ADCEx_DisableInjectedQueue,"ax",%progbits
 2170              		.align	1
 2171              		.p2align 2,,3
 2172              		.global	HAL_ADCEx_DisableInjectedQueue
 2173              		.syntax unified
 2174              		.thumb
 2175              		.thumb_func
 2176              		.fpu fpv4-sp-d16
 2178              	HAL_ADCEx_DisableInjectedQueue:
 2179              		@ args = 0, pretend = 0, frame = 0
 2180              		@ frame_needed = 0, uses_anonymous_args = 0
 2181              		@ link register save eliminated.
 2182 0000 0368     		ldr	r3, [r0]
 2183 0002 9A68     		ldr	r2, [r3, #8]
 2184 0004 5207     		lsls	r2, r2, #29
 2185 0006 02D5     		bpl	.L438
 2186 0008 9B68     		ldr	r3, [r3, #8]
 2187              	.L437:
 2188 000a 0120     		movs	r0, #1
 2189 000c 7047     		bx	lr
 2190              	.L438:
 2191 000e 9868     		ldr	r0, [r3, #8]
 2192 0010 10F00800 		ands	r0, r0, #8
 2193 0014 F9D1     		bne	.L437
 2194 0016 DA68     		ldr	r2, [r3, #12]
 2195 0018 22F00042 		bic	r2, r2, #-2147483648
 2196 001c 22F40012 		bic	r2, r2, #2097152
 2197 0020 42F00042 		orr	r2, r2, #-2147483648
 2198 0024 DA60     		str	r2, [r3, #12]
 2199 0026 7047     		bx	lr
 2201              		.section	.text.HAL_ADCEx_DisableVoltageRegulator,"ax",%progbits
 2202              		.align	1
 2203              		.p2align 2,,3
 2204              		.global	HAL_ADCEx_DisableVoltageRegulator
 2205              		.syntax unified
 2206              		.thumb
 2207              		.thumb_func
 2208              		.fpu fpv4-sp-d16
 2210              	HAL_ADCEx_DisableVoltageRegulator:
 2211              		@ args = 0, pretend = 0, frame = 0
 2212              		@ frame_needed = 0, uses_anonymous_args = 0
 2213              		@ link register save eliminated.
 2214 0000 0368     		ldr	r3, [r0]
 2215 0002 9868     		ldr	r0, [r3, #8]
 2216 0004 10F00100 		ands	r0, r0, #1
 2217 0008 06D1     		bne	.L441
ARM GAS  /tmp/ccIhH5JD.s 			page 39


 2218 000a 9A68     		ldr	r2, [r3, #8]
 2219 000c 22F01042 		bic	r2, r2, #-1879048192
 2220 0010 22F03F02 		bic	r2, r2, #63
 2221 0014 9A60     		str	r2, [r3, #8]
 2222 0016 7047     		bx	lr
 2223              	.L441:
 2224 0018 0120     		movs	r0, #1
 2225 001a 7047     		bx	lr
 2227              		.section	.text.HAL_ADCEx_EnterADCDeepPowerDownMode,"ax",%progbits
 2228              		.align	1
 2229              		.p2align 2,,3
 2230              		.global	HAL_ADCEx_EnterADCDeepPowerDownMode
 2231              		.syntax unified
 2232              		.thumb
 2233              		.thumb_func
 2234              		.fpu fpv4-sp-d16
 2236              	HAL_ADCEx_EnterADCDeepPowerDownMode:
 2237              		@ args = 0, pretend = 0, frame = 0
 2238              		@ frame_needed = 0, uses_anonymous_args = 0
 2239              		@ link register save eliminated.
 2240 0000 0268     		ldr	r2, [r0]
 2241 0002 9068     		ldr	r0, [r2, #8]
 2242 0004 10F00100 		ands	r0, r0, #1
 2243 0008 08D1     		bne	.L444
 2244 000a 9368     		ldr	r3, [r2, #8]
 2245 000c 23F02043 		bic	r3, r3, #-1610612736
 2246 0010 23F03F03 		bic	r3, r3, #63
 2247 0014 43F00053 		orr	r3, r3, #536870912
 2248 0018 9360     		str	r3, [r2, #8]
 2249 001a 7047     		bx	lr
 2250              	.L444:
 2251 001c 0120     		movs	r0, #1
 2252 001e 7047     		bx	lr
 2254              		.ident	"GCC: (Arch Repository) 11.2.0"
ARM GAS  /tmp/ccIhH5JD.s 			page 40

