ARM GAS  /tmp/ccJSmeu8.s 			page 1


   1              		.cpu cortex-m4
   2              		.eabi_attribute 27, 1
   3              		.eabi_attribute 28, 1
   4              		.eabi_attribute 20, 1
   5              		.eabi_attribute 21, 1
   6              		.eabi_attribute 23, 3
   7              		.eabi_attribute 24, 1
   8              		.eabi_attribute 25, 1
   9              		.eabi_attribute 26, 1
  10              		.eabi_attribute 30, 2
  11              		.eabi_attribute 34, 1
  12              		.eabi_attribute 18, 4
  13              		.file	"stm32l4xx_hal_pwr_ex.c"
  14              		.text
  15              		.section	.text.HAL_PWREx_GetVoltageRange,"ax",%progbits
  16              		.align	1
  17              		.p2align 2,,3
  18              		.global	HAL_PWREx_GetVoltageRange
  19              		.arch armv7e-m
  20              		.syntax unified
  21              		.thumb
  22              		.thumb_func
  23              		.fpu fpv4-sp-d16
  25              	HAL_PWREx_GetVoltageRange:
  26              		@ args = 0, pretend = 0, frame = 0
  27              		@ frame_needed = 0, uses_anonymous_args = 0
  28              		@ link register save eliminated.
  29 0000 024B     		ldr	r3, .L3
  30 0002 1868     		ldr	r0, [r3]
  31 0004 00F4C060 		and	r0, r0, #1536
  32 0008 7047     		bx	lr
  33              	.L4:
  34 000a 00BF     		.align	2
  35              	.L3:
  36 000c 00700040 		.word	1073770496
  38              		.section	.text.HAL_PWREx_ControlVoltageScaling,"ax",%progbits
  39              		.align	1
  40              		.p2align 2,,3
  41              		.global	HAL_PWREx_ControlVoltageScaling
  42              		.syntax unified
  43              		.thumb
  44              		.thumb_func
  45              		.fpu fpv4-sp-d16
  47              	HAL_PWREx_ControlVoltageScaling:
  48              		@ args = 0, pretend = 0, frame = 0
  49              		@ frame_needed = 0, uses_anonymous_args = 0
  50              		@ link register save eliminated.
  51 0000 B0F5007F 		cmp	r0, #512
  52 0004 0ED0     		beq	.L23
  53 0006 1C4A     		ldr	r2, .L26
  54 0008 1368     		ldr	r3, [r2]
  55 000a 03F4C063 		and	r3, r3, #1536
  56 000e B3F5806F 		cmp	r3, #1024
  57 0012 2DD0     		beq	.L11
  58 0014 1368     		ldr	r3, [r2]
  59 0016 23F4C063 		bic	r3, r3, #1536
  60 001a 43F48063 		orr	r3, r3, #1024
ARM GAS  /tmp/ccJSmeu8.s 			page 2


  61 001e 0020     		movs	r0, #0
  62 0020 1360     		str	r3, [r2]
  63 0022 7047     		bx	lr
  64              	.L23:
  65 0024 1449     		ldr	r1, .L26
  66 0026 0B68     		ldr	r3, [r1]
  67 0028 03F4C063 		and	r3, r3, #1536
  68 002c B3F5007F 		cmp	r3, #512
  69 0030 1ED0     		beq	.L11
  70 0032 0B68     		ldr	r3, [r1]
  71 0034 114A     		ldr	r2, .L26+4
  72 0036 23F4C063 		bic	r3, r3, #1536
  73 003a 43F40073 		orr	r3, r3, #512
  74 003e 0B60     		str	r3, [r1]
  75 0040 1368     		ldr	r3, [r2]
  76 0042 0F4A     		ldr	r2, .L26+8
  77 0044 3220     		movs	r0, #50
  78 0046 00FB03F3 		mul	r3, r0, r3
  79 004a 4869     		ldr	r0, [r1, #20]
  80 004c A2FB0323 		umull	r2, r3, r2, r3
  81 0050 9B0C     		lsrs	r3, r3, #18
  82 0052 4005     		lsls	r0, r0, #21
  83 0054 03F10103 		add	r3, r3, #1
  84 0058 06D5     		bpl	.L9
  85 005a 00E0     		b	.L10
  86              	.L24:
  87 005c 23B1     		cbz	r3, .L9
  88              	.L10:
  89 005e 4A69     		ldr	r2, [r1, #20]
  90 0060 5205     		lsls	r2, r2, #21
  91 0062 03F1FF33 		add	r3, r3, #-1
  92 0066 F9D4     		bmi	.L24
  93              	.L9:
  94 0068 034B     		ldr	r3, .L26
  95 006a 5B69     		ldr	r3, [r3, #20]
  96 006c 5B05     		lsls	r3, r3, #21
  97 006e 01D4     		bmi	.L25
  98              	.L11:
  99 0070 0020     		movs	r0, #0
 100 0072 7047     		bx	lr
 101              	.L25:
 102 0074 0320     		movs	r0, #3
 103 0076 7047     		bx	lr
 104              	.L27:
 105              		.align	2
 106              	.L26:
 107 0078 00700040 		.word	1073770496
 108 007c 00000000 		.word	SystemCoreClock
 109 0080 83DE1B43 		.word	1125899907
 111              		.section	.text.HAL_PWREx_EnableBatteryCharging,"ax",%progbits
 112              		.align	1
 113              		.p2align 2,,3
 114              		.global	HAL_PWREx_EnableBatteryCharging
 115              		.syntax unified
 116              		.thumb
 117              		.thumb_func
 118              		.fpu fpv4-sp-d16
ARM GAS  /tmp/ccJSmeu8.s 			page 3


 120              	HAL_PWREx_EnableBatteryCharging:
 121              		@ args = 0, pretend = 0, frame = 0
 122              		@ frame_needed = 0, uses_anonymous_args = 0
 123              		@ link register save eliminated.
 124 0000 054A     		ldr	r2, .L29
 125 0002 D368     		ldr	r3, [r2, #12]
 126 0004 23F40073 		bic	r3, r3, #512
 127 0008 1843     		orrs	r0, r0, r3
 128 000a D060     		str	r0, [r2, #12]
 129 000c D368     		ldr	r3, [r2, #12]
 130 000e 43F48073 		orr	r3, r3, #256
 131 0012 D360     		str	r3, [r2, #12]
 132 0014 7047     		bx	lr
 133              	.L30:
 134 0016 00BF     		.align	2
 135              	.L29:
 136 0018 00700040 		.word	1073770496
 138              		.section	.text.HAL_PWREx_DisableBatteryCharging,"ax",%progbits
 139              		.align	1
 140              		.p2align 2,,3
 141              		.global	HAL_PWREx_DisableBatteryCharging
 142              		.syntax unified
 143              		.thumb
 144              		.thumb_func
 145              		.fpu fpv4-sp-d16
 147              	HAL_PWREx_DisableBatteryCharging:
 148              		@ args = 0, pretend = 0, frame = 0
 149              		@ frame_needed = 0, uses_anonymous_args = 0
 150              		@ link register save eliminated.
 151 0000 024A     		ldr	r2, .L32
 152 0002 D368     		ldr	r3, [r2, #12]
 153 0004 23F48073 		bic	r3, r3, #256
 154 0008 D360     		str	r3, [r2, #12]
 155 000a 7047     		bx	lr
 156              	.L33:
 157              		.align	2
 158              	.L32:
 159 000c 00700040 		.word	1073770496
 161              		.section	.text.HAL_PWREx_EnableVddUSB,"ax",%progbits
 162              		.align	1
 163              		.p2align 2,,3
 164              		.global	HAL_PWREx_EnableVddUSB
 165              		.syntax unified
 166              		.thumb
 167              		.thumb_func
 168              		.fpu fpv4-sp-d16
 170              	HAL_PWREx_EnableVddUSB:
 171              		@ args = 0, pretend = 0, frame = 0
 172              		@ frame_needed = 0, uses_anonymous_args = 0
 173              		@ link register save eliminated.
 174 0000 024A     		ldr	r2, .L35
 175 0002 5368     		ldr	r3, [r2, #4]
 176 0004 43F48063 		orr	r3, r3, #1024
 177 0008 5360     		str	r3, [r2, #4]
 178 000a 7047     		bx	lr
 179              	.L36:
 180              		.align	2
ARM GAS  /tmp/ccJSmeu8.s 			page 4


 181              	.L35:
 182 000c 00700040 		.word	1073770496
 184              		.section	.text.HAL_PWREx_DisableVddUSB,"ax",%progbits
 185              		.align	1
 186              		.p2align 2,,3
 187              		.global	HAL_PWREx_DisableVddUSB
 188              		.syntax unified
 189              		.thumb
 190              		.thumb_func
 191              		.fpu fpv4-sp-d16
 193              	HAL_PWREx_DisableVddUSB:
 194              		@ args = 0, pretend = 0, frame = 0
 195              		@ frame_needed = 0, uses_anonymous_args = 0
 196              		@ link register save eliminated.
 197 0000 024A     		ldr	r2, .L38
 198 0002 5368     		ldr	r3, [r2, #4]
 199 0004 23F48063 		bic	r3, r3, #1024
 200 0008 5360     		str	r3, [r2, #4]
 201 000a 7047     		bx	lr
 202              	.L39:
 203              		.align	2
 204              	.L38:
 205 000c 00700040 		.word	1073770496
 207              		.section	.text.HAL_PWREx_EnableVddIO2,"ax",%progbits
 208              		.align	1
 209              		.p2align 2,,3
 210              		.global	HAL_PWREx_EnableVddIO2
 211              		.syntax unified
 212              		.thumb
 213              		.thumb_func
 214              		.fpu fpv4-sp-d16
 216              	HAL_PWREx_EnableVddIO2:
 217              		@ args = 0, pretend = 0, frame = 0
 218              		@ frame_needed = 0, uses_anonymous_args = 0
 219              		@ link register save eliminated.
 220 0000 024A     		ldr	r2, .L41
 221 0002 5368     		ldr	r3, [r2, #4]
 222 0004 43F40073 		orr	r3, r3, #512
 223 0008 5360     		str	r3, [r2, #4]
 224 000a 7047     		bx	lr
 225              	.L42:
 226              		.align	2
 227              	.L41:
 228 000c 00700040 		.word	1073770496
 230              		.section	.text.HAL_PWREx_DisableVddIO2,"ax",%progbits
 231              		.align	1
 232              		.p2align 2,,3
 233              		.global	HAL_PWREx_DisableVddIO2
 234              		.syntax unified
 235              		.thumb
 236              		.thumb_func
 237              		.fpu fpv4-sp-d16
 239              	HAL_PWREx_DisableVddIO2:
 240              		@ args = 0, pretend = 0, frame = 0
 241              		@ frame_needed = 0, uses_anonymous_args = 0
 242              		@ link register save eliminated.
 243 0000 024A     		ldr	r2, .L44
ARM GAS  /tmp/ccJSmeu8.s 			page 5


 244 0002 5368     		ldr	r3, [r2, #4]
 245 0004 23F40073 		bic	r3, r3, #512
 246 0008 5360     		str	r3, [r2, #4]
 247 000a 7047     		bx	lr
 248              	.L45:
 249              		.align	2
 250              	.L44:
 251 000c 00700040 		.word	1073770496
 253              		.section	.text.HAL_PWREx_EnableInternalWakeUpLine,"ax",%progbits
 254              		.align	1
 255              		.p2align 2,,3
 256              		.global	HAL_PWREx_EnableInternalWakeUpLine
 257              		.syntax unified
 258              		.thumb
 259              		.thumb_func
 260              		.fpu fpv4-sp-d16
 262              	HAL_PWREx_EnableInternalWakeUpLine:
 263              		@ args = 0, pretend = 0, frame = 0
 264              		@ frame_needed = 0, uses_anonymous_args = 0
 265              		@ link register save eliminated.
 266 0000 024A     		ldr	r2, .L47
 267 0002 9368     		ldr	r3, [r2, #8]
 268 0004 43F40043 		orr	r3, r3, #32768
 269 0008 9360     		str	r3, [r2, #8]
 270 000a 7047     		bx	lr
 271              	.L48:
 272              		.align	2
 273              	.L47:
 274 000c 00700040 		.word	1073770496
 276              		.section	.text.HAL_PWREx_DisableInternalWakeUpLine,"ax",%progbits
 277              		.align	1
 278              		.p2align 2,,3
 279              		.global	HAL_PWREx_DisableInternalWakeUpLine
 280              		.syntax unified
 281              		.thumb
 282              		.thumb_func
 283              		.fpu fpv4-sp-d16
 285              	HAL_PWREx_DisableInternalWakeUpLine:
 286              		@ args = 0, pretend = 0, frame = 0
 287              		@ frame_needed = 0, uses_anonymous_args = 0
 288              		@ link register save eliminated.
 289 0000 024A     		ldr	r2, .L50
 290 0002 9368     		ldr	r3, [r2, #8]
 291 0004 23F40043 		bic	r3, r3, #32768
 292 0008 9360     		str	r3, [r2, #8]
 293 000a 7047     		bx	lr
 294              	.L51:
 295              		.align	2
 296              	.L50:
 297 000c 00700040 		.word	1073770496
 299              		.section	.text.HAL_PWREx_EnableGPIOPullUp,"ax",%progbits
 300              		.align	1
 301              		.p2align 2,,3
 302              		.global	HAL_PWREx_EnableGPIOPullUp
 303              		.syntax unified
 304              		.thumb
 305              		.thumb_func
ARM GAS  /tmp/ccJSmeu8.s 			page 6


 306              		.fpu fpv4-sp-d16
 308              	HAL_PWREx_EnableGPIOPullUp:
 309              		@ args = 0, pretend = 0, frame = 0
 310              		@ frame_needed = 0, uses_anonymous_args = 0
 311              		@ link register save eliminated.
 312 0000 0728     		cmp	r0, #7
 313 0002 5DD8     		bhi	.L63
 314 0004 DFE800F0 		tbb	[pc, r0]
 315              	.L55:
 316 0008 10       		.byte	(.L62-.L55)/2
 317 0009 1E       		.byte	(.L61-.L55)/2
 318 000a 2A       		.byte	(.L60-.L55)/2
 319 000b 34       		.byte	(.L59-.L55)/2
 320 000c 3E       		.byte	(.L58-.L55)/2
 321 000d 48       		.byte	(.L57-.L55)/2
 322 000e 52       		.byte	(.L56-.L55)/2
 323 000f 04       		.byte	(.L54-.L55)/2
 324              		.p2align 1
 325              	.L54:
 326 0010 2C4B     		ldr	r3, .L64
 327 0012 9A6D     		ldr	r2, [r3, #88]
 328 0014 01F00301 		and	r1, r1, #3
 329 0018 0A43     		orrs	r2, r2, r1
 330 001a 9A65     		str	r2, [r3, #88]
 331 001c DA6D     		ldr	r2, [r3, #92]
 332 001e 22EA0102 		bic	r2, r2, r1
 333 0022 0020     		movs	r0, #0
 334 0024 DA65     		str	r2, [r3, #92]
 335 0026 7047     		bx	lr
 336              	.L62:
 337 0028 264B     		ldr	r3, .L64
 338 002a 186A     		ldr	r0, [r3, #32]
 339 002c 21F48042 		bic	r2, r1, #16384
 340 0030 0243     		orrs	r2, r2, r0
 341 0032 1A62     		str	r2, [r3, #32]
 342 0034 5A6A     		ldr	r2, [r3, #36]
 343 0036 21F42041 		bic	r1, r1, #40960
 344 003a 22EA0102 		bic	r2, r2, r1
 345 003e 0020     		movs	r0, #0
 346 0040 5A62     		str	r2, [r3, #36]
 347 0042 7047     		bx	lr
 348              	.L61:
 349 0044 1F4B     		ldr	r3, .L64
 350 0046 9A6A     		ldr	r2, [r3, #40]
 351 0048 0A43     		orrs	r2, r2, r1
 352 004a 9A62     		str	r2, [r3, #40]
 353 004c DA6A     		ldr	r2, [r3, #44]
 354 004e 21F0100C 		bic	ip, r1, #16
 355 0052 22EA0C02 		bic	r2, r2, ip
 356 0056 0020     		movs	r0, #0
 357 0058 DA62     		str	r2, [r3, #44]
 358 005a 7047     		bx	lr
 359              	.L60:
 360 005c 194B     		ldr	r3, .L64
 361 005e 1A6B     		ldr	r2, [r3, #48]
 362 0060 0A43     		orrs	r2, r2, r1
 363 0062 1A63     		str	r2, [r3, #48]
ARM GAS  /tmp/ccJSmeu8.s 			page 7


 364 0064 5A6B     		ldr	r2, [r3, #52]
 365 0066 22EA0102 		bic	r2, r2, r1
 366 006a 0020     		movs	r0, #0
 367 006c 5A63     		str	r2, [r3, #52]
 368 006e 7047     		bx	lr
 369              	.L59:
 370 0070 144B     		ldr	r3, .L64
 371 0072 9A6B     		ldr	r2, [r3, #56]
 372 0074 0A43     		orrs	r2, r2, r1
 373 0076 9A63     		str	r2, [r3, #56]
 374 0078 DA6B     		ldr	r2, [r3, #60]
 375 007a 22EA0102 		bic	r2, r2, r1
 376 007e 0020     		movs	r0, #0
 377 0080 DA63     		str	r2, [r3, #60]
 378 0082 7047     		bx	lr
 379              	.L58:
 380 0084 0F4B     		ldr	r3, .L64
 381 0086 1A6C     		ldr	r2, [r3, #64]
 382 0088 0A43     		orrs	r2, r2, r1
 383 008a 1A64     		str	r2, [r3, #64]
 384 008c 5A6C     		ldr	r2, [r3, #68]
 385 008e 22EA0102 		bic	r2, r2, r1
 386 0092 0020     		movs	r0, #0
 387 0094 5A64     		str	r2, [r3, #68]
 388 0096 7047     		bx	lr
 389              	.L57:
 390 0098 0A4B     		ldr	r3, .L64
 391 009a 9A6C     		ldr	r2, [r3, #72]
 392 009c 0A43     		orrs	r2, r2, r1
 393 009e 9A64     		str	r2, [r3, #72]
 394 00a0 DA6C     		ldr	r2, [r3, #76]
 395 00a2 22EA0102 		bic	r2, r2, r1
 396 00a6 0020     		movs	r0, #0
 397 00a8 DA64     		str	r2, [r3, #76]
 398 00aa 7047     		bx	lr
 399              	.L56:
 400 00ac 054B     		ldr	r3, .L64
 401 00ae 1A6D     		ldr	r2, [r3, #80]
 402 00b0 0A43     		orrs	r2, r2, r1
 403 00b2 1A65     		str	r2, [r3, #80]
 404 00b4 5A6D     		ldr	r2, [r3, #84]
 405 00b6 22EA0102 		bic	r2, r2, r1
 406 00ba 0020     		movs	r0, #0
 407 00bc 5A65     		str	r2, [r3, #84]
 408 00be 7047     		bx	lr
 409              	.L63:
 410 00c0 0120     		movs	r0, #1
 411 00c2 7047     		bx	lr
 412              	.L65:
 413              		.align	2
 414              	.L64:
 415 00c4 00700040 		.word	1073770496
 417              		.section	.text.HAL_PWREx_DisableGPIOPullUp,"ax",%progbits
 418              		.align	1
 419              		.p2align 2,,3
 420              		.global	HAL_PWREx_DisableGPIOPullUp
 421              		.syntax unified
ARM GAS  /tmp/ccJSmeu8.s 			page 8


 422              		.thumb
 423              		.thumb_func
 424              		.fpu fpv4-sp-d16
 426              	HAL_PWREx_DisableGPIOPullUp:
 427              		@ args = 0, pretend = 0, frame = 0
 428              		@ frame_needed = 0, uses_anonymous_args = 0
 429              		@ link register save eliminated.
 430 0000 0728     		cmp	r0, #7
 431 0002 41D8     		bhi	.L77
 432 0004 DFE800F0 		tbb	[pc, r0]
 433              	.L69:
 434 0008 0D       		.byte	(.L76-.L69)/2
 435 0009 16       		.byte	(.L75-.L69)/2
 436 000a 1D       		.byte	(.L74-.L69)/2
 437 000b 24       		.byte	(.L73-.L69)/2
 438 000c 2B       		.byte	(.L72-.L69)/2
 439 000d 32       		.byte	(.L71-.L69)/2
 440 000e 39       		.byte	(.L70-.L69)/2
 441 000f 04       		.byte	(.L68-.L69)/2
 442              		.p2align 1
 443              	.L68:
 444 0010 1E4A     		ldr	r2, .L78
 445 0012 936D     		ldr	r3, [r2, #88]
 446 0014 01F00301 		and	r1, r1, #3
 447 0018 23EA0103 		bic	r3, r3, r1
 448 001c 0020     		movs	r0, #0
 449 001e 9365     		str	r3, [r2, #88]
 450 0020 7047     		bx	lr
 451              	.L76:
 452 0022 1A4A     		ldr	r2, .L78
 453 0024 136A     		ldr	r3, [r2, #32]
 454 0026 21F48041 		bic	r1, r1, #16384
 455 002a 23EA0101 		bic	r1, r3, r1
 456 002e 0020     		movs	r0, #0
 457 0030 1162     		str	r1, [r2, #32]
 458 0032 7047     		bx	lr
 459              	.L75:
 460 0034 154A     		ldr	r2, .L78
 461 0036 936A     		ldr	r3, [r2, #40]
 462 0038 23EA0103 		bic	r3, r3, r1
 463 003c 0020     		movs	r0, #0
 464 003e 9362     		str	r3, [r2, #40]
 465 0040 7047     		bx	lr
 466              	.L74:
 467 0042 124A     		ldr	r2, .L78
 468 0044 136B     		ldr	r3, [r2, #48]
 469 0046 23EA0103 		bic	r3, r3, r1
 470 004a 0020     		movs	r0, #0
 471 004c 1363     		str	r3, [r2, #48]
 472 004e 7047     		bx	lr
 473              	.L73:
 474 0050 0E4A     		ldr	r2, .L78
 475 0052 936B     		ldr	r3, [r2, #56]
 476 0054 23EA0103 		bic	r3, r3, r1
 477 0058 0020     		movs	r0, #0
 478 005a 9363     		str	r3, [r2, #56]
 479 005c 7047     		bx	lr
ARM GAS  /tmp/ccJSmeu8.s 			page 9


 480              	.L72:
 481 005e 0B4A     		ldr	r2, .L78
 482 0060 136C     		ldr	r3, [r2, #64]
 483 0062 23EA0103 		bic	r3, r3, r1
 484 0066 0020     		movs	r0, #0
 485 0068 1364     		str	r3, [r2, #64]
 486 006a 7047     		bx	lr
 487              	.L71:
 488 006c 074A     		ldr	r2, .L78
 489 006e 936C     		ldr	r3, [r2, #72]
 490 0070 23EA0103 		bic	r3, r3, r1
 491 0074 0020     		movs	r0, #0
 492 0076 9364     		str	r3, [r2, #72]
 493 0078 7047     		bx	lr
 494              	.L70:
 495 007a 044A     		ldr	r2, .L78
 496 007c 136D     		ldr	r3, [r2, #80]
 497 007e 23EA0103 		bic	r3, r3, r1
 498 0082 0020     		movs	r0, #0
 499 0084 1365     		str	r3, [r2, #80]
 500 0086 7047     		bx	lr
 501              	.L77:
 502 0088 0120     		movs	r0, #1
 503 008a 7047     		bx	lr
 504              	.L79:
 505              		.align	2
 506              	.L78:
 507 008c 00700040 		.word	1073770496
 509              		.section	.text.HAL_PWREx_EnableGPIOPullDown,"ax",%progbits
 510              		.align	1
 511              		.p2align 2,,3
 512              		.global	HAL_PWREx_EnableGPIOPullDown
 513              		.syntax unified
 514              		.thumb
 515              		.thumb_func
 516              		.fpu fpv4-sp-d16
 518              	HAL_PWREx_EnableGPIOPullDown:
 519              		@ args = 0, pretend = 0, frame = 0
 520              		@ frame_needed = 0, uses_anonymous_args = 0
 521              		@ link register save eliminated.
 522 0000 0728     		cmp	r0, #7
 523 0002 60D8     		bhi	.L91
 524 0004 DFE800F0 		tbb	[pc, r0]
 525              	.L83:
 526 0008 10       		.byte	(.L90-.L83)/2
 527 0009 1E       		.byte	(.L89-.L83)/2
 528 000a 2D       		.byte	(.L88-.L83)/2
 529 000b 37       		.byte	(.L87-.L83)/2
 530 000c 41       		.byte	(.L86-.L83)/2
 531 000d 4B       		.byte	(.L85-.L83)/2
 532 000e 55       		.byte	(.L84-.L83)/2
 533 000f 04       		.byte	(.L82-.L83)/2
 534              		.p2align 1
 535              	.L82:
 536 0010 2E4B     		ldr	r3, .L95
 537 0012 DA6D     		ldr	r2, [r3, #92]
 538 0014 01F00301 		and	r1, r1, #3
ARM GAS  /tmp/ccJSmeu8.s 			page 10


 539 0018 0A43     		orrs	r2, r2, r1
 540 001a DA65     		str	r2, [r3, #92]
 541 001c 9A6D     		ldr	r2, [r3, #88]
 542 001e 22EA0102 		bic	r2, r2, r1
 543 0022 0020     		movs	r0, #0
 544 0024 9A65     		str	r2, [r3, #88]
 545 0026 7047     		bx	lr
 546              	.L90:
 547 0028 284B     		ldr	r3, .L95
 548 002a 586A     		ldr	r0, [r3, #36]
 549 002c 21F42042 		bic	r2, r1, #40960
 550 0030 0243     		orrs	r2, r2, r0
 551 0032 5A62     		str	r2, [r3, #36]
 552 0034 1A6A     		ldr	r2, [r3, #32]
 553 0036 21F48041 		bic	r1, r1, #16384
 554 003a 22EA0102 		bic	r2, r2, r1
 555 003e 0020     		movs	r0, #0
 556 0040 1A62     		str	r2, [r3, #32]
 557 0042 7047     		bx	lr
 558              	.L89:
 559 0044 214B     		ldr	r3, .L95
 560 0046 10B4     		push	{r4}
 561 0048 DC6A     		ldr	r4, [r3, #44]
 562 004a 21F01002 		bic	r2, r1, #16
 563 004e 2243     		orrs	r2, r2, r4
 564 0050 DA62     		str	r2, [r3, #44]
 565 0052 9A6A     		ldr	r2, [r3, #40]
 566 0054 5DF8044B 		ldr	r4, [sp], #4
 567 0058 22EA0102 		bic	r2, r2, r1
 568 005c 0020     		movs	r0, #0
 569 005e 9A62     		str	r2, [r3, #40]
 570 0060 7047     		bx	lr
 571              	.L88:
 572 0062 1A4B     		ldr	r3, .L95
 573 0064 5A6B     		ldr	r2, [r3, #52]
 574 0066 0A43     		orrs	r2, r2, r1
 575 0068 5A63     		str	r2, [r3, #52]
 576 006a 1A6B     		ldr	r2, [r3, #48]
 577 006c 22EA0102 		bic	r2, r2, r1
 578 0070 0020     		movs	r0, #0
 579 0072 1A63     		str	r2, [r3, #48]
 580 0074 7047     		bx	lr
 581              	.L87:
 582 0076 154B     		ldr	r3, .L95
 583 0078 DA6B     		ldr	r2, [r3, #60]
 584 007a 0A43     		orrs	r2, r2, r1
 585 007c DA63     		str	r2, [r3, #60]
 586 007e 9A6B     		ldr	r2, [r3, #56]
 587 0080 22EA0102 		bic	r2, r2, r1
 588 0084 0020     		movs	r0, #0
 589 0086 9A63     		str	r2, [r3, #56]
 590 0088 7047     		bx	lr
 591              	.L86:
 592 008a 104B     		ldr	r3, .L95
 593 008c 5A6C     		ldr	r2, [r3, #68]
 594 008e 0A43     		orrs	r2, r2, r1
 595 0090 5A64     		str	r2, [r3, #68]
ARM GAS  /tmp/ccJSmeu8.s 			page 11


 596 0092 1A6C     		ldr	r2, [r3, #64]
 597 0094 22EA0102 		bic	r2, r2, r1
 598 0098 0020     		movs	r0, #0
 599 009a 1A64     		str	r2, [r3, #64]
 600 009c 7047     		bx	lr
 601              	.L85:
 602 009e 0B4B     		ldr	r3, .L95
 603 00a0 DA6C     		ldr	r2, [r3, #76]
 604 00a2 0A43     		orrs	r2, r2, r1
 605 00a4 DA64     		str	r2, [r3, #76]
 606 00a6 9A6C     		ldr	r2, [r3, #72]
 607 00a8 22EA0102 		bic	r2, r2, r1
 608 00ac 0020     		movs	r0, #0
 609 00ae 9A64     		str	r2, [r3, #72]
 610 00b0 7047     		bx	lr
 611              	.L84:
 612 00b2 064B     		ldr	r3, .L95
 613 00b4 5A6D     		ldr	r2, [r3, #84]
 614 00b6 0A43     		orrs	r2, r2, r1
 615 00b8 5A65     		str	r2, [r3, #84]
 616 00ba 1A6D     		ldr	r2, [r3, #80]
 617 00bc 22EA0102 		bic	r2, r2, r1
 618 00c0 0020     		movs	r0, #0
 619 00c2 1A65     		str	r2, [r3, #80]
 620 00c4 7047     		bx	lr
 621              	.L91:
 622 00c6 0120     		movs	r0, #1
 623 00c8 7047     		bx	lr
 624              	.L96:
 625 00ca 00BF     		.align	2
 626              	.L95:
 627 00cc 00700040 		.word	1073770496
 629              		.section	.text.HAL_PWREx_DisableGPIOPullDown,"ax",%progbits
 630              		.align	1
 631              		.p2align 2,,3
 632              		.global	HAL_PWREx_DisableGPIOPullDown
 633              		.syntax unified
 634              		.thumb
 635              		.thumb_func
 636              		.fpu fpv4-sp-d16
 638              	HAL_PWREx_DisableGPIOPullDown:
 639              		@ args = 0, pretend = 0, frame = 0
 640              		@ frame_needed = 0, uses_anonymous_args = 0
 641              		@ link register save eliminated.
 642 0000 0728     		cmp	r0, #7
 643 0002 43D8     		bhi	.L108
 644 0004 DFE800F0 		tbb	[pc, r0]
 645              	.L100:
 646 0008 0D       		.byte	(.L107-.L100)/2
 647 0009 16       		.byte	(.L106-.L100)/2
 648 000a 1F       		.byte	(.L105-.L100)/2
 649 000b 26       		.byte	(.L104-.L100)/2
 650 000c 2D       		.byte	(.L103-.L100)/2
 651 000d 34       		.byte	(.L102-.L100)/2
 652 000e 3B       		.byte	(.L101-.L100)/2
 653 000f 04       		.byte	(.L99-.L100)/2
 654              		.p2align 1
ARM GAS  /tmp/ccJSmeu8.s 			page 12


 655              	.L99:
 656 0010 1F4A     		ldr	r2, .L109
 657 0012 D36D     		ldr	r3, [r2, #92]
 658 0014 01F00301 		and	r1, r1, #3
 659 0018 23EA0103 		bic	r3, r3, r1
 660 001c 0020     		movs	r0, #0
 661 001e D365     		str	r3, [r2, #92]
 662 0020 7047     		bx	lr
 663              	.L107:
 664 0022 1B4A     		ldr	r2, .L109
 665 0024 536A     		ldr	r3, [r2, #36]
 666 0026 21F42041 		bic	r1, r1, #40960
 667 002a 23EA0101 		bic	r1, r3, r1
 668 002e 0020     		movs	r0, #0
 669 0030 5162     		str	r1, [r2, #36]
 670 0032 7047     		bx	lr
 671              	.L106:
 672 0034 164A     		ldr	r2, .L109
 673 0036 D36A     		ldr	r3, [r2, #44]
 674 0038 21F01001 		bic	r1, r1, #16
 675 003c 23EA0101 		bic	r1, r3, r1
 676 0040 0020     		movs	r0, #0
 677 0042 D162     		str	r1, [r2, #44]
 678 0044 7047     		bx	lr
 679              	.L105:
 680 0046 124A     		ldr	r2, .L109
 681 0048 536B     		ldr	r3, [r2, #52]
 682 004a 23EA0103 		bic	r3, r3, r1
 683 004e 0020     		movs	r0, #0
 684 0050 5363     		str	r3, [r2, #52]
 685 0052 7047     		bx	lr
 686              	.L104:
 687 0054 0E4A     		ldr	r2, .L109
 688 0056 D36B     		ldr	r3, [r2, #60]
 689 0058 23EA0103 		bic	r3, r3, r1
 690 005c 0020     		movs	r0, #0
 691 005e D363     		str	r3, [r2, #60]
 692 0060 7047     		bx	lr
 693              	.L103:
 694 0062 0B4A     		ldr	r2, .L109
 695 0064 536C     		ldr	r3, [r2, #68]
 696 0066 23EA0103 		bic	r3, r3, r1
 697 006a 0020     		movs	r0, #0
 698 006c 5364     		str	r3, [r2, #68]
 699 006e 7047     		bx	lr
 700              	.L102:
 701 0070 074A     		ldr	r2, .L109
 702 0072 D36C     		ldr	r3, [r2, #76]
 703 0074 23EA0103 		bic	r3, r3, r1
 704 0078 0020     		movs	r0, #0
 705 007a D364     		str	r3, [r2, #76]
 706 007c 7047     		bx	lr
 707              	.L101:
 708 007e 044A     		ldr	r2, .L109
 709 0080 536D     		ldr	r3, [r2, #84]
 710 0082 23EA0103 		bic	r3, r3, r1
 711 0086 0020     		movs	r0, #0
ARM GAS  /tmp/ccJSmeu8.s 			page 13


 712 0088 5365     		str	r3, [r2, #84]
 713 008a 7047     		bx	lr
 714              	.L108:
 715 008c 0120     		movs	r0, #1
 716 008e 7047     		bx	lr
 717              	.L110:
 718              		.align	2
 719              	.L109:
 720 0090 00700040 		.word	1073770496
 722              		.section	.text.HAL_PWREx_EnablePullUpPullDownConfig,"ax",%progbits
 723              		.align	1
 724              		.p2align 2,,3
 725              		.global	HAL_PWREx_EnablePullUpPullDownConfig
 726              		.syntax unified
 727              		.thumb
 728              		.thumb_func
 729              		.fpu fpv4-sp-d16
 731              	HAL_PWREx_EnablePullUpPullDownConfig:
 732              		@ args = 0, pretend = 0, frame = 0
 733              		@ frame_needed = 0, uses_anonymous_args = 0
 734              		@ link register save eliminated.
 735 0000 024A     		ldr	r2, .L112
 736 0002 9368     		ldr	r3, [r2, #8]
 737 0004 43F48063 		orr	r3, r3, #1024
 738 0008 9360     		str	r3, [r2, #8]
 739 000a 7047     		bx	lr
 740              	.L113:
 741              		.align	2
 742              	.L112:
 743 000c 00700040 		.word	1073770496
 745              		.section	.text.HAL_PWREx_DisablePullUpPullDownConfig,"ax",%progbits
 746              		.align	1
 747              		.p2align 2,,3
 748              		.global	HAL_PWREx_DisablePullUpPullDownConfig
 749              		.syntax unified
 750              		.thumb
 751              		.thumb_func
 752              		.fpu fpv4-sp-d16
 754              	HAL_PWREx_DisablePullUpPullDownConfig:
 755              		@ args = 0, pretend = 0, frame = 0
 756              		@ frame_needed = 0, uses_anonymous_args = 0
 757              		@ link register save eliminated.
 758 0000 024A     		ldr	r2, .L115
 759 0002 9368     		ldr	r3, [r2, #8]
 760 0004 23F48063 		bic	r3, r3, #1024
 761 0008 9360     		str	r3, [r2, #8]
 762 000a 7047     		bx	lr
 763              	.L116:
 764              		.align	2
 765              	.L115:
 766 000c 00700040 		.word	1073770496
 768              		.section	.text.HAL_PWREx_EnableSRAM2ContentRetention,"ax",%progbits
 769              		.align	1
 770              		.p2align 2,,3
 771              		.global	HAL_PWREx_EnableSRAM2ContentRetention
 772              		.syntax unified
 773              		.thumb
ARM GAS  /tmp/ccJSmeu8.s 			page 14


 774              		.thumb_func
 775              		.fpu fpv4-sp-d16
 777              	HAL_PWREx_EnableSRAM2ContentRetention:
 778              		@ args = 0, pretend = 0, frame = 0
 779              		@ frame_needed = 0, uses_anonymous_args = 0
 780              		@ link register save eliminated.
 781 0000 024A     		ldr	r2, .L118
 782 0002 9368     		ldr	r3, [r2, #8]
 783 0004 43F48073 		orr	r3, r3, #256
 784 0008 9360     		str	r3, [r2, #8]
 785 000a 7047     		bx	lr
 786              	.L119:
 787              		.align	2
 788              	.L118:
 789 000c 00700040 		.word	1073770496
 791              		.section	.text.HAL_PWREx_DisableSRAM2ContentRetention,"ax",%progbits
 792              		.align	1
 793              		.p2align 2,,3
 794              		.global	HAL_PWREx_DisableSRAM2ContentRetention
 795              		.syntax unified
 796              		.thumb
 797              		.thumb_func
 798              		.fpu fpv4-sp-d16
 800              	HAL_PWREx_DisableSRAM2ContentRetention:
 801              		@ args = 0, pretend = 0, frame = 0
 802              		@ frame_needed = 0, uses_anonymous_args = 0
 803              		@ link register save eliminated.
 804 0000 024A     		ldr	r2, .L121
 805 0002 9368     		ldr	r3, [r2, #8]
 806 0004 23F48073 		bic	r3, r3, #256
 807 0008 9360     		str	r3, [r2, #8]
 808 000a 7047     		bx	lr
 809              	.L122:
 810              		.align	2
 811              	.L121:
 812 000c 00700040 		.word	1073770496
 814              		.section	.text.HAL_PWREx_SetSRAM2ContentRetention,"ax",%progbits
 815              		.align	1
 816              		.p2align 2,,3
 817              		.global	HAL_PWREx_SetSRAM2ContentRetention
 818              		.syntax unified
 819              		.thumb
 820              		.thumb_func
 821              		.fpu fpv4-sp-d16
 823              	HAL_PWREx_SetSRAM2ContentRetention:
 824              		@ args = 0, pretend = 0, frame = 0
 825              		@ frame_needed = 0, uses_anonymous_args = 0
 826              		@ link register save eliminated.
 827 0000 28B9     		cbnz	r0, .L124
 828 0002 094A     		ldr	r2, .L127
 829 0004 9368     		ldr	r3, [r2, #8]
 830 0006 23F48073 		bic	r3, r3, #256
 831 000a 9360     		str	r3, [r2, #8]
 832 000c 7047     		bx	lr
 833              	.L124:
 834 000e B0F5807F 		cmp	r0, #256
 835 0012 06D1     		bne	.L126
ARM GAS  /tmp/ccJSmeu8.s 			page 15


 836 0014 044A     		ldr	r2, .L127
 837 0016 9368     		ldr	r3, [r2, #8]
 838 0018 43F48073 		orr	r3, r3, #256
 839 001c 0020     		movs	r0, #0
 840 001e 9360     		str	r3, [r2, #8]
 841 0020 7047     		bx	lr
 842              	.L126:
 843 0022 0120     		movs	r0, #1
 844 0024 7047     		bx	lr
 845              	.L128:
 846 0026 00BF     		.align	2
 847              	.L127:
 848 0028 00700040 		.word	1073770496
 850              		.section	.text.HAL_PWREx_EnableExtSMPS_0V95,"ax",%progbits
 851              		.align	1
 852              		.p2align 2,,3
 853              		.global	HAL_PWREx_EnableExtSMPS_0V95
 854              		.syntax unified
 855              		.thumb
 856              		.thumb_func
 857              		.fpu fpv4-sp-d16
 859              	HAL_PWREx_EnableExtSMPS_0V95:
 860              		@ args = 0, pretend = 0, frame = 0
 861              		@ frame_needed = 0, uses_anonymous_args = 0
 862              		@ link register save eliminated.
 863 0000 024A     		ldr	r2, .L130
 864 0002 D368     		ldr	r3, [r2, #12]
 865 0004 43F40053 		orr	r3, r3, #8192
 866 0008 D360     		str	r3, [r2, #12]
 867 000a 7047     		bx	lr
 868              	.L131:
 869              		.align	2
 870              	.L130:
 871 000c 00700040 		.word	1073770496
 873              		.section	.text.HAL_PWREx_DisableExtSMPS_0V95,"ax",%progbits
 874              		.align	1
 875              		.p2align 2,,3
 876              		.global	HAL_PWREx_DisableExtSMPS_0V95
 877              		.syntax unified
 878              		.thumb
 879              		.thumb_func
 880              		.fpu fpv4-sp-d16
 882              	HAL_PWREx_DisableExtSMPS_0V95:
 883              		@ args = 0, pretend = 0, frame = 0
 884              		@ frame_needed = 0, uses_anonymous_args = 0
 885              		@ link register save eliminated.
 886 0000 024A     		ldr	r2, .L133
 887 0002 D368     		ldr	r3, [r2, #12]
 888 0004 23F40053 		bic	r3, r3, #8192
 889 0008 D360     		str	r3, [r2, #12]
 890 000a 7047     		bx	lr
 891              	.L134:
 892              		.align	2
 893              	.L133:
 894 000c 00700040 		.word	1073770496
 896              		.section	.text.HAL_PWREx_EnablePVM1,"ax",%progbits
 897              		.align	1
ARM GAS  /tmp/ccJSmeu8.s 			page 16


 898              		.p2align 2,,3
 899              		.global	HAL_PWREx_EnablePVM1
 900              		.syntax unified
 901              		.thumb
 902              		.thumb_func
 903              		.fpu fpv4-sp-d16
 905              	HAL_PWREx_EnablePVM1:
 906              		@ args = 0, pretend = 0, frame = 0
 907              		@ frame_needed = 0, uses_anonymous_args = 0
 908              		@ link register save eliminated.
 909 0000 024A     		ldr	r2, .L136
 910 0002 5368     		ldr	r3, [r2, #4]
 911 0004 43F01003 		orr	r3, r3, #16
 912 0008 5360     		str	r3, [r2, #4]
 913 000a 7047     		bx	lr
 914              	.L137:
 915              		.align	2
 916              	.L136:
 917 000c 00700040 		.word	1073770496
 919              		.section	.text.HAL_PWREx_DisablePVM1,"ax",%progbits
 920              		.align	1
 921              		.p2align 2,,3
 922              		.global	HAL_PWREx_DisablePVM1
 923              		.syntax unified
 924              		.thumb
 925              		.thumb_func
 926              		.fpu fpv4-sp-d16
 928              	HAL_PWREx_DisablePVM1:
 929              		@ args = 0, pretend = 0, frame = 0
 930              		@ frame_needed = 0, uses_anonymous_args = 0
 931              		@ link register save eliminated.
 932 0000 024A     		ldr	r2, .L139
 933 0002 5368     		ldr	r3, [r2, #4]
 934 0004 23F01003 		bic	r3, r3, #16
 935 0008 5360     		str	r3, [r2, #4]
 936 000a 7047     		bx	lr
 937              	.L140:
 938              		.align	2
 939              	.L139:
 940 000c 00700040 		.word	1073770496
 942              		.section	.text.HAL_PWREx_EnablePVM2,"ax",%progbits
 943              		.align	1
 944              		.p2align 2,,3
 945              		.global	HAL_PWREx_EnablePVM2
 946              		.syntax unified
 947              		.thumb
 948              		.thumb_func
 949              		.fpu fpv4-sp-d16
 951              	HAL_PWREx_EnablePVM2:
 952              		@ args = 0, pretend = 0, frame = 0
 953              		@ frame_needed = 0, uses_anonymous_args = 0
 954              		@ link register save eliminated.
 955 0000 024A     		ldr	r2, .L142
 956 0002 5368     		ldr	r3, [r2, #4]
 957 0004 43F02003 		orr	r3, r3, #32
 958 0008 5360     		str	r3, [r2, #4]
 959 000a 7047     		bx	lr
ARM GAS  /tmp/ccJSmeu8.s 			page 17


 960              	.L143:
 961              		.align	2
 962              	.L142:
 963 000c 00700040 		.word	1073770496
 965              		.section	.text.HAL_PWREx_DisablePVM2,"ax",%progbits
 966              		.align	1
 967              		.p2align 2,,3
 968              		.global	HAL_PWREx_DisablePVM2
 969              		.syntax unified
 970              		.thumb
 971              		.thumb_func
 972              		.fpu fpv4-sp-d16
 974              	HAL_PWREx_DisablePVM2:
 975              		@ args = 0, pretend = 0, frame = 0
 976              		@ frame_needed = 0, uses_anonymous_args = 0
 977              		@ link register save eliminated.
 978 0000 024A     		ldr	r2, .L145
 979 0002 5368     		ldr	r3, [r2, #4]
 980 0004 23F02003 		bic	r3, r3, #32
 981 0008 5360     		str	r3, [r2, #4]
 982 000a 7047     		bx	lr
 983              	.L146:
 984              		.align	2
 985              	.L145:
 986 000c 00700040 		.word	1073770496
 988              		.section	.text.HAL_PWREx_EnablePVM3,"ax",%progbits
 989              		.align	1
 990              		.p2align 2,,3
 991              		.global	HAL_PWREx_EnablePVM3
 992              		.syntax unified
 993              		.thumb
 994              		.thumb_func
 995              		.fpu fpv4-sp-d16
 997              	HAL_PWREx_EnablePVM3:
 998              		@ args = 0, pretend = 0, frame = 0
 999              		@ frame_needed = 0, uses_anonymous_args = 0
 1000              		@ link register save eliminated.
 1001 0000 024A     		ldr	r2, .L148
 1002 0002 5368     		ldr	r3, [r2, #4]
 1003 0004 43F04003 		orr	r3, r3, #64
 1004 0008 5360     		str	r3, [r2, #4]
 1005 000a 7047     		bx	lr
 1006              	.L149:
 1007              		.align	2
 1008              	.L148:
 1009 000c 00700040 		.word	1073770496
 1011              		.section	.text.HAL_PWREx_DisablePVM3,"ax",%progbits
 1012              		.align	1
 1013              		.p2align 2,,3
 1014              		.global	HAL_PWREx_DisablePVM3
 1015              		.syntax unified
 1016              		.thumb
 1017              		.thumb_func
 1018              		.fpu fpv4-sp-d16
 1020              	HAL_PWREx_DisablePVM3:
 1021              		@ args = 0, pretend = 0, frame = 0
 1022              		@ frame_needed = 0, uses_anonymous_args = 0
ARM GAS  /tmp/ccJSmeu8.s 			page 18


 1023              		@ link register save eliminated.
 1024 0000 024A     		ldr	r2, .L151
 1025 0002 5368     		ldr	r3, [r2, #4]
 1026 0004 23F04003 		bic	r3, r3, #64
 1027 0008 5360     		str	r3, [r2, #4]
 1028 000a 7047     		bx	lr
 1029              	.L152:
 1030              		.align	2
 1031              	.L151:
 1032 000c 00700040 		.word	1073770496
 1034              		.section	.text.HAL_PWREx_EnablePVM4,"ax",%progbits
 1035              		.align	1
 1036              		.p2align 2,,3
 1037              		.global	HAL_PWREx_EnablePVM4
 1038              		.syntax unified
 1039              		.thumb
 1040              		.thumb_func
 1041              		.fpu fpv4-sp-d16
 1043              	HAL_PWREx_EnablePVM4:
 1044              		@ args = 0, pretend = 0, frame = 0
 1045              		@ frame_needed = 0, uses_anonymous_args = 0
 1046              		@ link register save eliminated.
 1047 0000 024A     		ldr	r2, .L154
 1048 0002 5368     		ldr	r3, [r2, #4]
 1049 0004 43F08003 		orr	r3, r3, #128
 1050 0008 5360     		str	r3, [r2, #4]
 1051 000a 7047     		bx	lr
 1052              	.L155:
 1053              		.align	2
 1054              	.L154:
 1055 000c 00700040 		.word	1073770496
 1057              		.section	.text.HAL_PWREx_DisablePVM4,"ax",%progbits
 1058              		.align	1
 1059              		.p2align 2,,3
 1060              		.global	HAL_PWREx_DisablePVM4
 1061              		.syntax unified
 1062              		.thumb
 1063              		.thumb_func
 1064              		.fpu fpv4-sp-d16
 1066              	HAL_PWREx_DisablePVM4:
 1067              		@ args = 0, pretend = 0, frame = 0
 1068              		@ frame_needed = 0, uses_anonymous_args = 0
 1069              		@ link register save eliminated.
 1070 0000 024A     		ldr	r2, .L157
 1071 0002 5368     		ldr	r3, [r2, #4]
 1072 0004 23F08003 		bic	r3, r3, #128
 1073 0008 5360     		str	r3, [r2, #4]
 1074 000a 7047     		bx	lr
 1075              	.L158:
 1076              		.align	2
 1077              	.L157:
 1078 000c 00700040 		.word	1073770496
 1080              		.section	.text.HAL_PWREx_ConfigPVM,"ax",%progbits
 1081              		.align	1
 1082              		.p2align 2,,3
 1083              		.global	HAL_PWREx_ConfigPVM
 1084              		.syntax unified
ARM GAS  /tmp/ccJSmeu8.s 			page 19


 1085              		.thumb
 1086              		.thumb_func
 1087              		.fpu fpv4-sp-d16
 1089              	HAL_PWREx_ConfigPVM:
 1090              		@ args = 0, pretend = 0, frame = 0
 1091              		@ frame_needed = 0, uses_anonymous_args = 0
 1092              		@ link register save eliminated.
 1093 0000 0368     		ldr	r3, [r0]
 1094 0002 402B     		cmp	r3, #64
 1095 0004 00F08380 		beq	.L160
 1096 0008 32D8     		bhi	.L161
 1097 000a 102B     		cmp	r3, #16
 1098 000c 61D0     		beq	.L162
 1099 000e 202B     		cmp	r3, #32
 1100 0010 7BD1     		bne	.L225
 1101 0012 654B     		ldr	r3, .L229
 1102 0014 5A6A     		ldr	r2, [r3, #36]
 1103 0016 22F01002 		bic	r2, r2, #16
 1104 001a 5A62     		str	r2, [r3, #36]
 1105 001c 1A6A     		ldr	r2, [r3, #32]
 1106 001e 22F01002 		bic	r2, r2, #16
 1107 0022 1A62     		str	r2, [r3, #32]
 1108 0024 DA6A     		ldr	r2, [r3, #44]
 1109 0026 22F01002 		bic	r2, r2, #16
 1110 002a DA62     		str	r2, [r3, #44]
 1111 002c 9A6A     		ldr	r2, [r3, #40]
 1112 002e 22F01002 		bic	r2, r2, #16
 1113 0032 9A62     		str	r2, [r3, #40]
 1114 0034 4268     		ldr	r2, [r0, #4]
 1115 0036 D103     		lsls	r1, r2, #15
 1116 0038 03D5     		bpl	.L170
 1117 003a 196A     		ldr	r1, [r3, #32]
 1118 003c 41F01001 		orr	r1, r1, #16
 1119 0040 1962     		str	r1, [r3, #32]
 1120              	.L170:
 1121 0042 9003     		lsls	r0, r2, #14
 1122 0044 04D5     		bpl	.L171
 1123 0046 5849     		ldr	r1, .L229
 1124 0048 4B6A     		ldr	r3, [r1, #36]
 1125 004a 43F01003 		orr	r3, r3, #16
 1126 004e 4B62     		str	r3, [r1, #36]
 1127              	.L171:
 1128 0050 D107     		lsls	r1, r2, #31
 1129 0052 04D5     		bpl	.L172
 1130 0054 5449     		ldr	r1, .L229
 1131 0056 8B6A     		ldr	r3, [r1, #40]
 1132 0058 43F01003 		orr	r3, r3, #16
 1133 005c 8B62     		str	r3, [r1, #40]
 1134              	.L172:
 1135 005e 9307     		lsls	r3, r2, #30
 1136 0060 51D5     		bpl	.L173
 1137 0062 514A     		ldr	r2, .L229
 1138 0064 D36A     		ldr	r3, [r2, #44]
 1139 0066 43F01003 		orr	r3, r3, #16
 1140 006a 0020     		movs	r0, #0
 1141 006c D362     		str	r3, [r2, #44]
 1142 006e 7047     		bx	lr
ARM GAS  /tmp/ccJSmeu8.s 			page 20


 1143              	.L161:
 1144 0070 802B     		cmp	r3, #128
 1145 0072 4AD1     		bne	.L225
 1146 0074 4C4B     		ldr	r3, .L229
 1147 0076 5A6A     		ldr	r2, [r3, #36]
 1148 0078 22F04002 		bic	r2, r2, #64
 1149 007c 5A62     		str	r2, [r3, #36]
 1150 007e 1A6A     		ldr	r2, [r3, #32]
 1151 0080 22F04002 		bic	r2, r2, #64
 1152 0084 1A62     		str	r2, [r3, #32]
 1153 0086 DA6A     		ldr	r2, [r3, #44]
 1154 0088 22F04002 		bic	r2, r2, #64
 1155 008c DA62     		str	r2, [r3, #44]
 1156 008e 9A6A     		ldr	r2, [r3, #40]
 1157 0090 22F04002 		bic	r2, r2, #64
 1158 0094 9A62     		str	r2, [r3, #40]
 1159 0096 4268     		ldr	r2, [r0, #4]
 1160 0098 D103     		lsls	r1, r2, #15
 1161 009a 03D5     		bpl	.L177
 1162 009c 196A     		ldr	r1, [r3, #32]
 1163 009e 41F04001 		orr	r1, r1, #64
 1164 00a2 1962     		str	r1, [r3, #32]
 1165              	.L177:
 1166 00a4 9003     		lsls	r0, r2, #14
 1167 00a6 04D5     		bpl	.L178
 1168 00a8 3F49     		ldr	r1, .L229
 1169 00aa 4B6A     		ldr	r3, [r1, #36]
 1170 00ac 43F04003 		orr	r3, r3, #64
 1171 00b0 4B62     		str	r3, [r1, #36]
 1172              	.L178:
 1173 00b2 D107     		lsls	r1, r2, #31
 1174 00b4 04D5     		bpl	.L179
 1175 00b6 3C49     		ldr	r1, .L229
 1176 00b8 8B6A     		ldr	r3, [r1, #40]
 1177 00ba 43F04003 		orr	r3, r3, #64
 1178 00be 8B62     		str	r3, [r1, #40]
 1179              	.L179:
 1180 00c0 9307     		lsls	r3, r2, #30
 1181 00c2 20D5     		bpl	.L173
 1182 00c4 384A     		ldr	r2, .L229
 1183 00c6 D36A     		ldr	r3, [r2, #44]
 1184 00c8 43F04003 		orr	r3, r3, #64
 1185 00cc 0020     		movs	r0, #0
 1186 00ce D362     		str	r3, [r2, #44]
 1187 00d0 7047     		bx	lr
 1188              	.L162:
 1189 00d2 354B     		ldr	r3, .L229
 1190 00d4 5A6A     		ldr	r2, [r3, #36]
 1191 00d6 22F00802 		bic	r2, r2, #8
 1192 00da 5A62     		str	r2, [r3, #36]
 1193 00dc 1A6A     		ldr	r2, [r3, #32]
 1194 00de 22F00802 		bic	r2, r2, #8
 1195 00e2 1A62     		str	r2, [r3, #32]
 1196 00e4 DA6A     		ldr	r2, [r3, #44]
 1197 00e6 22F00802 		bic	r2, r2, #8
 1198 00ea DA62     		str	r2, [r3, #44]
 1199 00ec 9A6A     		ldr	r2, [r3, #40]
ARM GAS  /tmp/ccJSmeu8.s 			page 21


 1200 00ee 22F00802 		bic	r2, r2, #8
 1201 00f2 9A62     		str	r2, [r3, #40]
 1202 00f4 4268     		ldr	r2, [r0, #4]
 1203 00f6 D003     		lsls	r0, r2, #15
 1204 00f8 4FD4     		bmi	.L226
 1205 00fa 9103     		lsls	r1, r2, #14
 1206 00fc 45D4     		bmi	.L227
 1207              	.L167:
 1208 00fe D307     		lsls	r3, r2, #31
 1209 0100 3BD4     		bmi	.L228
 1210              	.L168:
 1211 0102 9007     		lsls	r0, r2, #30
 1212 0104 32D4     		bmi	.L169
 1213              	.L173:
 1214 0106 0020     		movs	r0, #0
 1215 0108 7047     		bx	lr
 1216              	.L225:
 1217 010a 0120     		movs	r0, #1
 1218 010c 7047     		bx	lr
 1219              	.L160:
 1220 010e 264B     		ldr	r3, .L229
 1221 0110 5A6A     		ldr	r2, [r3, #36]
 1222 0112 22F02002 		bic	r2, r2, #32
 1223 0116 5A62     		str	r2, [r3, #36]
 1224 0118 1A6A     		ldr	r2, [r3, #32]
 1225 011a 22F02002 		bic	r2, r2, #32
 1226 011e 1A62     		str	r2, [r3, #32]
 1227 0120 DA6A     		ldr	r2, [r3, #44]
 1228 0122 22F02002 		bic	r2, r2, #32
 1229 0126 DA62     		str	r2, [r3, #44]
 1230 0128 9A6A     		ldr	r2, [r3, #40]
 1231 012a 22F02002 		bic	r2, r2, #32
 1232 012e 9A62     		str	r2, [r3, #40]
 1233 0130 4268     		ldr	r2, [r0, #4]
 1234 0132 D003     		lsls	r0, r2, #15
 1235 0134 03D5     		bpl	.L174
 1236 0136 196A     		ldr	r1, [r3, #32]
 1237 0138 41F02001 		orr	r1, r1, #32
 1238 013c 1962     		str	r1, [r3, #32]
 1239              	.L174:
 1240 013e 9103     		lsls	r1, r2, #14
 1241 0140 04D5     		bpl	.L175
 1242 0142 1949     		ldr	r1, .L229
 1243 0144 4B6A     		ldr	r3, [r1, #36]
 1244 0146 43F02003 		orr	r3, r3, #32
 1245 014a 4B62     		str	r3, [r1, #36]
 1246              	.L175:
 1247 014c D307     		lsls	r3, r2, #31
 1248 014e 04D5     		bpl	.L176
 1249 0150 1549     		ldr	r1, .L229
 1250 0152 8B6A     		ldr	r3, [r1, #40]
 1251 0154 43F02003 		orr	r3, r3, #32
 1252 0158 8B62     		str	r3, [r1, #40]
 1253              	.L176:
 1254 015a 9007     		lsls	r0, r2, #30
 1255 015c D3D5     		bpl	.L173
 1256 015e 124A     		ldr	r2, .L229
ARM GAS  /tmp/ccJSmeu8.s 			page 22


 1257 0160 D36A     		ldr	r3, [r2, #44]
 1258 0162 43F02003 		orr	r3, r3, #32
 1259 0166 0020     		movs	r0, #0
 1260 0168 D362     		str	r3, [r2, #44]
 1261 016a 7047     		bx	lr
 1262              	.L169:
 1263 016c 0E4A     		ldr	r2, .L229
 1264 016e D36A     		ldr	r3, [r2, #44]
 1265 0170 43F00803 		orr	r3, r3, #8
 1266 0174 0020     		movs	r0, #0
 1267 0176 D362     		str	r3, [r2, #44]
 1268 0178 7047     		bx	lr
 1269              	.L228:
 1270 017a 0B49     		ldr	r1, .L229
 1271 017c 8B6A     		ldr	r3, [r1, #40]
 1272 017e 9007     		lsls	r0, r2, #30
 1273 0180 43F00803 		orr	r3, r3, #8
 1274 0184 8B62     		str	r3, [r1, #40]
 1275 0186 F1D4     		bmi	.L169
 1276 0188 BDE7     		b	.L173
 1277              	.L227:
 1278 018a 0749     		ldr	r1, .L229
 1279 018c 4B6A     		ldr	r3, [r1, #36]
 1280 018e 43F00803 		orr	r3, r3, #8
 1281 0192 4B62     		str	r3, [r1, #36]
 1282 0194 D307     		lsls	r3, r2, #31
 1283 0196 B4D5     		bpl	.L168
 1284 0198 EFE7     		b	.L228
 1285              	.L226:
 1286 019a 196A     		ldr	r1, [r3, #32]
 1287 019c 41F00801 		orr	r1, r1, #8
 1288 01a0 1962     		str	r1, [r3, #32]
 1289 01a2 9103     		lsls	r1, r2, #14
 1290 01a4 ABD5     		bpl	.L167
 1291 01a6 F0E7     		b	.L227
 1292              	.L230:
 1293              		.align	2
 1294              	.L229:
 1295 01a8 00040140 		.word	1073808384
 1297              		.section	.text.HAL_PWREx_EnableLowPowerRunMode,"ax",%progbits
 1298              		.align	1
 1299              		.p2align 2,,3
 1300              		.global	HAL_PWREx_EnableLowPowerRunMode
 1301              		.syntax unified
 1302              		.thumb
 1303              		.thumb_func
 1304              		.fpu fpv4-sp-d16
 1306              	HAL_PWREx_EnableLowPowerRunMode:
 1307              		@ args = 0, pretend = 0, frame = 0
 1308              		@ frame_needed = 0, uses_anonymous_args = 0
 1309              		@ link register save eliminated.
 1310 0000 024A     		ldr	r2, .L232
 1311 0002 1368     		ldr	r3, [r2]
 1312 0004 43F48043 		orr	r3, r3, #16384
 1313 0008 1360     		str	r3, [r2]
 1314 000a 7047     		bx	lr
 1315              	.L233:
ARM GAS  /tmp/ccJSmeu8.s 			page 23


 1316              		.align	2
 1317              	.L232:
 1318 000c 00700040 		.word	1073770496
 1320              		.section	.text.HAL_PWREx_DisableLowPowerRunMode,"ax",%progbits
 1321              		.align	1
 1322              		.p2align 2,,3
 1323              		.global	HAL_PWREx_DisableLowPowerRunMode
 1324              		.syntax unified
 1325              		.thumb
 1326              		.thumb_func
 1327              		.fpu fpv4-sp-d16
 1329              	HAL_PWREx_DisableLowPowerRunMode:
 1330              		@ args = 0, pretend = 0, frame = 0
 1331              		@ frame_needed = 0, uses_anonymous_args = 0
 1332              		@ link register save eliminated.
 1333 0000 1049     		ldr	r1, .L247
 1334 0002 1148     		ldr	r0, .L247+4
 1335 0004 0B68     		ldr	r3, [r1]
 1336 0006 114A     		ldr	r2, .L247+8
 1337 0008 23F48043 		bic	r3, r3, #16384
 1338 000c 0B60     		str	r3, [r1]
 1339 000e 0368     		ldr	r3, [r0]
 1340 0010 3220     		movs	r0, #50
 1341 0012 00FB03F3 		mul	r3, r0, r3
 1342 0016 4869     		ldr	r0, [r1, #20]
 1343 0018 A2FB0323 		umull	r2, r3, r2, r3
 1344 001c 9B0C     		lsrs	r3, r3, #18
 1345 001e 8205     		lsls	r2, r0, #22
 1346 0020 03F10103 		add	r3, r3, #1
 1347 0024 06D5     		bpl	.L235
 1348 0026 00E0     		b	.L236
 1349              	.L246:
 1350 0028 23B1     		cbz	r3, .L235
 1351              	.L236:
 1352 002a 4A69     		ldr	r2, [r1, #20]
 1353 002c 9205     		lsls	r2, r2, #22
 1354 002e 03F1FF33 		add	r3, r3, #-1
 1355 0032 F9D4     		bmi	.L246
 1356              	.L235:
 1357 0034 034B     		ldr	r3, .L247
 1358 0036 5B69     		ldr	r3, [r3, #20]
 1359 0038 13F4007F 		tst	r3, #512
 1360 003c 14BF     		ite	ne
 1361 003e 0320     		movne	r0, #3
 1362 0040 0020     		moveq	r0, #0
 1363 0042 7047     		bx	lr
 1364              	.L248:
 1365              		.align	2
 1366              	.L247:
 1367 0044 00700040 		.word	1073770496
 1368 0048 00000000 		.word	SystemCoreClock
 1369 004c 83DE1B43 		.word	1125899907
 1371              		.section	.text.HAL_PWREx_EnterSTOP0Mode,"ax",%progbits
 1372              		.align	1
 1373              		.p2align 2,,3
 1374              		.global	HAL_PWREx_EnterSTOP0Mode
 1375              		.syntax unified
ARM GAS  /tmp/ccJSmeu8.s 			page 24


 1376              		.thumb
 1377              		.thumb_func
 1378              		.fpu fpv4-sp-d16
 1380              	HAL_PWREx_EnterSTOP0Mode:
 1381              		@ args = 0, pretend = 0, frame = 0
 1382              		@ frame_needed = 0, uses_anonymous_args = 0
 1383              		@ link register save eliminated.
 1384 0000 0B49     		ldr	r1, .L253
 1385 0002 0C4A     		ldr	r2, .L253+4
 1386 0004 0B68     		ldr	r3, [r1]
 1387 0006 23F00703 		bic	r3, r3, #7
 1388 000a 0B60     		str	r3, [r1]
 1389 000c 1369     		ldr	r3, [r2, #16]
 1390 000e 0128     		cmp	r0, #1
 1391 0010 43F00403 		orr	r3, r3, #4
 1392 0014 1361     		str	r3, [r2, #16]
 1393 0016 08D0     		beq	.L252
 1394              		.syntax unified
 1395              	@ 1208 "Drivers/STM32L4xx_HAL_Driver/Src/stm32l4xx_hal_pwr_ex.c" 1
 1396 0018 40BF     		sev
 1397              	@ 0 "" 2
 1398              	@ 1209 "Drivers/STM32L4xx_HAL_Driver/Src/stm32l4xx_hal_pwr_ex.c" 1
 1399 001a 20BF     		wfe
 1400              	@ 0 "" 2
 1401              	@ 1210 "Drivers/STM32L4xx_HAL_Driver/Src/stm32l4xx_hal_pwr_ex.c" 1
 1402 001c 20BF     		wfe
 1403              	@ 0 "" 2
 1404              		.thumb
 1405              		.syntax unified
 1406              	.L251:
 1407 001e 054A     		ldr	r2, .L253+4
 1408 0020 1369     		ldr	r3, [r2, #16]
 1409 0022 23F00403 		bic	r3, r3, #4
 1410 0026 1361     		str	r3, [r2, #16]
 1411 0028 7047     		bx	lr
 1412              	.L252:
 1413              		.syntax unified
 1414              	@ 1203 "Drivers/STM32L4xx_HAL_Driver/Src/stm32l4xx_hal_pwr_ex.c" 1
 1415 002a 30BF     		wfi
 1416              	@ 0 "" 2
 1417              		.thumb
 1418              		.syntax unified
 1419 002c F7E7     		b	.L251
 1420              	.L254:
 1421 002e 00BF     		.align	2
 1422              	.L253:
 1423 0030 00700040 		.word	1073770496
 1424 0034 00ED00E0 		.word	-536810240
 1426              		.section	.text.HAL_PWREx_EnterSTOP1Mode,"ax",%progbits
 1427              		.align	1
 1428              		.p2align 2,,3
 1429              		.global	HAL_PWREx_EnterSTOP1Mode
 1430              		.syntax unified
 1431              		.thumb
 1432              		.thumb_func
 1433              		.fpu fpv4-sp-d16
 1435              	HAL_PWREx_EnterSTOP1Mode:
ARM GAS  /tmp/ccJSmeu8.s 			page 25


 1436              		@ args = 0, pretend = 0, frame = 0
 1437              		@ frame_needed = 0, uses_anonymous_args = 0
 1438              		@ link register save eliminated.
 1439 0000 0C49     		ldr	r1, .L259
 1440 0002 0D4A     		ldr	r2, .L259+4
 1441 0004 0B68     		ldr	r3, [r1]
 1442 0006 23F00703 		bic	r3, r3, #7
 1443 000a 43F00103 		orr	r3, r3, #1
 1444 000e 0B60     		str	r3, [r1]
 1445 0010 1369     		ldr	r3, [r2, #16]
 1446 0012 0128     		cmp	r0, #1
 1447 0014 43F00403 		orr	r3, r3, #4
 1448 0018 1361     		str	r3, [r2, #16]
 1449 001a 08D0     		beq	.L258
 1450              		.syntax unified
 1451              	@ 1259 "Drivers/STM32L4xx_HAL_Driver/Src/stm32l4xx_hal_pwr_ex.c" 1
 1452 001c 40BF     		sev
 1453              	@ 0 "" 2
 1454              	@ 1260 "Drivers/STM32L4xx_HAL_Driver/Src/stm32l4xx_hal_pwr_ex.c" 1
 1455 001e 20BF     		wfe
 1456              	@ 0 "" 2
 1457              	@ 1261 "Drivers/STM32L4xx_HAL_Driver/Src/stm32l4xx_hal_pwr_ex.c" 1
 1458 0020 20BF     		wfe
 1459              	@ 0 "" 2
 1460              		.thumb
 1461              		.syntax unified
 1462              	.L257:
 1463 0022 054A     		ldr	r2, .L259+4
 1464 0024 1369     		ldr	r3, [r2, #16]
 1465 0026 23F00403 		bic	r3, r3, #4
 1466 002a 1361     		str	r3, [r2, #16]
 1467 002c 7047     		bx	lr
 1468              	.L258:
 1469              		.syntax unified
 1470              	@ 1254 "Drivers/STM32L4xx_HAL_Driver/Src/stm32l4xx_hal_pwr_ex.c" 1
 1471 002e 30BF     		wfi
 1472              	@ 0 "" 2
 1473              		.thumb
 1474              		.syntax unified
 1475 0030 F7E7     		b	.L257
 1476              	.L260:
 1477 0032 00BF     		.align	2
 1478              	.L259:
 1479 0034 00700040 		.word	1073770496
 1480 0038 00ED00E0 		.word	-536810240
 1482              		.section	.text.HAL_PWREx_EnterSTOP2Mode,"ax",%progbits
 1483              		.align	1
 1484              		.p2align 2,,3
 1485              		.global	HAL_PWREx_EnterSTOP2Mode
 1486              		.syntax unified
 1487              		.thumb
 1488              		.thumb_func
 1489              		.fpu fpv4-sp-d16
 1491              	HAL_PWREx_EnterSTOP2Mode:
 1492              		@ args = 0, pretend = 0, frame = 0
 1493              		@ frame_needed = 0, uses_anonymous_args = 0
 1494              		@ link register save eliminated.
ARM GAS  /tmp/ccJSmeu8.s 			page 26


 1495 0000 0C49     		ldr	r1, .L265
 1496 0002 0D4A     		ldr	r2, .L265+4
 1497 0004 0B68     		ldr	r3, [r1]
 1498 0006 23F00703 		bic	r3, r3, #7
 1499 000a 43F00203 		orr	r3, r3, #2
 1500 000e 0B60     		str	r3, [r1]
 1501 0010 1369     		ldr	r3, [r2, #16]
 1502 0012 0128     		cmp	r0, #1
 1503 0014 43F00403 		orr	r3, r3, #4
 1504 0018 1361     		str	r3, [r2, #16]
 1505 001a 08D0     		beq	.L264
 1506              		.syntax unified
 1507              	@ 1312 "Drivers/STM32L4xx_HAL_Driver/Src/stm32l4xx_hal_pwr_ex.c" 1
 1508 001c 40BF     		sev
 1509              	@ 0 "" 2
 1510              	@ 1313 "Drivers/STM32L4xx_HAL_Driver/Src/stm32l4xx_hal_pwr_ex.c" 1
 1511 001e 20BF     		wfe
 1512              	@ 0 "" 2
 1513              	@ 1314 "Drivers/STM32L4xx_HAL_Driver/Src/stm32l4xx_hal_pwr_ex.c" 1
 1514 0020 20BF     		wfe
 1515              	@ 0 "" 2
 1516              		.thumb
 1517              		.syntax unified
 1518              	.L263:
 1519 0022 054A     		ldr	r2, .L265+4
 1520 0024 1369     		ldr	r3, [r2, #16]
 1521 0026 23F00403 		bic	r3, r3, #4
 1522 002a 1361     		str	r3, [r2, #16]
 1523 002c 7047     		bx	lr
 1524              	.L264:
 1525              		.syntax unified
 1526              	@ 1307 "Drivers/STM32L4xx_HAL_Driver/Src/stm32l4xx_hal_pwr_ex.c" 1
 1527 002e 30BF     		wfi
 1528              	@ 0 "" 2
 1529              		.thumb
 1530              		.syntax unified
 1531 0030 F7E7     		b	.L263
 1532              	.L266:
 1533 0032 00BF     		.align	2
 1534              	.L265:
 1535 0034 00700040 		.word	1073770496
 1536 0038 00ED00E0 		.word	-536810240
 1538              		.section	.text.HAL_PWREx_EnterSHUTDOWNMode,"ax",%progbits
 1539              		.align	1
 1540              		.p2align 2,,3
 1541              		.global	HAL_PWREx_EnterSHUTDOWNMode
 1542              		.syntax unified
 1543              		.thumb
 1544              		.thumb_func
 1545              		.fpu fpv4-sp-d16
 1547              	HAL_PWREx_EnterSHUTDOWNMode:
 1548              		@ args = 0, pretend = 0, frame = 0
 1549              		@ frame_needed = 0, uses_anonymous_args = 0
 1550              		@ link register save eliminated.
 1551 0000 0649     		ldr	r1, .L268
 1552 0002 074A     		ldr	r2, .L268+4
 1553 0004 0B68     		ldr	r3, [r1]
ARM GAS  /tmp/ccJSmeu8.s 			page 27


 1554 0006 23F00703 		bic	r3, r3, #7
 1555 000a 43F00403 		orr	r3, r3, #4
 1556 000e 0B60     		str	r3, [r1]
 1557 0010 1369     		ldr	r3, [r2, #16]
 1558 0012 43F00403 		orr	r3, r3, #4
 1559 0016 1361     		str	r3, [r2, #16]
 1560              		.syntax unified
 1561              	@ 1348 "Drivers/STM32L4xx_HAL_Driver/Src/stm32l4xx_hal_pwr_ex.c" 1
 1562 0018 30BF     		wfi
 1563              	@ 0 "" 2
 1564              		.thumb
 1565              		.syntax unified
 1566 001a 7047     		bx	lr
 1567              	.L269:
 1568              		.align	2
 1569              	.L268:
 1570 001c 00700040 		.word	1073770496
 1571 0020 00ED00E0 		.word	-536810240
 1573              		.section	.text.HAL_PWREx_PVM1Callback,"ax",%progbits
 1574              		.align	1
 1575              		.p2align 2,,3
 1576              		.weak	HAL_PWREx_PVM1Callback
 1577              		.syntax unified
 1578              		.thumb
 1579              		.thumb_func
 1580              		.fpu fpv4-sp-d16
 1582              	HAL_PWREx_PVM1Callback:
 1583              		@ args = 0, pretend = 0, frame = 0
 1584              		@ frame_needed = 0, uses_anonymous_args = 0
 1585              		@ link register save eliminated.
 1586 0000 7047     		bx	lr
 1588 0002 00BF     		.section	.text.HAL_PWREx_PVM2Callback,"ax",%progbits
 1589              		.align	1
 1590              		.p2align 2,,3
 1591              		.weak	HAL_PWREx_PVM2Callback
 1592              		.syntax unified
 1593              		.thumb
 1594              		.thumb_func
 1595              		.fpu fpv4-sp-d16
 1597              	HAL_PWREx_PVM2Callback:
 1598              		@ args = 0, pretend = 0, frame = 0
 1599              		@ frame_needed = 0, uses_anonymous_args = 0
 1600              		@ link register save eliminated.
 1601 0000 7047     		bx	lr
 1603 0002 00BF     		.section	.text.HAL_PWREx_PVM3Callback,"ax",%progbits
 1604              		.align	1
 1605              		.p2align 2,,3
 1606              		.weak	HAL_PWREx_PVM3Callback
 1607              		.syntax unified
 1608              		.thumb
 1609              		.thumb_func
 1610              		.fpu fpv4-sp-d16
 1612              	HAL_PWREx_PVM3Callback:
 1613              		@ args = 0, pretend = 0, frame = 0
 1614              		@ frame_needed = 0, uses_anonymous_args = 0
 1615              		@ link register save eliminated.
 1616 0000 7047     		bx	lr
ARM GAS  /tmp/ccJSmeu8.s 			page 28


 1618 0002 00BF     		.section	.text.HAL_PWREx_PVM4Callback,"ax",%progbits
 1619              		.align	1
 1620              		.p2align 2,,3
 1621              		.weak	HAL_PWREx_PVM4Callback
 1622              		.syntax unified
 1623              		.thumb
 1624              		.thumb_func
 1625              		.fpu fpv4-sp-d16
 1627              	HAL_PWREx_PVM4Callback:
 1628              		@ args = 0, pretend = 0, frame = 0
 1629              		@ frame_needed = 0, uses_anonymous_args = 0
 1630              		@ link register save eliminated.
 1631 0000 7047     		bx	lr
 1633 0002 00BF     		.section	.text.HAL_PWREx_PVD_PVM_IRQHandler,"ax",%progbits
 1634              		.align	1
 1635              		.p2align 2,,3
 1636              		.global	HAL_PWREx_PVD_PVM_IRQHandler
 1637              		.syntax unified
 1638              		.thumb
 1639              		.thumb_func
 1640              		.fpu fpv4-sp-d16
 1642              	HAL_PWREx_PVD_PVM_IRQHandler:
 1643              		@ args = 0, pretend = 0, frame = 0
 1644              		@ frame_needed = 0, uses_anonymous_args = 0
 1645 0000 10B5     		push	{r4, lr}
 1646 0002 174C     		ldr	r4, .L301
 1647 0004 6369     		ldr	r3, [r4, #20]
 1648 0006 DB03     		lsls	r3, r3, #15
 1649 0008 24D4     		bmi	.L296
 1650              	.L275:
 1651 000a 154C     		ldr	r4, .L301
 1652 000c 636B     		ldr	r3, [r4, #52]
 1653 000e 1807     		lsls	r0, r3, #28
 1654 0010 1BD4     		bmi	.L297
 1655              	.L276:
 1656 0012 134C     		ldr	r4, .L301
 1657 0014 636B     		ldr	r3, [r4, #52]
 1658 0016 D906     		lsls	r1, r3, #27
 1659 0018 12D4     		bmi	.L298
 1660              	.L277:
 1661 001a 114C     		ldr	r4, .L301
 1662 001c 636B     		ldr	r3, [r4, #52]
 1663 001e 9A06     		lsls	r2, r3, #26
 1664 0020 09D4     		bmi	.L299
 1665              	.L278:
 1666 0022 0F4C     		ldr	r4, .L301
 1667 0024 636B     		ldr	r3, [r4, #52]
 1668 0026 5B06     		lsls	r3, r3, #25
 1669 0028 00D4     		bmi	.L300
 1670 002a 10BD     		pop	{r4, pc}
 1671              	.L300:
 1672 002c FFF7FEFF 		bl	HAL_PWREx_PVM4Callback
 1673 0030 4023     		movs	r3, #64
 1674 0032 6363     		str	r3, [r4, #52]
 1675 0034 10BD     		pop	{r4, pc}
 1676              	.L299:
 1677 0036 FFF7FEFF 		bl	HAL_PWREx_PVM3Callback
ARM GAS  /tmp/ccJSmeu8.s 			page 29


 1678 003a 2023     		movs	r3, #32
 1679 003c 6363     		str	r3, [r4, #52]
 1680 003e F0E7     		b	.L278
 1681              	.L298:
 1682 0040 FFF7FEFF 		bl	HAL_PWREx_PVM2Callback
 1683 0044 1023     		movs	r3, #16
 1684 0046 6363     		str	r3, [r4, #52]
 1685 0048 E7E7     		b	.L277
 1686              	.L297:
 1687 004a FFF7FEFF 		bl	HAL_PWREx_PVM1Callback
 1688 004e 0823     		movs	r3, #8
 1689 0050 6363     		str	r3, [r4, #52]
 1690 0052 DEE7     		b	.L276
 1691              	.L296:
 1692 0054 FFF7FEFF 		bl	HAL_PWR_PVDCallback
 1693 0058 4FF48033 		mov	r3, #65536
 1694 005c 6361     		str	r3, [r4, #20]
 1695 005e D4E7     		b	.L275
 1696              	.L302:
 1697              		.align	2
 1698              	.L301:
 1699 0060 00040140 		.word	1073808384
 1701              		.ident	"GCC: (Arch Repository) 11.2.0"
ARM GAS  /tmp/ccJSmeu8.s 			page 30

