ARM GAS  /tmp/ccaUNzWT.s 			page 1


   1              		.cpu cortex-m4
   2              		.eabi_attribute 27, 1
   3              		.eabi_attribute 28, 1
   4              		.eabi_attribute 20, 1
   5              		.eabi_attribute 21, 1
   6              		.eabi_attribute 23, 3
   7              		.eabi_attribute 24, 1
   8              		.eabi_attribute 25, 1
   9              		.eabi_attribute 26, 1
  10              		.eabi_attribute 30, 2
  11              		.eabi_attribute 34, 1
  12              		.eabi_attribute 18, 4
  13              		.file	"stm32l4xx_hal_rcc.c"
  14              		.text
  15              		.section	.text.RCC_SetFlashLatencyFromMSIRange,"ax",%progbits
  16              		.align	1
  17              		.p2align 2,,3
  18              		.arch armv7e-m
  19              		.syntax unified
  20              		.thumb
  21              		.thumb_func
  22              		.fpu fpv4-sp-d16
  24              	RCC_SetFlashLatencyFromMSIRange:
  25              		@ args = 0, pretend = 0, frame = 8
  26              		@ frame_needed = 0, uses_anonymous_args = 0
  27 0000 30B5     		push	{r4, r5, lr}
  28 0002 204D     		ldr	r5, .L13
  29 0004 AB6D     		ldr	r3, [r5, #88]
  30 0006 DB00     		lsls	r3, r3, #3
  31 0008 83B0     		sub	sp, sp, #12
  32 000a 0446     		mov	r4, r0
  33 000c 1CD5     		bpl	.L2
  34 000e FFF7FEFF 		bl	HAL_PWREx_GetVoltageRange
  35 0012 B0F5007F 		cmp	r0, #512
  36 0016 29D0     		beq	.L12
  37              	.L4:
  38 0018 802C     		cmp	r4, #128
  39 001a 13D8     		bhi	.L8
  40 001c 2FD0     		beq	.L9
  41 001e A4F17004 		sub	r4, #112
  42 0022 B4FA84F4 		clz	r4, r4
  43 0026 6409     		lsrs	r4, r4, #5
  44              	.L5:
  45 0028 1749     		ldr	r1, .L13+4
  46 002a 0B68     		ldr	r3, [r1]
  47 002c 23F00703 		bic	r3, r3, #7
  48 0030 2343     		orrs	r3, r3, r4
  49 0032 0B60     		str	r3, [r1]
  50 0034 0868     		ldr	r0, [r1]
  51 0036 00F00700 		and	r0, r0, #7
  52 003a 001B     		subs	r0, r0, r4
  53 003c 18BF     		it	ne
  54 003e 0120     		movne	r0, #1
  55 0040 03B0     		add	sp, sp, #12
  56              		@ sp needed
  57 0042 30BD     		pop	{r4, r5, pc}
  58              	.L8:
ARM GAS  /tmp/ccaUNzWT.s 			page 2


  59 0044 0324     		movs	r4, #3
  60 0046 EFE7     		b	.L5
  61              	.L2:
  62 0048 AB6D     		ldr	r3, [r5, #88]
  63 004a 43F08053 		orr	r3, r3, #268435456
  64 004e AB65     		str	r3, [r5, #88]
  65 0050 AB6D     		ldr	r3, [r5, #88]
  66 0052 03F08053 		and	r3, r3, #268435456
  67 0056 0193     		str	r3, [sp, #4]
  68 0058 019B     		ldr	r3, [sp, #4]
  69 005a FFF7FEFF 		bl	HAL_PWREx_GetVoltageRange
  70 005e AB6D     		ldr	r3, [r5, #88]
  71 0060 B0F5007F 		cmp	r0, #512
  72 0064 23F08053 		bic	r3, r3, #268435456
  73 0068 AB65     		str	r3, [r5, #88]
  74 006a D5D1     		bne	.L4
  75              	.L12:
  76 006c 802C     		cmp	r4, #128
  77 006e 04D9     		bls	.L6
  78 0070 A02C     		cmp	r4, #160
  79 0072 8CBF     		ite	hi
  80 0074 0224     		movhi	r4, #2
  81 0076 0124     		movls	r4, #1
  82 0078 D6E7     		b	.L5
  83              	.L6:
  84 007a 0024     		movs	r4, #0
  85 007c D4E7     		b	.L5
  86              	.L9:
  87 007e 0224     		movs	r4, #2
  88 0080 D2E7     		b	.L5
  89              	.L14:
  90 0082 00BF     		.align	2
  91              	.L13:
  92 0084 00100240 		.word	1073876992
  93 0088 00200240 		.word	1073881088
  95              		.section	.text.HAL_RCC_DeInit,"ax",%progbits
  96              		.align	1
  97              		.p2align 2,,3
  98              		.global	HAL_RCC_DeInit
  99              		.syntax unified
 100              		.thumb
 101              		.thumb_func
 102              		.fpu fpv4-sp-d16
 104              	HAL_RCC_DeInit:
 105              		@ args = 0, pretend = 0, frame = 0
 106              		@ frame_needed = 0, uses_anonymous_args = 0
 107 0000 F8B5     		push	{r3, r4, r5, r6, r7, lr}
 108 0002 344C     		ldr	r4, .L28
 109 0004 2368     		ldr	r3, [r4]
 110 0006 43F00103 		orr	r3, r3, #1
 111 000a 2360     		str	r3, [r4]
 112 000c FFF7FEFF 		bl	HAL_GetTick
 113 0010 0546     		mov	r5, r0
 114 0012 04E0     		b	.L16
 115              	.L18:
 116 0014 FFF7FEFF 		bl	HAL_GetTick
 117 0018 401B     		subs	r0, r0, r5
ARM GAS  /tmp/ccaUNzWT.s 			page 3


 118 001a 0228     		cmp	r0, #2
 119 001c 16D8     		bhi	.L20
 120              	.L16:
 121 001e 2368     		ldr	r3, [r4]
 122 0020 9B07     		lsls	r3, r3, #30
 123 0022 F7D5     		bpl	.L18
 124 0024 2368     		ldr	r3, [r4]
 125 0026 2C49     		ldr	r1, .L28+4
 126 0028 23F0F003 		bic	r3, r3, #240
 127 002c 43F06003 		orr	r3, r3, #96
 128 0030 0022     		movs	r2, #0
 129 0032 2360     		str	r3, [r4]
 130 0034 A260     		str	r2, [r4, #8]
 131 0036 294B     		ldr	r3, .L28+8
 132 0038 294A     		ldr	r2, .L28+12
 133 003a 0868     		ldr	r0, [r1]
 134 003c 1A60     		str	r2, [r3]
 135 003e FFF7FEFF 		bl	HAL_InitTick
 136 0042 0446     		mov	r4, r0
 137 0044 28B1     		cbz	r0, .L27
 138 0046 0124     		movs	r4, #1
 139 0048 2046     		mov	r0, r4
 140 004a F8BD     		pop	{r3, r4, r5, r6, r7, pc}
 141              	.L20:
 142 004c 0324     		movs	r4, #3
 143              	.L17:
 144 004e 2046     		mov	r0, r4
 145 0050 F8BD     		pop	{r3, r4, r5, r6, r7, pc}
 146              	.L27:
 147 0052 FFF7FEFF 		bl	HAL_GetTick
 148 0056 1F4E     		ldr	r6, .L28
 149 0058 0546     		mov	r5, r0
 150 005a 41F28837 		movw	r7, #5000
 151 005e 04E0     		b	.L19
 152              	.L21:
 153 0060 FFF7FEFF 		bl	HAL_GetTick
 154 0064 431B     		subs	r3, r0, r5
 155 0066 BB42     		cmp	r3, r7
 156 0068 F0D8     		bhi	.L20
 157              	.L19:
 158 006a B368     		ldr	r3, [r6, #8]
 159 006c 13F00C0F 		tst	r3, #12
 160 0070 F6D1     		bne	.L21
 161 0072 3268     		ldr	r2, [r6]
 162 0074 1B4B     		ldr	r3, .L28+16
 163 0076 174D     		ldr	r5, .L28
 164 0078 1340     		ands	r3, r3, r2
 165 007a 3360     		str	r3, [r6]
 166 007c FFF7FEFF 		bl	HAL_GetTick
 167 0080 0646     		mov	r6, r0
 168 0082 04E0     		b	.L22
 169              	.L23:
 170 0084 FFF7FEFF 		bl	HAL_GetTick
 171 0088 831B     		subs	r3, r0, r6
 172 008a 022B     		cmp	r3, #2
 173 008c DED8     		bhi	.L20
 174              	.L22:
ARM GAS  /tmp/ccaUNzWT.s 			page 4


 175 008e 2B68     		ldr	r3, [r5]
 176 0090 13F02853 		ands	r3, r3, #704643072
 177 0094 F6D1     		bne	.L23
 178 0096 EB60     		str	r3, [r5, #12]
 179 0098 EA68     		ldr	r2, [r5, #12]
 180 009a 42F48052 		orr	r2, r2, #4096
 181 009e EA60     		str	r2, [r5, #12]
 182 00a0 2B61     		str	r3, [r5, #16]
 183 00a2 2A69     		ldr	r2, [r5, #16]
 184 00a4 42F48052 		orr	r2, r2, #4096
 185 00a8 2A61     		str	r2, [r5, #16]
 186 00aa 6B61     		str	r3, [r5, #20]
 187 00ac 6A69     		ldr	r2, [r5, #20]
 188 00ae 42F48052 		orr	r2, r2, #4096
 189 00b2 6A61     		str	r2, [r5, #20]
 190 00b4 2A68     		ldr	r2, [r5]
 191 00b6 4FF0FF31 		mov	r1, #-1
 192 00ba 22F48022 		bic	r2, r2, #262144
 193 00be 2A60     		str	r2, [r5]
 194 00c0 AB61     		str	r3, [r5, #24]
 195 00c2 2962     		str	r1, [r5, #32]
 196 00c4 D5F89430 		ldr	r3, [r5, #148]
 197 00c8 43F40003 		orr	r3, r3, #8388608
 198 00cc C5F89430 		str	r3, [r5, #148]
 199 00d0 BDE7     		b	.L17
 200              	.L29:
 201 00d2 00BF     		.align	2
 202              	.L28:
 203 00d4 00100240 		.word	1073876992
 204 00d8 00000000 		.word	uwTickPrio
 205 00dc 00000000 		.word	SystemCoreClock
 206 00e0 00093D00 		.word	4000000
 207 00e4 FFF4FEEA 		.word	-352389889
 209              		.section	.text.HAL_RCC_MCOConfig,"ax",%progbits
 210              		.align	1
 211              		.p2align 2,,3
 212              		.global	HAL_RCC_MCOConfig
 213              		.syntax unified
 214              		.thumb
 215              		.thumb_func
 216              		.fpu fpv4-sp-d16
 218              	HAL_RCC_MCOConfig:
 219              		@ args = 0, pretend = 0, frame = 32
 220              		@ frame_needed = 0, uses_anonymous_args = 0
 221 0000 70B5     		push	{r4, r5, r6, lr}
 222 0002 134C     		ldr	r4, .L32
 223 0004 E36C     		ldr	r3, [r4, #76]
 224 0006 43F00103 		orr	r3, r3, #1
 225 000a E364     		str	r3, [r4, #76]
 226 000c E36C     		ldr	r3, [r4, #76]
 227 000e 88B0     		sub	sp, sp, #32
 228 0010 03F00103 		and	r3, r3, #1
 229 0014 0193     		str	r3, [sp, #4]
 230 0016 0D46     		mov	r5, r1
 231 0018 1646     		mov	r6, r2
 232 001a 4FF48070 		mov	r0, #256
 233 001e 0221     		movs	r1, #2
ARM GAS  /tmp/ccaUNzWT.s 			page 5


 234 0020 0022     		movs	r2, #0
 235 0022 0223     		movs	r3, #2
 236 0024 CDE90201 		strd	r0, [sp, #8]
 237 0028 CDE90423 		strd	r2, [sp, #16]
 238 002c 02A9     		add	r1, sp, #8
 239 002e 0023     		movs	r3, #0
 240 0030 4FF09040 		mov	r0, #1207959552
 241 0034 019A     		ldr	r2, [sp, #4]
 242 0036 0693     		str	r3, [sp, #24]
 243 0038 FFF7FEFF 		bl	HAL_GPIO_Init
 244 003c A368     		ldr	r3, [r4, #8]
 245 003e 23F0EE43 		bic	r3, r3, #1996488704
 246 0042 43EA0602 		orr	r2, r3, r6
 247 0046 2A43     		orrs	r2, r2, r5
 248 0048 A260     		str	r2, [r4, #8]
 249 004a 08B0     		add	sp, sp, #32
 250              		@ sp needed
 251 004c 70BD     		pop	{r4, r5, r6, pc}
 252              	.L33:
 253 004e 00BF     		.align	2
 254              	.L32:
 255 0050 00100240 		.word	1073876992
 257              		.section	.text.HAL_RCC_GetSysClockFreq,"ax",%progbits
 258              		.align	1
 259              		.p2align 2,,3
 260              		.global	HAL_RCC_GetSysClockFreq
 261              		.syntax unified
 262              		.thumb
 263              		.thumb_func
 264              		.fpu fpv4-sp-d16
 266              	HAL_RCC_GetSysClockFreq:
 267              		@ args = 0, pretend = 0, frame = 0
 268              		@ frame_needed = 0, uses_anonymous_args = 0
 269              		@ link register save eliminated.
 270 0000 284A     		ldr	r2, .L59
 271 0002 9368     		ldr	r3, [r2, #8]
 272 0004 D268     		ldr	r2, [r2, #12]
 273 0006 13F00C03 		ands	r3, r3, #12
 274 000a 08D0     		beq	.L35
 275 000c 0C2B     		cmp	r3, #12
 276 000e 38D0     		beq	.L56
 277 0010 042B     		cmp	r3, #4
 278 0012 34D0     		beq	.L45
 279 0014 082B     		cmp	r3, #8
 280 0016 2448     		ldr	r0, .L59+4
 281 0018 18BF     		it	ne
 282 001a 0020     		movne	r0, #0
 283 001c 7047     		bx	lr
 284              	.L35:
 285 001e 214A     		ldr	r2, .L59
 286 0020 1168     		ldr	r1, [r2]
 287 0022 0907     		lsls	r1, r1, #28
 288 0024 54BF     		ite	pl
 289 0026 D2F89420 		ldrpl	r2, [r2, #148]
 290 002a 1268     		ldrmi	r2, [r2]
 291 002c 1F49     		ldr	r1, .L59+8
 292 002e 54BF     		ite	pl
ARM GAS  /tmp/ccaUNzWT.s 			page 6


 293 0030 C2F30322 		ubfxpl	r2, r2, #8, #4
 294 0034 C2F30312 		ubfxmi	r2, r2, #4, #4
 295 0038 51F82200 		ldr	r0, [r1, r2, lsl #2]
 296 003c 03B3     		cbz	r3, .L34
 297 003e 0C2B     		cmp	r3, #12
 298 0040 2DD1     		bne	.L57
 299 0042 184B     		ldr	r3, .L59
 300 0044 DB68     		ldr	r3, [r3, #12]
 301 0046 03F00303 		and	r3, r3, #3
 302 004a 022B     		cmp	r3, #2
 303 004c 25D0     		beq	.L48
 304              	.L58:
 305 004e 164A     		ldr	r2, .L59+4
 306 0050 032B     		cmp	r3, #3
 307 0052 08BF     		it	eq
 308 0054 1046     		moveq	r0, r2
 309              	.L43:
 310 0056 134B     		ldr	r3, .L59
 311 0058 D968     		ldr	r1, [r3, #12]
 312 005a DA68     		ldr	r2, [r3, #12]
 313 005c DB68     		ldr	r3, [r3, #12]
 314 005e C3F34163 		ubfx	r3, r3, #25, #2
 315 0062 C2F30622 		ubfx	r2, r2, #8, #7
 316 0066 C1F30211 		ubfx	r1, r1, #4, #3
 317 006a 0133     		adds	r3, r3, #1
 318 006c 00FB02F2 		mul	r2, r0, r2
 319 0070 0131     		adds	r1, r1, #1
 320 0072 5B00     		lsls	r3, r3, #1
 321 0074 B2FBF1F2 		udiv	r2, r2, r1
 322 0078 B2FBF3F0 		udiv	r0, r2, r3
 323 007c 7047     		bx	lr
 324              	.L45:
 325 007e 0C48     		ldr	r0, .L59+12
 326              	.L34:
 327 0080 7047     		bx	lr
 328              	.L56:
 329 0082 02F00302 		and	r2, r2, #3
 330 0086 012A     		cmp	r2, #1
 331 0088 C9D0     		beq	.L35
 332 008a 064B     		ldr	r3, .L59
 333 008c DB68     		ldr	r3, [r3, #12]
 334 008e 03F00303 		and	r3, r3, #3
 335 0092 022B     		cmp	r3, #2
 336 0094 4FF00000 		mov	r0, #0
 337 0098 D9D1     		bne	.L58
 338              	.L48:
 339 009a 0548     		ldr	r0, .L59+12
 340 009c DBE7     		b	.L43
 341              	.L57:
 342 009e 0020     		movs	r0, #0
 343 00a0 7047     		bx	lr
 344              	.L60:
 345 00a2 00BF     		.align	2
 346              	.L59:
 347 00a4 00100240 		.word	1073876992
 348 00a8 00127A00 		.word	8000000
 349 00ac 00000000 		.word	MSIRangeTable
ARM GAS  /tmp/ccaUNzWT.s 			page 7


 350 00b0 0024F400 		.word	16000000
 352              		.section	.text.HAL_RCC_OscConfig,"ax",%progbits
 353              		.align	1
 354              		.p2align 2,,3
 355              		.global	HAL_RCC_OscConfig
 356              		.syntax unified
 357              		.thumb
 358              		.thumb_func
 359              		.fpu fpv4-sp-d16
 361              	HAL_RCC_OscConfig:
 362              		@ args = 0, pretend = 0, frame = 8
 363              		@ frame_needed = 0, uses_anonymous_args = 0
 364 0000 0028     		cmp	r0, #0
 365 0002 00F00882 		beq	.L194
 366 0006 2DE9F043 		push	{r4, r5, r6, r7, r8, r9, lr}
 367 000a 8A4A     		ldr	r2, .L210
 368 000c 0368     		ldr	r3, [r0]
 369 000e 9568     		ldr	r5, [r2, #8]
 370 0010 D668     		ldr	r6, [r2, #12]
 371 0012 0446     		mov	r4, r0
 372 0014 D806     		lsls	r0, r3, #27
 373 0016 83B0     		sub	sp, sp, #12
 374 0018 05F00C05 		and	r5, r5, #12
 375 001c 06F00306 		and	r6, r6, #3
 376 0020 2ED5     		bpl	.L64
 377 0022 002D     		cmp	r5, #0
 378 0024 00F00D81 		beq	.L65
 379 0028 0C2D     		cmp	r5, #12
 380 002a 00F00781 		beq	.L195
 381              	.L66:
 382 002e A369     		ldr	r3, [r4, #24]
 383 0030 804F     		ldr	r7, .L210
 384 0032 002B     		cmp	r3, #0
 385 0034 00F07E81 		beq	.L75
 386 0038 3B68     		ldr	r3, [r7]
 387 003a 43F00103 		orr	r3, r3, #1
 388 003e 3B60     		str	r3, [r7]
 389 0040 FFF7FEFF 		bl	HAL_GetTick
 390 0044 8046     		mov	r8, r0
 391 0046 06E0     		b	.L76
 392              	.L77:
 393 0048 FFF7FEFF 		bl	HAL_GetTick
 394 004c A0EB0800 		sub	r0, r0, r8
 395 0050 0228     		cmp	r0, #2
 396 0052 00F27F81 		bhi	.L79
 397              	.L76:
 398 0056 3B68     		ldr	r3, [r7]
 399 0058 9B07     		lsls	r3, r3, #30
 400 005a F5D5     		bpl	.L77
 401 005c 3B68     		ldr	r3, [r7]
 402 005e 43F00803 		orr	r3, r3, #8
 403 0062 3B60     		str	r3, [r7]
 404 0064 3B68     		ldr	r3, [r7]
 405 0066 226A     		ldr	r2, [r4, #32]
 406 0068 23F0F003 		bic	r3, r3, #240
 407 006c 1343     		orrs	r3, r3, r2
 408 006e 3B60     		str	r3, [r7]
ARM GAS  /tmp/ccaUNzWT.s 			page 8


 409 0070 7B68     		ldr	r3, [r7, #4]
 410 0072 E269     		ldr	r2, [r4, #28]
 411 0074 23F47F43 		bic	r3, r3, #65280
 412 0078 43EA0223 		orr	r3, r3, r2, lsl #8
 413 007c 7B60     		str	r3, [r7, #4]
 414 007e 2368     		ldr	r3, [r4]
 415              	.L64:
 416 0080 D907     		lsls	r1, r3, #31
 417 0082 00F1AD80 		bmi	.L196
 418              	.L81:
 419 0086 9907     		lsls	r1, r3, #30
 420 0088 23D5     		bpl	.L92
 421 008a 042D     		cmp	r5, #4
 422 008c 00F04281 		beq	.L93
 423 0090 0C2D     		cmp	r5, #12
 424 0092 00F03C81 		beq	.L197
 425              	.L94:
 426 0096 E368     		ldr	r3, [r4, #12]
 427 0098 664E     		ldr	r6, .L210
 428 009a 002B     		cmp	r3, #0
 429 009c 00F07581 		beq	.L96
 430 00a0 3368     		ldr	r3, [r6]
 431 00a2 43F48073 		orr	r3, r3, #256
 432 00a6 3360     		str	r3, [r6]
 433 00a8 FFF7FEFF 		bl	HAL_GetTick
 434 00ac 0746     		mov	r7, r0
 435 00ae 05E0     		b	.L97
 436              	.L98:
 437 00b0 FFF7FEFF 		bl	HAL_GetTick
 438 00b4 C01B     		subs	r0, r0, r7
 439 00b6 0228     		cmp	r0, #2
 440 00b8 00F24C81 		bhi	.L79
 441              	.L97:
 442 00bc 3368     		ldr	r3, [r6]
 443 00be 5B05     		lsls	r3, r3, #21
 444 00c0 F6D5     		bpl	.L98
 445 00c2 7368     		ldr	r3, [r6, #4]
 446 00c4 2269     		ldr	r2, [r4, #16]
 447 00c6 23F0F853 		bic	r3, r3, #520093696
 448 00ca 43EA0263 		orr	r3, r3, r2, lsl #24
 449 00ce 7360     		str	r3, [r6, #4]
 450 00d0 2368     		ldr	r3, [r4]
 451              	.L92:
 452 00d2 1907     		lsls	r1, r3, #28
 453 00d4 19D5     		bpl	.L101
 454 00d6 6369     		ldr	r3, [r4, #20]
 455 00d8 564E     		ldr	r6, .L210
 456 00da 002B     		cmp	r3, #0
 457 00dc 00F00381 		beq	.L102
 458 00e0 D6F89430 		ldr	r3, [r6, #148]
 459 00e4 43F00103 		orr	r3, r3, #1
 460 00e8 C6F89430 		str	r3, [r6, #148]
 461 00ec FFF7FEFF 		bl	HAL_GetTick
 462 00f0 0746     		mov	r7, r0
 463 00f2 05E0     		b	.L103
 464              	.L104:
 465 00f4 FFF7FEFF 		bl	HAL_GetTick
ARM GAS  /tmp/ccaUNzWT.s 			page 9


 466 00f8 C01B     		subs	r0, r0, r7
 467 00fa 0228     		cmp	r0, #2
 468 00fc 00F22A81 		bhi	.L79
 469              	.L103:
 470 0100 D6F89430 		ldr	r3, [r6, #148]
 471 0104 9A07     		lsls	r2, r3, #30
 472 0106 F5D5     		bpl	.L104
 473              	.L193:
 474 0108 2368     		ldr	r3, [r4]
 475              	.L101:
 476 010a 5807     		lsls	r0, r3, #29
 477 010c 3ED5     		bpl	.L108
 478 010e 494B     		ldr	r3, .L210
 479 0110 9A6D     		ldr	r2, [r3, #88]
 480 0112 D100     		lsls	r1, r2, #3
 481 0114 00F13781 		bmi	.L140
 482 0118 9A6D     		ldr	r2, [r3, #88]
 483 011a 42F08052 		orr	r2, r2, #268435456
 484 011e 9A65     		str	r2, [r3, #88]
 485 0120 9B6D     		ldr	r3, [r3, #88]
 486 0122 03F08053 		and	r3, r3, #268435456
 487 0126 0193     		str	r3, [sp, #4]
 488 0128 019B     		ldr	r3, [sp, #4]
 489 012a 0126     		movs	r6, #1
 490              	.L109:
 491 012c 424F     		ldr	r7, .L210+4
 492 012e 3B68     		ldr	r3, [r7]
 493 0130 DA05     		lsls	r2, r3, #23
 494 0132 40F17281 		bpl	.L110
 495              	.L115:
 496 0136 A368     		ldr	r3, [r4, #8]
 497 0138 012B     		cmp	r3, #1
 498 013a 00F03881 		beq	.L198
 499 013e 052B     		cmp	r3, #5
 500 0140 00F0F981 		beq	.L199
 501 0144 3B4F     		ldr	r7, .L210
 502 0146 D7F89020 		ldr	r2, [r7, #144]
 503 014a 22F00102 		bic	r2, r2, #1
 504 014e C7F89020 		str	r2, [r7, #144]
 505 0152 D7F89020 		ldr	r2, [r7, #144]
 506 0156 22F00402 		bic	r2, r2, #4
 507 015a C7F89020 		str	r2, [r7, #144]
 508 015e 002B     		cmp	r3, #0
 509 0160 40F02C81 		bne	.L116
 510 0164 FFF7FEFF 		bl	HAL_GetTick
 511 0168 41F28839 		movw	r9, #5000
 512 016c 8046     		mov	r8, r0
 513 016e 06E0     		b	.L123
 514              	.L124:
 515 0170 FFF7FEFF 		bl	HAL_GetTick
 516 0174 A0EB0800 		sub	r0, r0, r8
 517 0178 4845     		cmp	r0, r9
 518 017a 00F2EB80 		bhi	.L79
 519              	.L123:
 520 017e D7F89030 		ldr	r3, [r7, #144]
 521 0182 9907     		lsls	r1, r3, #30
 522 0184 F4D4     		bmi	.L124
ARM GAS  /tmp/ccaUNzWT.s 			page 10


 523 0186 002E     		cmp	r6, #0
 524 0188 40F05E81 		bne	.L200
 525              	.L108:
 526 018c A36A     		ldr	r3, [r4, #40]
 527 018e 1BB3     		cbz	r3, .L134
 528 0190 022B     		cmp	r3, #2
 529 0192 00F07281 		beq	.L201
 530 0196 0C2D     		cmp	r5, #12
 531 0198 00F09580 		beq	.L68
 532 019c 254B     		ldr	r3, .L210
 533 019e 1A68     		ldr	r2, [r3]
 534 01a0 22F08072 		bic	r2, r2, #16777216
 535 01a4 1A60     		str	r2, [r3]
 536 01a6 1A68     		ldr	r2, [r3]
 537 01a8 12F0205F 		tst	r2, #671088640
 538 01ac 00F04781 		beq	.L202
 539              	.L137:
 540 01b0 204C     		ldr	r4, .L210
 541 01b2 E368     		ldr	r3, [r4, #12]
 542 01b4 23F08873 		bic	r3, r3, #17825792
 543 01b8 23F48033 		bic	r3, r3, #65536
 544 01bc E360     		str	r3, [r4, #12]
 545 01be FFF7FEFF 		bl	HAL_GetTick
 546 01c2 0546     		mov	r5, r0
 547 01c4 05E0     		b	.L138
 548              	.L139:
 549 01c6 FFF7FEFF 		bl	HAL_GetTick
 550 01ca 401B     		subs	r0, r0, r5
 551 01cc 0228     		cmp	r0, #2
 552 01ce 00F2C180 		bhi	.L79
 553              	.L138:
 554 01d2 2368     		ldr	r3, [r4]
 555 01d4 9B01     		lsls	r3, r3, #6
 556 01d6 F6D4     		bmi	.L139
 557              	.L134:
 558 01d8 0020     		movs	r0, #0
 559              	.L63:
 560 01da 03B0     		add	sp, sp, #12
 561              		@ sp needed
 562 01dc BDE8F083 		pop	{r4, r5, r6, r7, r8, r9, pc}
 563              	.L196:
 564 01e0 082D     		cmp	r5, #8
 565 01e2 76D0     		beq	.L82
 566 01e4 0C2D     		cmp	r5, #12
 567 01e6 72D0     		beq	.L203
 568              	.L83:
 569 01e8 6368     		ldr	r3, [r4, #4]
 570 01ea B3F5803F 		cmp	r3, #65536
 571 01ee 00F0B580 		beq	.L204
 572 01f2 B3F5A02F 		cmp	r3, #327680
 573 01f6 00F03381 		beq	.L205
 574 01fa 0E4F     		ldr	r7, .L210
 575 01fc 3A68     		ldr	r2, [r7]
 576 01fe 22F48032 		bic	r2, r2, #65536
 577 0202 3A60     		str	r2, [r7]
 578 0204 3A68     		ldr	r2, [r7]
 579 0206 22F48022 		bic	r2, r2, #262144
ARM GAS  /tmp/ccaUNzWT.s 			page 11


 580 020a 3A60     		str	r2, [r7]
 581 020c 002B     		cmp	r3, #0
 582 020e 40F0AA80 		bne	.L85
 583 0212 FFF7FEFF 		bl	HAL_GetTick
 584 0216 8046     		mov	r8, r0
 585 0218 06E0     		b	.L90
 586              	.L91:
 587 021a FFF7FEFF 		bl	HAL_GetTick
 588 021e A0EB0800 		sub	r0, r0, r8
 589 0222 6428     		cmp	r0, #100
 590 0224 00F29680 		bhi	.L79
 591              	.L90:
 592 0228 3B68     		ldr	r3, [r7]
 593 022a 9803     		lsls	r0, r3, #14
 594 022c F5D4     		bmi	.L91
 595              	.L192:
 596 022e 2368     		ldr	r3, [r4]
 597 0230 29E7     		b	.L81
 598              	.L211:
 599 0232 00BF     		.align	2
 600              	.L210:
 601 0234 00100240 		.word	1073876992
 602 0238 00700040 		.word	1073770496
 603              	.L195:
 604 023c 012E     		cmp	r6, #1
 605 023e 7FF4F6AE 		bne	.L66
 606              	.L65:
 607 0242 9B4B     		ldr	r3, .L212
 608 0244 1B68     		ldr	r3, [r3]
 609 0246 9907     		lsls	r1, r3, #30
 610 0248 3AD4     		bmi	.L206
 611              	.L67:
 612 024a 994B     		ldr	r3, .L212
 613 024c 206A     		ldr	r0, [r4, #32]
 614 024e 1A68     		ldr	r2, [r3]
 615 0250 1207     		lsls	r2, r2, #28
 616 0252 56BF     		itet	pl
 617 0254 D3F89430 		ldrpl	r3, [r3, #148]
 618 0258 1B68     		ldrmi	r3, [r3]
 619 025a 1B09     		lsrpl	r3, r3, #4
 620 025c 03F0F003 		and	r3, r3, #240
 621 0260 9842     		cmp	r0, r3
 622 0262 00F2C080 		bhi	.L207
 623 0266 924B     		ldr	r3, .L212
 624 0268 1A68     		ldr	r2, [r3]
 625 026a 42F00802 		orr	r2, r2, #8
 626 026e 1A60     		str	r2, [r3]
 627 0270 1A68     		ldr	r2, [r3]
 628 0272 22F0F002 		bic	r2, r2, #240
 629 0276 0243     		orrs	r2, r2, r0
 630 0278 1A60     		str	r2, [r3]
 631 027a 5A68     		ldr	r2, [r3, #4]
 632 027c E169     		ldr	r1, [r4, #28]
 633 027e 22F47F42 		bic	r2, r2, #65280
 634 0282 42EA0122 		orr	r2, r2, r1, lsl #8
 635 0286 5A60     		str	r2, [r3, #4]
 636 0288 002D     		cmp	r5, #0
ARM GAS  /tmp/ccaUNzWT.s 			page 12


 637 028a 00F0E380 		beq	.L208
 638              	.L72:
 639 028e FFF7FEFF 		bl	HAL_RCC_GetSysClockFreq
 640 0292 874B     		ldr	r3, .L212
 641 0294 874A     		ldr	r2, .L212+4
 642 0296 9B68     		ldr	r3, [r3, #8]
 643 0298 C3F30313 		ubfx	r3, r3, #4, #4
 644 029c D35C     		ldrb	r3, [r2, r3]	@ zero_extendqisi2
 645 029e 864A     		ldr	r2, .L212+8
 646 02a0 03F01F03 		and	r3, r3, #31
 647 02a4 20FA03F3 		lsr	r3, r0, r3
 648 02a8 1068     		ldr	r0, [r2]
 649 02aa 844A     		ldr	r2, .L212+12
 650 02ac 1360     		str	r3, [r2]
 651 02ae FFF7FEFF 		bl	HAL_InitTick
 652 02b2 0028     		cmp	r0, #0
 653 02b4 91D1     		bne	.L63
 654              	.L191:
 655 02b6 2368     		ldr	r3, [r4]
 656 02b8 D907     		lsls	r1, r3, #31
 657 02ba 7FF5E4AE 		bpl	.L81
 658 02be 8FE7     		b	.L196
 659              	.L206:
 660 02c0 A369     		ldr	r3, [r4, #24]
 661 02c2 002B     		cmp	r3, #0
 662 02c4 C1D1     		bne	.L67
 663              	.L68:
 664 02c6 0120     		movs	r0, #1
 665 02c8 03B0     		add	sp, sp, #12
 666              		@ sp needed
 667 02ca BDE8F083 		pop	{r4, r5, r6, r7, r8, r9, pc}
 668              	.L203:
 669 02ce 032E     		cmp	r6, #3
 670 02d0 8AD1     		bne	.L83
 671              	.L82:
 672 02d2 774A     		ldr	r2, .L212
 673 02d4 1268     		ldr	r2, [r2]
 674 02d6 9203     		lsls	r2, r2, #14
 675 02d8 7FF5D5AE 		bpl	.L81
 676 02dc 6268     		ldr	r2, [r4, #4]
 677 02de 002A     		cmp	r2, #0
 678 02e0 7FF4D1AE 		bne	.L81
 679 02e4 EFE7     		b	.L68
 680              	.L102:
 681 02e6 D6F89430 		ldr	r3, [r6, #148]
 682 02ea 23F00103 		bic	r3, r3, #1
 683 02ee C6F89430 		str	r3, [r6, #148]
 684 02f2 FFF7FEFF 		bl	HAL_GetTick
 685 02f6 0746     		mov	r7, r0
 686 02f8 04E0     		b	.L105
 687              	.L106:
 688 02fa FFF7FEFF 		bl	HAL_GetTick
 689 02fe C01B     		subs	r0, r0, r7
 690 0300 0228     		cmp	r0, #2
 691 0302 27D8     		bhi	.L79
 692              	.L105:
 693 0304 D6F89430 		ldr	r3, [r6, #148]
ARM GAS  /tmp/ccaUNzWT.s 			page 13


 694 0308 9B07     		lsls	r3, r3, #30
 695 030a F6D4     		bmi	.L106
 696 030c FCE6     		b	.L193
 697              	.L197:
 698 030e 022E     		cmp	r6, #2
 699 0310 7FF4C1AE 		bne	.L94
 700              	.L93:
 701 0314 664A     		ldr	r2, .L212
 702 0316 1268     		ldr	r2, [r2]
 703 0318 5205     		lsls	r2, r2, #21
 704 031a 02D5     		bpl	.L95
 705 031c E268     		ldr	r2, [r4, #12]
 706 031e 002A     		cmp	r2, #0
 707 0320 D1D0     		beq	.L68
 708              	.L95:
 709 0322 6349     		ldr	r1, .L212
 710 0324 2069     		ldr	r0, [r4, #16]
 711 0326 4A68     		ldr	r2, [r1, #4]
 712 0328 22F0F852 		bic	r2, r2, #520093696
 713 032c 42EA0062 		orr	r2, r2, r0, lsl #24
 714 0330 4A60     		str	r2, [r1, #4]
 715 0332 CEE6     		b	.L92
 716              	.L75:
 717 0334 3B68     		ldr	r3, [r7]
 718 0336 23F00103 		bic	r3, r3, #1
 719 033a 3B60     		str	r3, [r7]
 720 033c FFF7FEFF 		bl	HAL_GetTick
 721 0340 8046     		mov	r8, r0
 722              	.L78:
 723 0342 3B68     		ldr	r3, [r7]
 724 0344 9807     		lsls	r0, r3, #30
 725 0346 B6D5     		bpl	.L191
 726 0348 FFF7FEFF 		bl	HAL_GetTick
 727 034c A0EB0800 		sub	r0, r0, r8
 728 0350 0228     		cmp	r0, #2
 729 0352 F6D9     		bls	.L78
 730              	.L79:
 731 0354 0320     		movs	r0, #3
 732 0356 03B0     		add	sp, sp, #12
 733              		@ sp needed
 734 0358 BDE8F083 		pop	{r4, r5, r6, r7, r8, r9, pc}
 735              	.L204:
 736 035c 544A     		ldr	r2, .L212
 737 035e 1368     		ldr	r3, [r2]
 738 0360 43F48033 		orr	r3, r3, #65536
 739 0364 1360     		str	r3, [r2]
 740              	.L85:
 741 0366 FFF7FEFF 		bl	HAL_GetTick
 742 036a DFF84481 		ldr	r8, .L212
 743 036e 0746     		mov	r7, r0
 744 0370 04E0     		b	.L88
 745              	.L89:
 746 0372 FFF7FEFF 		bl	HAL_GetTick
 747 0376 C01B     		subs	r0, r0, r7
 748 0378 6428     		cmp	r0, #100
 749 037a EBD8     		bhi	.L79
 750              	.L88:
ARM GAS  /tmp/ccaUNzWT.s 			page 14


 751 037c D8F80030 		ldr	r3, [r8]
 752 0380 9B03     		lsls	r3, r3, #14
 753 0382 F6D5     		bpl	.L89
 754 0384 53E7     		b	.L192
 755              	.L140:
 756 0386 0026     		movs	r6, #0
 757 0388 D0E6     		b	.L109
 758              	.L96:
 759 038a 3368     		ldr	r3, [r6]
 760 038c 23F48073 		bic	r3, r3, #256
 761 0390 3360     		str	r3, [r6]
 762 0392 FFF7FEFF 		bl	HAL_GetTick
 763 0396 0746     		mov	r7, r0
 764 0398 04E0     		b	.L99
 765              	.L100:
 766 039a FFF7FEFF 		bl	HAL_GetTick
 767 039e C01B     		subs	r0, r0, r7
 768 03a0 0228     		cmp	r0, #2
 769 03a2 D7D8     		bhi	.L79
 770              	.L99:
 771 03a4 3368     		ldr	r3, [r6]
 772 03a6 5805     		lsls	r0, r3, #21
 773 03a8 F7D4     		bmi	.L100
 774 03aa 2368     		ldr	r3, [r4]
 775 03ac 91E6     		b	.L92
 776              	.L198:
 777 03ae 404A     		ldr	r2, .L212
 778 03b0 D2F89030 		ldr	r3, [r2, #144]
 779 03b4 43F00103 		orr	r3, r3, #1
 780 03b8 C2F89030 		str	r3, [r2, #144]
 781              	.L116:
 782 03bc FFF7FEFF 		bl	HAL_GetTick
 783 03c0 DFF8EC80 		ldr	r8, .L212
 784 03c4 0746     		mov	r7, r0
 785 03c6 41F28839 		movw	r9, #5000
 786 03ca 04E0     		b	.L119
 787              	.L120:
 788 03cc FFF7FEFF 		bl	HAL_GetTick
 789 03d0 C01B     		subs	r0, r0, r7
 790 03d2 4845     		cmp	r0, r9
 791 03d4 BED8     		bhi	.L79
 792              	.L119:
 793 03d6 D8F89030 		ldr	r3, [r8, #144]
 794 03da 9807     		lsls	r0, r3, #30
 795 03dc F6D5     		bpl	.L120
 796 03de 002E     		cmp	r6, #0
 797 03e0 3FF4D4AE 		beq	.L108
 798 03e4 30E0     		b	.L200
 799              	.L207:
 800 03e6 FFF7FEFF 		bl	RCC_SetFlashLatencyFromMSIRange
 801 03ea 0028     		cmp	r0, #0
 802 03ec 7FF46BAF 		bne	.L68
 803 03f0 2F4B     		ldr	r3, .L212
 804 03f2 1A68     		ldr	r2, [r3]
 805 03f4 42F00802 		orr	r2, r2, #8
 806 03f8 1A60     		str	r2, [r3]
 807 03fa 1A68     		ldr	r2, [r3]
ARM GAS  /tmp/ccaUNzWT.s 			page 15


 808 03fc 216A     		ldr	r1, [r4, #32]
 809 03fe 22F0F002 		bic	r2, r2, #240
 810 0402 0A43     		orrs	r2, r2, r1
 811 0404 1A60     		str	r2, [r3]
 812 0406 5A68     		ldr	r2, [r3, #4]
 813 0408 E169     		ldr	r1, [r4, #28]
 814 040a 22F47F42 		bic	r2, r2, #65280
 815 040e 42EA0122 		orr	r2, r2, r1, lsl #8
 816 0412 5A60     		str	r2, [r3, #4]
 817 0414 3BE7     		b	.L72
 818              	.L194:
 819 0416 0120     		movs	r0, #1
 820 0418 7047     		bx	lr
 821              	.L110:
 822 041a 3B68     		ldr	r3, [r7]
 823 041c 43F48073 		orr	r3, r3, #256
 824 0420 3B60     		str	r3, [r7]
 825 0422 FFF7FEFF 		bl	HAL_GetTick
 826 0426 8046     		mov	r8, r0
 827              	.L113:
 828 0428 3B68     		ldr	r3, [r7]
 829 042a DB05     		lsls	r3, r3, #23
 830 042c 3FF583AE 		bmi	.L115
 831 0430 FFF7FEFF 		bl	HAL_GetTick
 832 0434 A0EB0800 		sub	r0, r0, r8
 833 0438 0228     		cmp	r0, #2
 834 043a F5D9     		bls	.L113
 835 043c 8AE7     		b	.L79
 836              	.L202:
 837 043e DA68     		ldr	r2, [r3, #12]
 838 0440 22F00302 		bic	r2, r2, #3
 839 0444 DA60     		str	r2, [r3, #12]
 840 0446 B3E6     		b	.L137
 841              	.L200:
 842 0448 194A     		ldr	r2, .L212
 843 044a 936D     		ldr	r3, [r2, #88]
 844 044c 23F08053 		bic	r3, r3, #268435456
 845 0450 9365     		str	r3, [r2, #88]
 846 0452 9BE6     		b	.L108
 847              	.L208:
 848 0454 FFF7FEFF 		bl	RCC_SetFlashLatencyFromMSIRange
 849 0458 0028     		cmp	r0, #0
 850 045a 3FF418AF 		beq	.L72
 851 045e 32E7     		b	.L68
 852              	.L205:
 853 0460 03F18043 		add	r3, r3, #1073741824
 854 0464 A3F53C33 		sub	r3, r3, #192512
 855 0468 1A68     		ldr	r2, [r3]
 856 046a 42F48022 		orr	r2, r2, #262144
 857 046e 1A60     		str	r2, [r3]
 858 0470 1A68     		ldr	r2, [r3]
 859 0472 42F48032 		orr	r2, r2, #65536
 860 0476 1A60     		str	r2, [r3]
 861 0478 75E7     		b	.L85
 862              	.L201:
 863 047a 0D4E     		ldr	r6, .L212
 864 047c E26A     		ldr	r2, [r4, #44]
ARM GAS  /tmp/ccaUNzWT.s 			page 16


 865 047e F368     		ldr	r3, [r6, #12]
 866 0480 03F00301 		and	r1, r3, #3
 867 0484 9142     		cmp	r1, r2
 868 0486 64D0     		beq	.L209
 869              	.L128:
 870 0488 0C2D     		cmp	r5, #12
 871 048a 3FF41CAF 		beq	.L68
 872 048e 084D     		ldr	r5, .L212
 873 0490 2B68     		ldr	r3, [r5]
 874 0492 5A01     		lsls	r2, r3, #5
 875 0494 3FF517AF 		bmi	.L68
 876 0498 2B68     		ldr	r3, [r5]
 877 049a DB00     		lsls	r3, r3, #3
 878 049c 3FF513AF 		bmi	.L68
 879 04a0 2B68     		ldr	r3, [r5]
 880 04a2 23F08073 		bic	r3, r3, #16777216
 881 04a6 2B60     		str	r3, [r5]
 882 04a8 FFF7FEFF 		bl	HAL_GetTick
 883 04ac 0646     		mov	r6, r0
 884 04ae 0DE0     		b	.L130
 885              	.L213:
 886              		.align	2
 887              	.L212:
 888 04b0 00100240 		.word	1073876992
 889 04b4 00000000 		.word	AHBPrescTable
 890 04b8 00000000 		.word	uwTickPrio
 891 04bc 00000000 		.word	SystemCoreClock
 892              	.L131:
 893 04c0 FFF7FEFF 		bl	HAL_GetTick
 894 04c4 801B     		subs	r0, r0, r6
 895 04c6 0228     		cmp	r0, #2
 896 04c8 3FF644AF 		bhi	.L79
 897              	.L130:
 898 04cc 2B68     		ldr	r3, [r5]
 899 04ce 9F01     		lsls	r7, r3, #6
 900 04d0 F6D4     		bmi	.L131
 901 04d2 E968     		ldr	r1, [r5, #12]
 902 04d4 3F4B     		ldr	r3, .L214
 903 04d6 E26A     		ldr	r2, [r4, #44]
 904 04d8 3F4E     		ldr	r6, .L214+4
 905 04da 0B40     		ands	r3, r3, r1
 906 04dc 1343     		orrs	r3, r3, r2
 907 04de D4E90C21 		ldrd	r2, r1, [r4, #48]
 908 04e2 43EA0123 		orr	r3, r3, r1, lsl #8
 909 04e6 D4E90E01 		ldrd	r0, r1, [r4, #56]
 910 04ea 013A     		subs	r2, r2, #1
 911 04ec 43EA0213 		orr	r3, r3, r2, lsl #4
 912 04f0 226C     		ldr	r2, [r4, #64]
 913 04f2 0009     		lsrs	r0, r0, #4
 914 04f4 4908     		lsrs	r1, r1, #1
 915 04f6 43EA4043 		orr	r3, r3, r0, lsl #17
 916 04fa 0139     		subs	r1, r1, #1
 917 04fc 5208     		lsrs	r2, r2, #1
 918 04fe 43EA4153 		orr	r3, r3, r1, lsl #21
 919 0502 013A     		subs	r2, r2, #1
 920 0504 43EA4263 		orr	r3, r3, r2, lsl #25
 921 0508 EB60     		str	r3, [r5, #12]
ARM GAS  /tmp/ccaUNzWT.s 			page 17


 922 050a 2B68     		ldr	r3, [r5]
 923 050c 43F08073 		orr	r3, r3, #16777216
 924 0510 2B60     		str	r3, [r5]
 925 0512 EB68     		ldr	r3, [r5, #12]
 926 0514 43F08073 		orr	r3, r3, #16777216
 927 0518 EB60     		str	r3, [r5, #12]
 928 051a FFF7FEFF 		bl	HAL_GetTick
 929 051e 0446     		mov	r4, r0
 930 0520 05E0     		b	.L132
 931              	.L133:
 932 0522 FFF7FEFF 		bl	HAL_GetTick
 933 0526 001B     		subs	r0, r0, r4
 934 0528 0228     		cmp	r0, #2
 935 052a 3FF613AF 		bhi	.L79
 936              	.L132:
 937 052e 3368     		ldr	r3, [r6]
 938 0530 9801     		lsls	r0, r3, #6
 939 0532 F6D5     		bpl	.L133
 940 0534 50E6     		b	.L134
 941              	.L199:
 942 0536 284B     		ldr	r3, .L214+4
 943 0538 D3F89020 		ldr	r2, [r3, #144]
 944 053c 42F00402 		orr	r2, r2, #4
 945 0540 C3F89020 		str	r2, [r3, #144]
 946 0544 D3F89020 		ldr	r2, [r3, #144]
 947 0548 42F00102 		orr	r2, r2, #1
 948 054c C3F89020 		str	r2, [r3, #144]
 949 0550 34E7     		b	.L116
 950              	.L209:
 951 0552 216B     		ldr	r1, [r4, #48]
 952 0554 03F07002 		and	r2, r3, #112
 953 0558 0139     		subs	r1, r1, #1
 954 055a B2EB011F 		cmp	r2, r1, lsl #4
 955 055e 93D1     		bne	.L128
 956 0560 616B     		ldr	r1, [r4, #52]
 957 0562 03F4FE42 		and	r2, r3, #32512
 958 0566 B2EB012F 		cmp	r2, r1, lsl #8
 959 056a 8DD1     		bne	.L128
 960 056c A26B     		ldr	r2, [r4, #56]
 961 056e 073A     		subs	r2, r2, #7
 962 0570 03F40031 		and	r1, r3, #131072
 963 0574 18BF     		it	ne
 964 0576 0122     		movne	r2, #1
 965 0578 9142     		cmp	r1, r2
 966 057a 85D1     		bne	.L128
 967 057c E26B     		ldr	r2, [r4, #60]
 968 057e 5208     		lsrs	r2, r2, #1
 969 0580 03F4C001 		and	r1, r3, #6291456
 970 0584 013A     		subs	r2, r2, #1
 971 0586 B1EB425F 		cmp	r1, r2, lsl #21
 972 058a 7FF47DAF 		bne	.L128
 973 058e 226C     		ldr	r2, [r4, #64]
 974 0590 5208     		lsrs	r2, r2, #1
 975 0592 03F0C063 		and	r3, r3, #100663296
 976 0596 013A     		subs	r2, r2, #1
 977 0598 B3EB426F 		cmp	r3, r2, lsl #25
 978 059c 7FF474AF 		bne	.L128
ARM GAS  /tmp/ccaUNzWT.s 			page 18


 979 05a0 3368     		ldr	r3, [r6]
 980 05a2 9901     		lsls	r1, r3, #6
 981 05a4 3FF518AE 		bmi	.L134
 982 05a8 3368     		ldr	r3, [r6]
 983 05aa 43F08073 		orr	r3, r3, #16777216
 984 05ae 3360     		str	r3, [r6]
 985 05b0 F368     		ldr	r3, [r6, #12]
 986 05b2 43F08073 		orr	r3, r3, #16777216
 987 05b6 F360     		str	r3, [r6, #12]
 988 05b8 FFF7FEFF 		bl	HAL_GetTick
 989 05bc 0446     		mov	r4, r0
 990 05be 05E0     		b	.L135
 991              	.L136:
 992 05c0 FFF7FEFF 		bl	HAL_GetTick
 993 05c4 001B     		subs	r0, r0, r4
 994 05c6 0228     		cmp	r0, #2
 995 05c8 3FF6C4AE 		bhi	.L79
 996              	.L135:
 997 05cc 3368     		ldr	r3, [r6]
 998 05ce 9A01     		lsls	r2, r3, #6
 999 05d0 F6D5     		bpl	.L136
 1000 05d2 01E6     		b	.L134
 1001              	.L215:
 1002              		.align	2
 1003              	.L214:
 1004 05d4 8C809DF9 		.word	-107118452
 1005 05d8 00100240 		.word	1073876992
 1007              		.section	.text.HAL_RCC_ClockConfig,"ax",%progbits
 1008              		.align	1
 1009              		.p2align 2,,3
 1010              		.global	HAL_RCC_ClockConfig
 1011              		.syntax unified
 1012              		.thumb
 1013              		.thumb_func
 1014              		.fpu fpv4-sp-d16
 1016              	HAL_RCC_ClockConfig:
 1017              		@ args = 0, pretend = 0, frame = 0
 1018              		@ frame_needed = 0, uses_anonymous_args = 0
 1019 0000 0028     		cmp	r0, #0
 1020 0002 00F08180 		beq	.L258
 1021 0006 454A     		ldr	r2, .L261
 1022 0008 1368     		ldr	r3, [r2]
 1023 000a 03F00703 		and	r3, r3, #7
 1024 000e 8B42     		cmp	r3, r1
 1025 0010 2DE9F041 		push	{r4, r5, r6, r7, r8, lr}
 1026 0014 0D46     		mov	r5, r1
 1027 0016 0446     		mov	r4, r0
 1028 0018 0CD2     		bcs	.L223
 1029 001a 1368     		ldr	r3, [r2]
 1030 001c 23F00703 		bic	r3, r3, #7
 1031 0020 0B43     		orrs	r3, r3, r1
 1032 0022 1360     		str	r3, [r2]
 1033 0024 1368     		ldr	r3, [r2]
 1034 0026 03F00703 		and	r3, r3, #7
 1035 002a 8B42     		cmp	r3, r1
 1036 002c 02D0     		beq	.L223
 1037              	.L222:
ARM GAS  /tmp/ccaUNzWT.s 			page 19


 1038 002e 0120     		movs	r0, #1
 1039              	.L218:
 1040 0030 BDE8F081 		pop	{r4, r5, r6, r7, r8, pc}
 1041              	.L223:
 1042 0034 2368     		ldr	r3, [r4]
 1043 0036 DA07     		lsls	r2, r3, #31
 1044 0038 3FD4     		bmi	.L220
 1045              	.L221:
 1046 003a 9907     		lsls	r1, r3, #30
 1047 003c 06D5     		bpl	.L230
 1048 003e 3849     		ldr	r1, .L261+4
 1049 0040 A068     		ldr	r0, [r4, #8]
 1050 0042 8A68     		ldr	r2, [r1, #8]
 1051 0044 22F0F002 		bic	r2, r2, #240
 1052 0048 0243     		orrs	r2, r2, r0
 1053 004a 8A60     		str	r2, [r1, #8]
 1054              	.L230:
 1055 004c 3349     		ldr	r1, .L261
 1056 004e 0A68     		ldr	r2, [r1]
 1057 0050 02F00702 		and	r2, r2, #7
 1058 0054 AA42     		cmp	r2, r5
 1059 0056 09D9     		bls	.L234
 1060 0058 0A68     		ldr	r2, [r1]
 1061 005a 22F00702 		bic	r2, r2, #7
 1062 005e 2A43     		orrs	r2, r2, r5
 1063 0060 0A60     		str	r2, [r1]
 1064 0062 0A68     		ldr	r2, [r1]
 1065 0064 02F00702 		and	r2, r2, #7
 1066 0068 AA42     		cmp	r2, r5
 1067 006a E0D1     		bne	.L222
 1068              	.L234:
 1069 006c 5A07     		lsls	r2, r3, #29
 1070 006e 06D5     		bpl	.L233
 1071 0070 2B49     		ldr	r1, .L261+4
 1072 0072 E068     		ldr	r0, [r4, #12]
 1073 0074 8A68     		ldr	r2, [r1, #8]
 1074 0076 22F4E062 		bic	r2, r2, #1792
 1075 007a 0243     		orrs	r2, r2, r0
 1076 007c 8A60     		str	r2, [r1, #8]
 1077              	.L233:
 1078 007e 1B07     		lsls	r3, r3, #28
 1079 0080 07D5     		bpl	.L235
 1080 0082 274A     		ldr	r2, .L261+4
 1081 0084 2169     		ldr	r1, [r4, #16]
 1082 0086 9368     		ldr	r3, [r2, #8]
 1083 0088 23F46053 		bic	r3, r3, #14336
 1084 008c 43EAC103 		orr	r3, r3, r1, lsl #3
 1085 0090 9360     		str	r3, [r2, #8]
 1086              	.L235:
 1087 0092 FFF7FEFF 		bl	HAL_RCC_GetSysClockFreq
 1088 0096 224A     		ldr	r2, .L261+4
 1089 0098 224C     		ldr	r4, .L261+8
 1090 009a 9268     		ldr	r2, [r2, #8]
 1091 009c 2249     		ldr	r1, .L261+12
 1092 009e C2F30312 		ubfx	r2, r2, #4, #4
 1093 00a2 0346     		mov	r3, r0
 1094 00a4 A25C     		ldrb	r2, [r4, r2]	@ zero_extendqisi2
ARM GAS  /tmp/ccaUNzWT.s 			page 20


 1095 00a6 2148     		ldr	r0, .L261+16
 1096 00a8 02F01F02 		and	r2, r2, #31
 1097 00ac D340     		lsrs	r3, r3, r2
 1098 00ae BDE8F041 		pop	{r4, r5, r6, r7, r8, lr}
 1099 00b2 0068     		ldr	r0, [r0]
 1100 00b4 0B60     		str	r3, [r1]
 1101 00b6 FFF7FEBF 		b	HAL_InitTick
 1102              	.L220:
 1103 00ba 6268     		ldr	r2, [r4, #4]
 1104 00bc 184B     		ldr	r3, .L261+4
 1105 00be 032A     		cmp	r2, #3
 1106 00c0 1B68     		ldr	r3, [r3]
 1107 00c2 23D0     		beq	.L259
 1108 00c4 022A     		cmp	r2, #2
 1109 00c6 1CD0     		beq	.L260
 1110 00c8 2ABB     		cbnz	r2, .L227
 1111 00ca 9E07     		lsls	r6, r3, #30
 1112 00cc AFD5     		bpl	.L222
 1113              	.L225:
 1114 00ce 144E     		ldr	r6, .L261+4
 1115 00d0 B368     		ldr	r3, [r6, #8]
 1116 00d2 23F00303 		bic	r3, r3, #3
 1117 00d6 1343     		orrs	r3, r3, r2
 1118 00d8 B360     		str	r3, [r6, #8]
 1119 00da FFF7FEFF 		bl	HAL_GetTick
 1120 00de 41F28838 		movw	r8, #5000
 1121 00e2 0746     		mov	r7, r0
 1122 00e4 04E0     		b	.L228
 1123              	.L229:
 1124 00e6 FFF7FEFF 		bl	HAL_GetTick
 1125 00ea C01B     		subs	r0, r0, r7
 1126 00ec 4045     		cmp	r0, r8
 1127 00ee 10D8     		bhi	.L236
 1128              	.L228:
 1129 00f0 B368     		ldr	r3, [r6, #8]
 1130 00f2 6268     		ldr	r2, [r4, #4]
 1131 00f4 03F00C03 		and	r3, r3, #12
 1132 00f8 B3EB820F 		cmp	r3, r2, lsl #2
 1133 00fc F3D1     		bne	.L229
 1134 00fe 2368     		ldr	r3, [r4]
 1135 0100 9BE7     		b	.L221
 1136              	.L260:
 1137 0102 9F03     		lsls	r7, r3, #14
 1138 0104 E3D4     		bmi	.L225
 1139 0106 92E7     		b	.L222
 1140              	.L258:
 1141 0108 0120     		movs	r0, #1
 1142 010a 7047     		bx	lr
 1143              	.L259:
 1144 010c 9B01     		lsls	r3, r3, #6
 1145 010e DED4     		bmi	.L225
 1146 0110 8DE7     		b	.L222
 1147              	.L236:
 1148 0112 0320     		movs	r0, #3
 1149 0114 8CE7     		b	.L218
 1150              	.L227:
 1151 0116 5805     		lsls	r0, r3, #21
ARM GAS  /tmp/ccaUNzWT.s 			page 21


 1152 0118 89D5     		bpl	.L222
 1153 011a D8E7     		b	.L225
 1154              	.L262:
 1155              		.align	2
 1156              	.L261:
 1157 011c 00200240 		.word	1073881088
 1158 0120 00100240 		.word	1073876992
 1159 0124 00000000 		.word	AHBPrescTable
 1160 0128 00000000 		.word	SystemCoreClock
 1161 012c 00000000 		.word	uwTickPrio
 1163              		.section	.text.HAL_RCC_GetHCLKFreq,"ax",%progbits
 1164              		.align	1
 1165              		.p2align 2,,3
 1166              		.global	HAL_RCC_GetHCLKFreq
 1167              		.syntax unified
 1168              		.thumb
 1169              		.thumb_func
 1170              		.fpu fpv4-sp-d16
 1172              	HAL_RCC_GetHCLKFreq:
 1173              		@ args = 0, pretend = 0, frame = 0
 1174              		@ frame_needed = 0, uses_anonymous_args = 0
 1175              		@ link register save eliminated.
 1176 0000 014B     		ldr	r3, .L264
 1177 0002 1868     		ldr	r0, [r3]
 1178 0004 7047     		bx	lr
 1179              	.L265:
 1180 0006 00BF     		.align	2
 1181              	.L264:
 1182 0008 00000000 		.word	SystemCoreClock
 1184              		.section	.text.HAL_RCC_GetPCLK1Freq,"ax",%progbits
 1185              		.align	1
 1186              		.p2align 2,,3
 1187              		.global	HAL_RCC_GetPCLK1Freq
 1188              		.syntax unified
 1189              		.thumb
 1190              		.thumb_func
 1191              		.fpu fpv4-sp-d16
 1193              	HAL_RCC_GetPCLK1Freq:
 1194              		@ args = 0, pretend = 0, frame = 0
 1195              		@ frame_needed = 0, uses_anonymous_args = 0
 1196              		@ link register save eliminated.
 1197 0000 054B     		ldr	r3, .L267
 1198 0002 064A     		ldr	r2, .L267+4
 1199 0004 9B68     		ldr	r3, [r3, #8]
 1200 0006 0649     		ldr	r1, .L267+8
 1201 0008 C3F30223 		ubfx	r3, r3, #8, #3
 1202 000c 0868     		ldr	r0, [r1]
 1203 000e D35C     		ldrb	r3, [r2, r3]	@ zero_extendqisi2
 1204 0010 03F01F03 		and	r3, r3, #31
 1205 0014 D840     		lsrs	r0, r0, r3
 1206 0016 7047     		bx	lr
 1207              	.L268:
 1208              		.align	2
 1209              	.L267:
 1210 0018 00100240 		.word	1073876992
 1211 001c 00000000 		.word	APBPrescTable
 1212 0020 00000000 		.word	SystemCoreClock
ARM GAS  /tmp/ccaUNzWT.s 			page 22


 1214              		.section	.text.HAL_RCC_GetPCLK2Freq,"ax",%progbits
 1215              		.align	1
 1216              		.p2align 2,,3
 1217              		.global	HAL_RCC_GetPCLK2Freq
 1218              		.syntax unified
 1219              		.thumb
 1220              		.thumb_func
 1221              		.fpu fpv4-sp-d16
 1223              	HAL_RCC_GetPCLK2Freq:
 1224              		@ args = 0, pretend = 0, frame = 0
 1225              		@ frame_needed = 0, uses_anonymous_args = 0
 1226              		@ link register save eliminated.
 1227 0000 054B     		ldr	r3, .L270
 1228 0002 064A     		ldr	r2, .L270+4
 1229 0004 9B68     		ldr	r3, [r3, #8]
 1230 0006 0649     		ldr	r1, .L270+8
 1231 0008 C3F3C223 		ubfx	r3, r3, #11, #3
 1232 000c 0868     		ldr	r0, [r1]
 1233 000e D35C     		ldrb	r3, [r2, r3]	@ zero_extendqisi2
 1234 0010 03F01F03 		and	r3, r3, #31
 1235 0014 D840     		lsrs	r0, r0, r3
 1236 0016 7047     		bx	lr
 1237              	.L271:
 1238              		.align	2
 1239              	.L270:
 1240 0018 00100240 		.word	1073876992
 1241 001c 00000000 		.word	APBPrescTable
 1242 0020 00000000 		.word	SystemCoreClock
 1244              		.section	.text.HAL_RCC_GetOscConfig,"ax",%progbits
 1245              		.align	1
 1246              		.p2align 2,,3
 1247              		.global	HAL_RCC_GetOscConfig
 1248              		.syntax unified
 1249              		.thumb
 1250              		.thumb_func
 1251              		.fpu fpv4-sp-d16
 1253              	HAL_RCC_GetOscConfig:
 1254              		@ args = 0, pretend = 0, frame = 0
 1255              		@ frame_needed = 0, uses_anonymous_args = 0
 1256              		@ link register save eliminated.
 1257 0000 2E4B     		ldr	r3, .L281
 1258 0002 1F22     		movs	r2, #31
 1259 0004 0260     		str	r2, [r0]
 1260 0006 1A68     		ldr	r2, [r3]
 1261 0008 5103     		lsls	r1, r2, #13
 1262 000a 58BF     		it	pl
 1263 000c 1A68     		ldrpl	r2, [r3]
 1264 000e 2B4B     		ldr	r3, .L281
 1265 0010 54BF     		ite	pl
 1266 0012 02F48032 		andpl	r2, r2, #65536
 1267 0016 4FF4A022 		movmi	r2, #327680
 1268 001a 4260     		str	r2, [r0, #4]
 1269 001c 1A68     		ldr	r2, [r3]
 1270 001e 02F00102 		and	r2, r2, #1
 1271 0022 8261     		str	r2, [r0, #24]
 1272 0024 5A68     		ldr	r2, [r3, #4]
 1273 0026 C2F30722 		ubfx	r2, r2, #8, #8
ARM GAS  /tmp/ccaUNzWT.s 			page 23


 1274 002a C261     		str	r2, [r0, #28]
 1275 002c 1A68     		ldr	r2, [r3]
 1276 002e 02F0F002 		and	r2, r2, #240
 1277 0032 0262     		str	r2, [r0, #32]
 1278 0034 1A68     		ldr	r2, [r3]
 1279 0036 02F48072 		and	r2, r2, #256
 1280 003a C260     		str	r2, [r0, #12]
 1281 003c 5A68     		ldr	r2, [r3, #4]
 1282 003e C2F30462 		ubfx	r2, r2, #24, #5
 1283 0042 0261     		str	r2, [r0, #16]
 1284 0044 D3F89020 		ldr	r2, [r3, #144]
 1285 0048 5207     		lsls	r2, r2, #29
 1286 004a 58BF     		it	pl
 1287 004c D3F89020 		ldrpl	r2, [r3, #144]
 1288 0050 1A4B     		ldr	r3, .L281
 1289 0052 54BF     		ite	pl
 1290 0054 02F00102 		andpl	r2, r2, #1
 1291 0058 0522     		movmi	r2, #5
 1292 005a 8260     		str	r2, [r0, #8]
 1293 005c D3F89420 		ldr	r2, [r3, #148]
 1294 0060 0021     		movs	r1, #0
 1295 0062 02F00102 		and	r2, r2, #1
 1296 0066 4261     		str	r2, [r0, #20]
 1297 0068 4162     		str	r1, [r0, #36]
 1298 006a 1A68     		ldr	r2, [r3]
 1299 006c 12F0807F 		tst	r2, #16777216
 1300 0070 14BF     		ite	ne
 1301 0072 0222     		movne	r2, #2
 1302 0074 0122     		moveq	r2, #1
 1303 0076 8262     		str	r2, [r0, #40]
 1304 0078 DA68     		ldr	r2, [r3, #12]
 1305 007a 02F00302 		and	r2, r2, #3
 1306 007e C262     		str	r2, [r0, #44]
 1307 0080 DA68     		ldr	r2, [r3, #12]
 1308 0082 C2F30212 		ubfx	r2, r2, #4, #3
 1309 0086 0132     		adds	r2, r2, #1
 1310 0088 0263     		str	r2, [r0, #48]
 1311 008a DA68     		ldr	r2, [r3, #12]
 1312 008c C2F30622 		ubfx	r2, r2, #8, #7
 1313 0090 4263     		str	r2, [r0, #52]
 1314 0092 DA68     		ldr	r2, [r3, #12]
 1315 0094 C2F34152 		ubfx	r2, r2, #21, #2
 1316 0098 0132     		adds	r2, r2, #1
 1317 009a 5200     		lsls	r2, r2, #1
 1318 009c C263     		str	r2, [r0, #60]
 1319 009e DA68     		ldr	r2, [r3, #12]
 1320 00a0 C2F34162 		ubfx	r2, r2, #25, #2
 1321 00a4 0132     		adds	r2, r2, #1
 1322 00a6 5200     		lsls	r2, r2, #1
 1323 00a8 0264     		str	r2, [r0, #64]
 1324 00aa DB68     		ldr	r3, [r3, #12]
 1325 00ac 13F4003F 		tst	r3, #131072
 1326 00b0 14BF     		ite	ne
 1327 00b2 1123     		movne	r3, #17
 1328 00b4 0723     		moveq	r3, #7
 1329 00b6 8363     		str	r3, [r0, #56]
 1330 00b8 7047     		bx	lr
ARM GAS  /tmp/ccaUNzWT.s 			page 24


 1331              	.L282:
 1332 00ba 00BF     		.align	2
 1333              	.L281:
 1334 00bc 00100240 		.word	1073876992
 1336              		.section	.text.HAL_RCC_GetClockConfig,"ax",%progbits
 1337              		.align	1
 1338              		.p2align 2,,3
 1339              		.global	HAL_RCC_GetClockConfig
 1340              		.syntax unified
 1341              		.thumb
 1342              		.thumb_func
 1343              		.fpu fpv4-sp-d16
 1345              	HAL_RCC_GetClockConfig:
 1346              		@ args = 0, pretend = 0, frame = 0
 1347              		@ frame_needed = 0, uses_anonymous_args = 0
 1348              		@ link register save eliminated.
 1349 0000 0E4B     		ldr	r3, .L285
 1350 0002 0F22     		movs	r2, #15
 1351 0004 0260     		str	r2, [r0]
 1352 0006 9A68     		ldr	r2, [r3, #8]
 1353 0008 02F00302 		and	r2, r2, #3
 1354 000c 4260     		str	r2, [r0, #4]
 1355 000e 9A68     		ldr	r2, [r3, #8]
 1356 0010 02F0F002 		and	r2, r2, #240
 1357 0014 8260     		str	r2, [r0, #8]
 1358 0016 9A68     		ldr	r2, [r3, #8]
 1359 0018 02F4E062 		and	r2, r2, #1792
 1360 001c C260     		str	r2, [r0, #12]
 1361 001e 9B68     		ldr	r3, [r3, #8]
 1362 0020 DB08     		lsrs	r3, r3, #3
 1363 0022 10B4     		push	{r4}
 1364 0024 03F4E063 		and	r3, r3, #1792
 1365 0028 054C     		ldr	r4, .L285+4
 1366 002a 0361     		str	r3, [r0, #16]
 1367 002c 2368     		ldr	r3, [r4]
 1368 002e 5DF8044B 		ldr	r4, [sp], #4
 1369 0032 03F00703 		and	r3, r3, #7
 1370 0036 0B60     		str	r3, [r1]
 1371 0038 7047     		bx	lr
 1372              	.L286:
 1373 003a 00BF     		.align	2
 1374              	.L285:
 1375 003c 00100240 		.word	1073876992
 1376 0040 00200240 		.word	1073881088
 1378              		.section	.text.HAL_RCC_EnableCSS,"ax",%progbits
 1379              		.align	1
 1380              		.p2align 2,,3
 1381              		.global	HAL_RCC_EnableCSS
 1382              		.syntax unified
 1383              		.thumb
 1384              		.thumb_func
 1385              		.fpu fpv4-sp-d16
 1387              	HAL_RCC_EnableCSS:
 1388              		@ args = 0, pretend = 0, frame = 0
 1389              		@ frame_needed = 0, uses_anonymous_args = 0
 1390              		@ link register save eliminated.
 1391 0000 024A     		ldr	r2, .L288
ARM GAS  /tmp/ccaUNzWT.s 			page 25


 1392 0002 1368     		ldr	r3, [r2]
 1393 0004 43F40023 		orr	r3, r3, #524288
 1394 0008 1360     		str	r3, [r2]
 1395 000a 7047     		bx	lr
 1396              	.L289:
 1397              		.align	2
 1398              	.L288:
 1399 000c 00100240 		.word	1073876992
 1401              		.section	.text.HAL_RCC_CSSCallback,"ax",%progbits
 1402              		.align	1
 1403              		.p2align 2,,3
 1404              		.weak	HAL_RCC_CSSCallback
 1405              		.syntax unified
 1406              		.thumb
 1407              		.thumb_func
 1408              		.fpu fpv4-sp-d16
 1410              	HAL_RCC_CSSCallback:
 1411              		@ args = 0, pretend = 0, frame = 0
 1412              		@ frame_needed = 0, uses_anonymous_args = 0
 1413              		@ link register save eliminated.
 1414 0000 7047     		bx	lr
 1416 0002 00BF     		.section	.text.HAL_RCC_NMI_IRQHandler,"ax",%progbits
 1417              		.align	1
 1418              		.p2align 2,,3
 1419              		.global	HAL_RCC_NMI_IRQHandler
 1420              		.syntax unified
 1421              		.thumb
 1422              		.thumb_func
 1423              		.fpu fpv4-sp-d16
 1425              	HAL_RCC_NMI_IRQHandler:
 1426              		@ args = 0, pretend = 0, frame = 0
 1427              		@ frame_needed = 0, uses_anonymous_args = 0
 1428 0000 10B5     		push	{r4, lr}
 1429 0002 054C     		ldr	r4, .L298
 1430 0004 E369     		ldr	r3, [r4, #28]
 1431 0006 DB05     		lsls	r3, r3, #23
 1432 0008 00D4     		bmi	.L297
 1433 000a 10BD     		pop	{r4, pc}
 1434              	.L297:
 1435 000c FFF7FEFF 		bl	HAL_RCC_CSSCallback
 1436 0010 4FF48073 		mov	r3, #256
 1437 0014 2362     		str	r3, [r4, #32]
 1438 0016 10BD     		pop	{r4, pc}
 1439              	.L299:
 1440              		.align	2
 1441              	.L298:
 1442 0018 00100240 		.word	1073876992
 1444              		.section	.text.HAL_RCC_GetResetSource,"ax",%progbits
 1445              		.align	1
 1446              		.p2align 2,,3
 1447              		.global	HAL_RCC_GetResetSource
 1448              		.syntax unified
 1449              		.thumb
 1450              		.thumb_func
 1451              		.fpu fpv4-sp-d16
 1453              	HAL_RCC_GetResetSource:
 1454              		@ args = 0, pretend = 0, frame = 0
ARM GAS  /tmp/ccaUNzWT.s 			page 26


 1455              		@ frame_needed = 0, uses_anonymous_args = 0
 1456              		@ link register save eliminated.
 1457 0000 054B     		ldr	r3, .L301
 1458 0002 D3F89400 		ldr	r0, [r3, #148]
 1459 0006 D3F89420 		ldr	r2, [r3, #148]
 1460 000a 42F40002 		orr	r2, r2, #8388608
 1461 000e 00F07E40 		and	r0, r0, #-33554432
 1462 0012 C3F89420 		str	r2, [r3, #148]
 1463 0016 7047     		bx	lr
 1464              	.L302:
 1465              		.align	2
 1466              	.L301:
 1467 0018 00100240 		.word	1073876992
 1469              		.ident	"GCC: (Arch Repository) 11.2.0"
ARM GAS  /tmp/ccaUNzWT.s 			page 27

