ARM GAS  /tmp/ccQrb7vt.s 			page 1


   1              		.cpu cortex-m4
   2              		.eabi_attribute 27, 1
   3              		.eabi_attribute 28, 1
   4              		.eabi_attribute 20, 1
   5              		.eabi_attribute 21, 1
   6              		.eabi_attribute 23, 3
   7              		.eabi_attribute 24, 1
   8              		.eabi_attribute 25, 1
   9              		.eabi_attribute 26, 1
  10              		.eabi_attribute 30, 2
  11              		.eabi_attribute 34, 1
  12              		.eabi_attribute 18, 4
  13              		.file	"stm32l4xx_hal_uart.c"
  14              		.text
  15              		.section	.text.UART_TxISR_16BIT,"ax",%progbits
  16              		.align	1
  17              		.p2align 2,,3
  18              		.arch armv7e-m
  19              		.syntax unified
  20              		.thumb
  21              		.thumb_func
  22              		.fpu fpv4-sp-d16
  24              	UART_TxISR_16BIT:
  25              		@ args = 0, pretend = 0, frame = 0
  26              		@ frame_needed = 0, uses_anonymous_args = 0
  27              		@ link register save eliminated.
  28 0000 836F     		ldr	r3, [r0, #120]
  29 0002 212B     		cmp	r3, #33
  30 0004 00D0     		beq	.L11
  31 0006 7047     		bx	lr
  32              	.L11:
  33 0008 B0F85230 		ldrh	r3, [r0, #82]
  34 000c 0268     		ldr	r2, [r0]
  35 000e 9BB2     		uxth	r3, r3
  36 0010 83B9     		cbnz	r3, .L4
  37              	.L5:
  38              		.syntax unified
  39              	@ 1155 "Drivers/CMSIS/Include/cmsis_gcc.h" 1
  40 0012 52E8003F 		ldrex r3, [r2]
  41              	@ 0 "" 2
  42              		.thumb
  43              		.syntax unified
  44 0016 23F08003 		bic	r3, r3, #128
  45              		.syntax unified
  46              	@ 1206 "Drivers/CMSIS/Include/cmsis_gcc.h" 1
  47 001a 42E80031 		strex r1, r3, [r2]
  48              	@ 0 "" 2
  49              		.thumb
  50              		.syntax unified
  51 001e 0029     		cmp	r1, #0
  52 0020 F7D1     		bne	.L5
  53              	.L6:
  54              		.syntax unified
  55              	@ 1155 "Drivers/CMSIS/Include/cmsis_gcc.h" 1
  56 0022 52E8003F 		ldrex r3, [r2]
  57              	@ 0 "" 2
  58              		.thumb
ARM GAS  /tmp/ccQrb7vt.s 			page 2


  59              		.syntax unified
  60 0026 43F04003 		orr	r3, r3, #64
  61              		.syntax unified
  62              	@ 1206 "Drivers/CMSIS/Include/cmsis_gcc.h" 1
  63 002a 42E80031 		strex r1, r3, [r2]
  64              	@ 0 "" 2
  65              		.thumb
  66              		.syntax unified
  67 002e 0029     		cmp	r1, #0
  68 0030 F7D1     		bne	.L6
  69 0032 7047     		bx	lr
  70              	.L4:
  71 0034 C16C     		ldr	r1, [r0, #76]
  72 0036 31F8023B 		ldrh	r3, [r1], #2
  73 003a C3F30803 		ubfx	r3, r3, #0, #9
  74 003e 1385     		strh	r3, [r2, #40]	@ movhi
  75 0040 B0F85230 		ldrh	r3, [r0, #82]
  76 0044 C164     		str	r1, [r0, #76]
  77 0046 013B     		subs	r3, r3, #1
  78 0048 9BB2     		uxth	r3, r3
  79 004a A0F85230 		strh	r3, [r0, #82]	@ movhi
  80 004e 7047     		bx	lr
  82              		.section	.text.UART_TxISR_8BIT,"ax",%progbits
  83              		.align	1
  84              		.p2align 2,,3
  85              		.syntax unified
  86              		.thumb
  87              		.thumb_func
  88              		.fpu fpv4-sp-d16
  90              	UART_TxISR_8BIT:
  91              		@ args = 0, pretend = 0, frame = 0
  92              		@ frame_needed = 0, uses_anonymous_args = 0
  93              		@ link register save eliminated.
  94 0000 836F     		ldr	r3, [r0, #120]
  95 0002 212B     		cmp	r3, #33
  96 0004 00D0     		beq	.L21
  97 0006 7047     		bx	lr
  98              	.L21:
  99 0008 B0F85230 		ldrh	r3, [r0, #82]
 100 000c 0268     		ldr	r2, [r0]
 101 000e 9BB2     		uxth	r3, r3
 102 0010 83B9     		cbnz	r3, .L15
 103              	.L16:
 104              		.syntax unified
 105              	@ 1155 "Drivers/CMSIS/Include/cmsis_gcc.h" 1
 106 0012 52E8003F 		ldrex r3, [r2]
 107              	@ 0 "" 2
 108              		.thumb
 109              		.syntax unified
 110 0016 23F08003 		bic	r3, r3, #128
 111              		.syntax unified
 112              	@ 1206 "Drivers/CMSIS/Include/cmsis_gcc.h" 1
 113 001a 42E80031 		strex r1, r3, [r2]
 114              	@ 0 "" 2
 115              		.thumb
 116              		.syntax unified
 117 001e 0029     		cmp	r1, #0
ARM GAS  /tmp/ccQrb7vt.s 			page 3


 118 0020 F7D1     		bne	.L16
 119              	.L17:
 120              		.syntax unified
 121              	@ 1155 "Drivers/CMSIS/Include/cmsis_gcc.h" 1
 122 0022 52E8003F 		ldrex r3, [r2]
 123              	@ 0 "" 2
 124              		.thumb
 125              		.syntax unified
 126 0026 43F04003 		orr	r3, r3, #64
 127              		.syntax unified
 128              	@ 1206 "Drivers/CMSIS/Include/cmsis_gcc.h" 1
 129 002a 42E80031 		strex r1, r3, [r2]
 130              	@ 0 "" 2
 131              		.thumb
 132              		.syntax unified
 133 002e 0029     		cmp	r1, #0
 134 0030 F7D1     		bne	.L17
 135 0032 7047     		bx	lr
 136              	.L15:
 137 0034 C16C     		ldr	r1, [r0, #76]
 138 0036 11F8013B 		ldrb	r3, [r1], #1	@ zero_extendqisi2
 139 003a 1385     		strh	r3, [r2, #40]	@ movhi
 140 003c B0F85230 		ldrh	r3, [r0, #82]
 141 0040 C164     		str	r1, [r0, #76]
 142 0042 013B     		subs	r3, r3, #1
 143 0044 9BB2     		uxth	r3, r3
 144 0046 A0F85230 		strh	r3, [r0, #82]	@ movhi
 145 004a 7047     		bx	lr
 147              		.section	.text.HAL_UART_MspInit,"ax",%progbits
 148              		.align	1
 149              		.p2align 2,,3
 150              		.weak	HAL_UART_MspInit
 151              		.syntax unified
 152              		.thumb
 153              		.thumb_func
 154              		.fpu fpv4-sp-d16
 156              	HAL_UART_MspInit:
 157              		@ args = 0, pretend = 0, frame = 0
 158              		@ frame_needed = 0, uses_anonymous_args = 0
 159              		@ link register save eliminated.
 160 0000 7047     		bx	lr
 162 0002 00BF     		.section	.text.HAL_UART_MspDeInit,"ax",%progbits
 163              		.align	1
 164              		.p2align 2,,3
 165              		.weak	HAL_UART_MspDeInit
 166              		.syntax unified
 167              		.thumb
 168              		.thumb_func
 169              		.fpu fpv4-sp-d16
 171              	HAL_UART_MspDeInit:
 172              		@ args = 0, pretend = 0, frame = 0
 173              		@ frame_needed = 0, uses_anonymous_args = 0
 174              		@ link register save eliminated.
 175 0000 7047     		bx	lr
 177 0002 00BF     		.section	.text.HAL_UART_DeInit,"ax",%progbits
 178              		.align	1
 179              		.p2align 2,,3
ARM GAS  /tmp/ccQrb7vt.s 			page 4


 180              		.global	HAL_UART_DeInit
 181              		.syntax unified
 182              		.thumb
 183              		.thumb_func
 184              		.fpu fpv4-sp-d16
 186              	HAL_UART_DeInit:
 187              		@ args = 0, pretend = 0, frame = 0
 188              		@ frame_needed = 0, uses_anonymous_args = 0
 189 0000 B8B1     		cbz	r0, .L26
 190 0002 38B5     		push	{r3, r4, r5, lr}
 191 0004 2422     		movs	r2, #36
 192 0006 0368     		ldr	r3, [r0]
 193 0008 8267     		str	r2, [r0, #120]
 194 000a 1A68     		ldr	r2, [r3]
 195 000c 0025     		movs	r5, #0
 196 000e 0446     		mov	r4, r0
 197 0010 22F00102 		bic	r2, r2, #1
 198 0014 1A60     		str	r2, [r3]
 199 0016 1D60     		str	r5, [r3]
 200 0018 5D60     		str	r5, [r3, #4]
 201 001a 9D60     		str	r5, [r3, #8]
 202 001c FFF7FEFF 		bl	HAL_UART_MspDeInit
 203 0020 84F87450 		strb	r5, [r4, #116]
 204 0024 C4F88050 		str	r5, [r4, #128]
 205 0028 2846     		mov	r0, r5
 206 002a A567     		str	r5, [r4, #120]
 207 002c E567     		str	r5, [r4, #124]
 208 002e 2566     		str	r5, [r4, #96]
 209 0030 38BD     		pop	{r3, r4, r5, pc}
 210              	.L26:
 211 0032 0120     		movs	r0, #1
 212 0034 7047     		bx	lr
 214 0036 00BF     		.section	.text.HAL_UART_Receive,"ax",%progbits
 215              		.align	1
 216              		.p2align 2,,3
 217              		.global	HAL_UART_Receive
 218              		.syntax unified
 219              		.thumb
 220              		.thumb_func
 221              		.fpu fpv4-sp-d16
 223              	HAL_UART_Receive:
 224              		@ args = 0, pretend = 0, frame = 0
 225              		@ frame_needed = 0, uses_anonymous_args = 0
 226 0000 2DE9F047 		push	{r4, r5, r6, r7, r8, r9, r10, lr}
 227 0004 0546     		mov	r5, r0
 228 0006 C06F     		ldr	r0, [r0, #124]
 229 0008 2028     		cmp	r0, #32
 230 000a 51D1     		bne	.L59
 231 000c 8A46     		mov	r10, r1
 232 000e 0029     		cmp	r1, #0
 233 0010 4BD0     		beq	.L58
 234 0012 1446     		mov	r4, r2
 235 0014 002A     		cmp	r2, #0
 236 0016 48D0     		beq	.L58
 237 0018 1E46     		mov	r6, r3
 238 001a 95F87430 		ldrb	r3, [r5, #116]	@ zero_extendqisi2
 239 001e 012B     		cmp	r3, #1
ARM GAS  /tmp/ccQrb7vt.s 			page 5


 240 0020 46D0     		beq	.L59
 241 0022 0123     		movs	r3, #1
 242 0024 85F87430 		strb	r3, [r5, #116]
 243 0028 0027     		movs	r7, #0
 244 002a 2223     		movs	r3, #34
 245 002c C5F88070 		str	r7, [r5, #128]
 246 0030 EB67     		str	r3, [r5, #124]
 247 0032 2F66     		str	r7, [r5, #96]
 248 0034 FFF7FEFF 		bl	HAL_GetTick
 249 0038 AB68     		ldr	r3, [r5, #8]
 250 003a A5F85840 		strh	r4, [r5, #88]	@ movhi
 251 003e B3F5805F 		cmp	r3, #4096
 252 0042 A5F85A40 		strh	r4, [r5, #90]	@ movhi
 253 0046 8046     		mov	r8, r0
 254 0048 35D0     		beq	.L87
 255 004a 002B     		cmp	r3, #0
 256 004c 40F09980 		bne	.L36
 257 0050 2B69     		ldr	r3, [r5, #16]
 258 0052 002B     		cmp	r3, #0
 259 0054 0CBF     		ite	eq
 260 0056 FF27     		moveq	r7, #255
 261 0058 7F27     		movne	r7, #127
 262              	.L38:
 263 005a A5F85C70 		strh	r7, [r5, #92]	@ movhi
 264 005e 4FF00009 		mov	r9, #0
 265              	.L55:
 266 0062 B5F85A30 		ldrh	r3, [r5, #90]
 267 0066 0022     		movs	r2, #0
 268 0068 9BB2     		uxth	r3, r3
 269 006a 85F87420 		strb	r2, [r5, #116]
 270 006e BBB1     		cbz	r3, .L40
 271              	.L86:
 272 0070 2C68     		ldr	r4, [r5]
 273              	.L75:
 274 0072 711C     		adds	r1, r6, #1
 275 0074 29D1     		bne	.L49
 276              	.L50:
 277 0076 E269     		ldr	r2, [r4, #28]
 278 0078 9206     		lsls	r2, r2, #26
 279 007a FCD5     		bpl	.L50
 280              	.L51:
 281 007c A38C     		ldrh	r3, [r4, #36]
 282 007e 3B40     		ands	r3, r3, r7
 283 0080 BAF1000F 		cmp	r10, #0
 284 0084 6ED0     		beq	.L88
 285 0086 0AF8013B 		strb	r3, [r10], #1
 286 008a B5F85A30 		ldrh	r3, [r5, #90]
 287 008e 013B     		subs	r3, r3, #1
 288 0090 9BB2     		uxth	r3, r3
 289 0092 A5F85A30 		strh	r3, [r5, #90]	@ movhi
 290 0096 B5F85A30 		ldrh	r3, [r5, #90]
 291 009a 9BB2     		uxth	r3, r3
 292 009c 002B     		cmp	r3, #0
 293 009e E7D1     		bne	.L86
 294              	.L40:
 295 00a0 2023     		movs	r3, #32
 296 00a2 EB67     		str	r3, [r5, #124]
ARM GAS  /tmp/ccQrb7vt.s 			page 6


 297 00a4 0020     		movs	r0, #0
 298 00a6 BDE8F087 		pop	{r4, r5, r6, r7, r8, r9, r10, pc}
 299              	.L58:
 300 00aa 0120     		movs	r0, #1
 301              	.L83:
 302 00ac BDE8F087 		pop	{r4, r5, r6, r7, r8, r9, r10, pc}
 303              	.L59:
 304 00b0 0220     		movs	r0, #2
 305 00b2 BDE8F087 		pop	{r4, r5, r6, r7, r8, r9, r10, pc}
 306              	.L87:
 307 00b6 2B69     		ldr	r3, [r5, #16]
 308 00b8 002B     		cmp	r3, #0
 309 00ba 6CD1     		bne	.L89
 310 00bc 40F2FF17 		movw	r7, #511
 311 00c0 D146     		mov	r9, r10
 312 00c2 A5F85C70 		strh	r7, [r5, #92]	@ movhi
 313 00c6 9A46     		mov	r10, r3
 314 00c8 CBE7     		b	.L55
 315              	.L49:
 316 00ca E369     		ldr	r3, [r4, #28]
 317 00cc 9B06     		lsls	r3, r3, #26
 318 00ce D5D4     		bmi	.L51
 319 00d0 FFF7FEFF 		bl	HAL_GetTick
 320 00d4 A0EB0800 		sub	r0, r0, r8
 321 00d8 8642     		cmp	r6, r0
 322 00da 2C68     		ldr	r4, [r5]
 323 00dc 26D3     		bcc	.L43
 324 00de 2EB3     		cbz	r6, .L43
 325 00e0 2368     		ldr	r3, [r4]
 326 00e2 5B07     		lsls	r3, r3, #29
 327 00e4 C5D5     		bpl	.L75
 328 00e6 E369     		ldr	r3, [r4, #28]
 329 00e8 1805     		lsls	r0, r3, #20
 330 00ea C2D5     		bpl	.L75
 331 00ec 4FF40063 		mov	r3, #2048
 332 00f0 2362     		str	r3, [r4, #32]
 333              	.L85:
 334              		.syntax unified
 335              	@ 1155 "Drivers/CMSIS/Include/cmsis_gcc.h" 1
 336 00f2 54E8003F 		ldrex r3, [r4]
 337              	@ 0 "" 2
 338              		.thumb
 339              		.syntax unified
 340 00f6 23F4D073 		bic	r3, r3, #416
 341              		.syntax unified
 342              	@ 1206 "Drivers/CMSIS/Include/cmsis_gcc.h" 1
 343 00fa 44E80032 		strex r2, r3, [r4]
 344              	@ 0 "" 2
 345              		.thumb
 346              		.syntax unified
 347 00fe 002A     		cmp	r2, #0
 348 0100 F7D1     		bne	.L85
 349              	.L48:
 350 0102 04F10803 		add	r3, r4, #8
 351              		.syntax unified
 352              	@ 1155 "Drivers/CMSIS/Include/cmsis_gcc.h" 1
 353 0106 53E8003F 		ldrex r3, [r3]
ARM GAS  /tmp/ccQrb7vt.s 			page 7


 354              	@ 0 "" 2
 355              		.thumb
 356              		.syntax unified
 357 010a 23F00103 		bic	r3, r3, #1
 358 010e 04F10801 		add	r1, r4, #8
 359              		.syntax unified
 360              	@ 1206 "Drivers/CMSIS/Include/cmsis_gcc.h" 1
 361 0112 41E80032 		strex r2, r3, [r1]
 362              	@ 0 "" 2
 363              		.thumb
 364              		.syntax unified
 365 0116 002A     		cmp	r2, #0
 366 0118 F3D1     		bne	.L48
 367 011a 2023     		movs	r3, #32
 368 011c AB67     		str	r3, [r5, #120]
 369 011e 85F87420 		strb	r2, [r5, #116]
 370 0122 EB67     		str	r3, [r5, #124]
 371 0124 0320     		movs	r0, #3
 372 0126 C5F88030 		str	r3, [r5, #128]
 373 012a BFE7     		b	.L83
 374              	.L43:
 375              		.syntax unified
 376              	@ 1155 "Drivers/CMSIS/Include/cmsis_gcc.h" 1
 377 012c 54E8003F 		ldrex r3, [r4]
 378              	@ 0 "" 2
 379              		.thumb
 380              		.syntax unified
 381 0130 23F4D073 		bic	r3, r3, #416
 382              		.syntax unified
 383              	@ 1206 "Drivers/CMSIS/Include/cmsis_gcc.h" 1
 384 0134 44E80032 		strex r2, r3, [r4]
 385              	@ 0 "" 2
 386              		.thumb
 387              		.syntax unified
 388 0138 002A     		cmp	r2, #0
 389 013a F7D1     		bne	.L43
 390              	.L44:
 391 013c 04F10803 		add	r3, r4, #8
 392              		.syntax unified
 393              	@ 1155 "Drivers/CMSIS/Include/cmsis_gcc.h" 1
 394 0140 53E8003F 		ldrex r3, [r3]
 395              	@ 0 "" 2
 396              		.thumb
 397              		.syntax unified
 398 0144 23F00103 		bic	r3, r3, #1
 399 0148 04F10801 		add	r1, r4, #8
 400              		.syntax unified
 401              	@ 1206 "Drivers/CMSIS/Include/cmsis_gcc.h" 1
 402 014c 41E80032 		strex r2, r3, [r1]
 403              	@ 0 "" 2
 404              		.thumb
 405              		.syntax unified
 406 0150 002A     		cmp	r2, #0
 407 0152 F3D1     		bne	.L44
 408 0154 2023     		movs	r3, #32
 409 0156 85F87420 		strb	r2, [r5, #116]
 410 015a AB67     		str	r3, [r5, #120]
ARM GAS  /tmp/ccQrb7vt.s 			page 8


 411 015c 0320     		movs	r0, #3
 412 015e EB67     		str	r3, [r5, #124]
 413 0160 BDE8F087 		pop	{r4, r5, r6, r7, r8, r9, r10, pc}
 414              	.L88:
 415 0164 29F8023B 		strh	r3, [r9], #2	@ movhi
 416 0168 B5F85A30 		ldrh	r3, [r5, #90]
 417 016c 013B     		subs	r3, r3, #1
 418 016e 9BB2     		uxth	r3, r3
 419 0170 A5F85A30 		strh	r3, [r5, #90]	@ movhi
 420 0174 B5F85A30 		ldrh	r3, [r5, #90]
 421 0178 9BB2     		uxth	r3, r3
 422 017a 002B     		cmp	r3, #0
 423 017c 7FF479AF 		bne	.L75
 424 0180 8EE7     		b	.L40
 425              	.L36:
 426 0182 B3F1805F 		cmp	r3, #268435456
 427 0186 7FF468AF 		bne	.L38
 428 018a 2B69     		ldr	r3, [r5, #16]
 429 018c 002B     		cmp	r3, #0
 430 018e 0CBF     		ite	eq
 431 0190 7F27     		moveq	r7, #127
 432 0192 3F27     		movne	r7, #63
 433 0194 61E7     		b	.L38
 434              	.L89:
 435 0196 B946     		mov	r9, r7
 436 0198 FF27     		movs	r7, #255
 437 019a A5F85C70 		strh	r7, [r5, #92]	@ movhi
 438 019e 60E7     		b	.L55
 440              		.section	.text.HAL_UART_Transmit_IT,"ax",%progbits
 441              		.align	1
 442              		.p2align 2,,3
 443              		.global	HAL_UART_Transmit_IT
 444              		.syntax unified
 445              		.thumb
 446              		.thumb_func
 447              		.fpu fpv4-sp-d16
 449              	HAL_UART_Transmit_IT:
 450              		@ args = 0, pretend = 0, frame = 0
 451              		@ frame_needed = 0, uses_anonymous_args = 0
 452              		@ link register save eliminated.
 453 0000 836F     		ldr	r3, [r0, #120]
 454 0002 202B     		cmp	r3, #32
 455 0004 29D1     		bne	.L97
 456 0006 31B3     		cbz	r1, .L96
 457 0008 2AB3     		cbz	r2, .L96
 458 000a 90F87430 		ldrb	r3, [r0, #116]	@ zero_extendqisi2
 459 000e 012B     		cmp	r3, #1
 460 0010 23D0     		beq	.L97
 461 0012 8368     		ldr	r3, [r0, #8]
 462 0014 10B4     		push	{r4}
 463 0016 B3F5805F 		cmp	r3, #4096
 464 001a 4FF00004 		mov	r4, #0
 465 001e C164     		str	r1, [r0, #76]
 466 0020 4FF02101 		mov	r1, #33
 467 0024 A0F85220 		strh	r2, [r0, #82]	@ movhi
 468 0028 A0F85020 		strh	r2, [r0, #80]	@ movhi
 469 002c C0F88040 		str	r4, [r0, #128]
ARM GAS  /tmp/ccQrb7vt.s 			page 9


 470 0030 8167     		str	r1, [r0, #120]
 471 0032 14D0     		beq	.L105
 472 0034 0D4B     		ldr	r3, .L106
 473              	.L92:
 474 0036 0268     		ldr	r2, [r0]
 475 0038 8366     		str	r3, [r0, #104]
 476 003a 0021     		movs	r1, #0
 477 003c 80F87410 		strb	r1, [r0, #116]
 478              	.L93:
 479              		.syntax unified
 480              	@ 1155 "Drivers/CMSIS/Include/cmsis_gcc.h" 1
 481 0040 52E8003F 		ldrex r3, [r2]
 482              	@ 0 "" 2
 483              		.thumb
 484              		.syntax unified
 485 0044 43F08003 		orr	r3, r3, #128
 486              		.syntax unified
 487              	@ 1206 "Drivers/CMSIS/Include/cmsis_gcc.h" 1
 488 0048 42E80030 		strex r0, r3, [r2]
 489              	@ 0 "" 2
 490              		.thumb
 491              		.syntax unified
 492 004c 0028     		cmp	r0, #0
 493 004e F7D1     		bne	.L93
 494 0050 5DF8044B 		ldr	r4, [sp], #4
 495 0054 7047     		bx	lr
 496              	.L96:
 497 0056 0120     		movs	r0, #1
 498 0058 7047     		bx	lr
 499              	.L97:
 500 005a 0220     		movs	r0, #2
 501 005c 7047     		bx	lr
 502              	.L105:
 503 005e 0169     		ldr	r1, [r0, #16]
 504 0060 024B     		ldr	r3, .L106
 505 0062 034A     		ldr	r2, .L106+4
 506 0064 A142     		cmp	r1, r4
 507 0066 08BF     		it	eq
 508 0068 1346     		moveq	r3, r2
 509 006a E4E7     		b	.L92
 510              	.L107:
 511              		.align	2
 512              	.L106:
 513 006c 00000000 		.word	UART_TxISR_8BIT
 514 0070 00000000 		.word	UART_TxISR_16BIT
 516              		.section	.text.HAL_UART_Receive_IT,"ax",%progbits
 517              		.align	1
 518              		.p2align 2,,3
 519              		.global	HAL_UART_Receive_IT
 520              		.syntax unified
 521              		.thumb
 522              		.thumb_func
 523              		.fpu fpv4-sp-d16
 525              	HAL_UART_Receive_IT:
 526              		@ args = 0, pretend = 0, frame = 0
 527              		@ frame_needed = 0, uses_anonymous_args = 0
 528              		@ link register save eliminated.
ARM GAS  /tmp/ccQrb7vt.s 			page 10


 529 0000 C36F     		ldr	r3, [r0, #124]
 530 0002 202B     		cmp	r3, #32
 531 0004 59D1     		bne	.L127
 532 0006 0029     		cmp	r1, #0
 533 0008 55D0     		beq	.L126
 534 000a 002A     		cmp	r2, #0
 535 000c 53D0     		beq	.L126
 536 000e 90F87430 		ldrb	r3, [r0, #116]	@ zero_extendqisi2
 537 0012 012B     		cmp	r3, #1
 538 0014 51D0     		beq	.L127
 539 0016 30B4     		push	{r4, r5}
 540 0018 3E4B     		ldr	r3, .L156
 541 001a 0468     		ldr	r4, [r0]
 542 001c 0125     		movs	r5, #1
 543 001e 80F87450 		strb	r5, [r0, #116]
 544 0022 9C42     		cmp	r4, r3
 545 0024 4FF00005 		mov	r5, #0
 546 0028 0566     		str	r5, [r0, #96]
 547 002a 0AD0     		beq	.L110
 548 002c 6368     		ldr	r3, [r4, #4]
 549 002e 1B02     		lsls	r3, r3, #8
 550 0030 07D5     		bpl	.L110
 551              	.L151:
 552              		.syntax unified
 553              	@ 1155 "Drivers/CMSIS/Include/cmsis_gcc.h" 1
 554 0032 54E8003F 		ldrex r3, [r4]
 555              	@ 0 "" 2
 556              		.thumb
 557              		.syntax unified
 558 0036 43F08063 		orr	r3, r3, #67108864
 559              		.syntax unified
 560              	@ 1206 "Drivers/CMSIS/Include/cmsis_gcc.h" 1
 561 003a 44E80035 		strex r5, r3, [r4]
 562              	@ 0 "" 2
 563              		.thumb
 564              		.syntax unified
 565 003e 002D     		cmp	r5, #0
 566 0040 F7D1     		bne	.L151
 567              	.L110:
 568 0042 8568     		ldr	r5, [r0, #8]
 569 0044 4165     		str	r1, [r0, #84]
 570 0046 0023     		movs	r3, #0
 571 0048 B5F5805F 		cmp	r5, #4096
 572 004c A0F85820 		strh	r2, [r0, #88]	@ movhi
 573 0050 A0F85A20 		strh	r2, [r0, #90]	@ movhi
 574 0054 4366     		str	r3, [r0, #100]
 575 0056 48D0     		beq	.L153
 576 0058 002D     		cmp	r5, #0
 577 005a 4DD1     		bne	.L114
 578 005c 0369     		ldr	r3, [r0, #16]
 579 005e 002B     		cmp	r3, #0
 580 0060 14BF     		ite	ne
 581 0062 7F23     		movne	r3, #127
 582 0064 FF23     		moveq	r3, #255
 583              	.L113:
 584 0066 0021     		movs	r1, #0
 585 0068 2222     		movs	r2, #34
ARM GAS  /tmp/ccQrb7vt.s 			page 11


 586 006a C0F88010 		str	r1, [r0, #128]
 587 006e A0F85C30 		strh	r3, [r0, #92]	@ movhi
 588 0072 C267     		str	r2, [r0, #124]
 589              	.L115:
 590 0074 04F10803 		add	r3, r4, #8
 591              		.syntax unified
 592              	@ 1155 "Drivers/CMSIS/Include/cmsis_gcc.h" 1
 593 0078 53E8003F 		ldrex r3, [r3]
 594              	@ 0 "" 2
 595              		.thumb
 596              		.syntax unified
 597 007c 43F00103 		orr	r3, r3, #1
 598 0080 04F10801 		add	r1, r4, #8
 599              		.syntax unified
 600              	@ 1206 "Drivers/CMSIS/Include/cmsis_gcc.h" 1
 601 0084 41E80032 		strex r2, r3, [r1]
 602              	@ 0 "" 2
 603              		.thumb
 604              		.syntax unified
 605 0088 002A     		cmp	r2, #0
 606 008a F3D1     		bne	.L115
 607 008c 8168     		ldr	r1, [r0, #8]
 608 008e 0369     		ldr	r3, [r0, #16]
 609 0090 B1F5805F 		cmp	r1, #4096
 610 0094 13D0     		beq	.L154
 611 0096 2049     		ldr	r1, .L156+4
 612 0098 4166     		str	r1, [r0, #100]
 613 009a 80F87420 		strb	r2, [r0, #116]
 614 009e 9BB1     		cbz	r3, .L121
 615              	.L120:
 616              		.syntax unified
 617              	@ 1155 "Drivers/CMSIS/Include/cmsis_gcc.h" 1
 618 00a0 54E8003F 		ldrex r3, [r4]
 619              	@ 0 "" 2
 620              		.thumb
 621              		.syntax unified
 622 00a4 43F49073 		orr	r3, r3, #288
 623              		.syntax unified
 624              	@ 1206 "Drivers/CMSIS/Include/cmsis_gcc.h" 1
 625 00a8 44E80032 		strex r2, r3, [r4]
 626              	@ 0 "" 2
 627              		.thumb
 628              		.syntax unified
 629 00ac 002A     		cmp	r2, #0
 630 00ae F7D1     		bne	.L120
 631              	.L122:
 632 00b0 0020     		movs	r0, #0
 633 00b2 30BC     		pop	{r4, r5}
 634 00b4 7047     		bx	lr
 635              	.L126:
 636 00b6 0120     		movs	r0, #1
 637 00b8 7047     		bx	lr
 638              	.L127:
 639 00ba 0220     		movs	r0, #2
 640 00bc 7047     		bx	lr
 641              	.L154:
 642 00be 23BB     		cbnz	r3, .L155
ARM GAS  /tmp/ccQrb7vt.s 			page 12


 643 00c0 164A     		ldr	r2, .L156+8
 644 00c2 4266     		str	r2, [r0, #100]
 645 00c4 80F87430 		strb	r3, [r0, #116]
 646              	.L121:
 647              		.syntax unified
 648              	@ 1155 "Drivers/CMSIS/Include/cmsis_gcc.h" 1
 649 00c8 54E8003F 		ldrex r3, [r4]
 650              	@ 0 "" 2
 651              		.thumb
 652              		.syntax unified
 653 00cc 43F02003 		orr	r3, r3, #32
 654              		.syntax unified
 655              	@ 1206 "Drivers/CMSIS/Include/cmsis_gcc.h" 1
 656 00d0 44E80032 		strex r2, r3, [r4]
 657              	@ 0 "" 2
 658              		.thumb
 659              		.syntax unified
 660 00d4 002A     		cmp	r2, #0
 661 00d6 EBD0     		beq	.L122
 662              		.syntax unified
 663              	@ 1155 "Drivers/CMSIS/Include/cmsis_gcc.h" 1
 664 00d8 54E8003F 		ldrex r3, [r4]
 665              	@ 0 "" 2
 666              		.thumb
 667              		.syntax unified
 668 00dc 43F02003 		orr	r3, r3, #32
 669              		.syntax unified
 670              	@ 1206 "Drivers/CMSIS/Include/cmsis_gcc.h" 1
 671 00e0 44E80032 		strex r2, r3, [r4]
 672              	@ 0 "" 2
 673              		.thumb
 674              		.syntax unified
 675 00e4 002A     		cmp	r2, #0
 676 00e6 EFD1     		bne	.L121
 677 00e8 E2E7     		b	.L122
 678              	.L153:
 679 00ea 0269     		ldr	r2, [r0, #16]
 680 00ec 002A     		cmp	r2, #0
 681 00ee 40F2FF13 		movw	r3, #511
 682 00f2 18BF     		it	ne
 683 00f4 FF23     		movne	r3, #255
 684 00f6 B6E7     		b	.L113
 685              	.L114:
 686 00f8 B5F1805F 		cmp	r5, #268435456
 687 00fc B3D1     		bne	.L113
 688 00fe 0369     		ldr	r3, [r0, #16]
 689 0100 002B     		cmp	r3, #0
 690 0102 0CBF     		ite	eq
 691 0104 7F23     		moveq	r3, #127
 692 0106 3F23     		movne	r3, #63
 693 0108 ADE7     		b	.L113
 694              	.L155:
 695 010a 034B     		ldr	r3, .L156+4
 696 010c 4366     		str	r3, [r0, #100]
 697 010e 80F87420 		strb	r2, [r0, #116]
 698 0112 C5E7     		b	.L120
 699              	.L157:
ARM GAS  /tmp/ccQrb7vt.s 			page 13


 700              		.align	2
 701              	.L156:
 702 0114 00800040 		.word	1073774592
 703 0118 00000000 		.word	UART_RxISR_8BIT
 704 011c 00000000 		.word	UART_RxISR_16BIT
 706              		.section	.text.HAL_UART_Transmit_DMA,"ax",%progbits
 707              		.align	1
 708              		.p2align 2,,3
 709              		.global	HAL_UART_Transmit_DMA
 710              		.syntax unified
 711              		.thumb
 712              		.thumb_func
 713              		.fpu fpv4-sp-d16
 715              	HAL_UART_Transmit_DMA:
 716              		@ args = 0, pretend = 0, frame = 0
 717              		@ frame_needed = 0, uses_anonymous_args = 0
 718 0000 2DE9F041 		push	{r4, r5, r6, r7, r8, lr}
 719 0004 876F     		ldr	r7, [r0, #120]
 720 0006 202F     		cmp	r7, #32
 721 0008 31D1     		bne	.L166
 722 000a 69B3     		cbz	r1, .L165
 723 000c 62B3     		cbz	r2, .L165
 724 000e 0446     		mov	r4, r0
 725 0010 90F87400 		ldrb	r0, [r0, #116]	@ zero_extendqisi2
 726 0014 0128     		cmp	r0, #1
 727 0016 2AD0     		beq	.L166
 728 0018 E06E     		ldr	r0, [r4, #108]
 729 001a A4F85220 		strh	r2, [r4, #82]	@ movhi
 730 001e 4FF00008 		mov	r8, #0
 731 0022 0126     		movs	r6, #1
 732 0024 2123     		movs	r3, #33
 733 0026 C4F88080 		str	r8, [r4, #128]
 734 002a 2568     		ldr	r5, [r4]
 735 002c E164     		str	r1, [r4, #76]
 736 002e A4F85020 		strh	r2, [r4, #80]	@ movhi
 737 0032 84F87460 		strb	r6, [r4, #116]
 738 0036 A367     		str	r3, [r4, #120]
 739 0038 E8B1     		cbz	r0, .L160
 740 003a 1346     		mov	r3, r2
 741 003c 05F12802 		add	r2, r5, #40
 742 0040 174D     		ldr	r5, .L179
 743 0042 C562     		str	r5, [r0, #44]
 744 0044 174D     		ldr	r5, .L179+4
 745 0046 0563     		str	r5, [r0, #48]
 746 0048 174D     		ldr	r5, .L179+8
 747 004a C0F83880 		str	r8, [r0, #56]
 748 004e 4563     		str	r5, [r0, #52]
 749 0050 FFF7FEFF 		bl	HAL_DMA_Start_IT
 750 0054 70B1     		cbz	r0, .L178
 751 0056 1023     		movs	r3, #16
 752 0058 84F87480 		strb	r8, [r4, #116]
 753 005c C4F88030 		str	r3, [r4, #128]
 754 0060 3046     		mov	r0, r6
 755 0062 A767     		str	r7, [r4, #120]
 756 0064 BDE8F081 		pop	{r4, r5, r6, r7, r8, pc}
 757              	.L165:
 758 0068 0120     		movs	r0, #1
ARM GAS  /tmp/ccQrb7vt.s 			page 14


 759 006a BDE8F081 		pop	{r4, r5, r6, r7, r8, pc}
 760              	.L166:
 761 006e 0220     		movs	r0, #2
 762 0070 BDE8F081 		pop	{r4, r5, r6, r7, r8, pc}
 763              	.L178:
 764 0074 2568     		ldr	r5, [r4]
 765              	.L160:
 766 0076 4022     		movs	r2, #64
 767 0078 0023     		movs	r3, #0
 768 007a 2A62     		str	r2, [r5, #32]
 769 007c 84F87430 		strb	r3, [r4, #116]
 770              	.L177:
 771 0080 05F10803 		add	r3, r5, #8
 772              		.syntax unified
 773              	@ 1155 "Drivers/CMSIS/Include/cmsis_gcc.h" 1
 774 0084 53E8003F 		ldrex r3, [r3]
 775              	@ 0 "" 2
 776              		.thumb
 777              		.syntax unified
 778 0088 43F08003 		orr	r3, r3, #128
 779 008c 05F10801 		add	r1, r5, #8
 780              		.syntax unified
 781              	@ 1206 "Drivers/CMSIS/Include/cmsis_gcc.h" 1
 782 0090 41E80032 		strex r2, r3, [r1]
 783              	@ 0 "" 2
 784              		.thumb
 785              		.syntax unified
 786 0094 002A     		cmp	r2, #0
 787 0096 F3D1     		bne	.L177
 788 0098 0020     		movs	r0, #0
 789 009a BDE8F081 		pop	{r4, r5, r6, r7, r8, pc}
 790              	.L180:
 791 009e 00BF     		.align	2
 792              	.L179:
 793 00a0 00000000 		.word	UART_DMATransmitCplt
 794 00a4 00000000 		.word	UART_DMATxHalfCplt
 795 00a8 00000000 		.word	UART_DMAError
 797              		.section	.text.HAL_UART_DMAPause,"ax",%progbits
 798              		.align	1
 799              		.p2align 2,,3
 800              		.global	HAL_UART_DMAPause
 801              		.syntax unified
 802              		.thumb
 803              		.thumb_func
 804              		.fpu fpv4-sp-d16
 806              	HAL_UART_DMAPause:
 807              		@ args = 0, pretend = 0, frame = 0
 808              		@ frame_needed = 0, uses_anonymous_args = 0
 809              		@ link register save eliminated.
 810 0000 10B4     		push	{r4}
 811 0002 90F87430 		ldrb	r3, [r0, #116]	@ zero_extendqisi2
 812 0006 816F     		ldr	r1, [r0, #120]
 813 0008 C46F     		ldr	r4, [r0, #124]
 814 000a 012B     		cmp	r3, #1
 815 000c 42D0     		beq	.L192
 816 000e 0122     		movs	r2, #1
 817 0010 0368     		ldr	r3, [r0]
ARM GAS  /tmp/ccQrb7vt.s 			page 15


 818 0012 80F87420 		strb	r2, [r0, #116]
 819 0016 9A68     		ldr	r2, [r3, #8]
 820 0018 1206     		lsls	r2, r2, #24
 821 001a 01D5     		bpl	.L183
 822 001c 2129     		cmp	r1, #33
 823 001e 2CD0     		beq	.L205
 824              	.L183:
 825 0020 9A68     		ldr	r2, [r3, #8]
 826 0022 5206     		lsls	r2, r2, #25
 827 0024 06D4     		bmi	.L186
 828              	.L187:
 829 0026 0023     		movs	r3, #0
 830 0028 80F87430 		strb	r3, [r0, #116]
 831 002c 5DF8044B 		ldr	r4, [sp], #4
 832 0030 1846     		mov	r0, r3
 833 0032 7047     		bx	lr
 834              	.L186:
 835 0034 222C     		cmp	r4, #34
 836 0036 F6D1     		bne	.L187
 837              	.L206:
 838              		.syntax unified
 839              	@ 1155 "Drivers/CMSIS/Include/cmsis_gcc.h" 1
 840 0038 53E8002F 		ldrex r2, [r3]
 841              	@ 0 "" 2
 842              		.thumb
 843              		.syntax unified
 844 003c 22F48072 		bic	r2, r2, #256
 845              		.syntax unified
 846              	@ 1206 "Drivers/CMSIS/Include/cmsis_gcc.h" 1
 847 0040 43E80021 		strex r1, r2, [r3]
 848              	@ 0 "" 2
 849              		.thumb
 850              		.syntax unified
 851 0044 0029     		cmp	r1, #0
 852 0046 F7D1     		bne	.L206
 853              	.L190:
 854 0048 03F10802 		add	r2, r3, #8
 855              		.syntax unified
 856              	@ 1155 "Drivers/CMSIS/Include/cmsis_gcc.h" 1
 857 004c 52E8002F 		ldrex r2, [r2]
 858              	@ 0 "" 2
 859              		.thumb
 860              		.syntax unified
 861 0050 22F00102 		bic	r2, r2, #1
 862 0054 03F10804 		add	r4, r3, #8
 863              		.syntax unified
 864              	@ 1206 "Drivers/CMSIS/Include/cmsis_gcc.h" 1
 865 0058 44E80021 		strex r1, r2, [r4]
 866              	@ 0 "" 2
 867              		.thumb
 868              		.syntax unified
 869 005c 0029     		cmp	r1, #0
 870 005e F3D1     		bne	.L190
 871              	.L191:
 872 0060 03F10802 		add	r2, r3, #8
 873              		.syntax unified
 874              	@ 1155 "Drivers/CMSIS/Include/cmsis_gcc.h" 1
ARM GAS  /tmp/ccQrb7vt.s 			page 16


 875 0064 52E8002F 		ldrex r2, [r2]
 876              	@ 0 "" 2
 877              		.thumb
 878              		.syntax unified
 879 0068 22F04002 		bic	r2, r2, #64
 880 006c 03F10804 		add	r4, r3, #8
 881              		.syntax unified
 882              	@ 1206 "Drivers/CMSIS/Include/cmsis_gcc.h" 1
 883 0070 44E80021 		strex r1, r2, [r4]
 884              	@ 0 "" 2
 885              		.thumb
 886              		.syntax unified
 887 0074 0029     		cmp	r1, #0
 888 0076 F3D1     		bne	.L191
 889 0078 D5E7     		b	.L187
 890              	.L205:
 891 007a 03F10802 		add	r2, r3, #8
 892              		.syntax unified
 893              	@ 1155 "Drivers/CMSIS/Include/cmsis_gcc.h" 1
 894 007e 52E8002F 		ldrex r2, [r2]
 895              	@ 0 "" 2
 896              		.thumb
 897              		.syntax unified
 898 0082 22F08002 		bic	r2, r2, #128
 899 0086 03F1080C 		add	ip, r3, #8
 900              		.syntax unified
 901              	@ 1206 "Drivers/CMSIS/Include/cmsis_gcc.h" 1
 902 008a 4CE80021 		strex r1, r2, [ip]
 903              	@ 0 "" 2
 904              		.thumb
 905              		.syntax unified
 906 008e 0029     		cmp	r1, #0
 907 0090 F3D1     		bne	.L205
 908 0092 C5E7     		b	.L183
 909              	.L192:
 910 0094 0220     		movs	r0, #2
 911 0096 5DF8044B 		ldr	r4, [sp], #4
 912 009a 7047     		bx	lr
 914              		.section	.text.HAL_UART_DMAResume,"ax",%progbits
 915              		.align	1
 916              		.p2align 2,,3
 917              		.global	HAL_UART_DMAResume
 918              		.syntax unified
 919              		.thumb
 920              		.thumb_func
 921              		.fpu fpv4-sp-d16
 923              	HAL_UART_DMAResume:
 924              		@ args = 0, pretend = 0, frame = 0
 925              		@ frame_needed = 0, uses_anonymous_args = 0
 926              		@ link register save eliminated.
 927 0000 90F87430 		ldrb	r3, [r0, #116]	@ zero_extendqisi2
 928 0004 012B     		cmp	r3, #1
 929 0006 43D0     		beq	.L219
 930 0008 836F     		ldr	r3, [r0, #120]
 931 000a 0122     		movs	r2, #1
 932 000c 212B     		cmp	r3, #33
 933 000e 80F87420 		strb	r2, [r0, #116]
ARM GAS  /tmp/ccQrb7vt.s 			page 17


 934 0012 07D0     		beq	.L233
 935 0014 C36F     		ldr	r3, [r0, #124]
 936 0016 222B     		cmp	r3, #34
 937 0018 14D0     		beq	.L234
 938              	.L211:
 939 001a 0023     		movs	r3, #0
 940 001c 80F87430 		strb	r3, [r0, #116]
 941 0020 1846     		mov	r0, r3
 942 0022 7047     		bx	lr
 943              	.L233:
 944 0024 0368     		ldr	r3, [r0]
 945              	.L209:
 946 0026 03F10802 		add	r2, r3, #8
 947              		.syntax unified
 948              	@ 1155 "Drivers/CMSIS/Include/cmsis_gcc.h" 1
 949 002a 52E8002F 		ldrex r2, [r2]
 950              	@ 0 "" 2
 951              		.thumb
 952              		.syntax unified
 953 002e 42F08002 		orr	r2, r2, #128
 954 0032 03F1080C 		add	ip, r3, #8
 955              		.syntax unified
 956              	@ 1206 "Drivers/CMSIS/Include/cmsis_gcc.h" 1
 957 0036 4CE80021 		strex r1, r2, [ip]
 958              	@ 0 "" 2
 959              		.thumb
 960              		.syntax unified
 961 003a 0029     		cmp	r1, #0
 962 003c F3D1     		bne	.L209
 963 003e C36F     		ldr	r3, [r0, #124]
 964 0040 222B     		cmp	r3, #34
 965 0042 EAD1     		bne	.L211
 966              	.L234:
 967 0044 0368     		ldr	r3, [r0]
 968 0046 0269     		ldr	r2, [r0, #16]
 969 0048 0821     		movs	r1, #8
 970 004a 1962     		str	r1, [r3, #32]
 971 004c 3AB1     		cbz	r2, .L213
 972              	.L232:
 973              		.syntax unified
 974              	@ 1155 "Drivers/CMSIS/Include/cmsis_gcc.h" 1
 975 004e 53E8002F 		ldrex r2, [r3]
 976              	@ 0 "" 2
 977              		.thumb
 978              		.syntax unified
 979 0052 42F48072 		orr	r2, r2, #256
 980              		.syntax unified
 981              	@ 1206 "Drivers/CMSIS/Include/cmsis_gcc.h" 1
 982 0056 43E80021 		strex r1, r2, [r3]
 983              	@ 0 "" 2
 984              		.thumb
 985              		.syntax unified
 986 005a 0029     		cmp	r1, #0
 987 005c F7D1     		bne	.L232
 988              	.L213:
 989 005e 03F10802 		add	r2, r3, #8
 990              		.syntax unified
ARM GAS  /tmp/ccQrb7vt.s 			page 18


 991              	@ 1155 "Drivers/CMSIS/Include/cmsis_gcc.h" 1
 992 0062 52E8002F 		ldrex r2, [r2]
 993              	@ 0 "" 2
 994              		.thumb
 995              		.syntax unified
 996 0066 42F00102 		orr	r2, r2, #1
 997 006a 03F1080C 		add	ip, r3, #8
 998              		.syntax unified
 999              	@ 1206 "Drivers/CMSIS/Include/cmsis_gcc.h" 1
 1000 006e 4CE80021 		strex r1, r2, [ip]
 1001              	@ 0 "" 2
 1002              		.thumb
 1003              		.syntax unified
 1004 0072 0029     		cmp	r1, #0
 1005 0074 F3D1     		bne	.L213
 1006              	.L218:
 1007 0076 03F10802 		add	r2, r3, #8
 1008              		.syntax unified
 1009              	@ 1155 "Drivers/CMSIS/Include/cmsis_gcc.h" 1
 1010 007a 52E8002F 		ldrex r2, [r2]
 1011              	@ 0 "" 2
 1012              		.thumb
 1013              		.syntax unified
 1014 007e 42F04002 		orr	r2, r2, #64
 1015 0082 03F1080C 		add	ip, r3, #8
 1016              		.syntax unified
 1017              	@ 1206 "Drivers/CMSIS/Include/cmsis_gcc.h" 1
 1018 0086 4CE80021 		strex r1, r2, [ip]
 1019              	@ 0 "" 2
 1020              		.thumb
 1021              		.syntax unified
 1022 008a 0029     		cmp	r1, #0
 1023 008c F3D1     		bne	.L218
 1024 008e C4E7     		b	.L211
 1025              	.L219:
 1026 0090 0220     		movs	r0, #2
 1027 0092 7047     		bx	lr
 1029              		.section	.text.HAL_UART_DMAStop,"ax",%progbits
 1030              		.align	1
 1031              		.p2align 2,,3
 1032              		.global	HAL_UART_DMAStop
 1033              		.syntax unified
 1034              		.thumb
 1035              		.thumb_func
 1036              		.fpu fpv4-sp-d16
 1038              	HAL_UART_DMAStop:
 1039              		@ args = 0, pretend = 0, frame = 0
 1040              		@ frame_needed = 0, uses_anonymous_args = 0
 1041 0000 38B5     		push	{r3, r4, r5, lr}
 1042 0002 0368     		ldr	r3, [r0]
 1043 0004 816F     		ldr	r1, [r0, #120]
 1044 0006 C56F     		ldr	r5, [r0, #124]
 1045 0008 9A68     		ldr	r2, [r3, #8]
 1046 000a 1206     		lsls	r2, r2, #24
 1047 000c 0446     		mov	r4, r0
 1048 000e 01D5     		bpl	.L236
 1049 0010 2129     		cmp	r1, #33
ARM GAS  /tmp/ccQrb7vt.s 			page 19


 1050 0012 07D0     		beq	.L281
 1051              	.L236:
 1052 0014 9868     		ldr	r0, [r3, #8]
 1053 0016 10F04000 		ands	r0, r0, #64
 1054 001a 02D0     		beq	.L242
 1055              	.L286:
 1056 001c 222D     		cmp	r5, #34
 1057 001e 23D0     		beq	.L283
 1058 0020 0020     		movs	r0, #0
 1059              	.L242:
 1060 0022 38BD     		pop	{r3, r4, r5, pc}
 1061              	.L281:
 1062 0024 03F10802 		add	r2, r3, #8
 1063              		.syntax unified
 1064              	@ 1155 "Drivers/CMSIS/Include/cmsis_gcc.h" 1
 1065 0028 52E8002F 		ldrex r2, [r2]
 1066              	@ 0 "" 2
 1067              		.thumb
 1068              		.syntax unified
 1069 002c 22F08002 		bic	r2, r2, #128
 1070 0030 03F10800 		add	r0, r3, #8
 1071              		.syntax unified
 1072              	@ 1206 "Drivers/CMSIS/Include/cmsis_gcc.h" 1
 1073 0034 40E80021 		strex r1, r2, [r0]
 1074              	@ 0 "" 2
 1075              		.thumb
 1076              		.syntax unified
 1077 0038 0029     		cmp	r1, #0
 1078 003a F3D1     		bne	.L281
 1079 003c E06E     		ldr	r0, [r4, #108]
 1080 003e 20B1     		cbz	r0, .L240
 1081 0040 FFF7FEFF 		bl	HAL_DMA_Abort
 1082 0044 0028     		cmp	r0, #0
 1083 0046 59D1     		bne	.L276
 1084              	.L282:
 1085 0048 2368     		ldr	r3, [r4]
 1086              	.L240:
 1087              		.syntax unified
 1088              	@ 1155 "Drivers/CMSIS/Include/cmsis_gcc.h" 1
 1089 004a 53E8002F 		ldrex r2, [r3]
 1090              	@ 0 "" 2
 1091              		.thumb
 1092              		.syntax unified
 1093 004e 22F0C002 		bic	r2, r2, #192
 1094              		.syntax unified
 1095              	@ 1206 "Drivers/CMSIS/Include/cmsis_gcc.h" 1
 1096 0052 43E80021 		strex r1, r2, [r3]
 1097              	@ 0 "" 2
 1098              		.thumb
 1099              		.syntax unified
 1100 0056 0029     		cmp	r1, #0
 1101 0058 F7D1     		bne	.L240
 1102 005a 2022     		movs	r2, #32
 1103 005c A267     		str	r2, [r4, #120]
 1104 005e 9868     		ldr	r0, [r3, #8]
 1105 0060 10F04000 		ands	r0, r0, #64
 1106 0064 DDD0     		beq	.L242
ARM GAS  /tmp/ccQrb7vt.s 			page 20


 1107 0066 D9E7     		b	.L286
 1108              	.L283:
 1109 0068 03F10802 		add	r2, r3, #8
 1110              		.syntax unified
 1111              	@ 1155 "Drivers/CMSIS/Include/cmsis_gcc.h" 1
 1112 006c 52E8002F 		ldrex r2, [r2]
 1113              	@ 0 "" 2
 1114              		.thumb
 1115              		.syntax unified
 1116 0070 22F04002 		bic	r2, r2, #64
 1117 0074 03F10800 		add	r0, r3, #8
 1118              		.syntax unified
 1119              	@ 1206 "Drivers/CMSIS/Include/cmsis_gcc.h" 1
 1120 0078 40E80021 		strex r1, r2, [r0]
 1121              	@ 0 "" 2
 1122              		.thumb
 1123              		.syntax unified
 1124 007c 0029     		cmp	r1, #0
 1125 007e F3D1     		bne	.L283
 1126 0080 206F     		ldr	r0, [r4, #112]
 1127 0082 18B1     		cbz	r0, .L246
 1128 0084 FFF7FEFF 		bl	HAL_DMA_Abort
 1129 0088 70BB     		cbnz	r0, .L278
 1130              	.L284:
 1131 008a 2368     		ldr	r3, [r4]
 1132              	.L246:
 1133              		.syntax unified
 1134              	@ 1155 "Drivers/CMSIS/Include/cmsis_gcc.h" 1
 1135 008c 53E8002F 		ldrex r2, [r3]
 1136              	@ 0 "" 2
 1137              		.thumb
 1138              		.syntax unified
 1139 0090 22F49072 		bic	r2, r2, #288
 1140              		.syntax unified
 1141              	@ 1206 "Drivers/CMSIS/Include/cmsis_gcc.h" 1
 1142 0094 43E80021 		strex r1, r2, [r3]
 1143              	@ 0 "" 2
 1144              		.thumb
 1145              		.syntax unified
 1146 0098 0029     		cmp	r1, #0
 1147 009a F7D1     		bne	.L246
 1148              	.L248:
 1149 009c 03F10802 		add	r2, r3, #8
 1150              		.syntax unified
 1151              	@ 1155 "Drivers/CMSIS/Include/cmsis_gcc.h" 1
 1152 00a0 52E8002F 		ldrex r2, [r2]
 1153              	@ 0 "" 2
 1154              		.thumb
 1155              		.syntax unified
 1156 00a4 22F00102 		bic	r2, r2, #1
 1157 00a8 03F10800 		add	r0, r3, #8
 1158              		.syntax unified
 1159              	@ 1206 "Drivers/CMSIS/Include/cmsis_gcc.h" 1
 1160 00ac 40E80021 		strex r1, r2, [r0]
 1161              	@ 0 "" 2
 1162              		.thumb
 1163              		.syntax unified
ARM GAS  /tmp/ccQrb7vt.s 			page 21


 1164 00b0 0029     		cmp	r1, #0
 1165 00b2 F3D1     		bne	.L248
 1166 00b4 226E     		ldr	r2, [r4, #96]
 1167 00b6 012A     		cmp	r2, #1
 1168 00b8 05D0     		beq	.L249
 1169              	.L250:
 1170 00ba 0020     		movs	r0, #0
 1171 00bc 2023     		movs	r3, #32
 1172 00be E367     		str	r3, [r4, #124]
 1173 00c0 6066     		str	r0, [r4, #100]
 1174 00c2 2066     		str	r0, [r4, #96]
 1175 00c4 38BD     		pop	{r3, r4, r5, pc}
 1176              	.L249:
 1177              		.syntax unified
 1178              	@ 1155 "Drivers/CMSIS/Include/cmsis_gcc.h" 1
 1179 00c6 53E8002F 		ldrex r2, [r3]
 1180              	@ 0 "" 2
 1181              		.thumb
 1182              		.syntax unified
 1183 00ca 22F01002 		bic	r2, r2, #16
 1184              		.syntax unified
 1185              	@ 1206 "Drivers/CMSIS/Include/cmsis_gcc.h" 1
 1186 00ce 43E80021 		strex r1, r2, [r3]
 1187              	@ 0 "" 2
 1188              		.thumb
 1189              		.syntax unified
 1190 00d2 0029     		cmp	r1, #0
 1191 00d4 F1D0     		beq	.L250
 1192              		.syntax unified
 1193              	@ 1155 "Drivers/CMSIS/Include/cmsis_gcc.h" 1
 1194 00d6 53E8002F 		ldrex r2, [r3]
 1195              	@ 0 "" 2
 1196              		.thumb
 1197              		.syntax unified
 1198 00da 22F01002 		bic	r2, r2, #16
 1199              		.syntax unified
 1200              	@ 1206 "Drivers/CMSIS/Include/cmsis_gcc.h" 1
 1201 00de 43E80021 		strex r1, r2, [r3]
 1202              	@ 0 "" 2
 1203              		.thumb
 1204              		.syntax unified
 1205 00e2 0029     		cmp	r1, #0
 1206 00e4 EFD1     		bne	.L249
 1207 00e6 E8E7     		b	.L250
 1208              	.L278:
 1209 00e8 206F     		ldr	r0, [r4, #112]
 1210 00ea FFF7FEFF 		bl	HAL_DMA_GetError
 1211 00ee 2028     		cmp	r0, #32
 1212 00f0 CBD1     		bne	.L284
 1213              	.L279:
 1214 00f2 1023     		movs	r3, #16
 1215 00f4 C4F88030 		str	r3, [r4, #128]
 1216 00f8 0320     		movs	r0, #3
 1217 00fa 38BD     		pop	{r3, r4, r5, pc}
 1218              	.L276:
 1219 00fc E06E     		ldr	r0, [r4, #108]
 1220 00fe FFF7FEFF 		bl	HAL_DMA_GetError
ARM GAS  /tmp/ccQrb7vt.s 			page 22


 1221 0102 2028     		cmp	r0, #32
 1222 0104 A0D1     		bne	.L282
 1223 0106 F4E7     		b	.L279
 1225              		.section	.text.HAL_UART_Abort,"ax",%progbits
 1226              		.align	1
 1227              		.p2align 2,,3
 1228              		.global	HAL_UART_Abort
 1229              		.syntax unified
 1230              		.thumb
 1231              		.thumb_func
 1232              		.fpu fpv4-sp-d16
 1234              	HAL_UART_Abort:
 1235              		@ args = 0, pretend = 0, frame = 0
 1236              		@ frame_needed = 0, uses_anonymous_args = 0
 1237 0000 38B5     		push	{r3, r4, r5, lr}
 1238 0002 0368     		ldr	r3, [r0]
 1239 0004 0446     		mov	r4, r0
 1240              	.L288:
 1241              		.syntax unified
 1242              	@ 1155 "Drivers/CMSIS/Include/cmsis_gcc.h" 1
 1243 0006 53E8002F 		ldrex r2, [r3]
 1244              	@ 0 "" 2
 1245              		.thumb
 1246              		.syntax unified
 1247 000a 22F4F072 		bic	r2, r2, #480
 1248              		.syntax unified
 1249              	@ 1206 "Drivers/CMSIS/Include/cmsis_gcc.h" 1
 1250 000e 43E80021 		strex r1, r2, [r3]
 1251              	@ 0 "" 2
 1252              		.thumb
 1253              		.syntax unified
 1254 0012 0029     		cmp	r1, #0
 1255 0014 F7D1     		bne	.L288
 1256              	.L289:
 1257 0016 03F10802 		add	r2, r3, #8
 1258              		.syntax unified
 1259              	@ 1155 "Drivers/CMSIS/Include/cmsis_gcc.h" 1
 1260 001a 52E8002F 		ldrex r2, [r2]
 1261              	@ 0 "" 2
 1262              		.thumb
 1263              		.syntax unified
 1264 001e 22F00102 		bic	r2, r2, #1
 1265 0022 03F10800 		add	r0, r3, #8
 1266              		.syntax unified
 1267              	@ 1206 "Drivers/CMSIS/Include/cmsis_gcc.h" 1
 1268 0026 40E80021 		strex r1, r2, [r0]
 1269              	@ 0 "" 2
 1270              		.thumb
 1271              		.syntax unified
 1272 002a 0029     		cmp	r1, #0
 1273 002c F3D1     		bne	.L289
 1274 002e 226E     		ldr	r2, [r4, #96]
 1275 0030 012A     		cmp	r2, #1
 1276 0032 46D0     		beq	.L290
 1277              	.L293:
 1278 0034 9A68     		ldr	r2, [r3, #8]
 1279 0036 1006     		lsls	r0, r2, #24
ARM GAS  /tmp/ccQrb7vt.s 			page 23


 1280 0038 1946     		mov	r1, r3
 1281 003a 2CD4     		bmi	.L291
 1282              	.L292:
 1283 003c 9A68     		ldr	r2, [r3, #8]
 1284 003e 5206     		lsls	r2, r2, #25
 1285 0040 15D5     		bpl	.L300
 1286              	.L325:
 1287 0042 03F10802 		add	r2, r3, #8
 1288              		.syntax unified
 1289              	@ 1155 "Drivers/CMSIS/Include/cmsis_gcc.h" 1
 1290 0046 52E8002F 		ldrex r2, [r2]
 1291              	@ 0 "" 2
 1292              		.thumb
 1293              		.syntax unified
 1294 004a 22F04002 		bic	r2, r2, #64
 1295 004e 03F10800 		add	r0, r3, #8
 1296              		.syntax unified
 1297              	@ 1206 "Drivers/CMSIS/Include/cmsis_gcc.h" 1
 1298 0052 40E80021 		strex r1, r2, [r0]
 1299              	@ 0 "" 2
 1300              		.thumb
 1301              		.syntax unified
 1302 0056 0029     		cmp	r1, #0
 1303 0058 F3D1     		bne	.L325
 1304 005a 206F     		ldr	r0, [r4, #112]
 1305 005c 0028     		cmp	r0, #0
 1306 005e 41D0     		beq	.L328
 1307 0060 0023     		movs	r3, #0
 1308 0062 8363     		str	r3, [r0, #56]
 1309 0064 FFF7FEFF 		bl	HAL_DMA_Abort
 1310 0068 0028     		cmp	r0, #0
 1311 006a 47D1     		bne	.L304
 1312              	.L326:
 1313 006c 2168     		ldr	r1, [r4]
 1314              	.L300:
 1315 006e 0023     		movs	r3, #0
 1316 0070 0F22     		movs	r2, #15
 1317 0072 A4F85230 		strh	r3, [r4, #82]	@ movhi
 1318 0076 A4F85A30 		strh	r3, [r4, #90]	@ movhi
 1319 007a 0A62     		str	r2, [r1, #32]
 1320 007c 0A8B     		ldrh	r2, [r1, #24]
 1321 007e 92B2     		uxth	r2, r2
 1322 0080 2025     		movs	r5, #32
 1323 0082 42F00802 		orr	r2, r2, #8
 1324 0086 0A83     		strh	r2, [r1, #24]	@ movhi
 1325 0088 1846     		mov	r0, r3
 1326 008a A567     		str	r5, [r4, #120]
 1327 008c E567     		str	r5, [r4, #124]
 1328 008e 2366     		str	r3, [r4, #96]
 1329 0090 C4F88030 		str	r3, [r4, #128]
 1330 0094 38BD     		pop	{r3, r4, r5, pc}
 1331              	.L291:
 1332 0096 03F10802 		add	r2, r3, #8
 1333              		.syntax unified
 1334              	@ 1155 "Drivers/CMSIS/Include/cmsis_gcc.h" 1
 1335 009a 52E8002F 		ldrex r2, [r2]
 1336              	@ 0 "" 2
ARM GAS  /tmp/ccQrb7vt.s 			page 24


 1337              		.thumb
 1338              		.syntax unified
 1339 009e 22F08002 		bic	r2, r2, #128
 1340 00a2 03F10800 		add	r0, r3, #8
 1341              		.syntax unified
 1342              	@ 1206 "Drivers/CMSIS/Include/cmsis_gcc.h" 1
 1343 00a6 40E80021 		strex r1, r2, [r0]
 1344              	@ 0 "" 2
 1345              		.thumb
 1346              		.syntax unified
 1347 00aa 0029     		cmp	r1, #0
 1348 00ac F3D1     		bne	.L291
 1349 00ae E06E     		ldr	r0, [r4, #108]
 1350 00b0 28B1     		cbz	r0, .L324
 1351 00b2 0023     		movs	r3, #0
 1352 00b4 8363     		str	r3, [r0, #56]
 1353 00b6 FFF7FEFF 		bl	HAL_DMA_Abort
 1354 00ba A8B9     		cbnz	r0, .L297
 1355              	.L323:
 1356 00bc 2368     		ldr	r3, [r4]
 1357              	.L324:
 1358 00be 1946     		mov	r1, r3
 1359 00c0 BCE7     		b	.L292
 1360              	.L290:
 1361              		.syntax unified
 1362              	@ 1155 "Drivers/CMSIS/Include/cmsis_gcc.h" 1
 1363 00c2 53E8002F 		ldrex r2, [r3]
 1364              	@ 0 "" 2
 1365              		.thumb
 1366              		.syntax unified
 1367 00c6 22F01002 		bic	r2, r2, #16
 1368              		.syntax unified
 1369              	@ 1206 "Drivers/CMSIS/Include/cmsis_gcc.h" 1
 1370 00ca 43E80021 		strex r1, r2, [r3]
 1371              	@ 0 "" 2
 1372              		.thumb
 1373              		.syntax unified
 1374 00ce 0029     		cmp	r1, #0
 1375 00d0 B0D0     		beq	.L293
 1376              		.syntax unified
 1377              	@ 1155 "Drivers/CMSIS/Include/cmsis_gcc.h" 1
 1378 00d2 53E8002F 		ldrex r2, [r3]
 1379              	@ 0 "" 2
 1380              		.thumb
 1381              		.syntax unified
 1382 00d6 22F01002 		bic	r2, r2, #16
 1383              		.syntax unified
 1384              	@ 1206 "Drivers/CMSIS/Include/cmsis_gcc.h" 1
 1385 00da 43E80021 		strex r1, r2, [r3]
 1386              	@ 0 "" 2
 1387              		.thumb
 1388              		.syntax unified
 1389 00de 0029     		cmp	r1, #0
 1390 00e0 EFD1     		bne	.L290
 1391 00e2 A7E7     		b	.L293
 1392              	.L328:
 1393 00e4 1946     		mov	r1, r3
ARM GAS  /tmp/ccQrb7vt.s 			page 25


 1394 00e6 C2E7     		b	.L300
 1395              	.L297:
 1396 00e8 E06E     		ldr	r0, [r4, #108]
 1397 00ea FFF7FEFF 		bl	HAL_DMA_GetError
 1398 00ee 2028     		cmp	r0, #32
 1399 00f0 E4D1     		bne	.L323
 1400              	.L305:
 1401 00f2 1023     		movs	r3, #16
 1402 00f4 C4F88030 		str	r3, [r4, #128]
 1403 00f8 0320     		movs	r0, #3
 1404 00fa 38BD     		pop	{r3, r4, r5, pc}
 1405              	.L304:
 1406 00fc 206F     		ldr	r0, [r4, #112]
 1407 00fe FFF7FEFF 		bl	HAL_DMA_GetError
 1408 0102 2028     		cmp	r0, #32
 1409 0104 B2D1     		bne	.L326
 1410 0106 F4E7     		b	.L305
 1412              		.section	.text.HAL_UART_AbortTransmit,"ax",%progbits
 1413              		.align	1
 1414              		.p2align 2,,3
 1415              		.global	HAL_UART_AbortTransmit
 1416              		.syntax unified
 1417              		.thumb
 1418              		.thumb_func
 1419              		.fpu fpv4-sp-d16
 1421              	HAL_UART_AbortTransmit:
 1422              		@ args = 0, pretend = 0, frame = 0
 1423              		@ frame_needed = 0, uses_anonymous_args = 0
 1424 0000 0268     		ldr	r2, [r0]
 1425 0002 10B5     		push	{r4, lr}
 1426 0004 0446     		mov	r4, r0
 1427              	.L330:
 1428              		.syntax unified
 1429              	@ 1155 "Drivers/CMSIS/Include/cmsis_gcc.h" 1
 1430 0006 52E8003F 		ldrex r3, [r2]
 1431              	@ 0 "" 2
 1432              		.thumb
 1433              		.syntax unified
 1434 000a 23F0C003 		bic	r3, r3, #192
 1435              		.syntax unified
 1436              	@ 1206 "Drivers/CMSIS/Include/cmsis_gcc.h" 1
 1437 000e 42E80031 		strex r1, r3, [r2]
 1438              	@ 0 "" 2
 1439              		.thumb
 1440              		.syntax unified
 1441 0012 0029     		cmp	r1, #0
 1442 0014 F7D1     		bne	.L330
 1443 0016 9368     		ldr	r3, [r2, #8]
 1444 0018 1B06     		lsls	r3, r3, #24
 1445 001a 05D4     		bmi	.L350
 1446              	.L331:
 1447 001c 0020     		movs	r0, #0
 1448 001e 2023     		movs	r3, #32
 1449 0020 A4F85200 		strh	r0, [r4, #82]	@ movhi
 1450 0024 A367     		str	r3, [r4, #120]
 1451 0026 10BD     		pop	{r4, pc}
 1452              	.L350:
ARM GAS  /tmp/ccQrb7vt.s 			page 26


 1453 0028 02F10803 		add	r3, r2, #8
 1454              		.syntax unified
 1455              	@ 1155 "Drivers/CMSIS/Include/cmsis_gcc.h" 1
 1456 002c 53E8003F 		ldrex r3, [r3]
 1457              	@ 0 "" 2
 1458              		.thumb
 1459              		.syntax unified
 1460 0030 23F08003 		bic	r3, r3, #128
 1461 0034 02F10800 		add	r0, r2, #8
 1462              		.syntax unified
 1463              	@ 1206 "Drivers/CMSIS/Include/cmsis_gcc.h" 1
 1464 0038 40E80031 		strex r1, r3, [r0]
 1465              	@ 0 "" 2
 1466              		.thumb
 1467              		.syntax unified
 1468 003c 0029     		cmp	r1, #0
 1469 003e F3D1     		bne	.L350
 1470 0040 E06E     		ldr	r0, [r4, #108]
 1471 0042 0028     		cmp	r0, #0
 1472 0044 EAD0     		beq	.L331
 1473 0046 0023     		movs	r3, #0
 1474 0048 8363     		str	r3, [r0, #56]
 1475 004a FFF7FEFF 		bl	HAL_DMA_Abort
 1476 004e 0028     		cmp	r0, #0
 1477 0050 E4D0     		beq	.L331
 1478 0052 E06E     		ldr	r0, [r4, #108]
 1479 0054 FFF7FEFF 		bl	HAL_DMA_GetError
 1480 0058 2028     		cmp	r0, #32
 1481 005a DFD1     		bne	.L331
 1482 005c 1023     		movs	r3, #16
 1483 005e C4F88030 		str	r3, [r4, #128]
 1484 0062 0320     		movs	r0, #3
 1485 0064 10BD     		pop	{r4, pc}
 1487 0066 00BF     		.section	.text.HAL_UART_AbortReceive,"ax",%progbits
 1488              		.align	1
 1489              		.p2align 2,,3
 1490              		.global	HAL_UART_AbortReceive
 1491              		.syntax unified
 1492              		.thumb
 1493              		.thumb_func
 1494              		.fpu fpv4-sp-d16
 1496              	HAL_UART_AbortReceive:
 1497              		@ args = 0, pretend = 0, frame = 0
 1498              		@ frame_needed = 0, uses_anonymous_args = 0
 1499 0000 38B5     		push	{r3, r4, r5, lr}
 1500 0002 0368     		ldr	r3, [r0]
 1501 0004 0446     		mov	r4, r0
 1502              	.L352:
 1503              		.syntax unified
 1504              	@ 1155 "Drivers/CMSIS/Include/cmsis_gcc.h" 1
 1505 0006 53E8002F 		ldrex r2, [r3]
 1506              	@ 0 "" 2
 1507              		.thumb
 1508              		.syntax unified
 1509 000a 22F49072 		bic	r2, r2, #288
 1510              		.syntax unified
 1511              	@ 1206 "Drivers/CMSIS/Include/cmsis_gcc.h" 1
ARM GAS  /tmp/ccQrb7vt.s 			page 27


 1512 000e 43E80021 		strex r1, r2, [r3]
 1513              	@ 0 "" 2
 1514              		.thumb
 1515              		.syntax unified
 1516 0012 0029     		cmp	r1, #0
 1517 0014 F7D1     		bne	.L352
 1518              	.L353:
 1519 0016 03F10802 		add	r2, r3, #8
 1520              		.syntax unified
 1521              	@ 1155 "Drivers/CMSIS/Include/cmsis_gcc.h" 1
 1522 001a 52E8002F 		ldrex r2, [r2]
 1523              	@ 0 "" 2
 1524              		.thumb
 1525              		.syntax unified
 1526 001e 22F00102 		bic	r2, r2, #1
 1527 0022 03F10800 		add	r0, r3, #8
 1528              		.syntax unified
 1529              	@ 1206 "Drivers/CMSIS/Include/cmsis_gcc.h" 1
 1530 0026 40E80021 		strex r1, r2, [r0]
 1531              	@ 0 "" 2
 1532              		.thumb
 1533              		.syntax unified
 1534 002a 0029     		cmp	r1, #0
 1535 002c F3D1     		bne	.L353
 1536 002e 226E     		ldr	r2, [r4, #96]
 1537 0030 012A     		cmp	r2, #1
 1538 0032 27D0     		beq	.L354
 1539              	.L357:
 1540 0034 9968     		ldr	r1, [r3, #8]
 1541 0036 4906     		lsls	r1, r1, #25
 1542 0038 1A46     		mov	r2, r3
 1543 003a 0ED4     		bmi	.L355
 1544              	.L356:
 1545 003c 0021     		movs	r1, #0
 1546 003e 0F23     		movs	r3, #15
 1547 0040 A4F85A10 		strh	r1, [r4, #90]	@ movhi
 1548 0044 1362     		str	r3, [r2, #32]
 1549 0046 138B     		ldrh	r3, [r2, #24]
 1550 0048 9BB2     		uxth	r3, r3
 1551 004a 2025     		movs	r5, #32
 1552 004c 43F00803 		orr	r3, r3, #8
 1553 0050 1383     		strh	r3, [r2, #24]	@ movhi
 1554 0052 0846     		mov	r0, r1
 1555 0054 E567     		str	r5, [r4, #124]
 1556 0056 2166     		str	r1, [r4, #96]
 1557 0058 38BD     		pop	{r3, r4, r5, pc}
 1558              	.L355:
 1559 005a 03F10802 		add	r2, r3, #8
 1560              		.syntax unified
 1561              	@ 1155 "Drivers/CMSIS/Include/cmsis_gcc.h" 1
 1562 005e 52E8002F 		ldrex r2, [r2]
 1563              	@ 0 "" 2
 1564              		.thumb
 1565              		.syntax unified
 1566 0062 22F04002 		bic	r2, r2, #64
 1567 0066 03F10800 		add	r0, r3, #8
 1568              		.syntax unified
ARM GAS  /tmp/ccQrb7vt.s 			page 28


 1569              	@ 1206 "Drivers/CMSIS/Include/cmsis_gcc.h" 1
 1570 006a 40E80021 		strex r1, r2, [r0]
 1571              	@ 0 "" 2
 1572              		.thumb
 1573              		.syntax unified
 1574 006e 0029     		cmp	r1, #0
 1575 0070 F3D1     		bne	.L355
 1576 0072 206F     		ldr	r0, [r4, #112]
 1577 0074 B8B1     		cbz	r0, .L376
 1578 0076 0023     		movs	r3, #0
 1579 0078 8363     		str	r3, [r0, #56]
 1580 007a FFF7FEFF 		bl	HAL_DMA_Abort
 1581 007e A0B9     		cbnz	r0, .L361
 1582              	.L374:
 1583 0080 2268     		ldr	r2, [r4]
 1584 0082 DBE7     		b	.L356
 1585              	.L354:
 1586              		.syntax unified
 1587              	@ 1155 "Drivers/CMSIS/Include/cmsis_gcc.h" 1
 1588 0084 53E8002F 		ldrex r2, [r3]
 1589              	@ 0 "" 2
 1590              		.thumb
 1591              		.syntax unified
 1592 0088 22F01002 		bic	r2, r2, #16
 1593              		.syntax unified
 1594              	@ 1206 "Drivers/CMSIS/Include/cmsis_gcc.h" 1
 1595 008c 43E80021 		strex r1, r2, [r3]
 1596              	@ 0 "" 2
 1597              		.thumb
 1598              		.syntax unified
 1599 0090 0029     		cmp	r1, #0
 1600 0092 CFD0     		beq	.L357
 1601              		.syntax unified
 1602              	@ 1155 "Drivers/CMSIS/Include/cmsis_gcc.h" 1
 1603 0094 53E8002F 		ldrex r2, [r3]
 1604              	@ 0 "" 2
 1605              		.thumb
 1606              		.syntax unified
 1607 0098 22F01002 		bic	r2, r2, #16
 1608              		.syntax unified
 1609              	@ 1206 "Drivers/CMSIS/Include/cmsis_gcc.h" 1
 1610 009c 43E80021 		strex r1, r2, [r3]
 1611              	@ 0 "" 2
 1612              		.thumb
 1613              		.syntax unified
 1614 00a0 0029     		cmp	r1, #0
 1615 00a2 EFD1     		bne	.L354
 1616 00a4 C6E7     		b	.L357
 1617              	.L376:
 1618 00a6 1A46     		mov	r2, r3
 1619 00a8 C8E7     		b	.L356
 1620              	.L361:
 1621 00aa 206F     		ldr	r0, [r4, #112]
 1622 00ac FFF7FEFF 		bl	HAL_DMA_GetError
 1623 00b0 2028     		cmp	r0, #32
 1624 00b2 E5D1     		bne	.L374
 1625 00b4 1023     		movs	r3, #16
ARM GAS  /tmp/ccQrb7vt.s 			page 29


 1626 00b6 C4F88030 		str	r3, [r4, #128]
 1627 00ba 0320     		movs	r0, #3
 1628 00bc 38BD     		pop	{r3, r4, r5, pc}
 1630 00be 00BF     		.section	.text.HAL_UART_TxCpltCallback,"ax",%progbits
 1631              		.align	1
 1632              		.p2align 2,,3
 1633              		.weak	HAL_UART_TxCpltCallback
 1634              		.syntax unified
 1635              		.thumb
 1636              		.thumb_func
 1637              		.fpu fpv4-sp-d16
 1639              	HAL_UART_TxCpltCallback:
 1640              		@ args = 0, pretend = 0, frame = 0
 1641              		@ frame_needed = 0, uses_anonymous_args = 0
 1642              		@ link register save eliminated.
 1643 0000 7047     		bx	lr
 1645 0002 00BF     		.section	.text.UART_DMATransmitCplt,"ax",%progbits
 1646              		.align	1
 1647              		.p2align 2,,3
 1648              		.syntax unified
 1649              		.thumb
 1650              		.thumb_func
 1651              		.fpu fpv4-sp-d16
 1653              	UART_DMATransmitCplt:
 1654              		@ args = 0, pretend = 0, frame = 0
 1655              		@ frame_needed = 0, uses_anonymous_args = 0
 1656 0000 08B5     		push	{r3, lr}
 1657 0002 0368     		ldr	r3, [r0]
 1658 0004 806A     		ldr	r0, [r0, #40]
 1659 0006 1B68     		ldr	r3, [r3]
 1660 0008 13F02003 		ands	r3, r3, #32
 1661 000c 17D1     		bne	.L379
 1662 000e 0268     		ldr	r2, [r0]
 1663 0010 A0F85230 		strh	r3, [r0, #82]	@ movhi
 1664              	.L380:
 1665 0014 02F10803 		add	r3, r2, #8
 1666              		.syntax unified
 1667              	@ 1155 "Drivers/CMSIS/Include/cmsis_gcc.h" 1
 1668 0018 53E8003F 		ldrex r3, [r3]
 1669              	@ 0 "" 2
 1670              		.thumb
 1671              		.syntax unified
 1672 001c 23F08003 		bic	r3, r3, #128
 1673 0020 02F10800 		add	r0, r2, #8
 1674              		.syntax unified
 1675              	@ 1206 "Drivers/CMSIS/Include/cmsis_gcc.h" 1
 1676 0024 40E80031 		strex r1, r3, [r0]
 1677              	@ 0 "" 2
 1678              		.thumb
 1679              		.syntax unified
 1680 0028 0029     		cmp	r1, #0
 1681 002a F3D1     		bne	.L380
 1682              	.L381:
 1683              		.syntax unified
 1684              	@ 1155 "Drivers/CMSIS/Include/cmsis_gcc.h" 1
 1685 002c 52E8003F 		ldrex r3, [r2]
 1686              	@ 0 "" 2
ARM GAS  /tmp/ccQrb7vt.s 			page 30


 1687              		.thumb
 1688              		.syntax unified
 1689 0030 43F04003 		orr	r3, r3, #64
 1690              		.syntax unified
 1691              	@ 1206 "Drivers/CMSIS/Include/cmsis_gcc.h" 1
 1692 0034 42E80031 		strex r1, r3, [r2]
 1693              	@ 0 "" 2
 1694              		.thumb
 1695              		.syntax unified
 1696 0038 0029     		cmp	r1, #0
 1697 003a F7D1     		bne	.L381
 1698 003c 08BD     		pop	{r3, pc}
 1699              	.L379:
 1700 003e FFF7FEFF 		bl	HAL_UART_TxCpltCallback
 1701 0042 08BD     		pop	{r3, pc}
 1703              		.section	.text.HAL_UART_TxHalfCpltCallback,"ax",%progbits
 1704              		.align	1
 1705              		.p2align 2,,3
 1706              		.weak	HAL_UART_TxHalfCpltCallback
 1707              		.syntax unified
 1708              		.thumb
 1709              		.thumb_func
 1710              		.fpu fpv4-sp-d16
 1712              	HAL_UART_TxHalfCpltCallback:
 1713              		@ args = 0, pretend = 0, frame = 0
 1714              		@ frame_needed = 0, uses_anonymous_args = 0
 1715              		@ link register save eliminated.
 1716 0000 7047     		bx	lr
 1718 0002 00BF     		.section	.text.UART_DMATxHalfCplt,"ax",%progbits
 1719              		.align	1
 1720              		.p2align 2,,3
 1721              		.syntax unified
 1722              		.thumb
 1723              		.thumb_func
 1724              		.fpu fpv4-sp-d16
 1726              	UART_DMATxHalfCplt:
 1727              		@ args = 0, pretend = 0, frame = 0
 1728              		@ frame_needed = 0, uses_anonymous_args = 0
 1729 0000 08B5     		push	{r3, lr}
 1730 0002 806A     		ldr	r0, [r0, #40]
 1731 0004 FFF7FEFF 		bl	HAL_UART_TxHalfCpltCallback
 1732 0008 08BD     		pop	{r3, pc}
 1734 000a 00BF     		.section	.text.HAL_UART_RxCpltCallback,"ax",%progbits
 1735              		.align	1
 1736              		.p2align 2,,3
 1737              		.weak	HAL_UART_RxCpltCallback
 1738              		.syntax unified
 1739              		.thumb
 1740              		.thumb_func
 1741              		.fpu fpv4-sp-d16
 1743              	HAL_UART_RxCpltCallback:
 1744              		@ args = 0, pretend = 0, frame = 0
 1745              		@ frame_needed = 0, uses_anonymous_args = 0
 1746              		@ link register save eliminated.
 1747 0000 7047     		bx	lr
 1749 0002 00BF     		.section	.text.HAL_UART_RxHalfCpltCallback,"ax",%progbits
 1750              		.align	1
ARM GAS  /tmp/ccQrb7vt.s 			page 31


 1751              		.p2align 2,,3
 1752              		.weak	HAL_UART_RxHalfCpltCallback
 1753              		.syntax unified
 1754              		.thumb
 1755              		.thumb_func
 1756              		.fpu fpv4-sp-d16
 1758              	HAL_UART_RxHalfCpltCallback:
 1759              		@ args = 0, pretend = 0, frame = 0
 1760              		@ frame_needed = 0, uses_anonymous_args = 0
 1761              		@ link register save eliminated.
 1762 0000 7047     		bx	lr
 1764 0002 00BF     		.section	.text.HAL_UART_ErrorCallback,"ax",%progbits
 1765              		.align	1
 1766              		.p2align 2,,3
 1767              		.weak	HAL_UART_ErrorCallback
 1768              		.syntax unified
 1769              		.thumb
 1770              		.thumb_func
 1771              		.fpu fpv4-sp-d16
 1773              	HAL_UART_ErrorCallback:
 1774              		@ args = 0, pretend = 0, frame = 0
 1775              		@ frame_needed = 0, uses_anonymous_args = 0
 1776              		@ link register save eliminated.
 1777 0000 7047     		bx	lr
 1779 0002 00BF     		.section	.text.UART_DMAError,"ax",%progbits
 1780              		.align	1
 1781              		.p2align 2,,3
 1782              		.syntax unified
 1783              		.thumb
 1784              		.thumb_func
 1785              		.fpu fpv4-sp-d16
 1787              	UART_DMAError:
 1788              		@ args = 0, pretend = 0, frame = 0
 1789              		@ frame_needed = 0, uses_anonymous_args = 0
 1790 0000 806A     		ldr	r0, [r0, #40]
 1791 0002 0368     		ldr	r3, [r0]
 1792 0004 816F     		ldr	r1, [r0, #120]
 1793 0006 10B5     		push	{r4, lr}
 1794 0008 C46F     		ldr	r4, [r0, #124]
 1795 000a 9A68     		ldr	r2, [r3, #8]
 1796 000c 1206     		lsls	r2, r2, #24
 1797 000e 01D5     		bpl	.L393
 1798 0010 2129     		cmp	r1, #33
 1799 0012 0DD0     		beq	.L424
 1800              	.L393:
 1801 0014 9A68     		ldr	r2, [r3, #8]
 1802 0016 5206     		lsls	r2, r2, #25
 1803 0018 01D5     		bpl	.L396
 1804 001a 222C     		cmp	r4, #34
 1805 001c 16D0     		beq	.L425
 1806              	.L396:
 1807 001e D0F88030 		ldr	r3, [r0, #128]
 1808 0022 43F01003 		orr	r3, r3, #16
 1809 0026 C0F88030 		str	r3, [r0, #128]
 1810 002a FFF7FEFF 		bl	HAL_UART_ErrorCallback
 1811 002e 10BD     		pop	{r4, pc}
 1812              	.L424:
ARM GAS  /tmp/ccQrb7vt.s 			page 32


 1813 0030 0022     		movs	r2, #0
 1814 0032 A0F85220 		strh	r2, [r0, #82]	@ movhi
 1815              	.L421:
 1816              		.syntax unified
 1817              	@ 1155 "Drivers/CMSIS/Include/cmsis_gcc.h" 1
 1818 0036 53E8002F 		ldrex r2, [r3]
 1819              	@ 0 "" 2
 1820              		.thumb
 1821              		.syntax unified
 1822 003a 22F0C002 		bic	r2, r2, #192
 1823              		.syntax unified
 1824              	@ 1206 "Drivers/CMSIS/Include/cmsis_gcc.h" 1
 1825 003e 43E80021 		strex r1, r2, [r3]
 1826              	@ 0 "" 2
 1827              		.thumb
 1828              		.syntax unified
 1829 0042 0029     		cmp	r1, #0
 1830 0044 F7D1     		bne	.L421
 1831 0046 2022     		movs	r2, #32
 1832 0048 8267     		str	r2, [r0, #120]
 1833 004a E3E7     		b	.L393
 1834              	.L425:
 1835 004c 0022     		movs	r2, #0
 1836 004e A0F85A20 		strh	r2, [r0, #90]	@ movhi
 1837              	.L422:
 1838              		.syntax unified
 1839              	@ 1155 "Drivers/CMSIS/Include/cmsis_gcc.h" 1
 1840 0052 53E8002F 		ldrex r2, [r3]
 1841              	@ 0 "" 2
 1842              		.thumb
 1843              		.syntax unified
 1844 0056 22F49072 		bic	r2, r2, #288
 1845              		.syntax unified
 1846              	@ 1206 "Drivers/CMSIS/Include/cmsis_gcc.h" 1
 1847 005a 43E80021 		strex r1, r2, [r3]
 1848              	@ 0 "" 2
 1849              		.thumb
 1850              		.syntax unified
 1851 005e 0029     		cmp	r1, #0
 1852 0060 F7D1     		bne	.L422
 1853              	.L399:
 1854 0062 03F10802 		add	r2, r3, #8
 1855              		.syntax unified
 1856              	@ 1155 "Drivers/CMSIS/Include/cmsis_gcc.h" 1
 1857 0066 52E8002F 		ldrex r2, [r2]
 1858              	@ 0 "" 2
 1859              		.thumb
 1860              		.syntax unified
 1861 006a 22F00102 		bic	r2, r2, #1
 1862 006e 03F10804 		add	r4, r3, #8
 1863              		.syntax unified
 1864              	@ 1206 "Drivers/CMSIS/Include/cmsis_gcc.h" 1
 1865 0072 44E80021 		strex r1, r2, [r4]
 1866              	@ 0 "" 2
 1867              		.thumb
 1868              		.syntax unified
 1869 0076 0029     		cmp	r1, #0
ARM GAS  /tmp/ccQrb7vt.s 			page 33


 1870 0078 F3D1     		bne	.L399
 1871 007a 026E     		ldr	r2, [r0, #96]
 1872 007c 012A     		cmp	r2, #1
 1873 007e 05D0     		beq	.L400
 1874              	.L401:
 1875 0080 0023     		movs	r3, #0
 1876 0082 2022     		movs	r2, #32
 1877 0084 C267     		str	r2, [r0, #124]
 1878 0086 4366     		str	r3, [r0, #100]
 1879 0088 0366     		str	r3, [r0, #96]
 1880 008a C8E7     		b	.L396
 1881              	.L400:
 1882              		.syntax unified
 1883              	@ 1155 "Drivers/CMSIS/Include/cmsis_gcc.h" 1
 1884 008c 53E8002F 		ldrex r2, [r3]
 1885              	@ 0 "" 2
 1886              		.thumb
 1887              		.syntax unified
 1888 0090 22F01002 		bic	r2, r2, #16
 1889              		.syntax unified
 1890              	@ 1206 "Drivers/CMSIS/Include/cmsis_gcc.h" 1
 1891 0094 43E80021 		strex r1, r2, [r3]
 1892              	@ 0 "" 2
 1893              		.thumb
 1894              		.syntax unified
 1895 0098 0029     		cmp	r1, #0
 1896 009a F1D0     		beq	.L401
 1897              		.syntax unified
 1898              	@ 1155 "Drivers/CMSIS/Include/cmsis_gcc.h" 1
 1899 009c 53E8002F 		ldrex r2, [r3]
 1900              	@ 0 "" 2
 1901              		.thumb
 1902              		.syntax unified
 1903 00a0 22F01002 		bic	r2, r2, #16
 1904              		.syntax unified
 1905              	@ 1206 "Drivers/CMSIS/Include/cmsis_gcc.h" 1
 1906 00a4 43E80021 		strex r1, r2, [r3]
 1907              	@ 0 "" 2
 1908              		.thumb
 1909              		.syntax unified
 1910 00a8 0029     		cmp	r1, #0
 1911 00aa EFD1     		bne	.L400
 1912 00ac E8E7     		b	.L401
 1914 00ae 00BF     		.section	.text.UART_DMAAbortOnError,"ax",%progbits
 1915              		.align	1
 1916              		.p2align 2,,3
 1917              		.syntax unified
 1918              		.thumb
 1919              		.thumb_func
 1920              		.fpu fpv4-sp-d16
 1922              	UART_DMAAbortOnError:
 1923              		@ args = 0, pretend = 0, frame = 0
 1924              		@ frame_needed = 0, uses_anonymous_args = 0
 1925 0000 08B5     		push	{r3, lr}
 1926 0002 806A     		ldr	r0, [r0, #40]
 1927 0004 0023     		movs	r3, #0
 1928 0006 A0F85A30 		strh	r3, [r0, #90]	@ movhi
ARM GAS  /tmp/ccQrb7vt.s 			page 34


 1929 000a A0F85230 		strh	r3, [r0, #82]	@ movhi
 1930 000e FFF7FEFF 		bl	HAL_UART_ErrorCallback
 1931 0012 08BD     		pop	{r3, pc}
 1933              		.section	.text.HAL_UART_AbortCpltCallback,"ax",%progbits
 1934              		.align	1
 1935              		.p2align 2,,3
 1936              		.weak	HAL_UART_AbortCpltCallback
 1937              		.syntax unified
 1938              		.thumb
 1939              		.thumb_func
 1940              		.fpu fpv4-sp-d16
 1942              	HAL_UART_AbortCpltCallback:
 1943              		@ args = 0, pretend = 0, frame = 0
 1944              		@ frame_needed = 0, uses_anonymous_args = 0
 1945              		@ link register save eliminated.
 1946 0000 7047     		bx	lr
 1948 0002 00BF     		.section	.text.HAL_UART_Abort_IT,"ax",%progbits
 1949              		.align	1
 1950              		.p2align 2,,3
 1951              		.global	HAL_UART_Abort_IT
 1952              		.syntax unified
 1953              		.thumb
 1954              		.thumb_func
 1955              		.fpu fpv4-sp-d16
 1957              	HAL_UART_Abort_IT:
 1958              		@ args = 0, pretend = 0, frame = 0
 1959              		@ frame_needed = 0, uses_anonymous_args = 0
 1960 0000 0368     		ldr	r3, [r0]
 1961 0002 70B5     		push	{r4, r5, r6, lr}
 1962 0004 0546     		mov	r5, r0
 1963              	.L430:
 1964              		.syntax unified
 1965              	@ 1155 "Drivers/CMSIS/Include/cmsis_gcc.h" 1
 1966 0006 53E8002F 		ldrex r2, [r3]
 1967              	@ 0 "" 2
 1968              		.thumb
 1969              		.syntax unified
 1970 000a 22F4F072 		bic	r2, r2, #480
 1971              		.syntax unified
 1972              	@ 1206 "Drivers/CMSIS/Include/cmsis_gcc.h" 1
 1973 000e 43E80021 		strex r1, r2, [r3]
 1974              	@ 0 "" 2
 1975              		.thumb
 1976              		.syntax unified
 1977 0012 0029     		cmp	r1, #0
 1978 0014 F7D1     		bne	.L430
 1979              	.L431:
 1980 0016 03F10802 		add	r2, r3, #8
 1981              		.syntax unified
 1982              	@ 1155 "Drivers/CMSIS/Include/cmsis_gcc.h" 1
 1983 001a 52E8002F 		ldrex r2, [r2]
 1984              	@ 0 "" 2
 1985              		.thumb
 1986              		.syntax unified
 1987 001e 22F00102 		bic	r2, r2, #1
 1988 0022 03F10801 		add	r1, r3, #8
 1989              		.syntax unified
ARM GAS  /tmp/ccQrb7vt.s 			page 35


 1990              	@ 1206 "Drivers/CMSIS/Include/cmsis_gcc.h" 1
 1991 0026 41E80024 		strex r4, r2, [r1]
 1992              	@ 0 "" 2
 1993              		.thumb
 1994              		.syntax unified
 1995 002a 002C     		cmp	r4, #0
 1996 002c F3D1     		bne	.L431
 1997 002e 2A6E     		ldr	r2, [r5, #96]
 1998 0030 012A     		cmp	r2, #1
 1999 0032 60D0     		beq	.L432
 2000              	.L435:
 2001 0034 EE6E     		ldr	r6, [r5, #108]
 2002 0036 1946     		mov	r1, r3
 2003 0038 2EB1     		cbz	r6, .L434
 2004 003a 9A68     		ldr	r2, [r3, #8]
 2005 003c 12F08002 		ands	r2, r2, #128
 2006 0040 18BF     		it	ne
 2007 0042 3C4A     		ldrne	r2, .L480
 2008 0044 B263     		str	r2, [r6, #56]
 2009              	.L434:
 2010 0046 286F     		ldr	r0, [r5, #112]
 2011 0048 28B1     		cbz	r0, .L437
 2012 004a 9A68     		ldr	r2, [r3, #8]
 2013 004c 12F04002 		ands	r2, r2, #64
 2014 0050 18BF     		it	ne
 2015 0052 394A     		ldrne	r2, .L480+4
 2016 0054 8263     		str	r2, [r0, #56]
 2017              	.L437:
 2018 0056 9A68     		ldr	r2, [r3, #8]
 2019 0058 1206     		lsls	r2, r2, #24
 2020 005a 31D4     		bmi	.L439
 2021 005c 9A68     		ldr	r2, [r3, #8]
 2022 005e 5206     		lsls	r2, r2, #25
 2023 0060 15D5     		bpl	.L441
 2024              	.L477:
 2025 0062 0124     		movs	r4, #1
 2026              	.L440:
 2027 0064 03F10802 		add	r2, r3, #8
 2028              		.syntax unified
 2029              	@ 1155 "Drivers/CMSIS/Include/cmsis_gcc.h" 1
 2030 0068 52E8002F 		ldrex r2, [r2]
 2031              	@ 0 "" 2
 2032              		.thumb
 2033              		.syntax unified
 2034 006c 22F04002 		bic	r2, r2, #64
 2035 0070 03F10806 		add	r6, r3, #8
 2036              		.syntax unified
 2037              	@ 1206 "Drivers/CMSIS/Include/cmsis_gcc.h" 1
 2038 0074 46E80021 		strex r1, r2, [r6]
 2039              	@ 0 "" 2
 2040              		.thumb
 2041              		.syntax unified
 2042 0078 0029     		cmp	r1, #0
 2043 007a F3D1     		bne	.L440
 2044 007c 0028     		cmp	r0, #0
 2045 007e 50D0     		beq	.L449
 2046 0080 FFF7FEFF 		bl	HAL_DMA_Abort_IT
ARM GAS  /tmp/ccQrb7vt.s 			page 36


 2047 0084 D0B1     		cbz	r0, .L446
 2048 0086 2B6F     		ldr	r3, [r5, #112]
 2049 0088 2968     		ldr	r1, [r5]
 2050 008a 0022     		movs	r2, #0
 2051 008c 9A63     		str	r2, [r3, #56]
 2052              	.L441:
 2053 008e 0023     		movs	r3, #0
 2054 0090 0F22     		movs	r2, #15
 2055 0092 A5F85230 		strh	r3, [r5, #82]	@ movhi
 2056 0096 6B66     		str	r3, [r5, #100]
 2057 0098 A5F85A30 		strh	r3, [r5, #90]	@ movhi
 2058 009c AB66     		str	r3, [r5, #104]
 2059 009e C5F88030 		str	r3, [r5, #128]
 2060 00a2 0A62     		str	r2, [r1, #32]
 2061 00a4 0A8B     		ldrh	r2, [r1, #24]
 2062 00a6 92B2     		uxth	r2, r2
 2063 00a8 2024     		movs	r4, #32
 2064 00aa 42F00802 		orr	r2, r2, #8
 2065 00ae 0A83     		strh	r2, [r1, #24]	@ movhi
 2066 00b0 2846     		mov	r0, r5
 2067 00b2 AC67     		str	r4, [r5, #120]
 2068 00b4 EC67     		str	r4, [r5, #124]
 2069 00b6 2B66     		str	r3, [r5, #96]
 2070 00b8 FFF7FEFF 		bl	HAL_UART_AbortCpltCallback
 2071              	.L446:
 2072 00bc 0020     		movs	r0, #0
 2073 00be 70BD     		pop	{r4, r5, r6, pc}
 2074              	.L439:
 2075 00c0 03F10802 		add	r2, r3, #8
 2076              		.syntax unified
 2077              	@ 1155 "Drivers/CMSIS/Include/cmsis_gcc.h" 1
 2078 00c4 52E8002F 		ldrex r2, [r2]
 2079              	@ 0 "" 2
 2080              		.thumb
 2081              		.syntax unified
 2082 00c8 22F08002 		bic	r2, r2, #128
 2083 00cc 03F1080C 		add	ip, r3, #8
 2084              		.syntax unified
 2085              	@ 1206 "Drivers/CMSIS/Include/cmsis_gcc.h" 1
 2086 00d0 4CE80021 		strex r1, r2, [ip]
 2087              	@ 0 "" 2
 2088              		.thumb
 2089              		.syntax unified
 2090 00d4 0029     		cmp	r1, #0
 2091 00d6 F3D1     		bne	.L439
 2092 00d8 F6B1     		cbz	r6, .L444
 2093 00da 3046     		mov	r0, r6
 2094 00dc FFF7FEFF 		bl	HAL_DMA_Abort_IT
 2095 00e0 2B68     		ldr	r3, [r5]
 2096 00e2 10B3     		cbz	r0, .L479
 2097 00e4 E96E     		ldr	r1, [r5, #108]
 2098 00e6 9A68     		ldr	r2, [r3, #8]
 2099 00e8 0020     		movs	r0, #0
 2100 00ea 8863     		str	r0, [r1, #56]
 2101 00ec 5006     		lsls	r0, r2, #25
 2102 00ee 1946     		mov	r1, r3
 2103 00f0 CDD5     		bpl	.L441
ARM GAS  /tmp/ccQrb7vt.s 			page 37


 2104 00f2 286F     		ldr	r0, [r5, #112]
 2105 00f4 B5E7     		b	.L477
 2106              	.L432:
 2107              		.syntax unified
 2108              	@ 1155 "Drivers/CMSIS/Include/cmsis_gcc.h" 1
 2109 00f6 53E8002F 		ldrex r2, [r3]
 2110              	@ 0 "" 2
 2111              		.thumb
 2112              		.syntax unified
 2113 00fa 22F01002 		bic	r2, r2, #16
 2114              		.syntax unified
 2115              	@ 1206 "Drivers/CMSIS/Include/cmsis_gcc.h" 1
 2116 00fe 43E80021 		strex r1, r2, [r3]
 2117              	@ 0 "" 2
 2118              		.thumb
 2119              		.syntax unified
 2120 0102 0029     		cmp	r1, #0
 2121 0104 96D0     		beq	.L435
 2122              		.syntax unified
 2123              	@ 1155 "Drivers/CMSIS/Include/cmsis_gcc.h" 1
 2124 0106 53E8002F 		ldrex r2, [r3]
 2125              	@ 0 "" 2
 2126              		.thumb
 2127              		.syntax unified
 2128 010a 22F01002 		bic	r2, r2, #16
 2129              		.syntax unified
 2130              	@ 1206 "Drivers/CMSIS/Include/cmsis_gcc.h" 1
 2131 010e 43E80021 		strex r1, r2, [r3]
 2132              	@ 0 "" 2
 2133              		.thumb
 2134              		.syntax unified
 2135 0112 0029     		cmp	r1, #0
 2136 0114 EFD1     		bne	.L432
 2137 0116 8DE7     		b	.L435
 2138              	.L444:
 2139 0118 9A68     		ldr	r2, [r3, #8]
 2140 011a 5206     		lsls	r2, r2, #25
 2141 011c 1946     		mov	r1, r3
 2142 011e B6D5     		bpl	.L441
 2143 0120 9FE7     		b	.L477
 2144              	.L449:
 2145 0122 012C     		cmp	r4, #1
 2146 0124 CAD1     		bne	.L446
 2147 0126 1946     		mov	r1, r3
 2148 0128 B1E7     		b	.L441
 2149              	.L479:
 2150 012a 9A68     		ldr	r2, [r3, #8]
 2151 012c 5606     		lsls	r6, r2, #25
 2152 012e C5D5     		bpl	.L446
 2153 0130 286F     		ldr	r0, [r5, #112]
 2154 0132 97E7     		b	.L440
 2155              	.L481:
 2156              		.align	2
 2157              	.L480:
 2158 0134 00000000 		.word	UART_DMATxAbortCallback
 2159 0138 00000000 		.word	UART_DMARxAbortCallback
 2161              		.section	.text.UART_DMARxAbortCallback,"ax",%progbits
ARM GAS  /tmp/ccQrb7vt.s 			page 38


 2162              		.align	1
 2163              		.p2align 2,,3
 2164              		.syntax unified
 2165              		.thumb
 2166              		.thumb_func
 2167              		.fpu fpv4-sp-d16
 2169              	UART_DMARxAbortCallback:
 2170              		@ args = 0, pretend = 0, frame = 0
 2171              		@ frame_needed = 0, uses_anonymous_args = 0
 2172 0000 806A     		ldr	r0, [r0, #40]
 2173 0002 D0E91B32 		ldrd	r3, r2, [r0, #108]
 2174 0006 0021     		movs	r1, #0
 2175 0008 9163     		str	r1, [r2, #56]
 2176 000a 13B1     		cbz	r3, .L483
 2177 000c 9B6B     		ldr	r3, [r3, #56]
 2178 000e 03B1     		cbz	r3, .L483
 2179 0010 7047     		bx	lr
 2180              	.L483:
 2181 0012 0168     		ldr	r1, [r0]
 2182 0014 0022     		movs	r2, #0
 2183 0016 0F23     		movs	r3, #15
 2184 0018 10B5     		push	{r4, lr}
 2185 001a A0F85220 		strh	r2, [r0, #82]	@ movhi
 2186 001e A0F85A20 		strh	r2, [r0, #90]	@ movhi
 2187 0022 C0F88020 		str	r2, [r0, #128]
 2188 0026 0B62     		str	r3, [r1, #32]
 2189 0028 0B8B     		ldrh	r3, [r1, #24]
 2190 002a 9BB2     		uxth	r3, r3
 2191 002c 2024     		movs	r4, #32
 2192 002e 43F00803 		orr	r3, r3, #8
 2193 0032 0B83     		strh	r3, [r1, #24]	@ movhi
 2194 0034 8467     		str	r4, [r0, #120]
 2195 0036 C467     		str	r4, [r0, #124]
 2196 0038 0266     		str	r2, [r0, #96]
 2197 003a FFF7FEFF 		bl	HAL_UART_AbortCpltCallback
 2198 003e 10BD     		pop	{r4, pc}
 2200              		.section	.text.UART_DMATxAbortCallback,"ax",%progbits
 2201              		.align	1
 2202              		.p2align 2,,3
 2203              		.syntax unified
 2204              		.thumb
 2205              		.thumb_func
 2206              		.fpu fpv4-sp-d16
 2208              	UART_DMATxAbortCallback:
 2209              		@ args = 0, pretend = 0, frame = 0
 2210              		@ frame_needed = 0, uses_anonymous_args = 0
 2211 0000 806A     		ldr	r0, [r0, #40]
 2212 0002 D0E91B23 		ldrd	r2, r3, [r0, #108]
 2213 0006 0021     		movs	r1, #0
 2214 0008 9163     		str	r1, [r2, #56]
 2215 000a 13B1     		cbz	r3, .L492
 2216 000c 9B6B     		ldr	r3, [r3, #56]
 2217 000e 03B1     		cbz	r3, .L492
 2218 0010 7047     		bx	lr
 2219              	.L492:
 2220 0012 10B5     		push	{r4, lr}
 2221 0014 0168     		ldr	r1, [r0]
ARM GAS  /tmp/ccQrb7vt.s 			page 39


 2222 0016 0023     		movs	r3, #0
 2223 0018 2022     		movs	r2, #32
 2224 001a 0F24     		movs	r4, #15
 2225 001c A0F85230 		strh	r3, [r0, #82]	@ movhi
 2226 0020 A0F85A30 		strh	r3, [r0, #90]	@ movhi
 2227 0024 C0F88030 		str	r3, [r0, #128]
 2228 0028 0C62     		str	r4, [r1, #32]
 2229 002a 8267     		str	r2, [r0, #120]
 2230 002c C267     		str	r2, [r0, #124]
 2231 002e 0366     		str	r3, [r0, #96]
 2232 0030 FFF7FEFF 		bl	HAL_UART_AbortCpltCallback
 2233 0034 10BD     		pop	{r4, pc}
 2235 0036 00BF     		.section	.text.HAL_UART_AbortTransmitCpltCallback,"ax",%progbits
 2236              		.align	1
 2237              		.p2align 2,,3
 2238              		.weak	HAL_UART_AbortTransmitCpltCallback
 2239              		.syntax unified
 2240              		.thumb
 2241              		.thumb_func
 2242              		.fpu fpv4-sp-d16
 2244              	HAL_UART_AbortTransmitCpltCallback:
 2245              		@ args = 0, pretend = 0, frame = 0
 2246              		@ frame_needed = 0, uses_anonymous_args = 0
 2247              		@ link register save eliminated.
 2248 0000 7047     		bx	lr
 2250 0002 00BF     		.section	.text.HAL_UART_AbortTransmit_IT,"ax",%progbits
 2251              		.align	1
 2252              		.p2align 2,,3
 2253              		.global	HAL_UART_AbortTransmit_IT
 2254              		.syntax unified
 2255              		.thumb
 2256              		.thumb_func
 2257              		.fpu fpv4-sp-d16
 2259              	HAL_UART_AbortTransmit_IT:
 2260              		@ args = 0, pretend = 0, frame = 0
 2261              		@ frame_needed = 0, uses_anonymous_args = 0
 2262 0000 0268     		ldr	r2, [r0]
 2263 0002 10B5     		push	{r4, lr}
 2264 0004 0446     		mov	r4, r0
 2265              	.L502:
 2266              		.syntax unified
 2267              	@ 1155 "Drivers/CMSIS/Include/cmsis_gcc.h" 1
 2268 0006 52E8003F 		ldrex r3, [r2]
 2269              	@ 0 "" 2
 2270              		.thumb
 2271              		.syntax unified
 2272 000a 23F0C003 		bic	r3, r3, #192
 2273              		.syntax unified
 2274              	@ 1206 "Drivers/CMSIS/Include/cmsis_gcc.h" 1
 2275 000e 42E80031 		strex r1, r3, [r2]
 2276              	@ 0 "" 2
 2277              		.thumb
 2278              		.syntax unified
 2279 0012 0029     		cmp	r1, #0
 2280 0014 F7D1     		bne	.L502
 2281 0016 9368     		ldr	r3, [r2, #8]
 2282 0018 13F08003 		ands	r3, r3, #128
ARM GAS  /tmp/ccQrb7vt.s 			page 40


 2283 001c 21D0     		beq	.L503
 2284              	.L517:
 2285 001e 02F10803 		add	r3, r2, #8
 2286              		.syntax unified
 2287              	@ 1155 "Drivers/CMSIS/Include/cmsis_gcc.h" 1
 2288 0022 53E8003F 		ldrex r3, [r3]
 2289              	@ 0 "" 2
 2290              		.thumb
 2291              		.syntax unified
 2292 0026 23F08003 		bic	r3, r3, #128
 2293 002a 02F10800 		add	r0, r2, #8
 2294              		.syntax unified
 2295              	@ 1206 "Drivers/CMSIS/Include/cmsis_gcc.h" 1
 2296 002e 40E80031 		strex r1, r3, [r0]
 2297              	@ 0 "" 2
 2298              		.thumb
 2299              		.syntax unified
 2300 0032 0029     		cmp	r1, #0
 2301 0034 F3D1     		bne	.L517
 2302 0036 E06E     		ldr	r0, [r4, #108]
 2303 0038 48B1     		cbz	r0, .L506
 2304 003a 0F4B     		ldr	r3, .L518
 2305 003c 8363     		str	r3, [r0, #56]
 2306 003e FFF7FEFF 		bl	HAL_DMA_Abort_IT
 2307 0042 10B1     		cbz	r0, .L507
 2308 0044 E06E     		ldr	r0, [r4, #108]
 2309 0046 836B     		ldr	r3, [r0, #56]
 2310 0048 9847     		blx	r3
 2311              	.L507:
 2312 004a 0020     		movs	r0, #0
 2313 004c 10BD     		pop	{r4, pc}
 2314              	.L506:
 2315 004e 2023     		movs	r3, #32
 2316 0050 A4F85200 		strh	r0, [r4, #82]	@ movhi
 2317 0054 A066     		str	r0, [r4, #104]
 2318 0056 A367     		str	r3, [r4, #120]
 2319 0058 2046     		mov	r0, r4
 2320 005a FFF7FEFF 		bl	HAL_UART_AbortTransmitCpltCallback
 2321 005e 0020     		movs	r0, #0
 2322 0060 10BD     		pop	{r4, pc}
 2323              	.L503:
 2324 0062 2022     		movs	r2, #32
 2325 0064 A4F85230 		strh	r3, [r4, #82]	@ movhi
 2326 0068 2046     		mov	r0, r4
 2327 006a A366     		str	r3, [r4, #104]
 2328 006c A267     		str	r2, [r4, #120]
 2329 006e FFF7FEFF 		bl	HAL_UART_AbortTransmitCpltCallback
 2330 0072 0020     		movs	r0, #0
 2331 0074 10BD     		pop	{r4, pc}
 2332              	.L519:
 2333 0076 00BF     		.align	2
 2334              	.L518:
 2335 0078 00000000 		.word	UART_DMATxOnlyAbortCallback
 2337              		.section	.text.UART_DMATxOnlyAbortCallback,"ax",%progbits
 2338              		.align	1
 2339              		.p2align 2,,3
 2340              		.syntax unified
ARM GAS  /tmp/ccQrb7vt.s 			page 41


 2341              		.thumb
 2342              		.thumb_func
 2343              		.fpu fpv4-sp-d16
 2345              	UART_DMATxOnlyAbortCallback:
 2346              		@ args = 0, pretend = 0, frame = 0
 2347              		@ frame_needed = 0, uses_anonymous_args = 0
 2348 0000 08B5     		push	{r3, lr}
 2349 0002 806A     		ldr	r0, [r0, #40]
 2350 0004 0022     		movs	r2, #0
 2351 0006 2023     		movs	r3, #32
 2352 0008 A0F85220 		strh	r2, [r0, #82]	@ movhi
 2353 000c 8367     		str	r3, [r0, #120]
 2354 000e FFF7FEFF 		bl	HAL_UART_AbortTransmitCpltCallback
 2355 0012 08BD     		pop	{r3, pc}
 2357              		.section	.text.HAL_UART_AbortReceiveCpltCallback,"ax",%progbits
 2358              		.align	1
 2359              		.p2align 2,,3
 2360              		.weak	HAL_UART_AbortReceiveCpltCallback
 2361              		.syntax unified
 2362              		.thumb
 2363              		.thumb_func
 2364              		.fpu fpv4-sp-d16
 2366              	HAL_UART_AbortReceiveCpltCallback:
 2367              		@ args = 0, pretend = 0, frame = 0
 2368              		@ frame_needed = 0, uses_anonymous_args = 0
 2369              		@ link register save eliminated.
 2370 0000 7047     		bx	lr
 2372 0002 00BF     		.section	.text.HAL_UART_AbortReceive_IT,"ax",%progbits
 2373              		.align	1
 2374              		.p2align 2,,3
 2375              		.global	HAL_UART_AbortReceive_IT
 2376              		.syntax unified
 2377              		.thumb
 2378              		.thumb_func
 2379              		.fpu fpv4-sp-d16
 2381              	HAL_UART_AbortReceive_IT:
 2382              		@ args = 0, pretend = 0, frame = 0
 2383              		@ frame_needed = 0, uses_anonymous_args = 0
 2384 0000 38B5     		push	{r3, r4, r5, lr}
 2385 0002 0368     		ldr	r3, [r0]
 2386 0004 0446     		mov	r4, r0
 2387              	.L524:
 2388              		.syntax unified
 2389              	@ 1155 "Drivers/CMSIS/Include/cmsis_gcc.h" 1
 2390 0006 53E8002F 		ldrex r2, [r3]
 2391              	@ 0 "" 2
 2392              		.thumb
 2393              		.syntax unified
 2394 000a 22F49072 		bic	r2, r2, #288
 2395              		.syntax unified
 2396              	@ 1206 "Drivers/CMSIS/Include/cmsis_gcc.h" 1
 2397 000e 43E80021 		strex r1, r2, [r3]
 2398              	@ 0 "" 2
 2399              		.thumb
 2400              		.syntax unified
 2401 0012 0029     		cmp	r1, #0
 2402 0014 F7D1     		bne	.L524
ARM GAS  /tmp/ccQrb7vt.s 			page 42


 2403              	.L525:
 2404 0016 03F10802 		add	r2, r3, #8
 2405              		.syntax unified
 2406              	@ 1155 "Drivers/CMSIS/Include/cmsis_gcc.h" 1
 2407 001a 52E8002F 		ldrex r2, [r2]
 2408              	@ 0 "" 2
 2409              		.thumb
 2410              		.syntax unified
 2411 001e 22F00102 		bic	r2, r2, #1
 2412 0022 03F10800 		add	r0, r3, #8
 2413              		.syntax unified
 2414              	@ 1206 "Drivers/CMSIS/Include/cmsis_gcc.h" 1
 2415 0026 40E80021 		strex r1, r2, [r0]
 2416              	@ 0 "" 2
 2417              		.thumb
 2418              		.syntax unified
 2419 002a 0029     		cmp	r1, #0
 2420 002c F3D1     		bne	.L525
 2421 002e 226E     		ldr	r2, [r4, #96]
 2422 0030 012A     		cmp	r2, #1
 2423 0032 1CD0     		beq	.L526
 2424              	.L529:
 2425 0034 9A68     		ldr	r2, [r3, #8]
 2426 0036 12F04002 		ands	r2, r2, #64
 2427 003a 3BD0     		beq	.L549
 2428              	.L527:
 2429 003c 03F10802 		add	r2, r3, #8
 2430              		.syntax unified
 2431              	@ 1155 "Drivers/CMSIS/Include/cmsis_gcc.h" 1
 2432 0040 52E8002F 		ldrex r2, [r2]
 2433              	@ 0 "" 2
 2434              		.thumb
 2435              		.syntax unified
 2436 0044 22F04002 		bic	r2, r2, #64
 2437 0048 03F10800 		add	r0, r3, #8
 2438              		.syntax unified
 2439              	@ 1206 "Drivers/CMSIS/Include/cmsis_gcc.h" 1
 2440 004c 40E80021 		strex r1, r2, [r0]
 2441              	@ 0 "" 2
 2442              		.thumb
 2443              		.syntax unified
 2444 0050 0029     		cmp	r1, #0
 2445 0052 F3D1     		bne	.L527
 2446 0054 226F     		ldr	r2, [r4, #112]
 2447 0056 DAB1     		cbz	r2, .L532
 2448 0058 1D4B     		ldr	r3, .L550
 2449 005a 9363     		str	r3, [r2, #56]
 2450 005c 1046     		mov	r0, r2
 2451 005e FFF7FEFF 		bl	HAL_DMA_Abort_IT
 2452 0062 10B1     		cbz	r0, .L533
 2453 0064 206F     		ldr	r0, [r4, #112]
 2454 0066 836B     		ldr	r3, [r0, #56]
 2455 0068 9847     		blx	r3
 2456              	.L533:
 2457 006a 0020     		movs	r0, #0
 2458 006c 38BD     		pop	{r3, r4, r5, pc}
 2459              	.L526:
ARM GAS  /tmp/ccQrb7vt.s 			page 43


 2460              		.syntax unified
 2461              	@ 1155 "Drivers/CMSIS/Include/cmsis_gcc.h" 1
 2462 006e 53E8002F 		ldrex r2, [r3]
 2463              	@ 0 "" 2
 2464              		.thumb
 2465              		.syntax unified
 2466 0072 22F01002 		bic	r2, r2, #16
 2467              		.syntax unified
 2468              	@ 1206 "Drivers/CMSIS/Include/cmsis_gcc.h" 1
 2469 0076 43E80021 		strex r1, r2, [r3]
 2470              	@ 0 "" 2
 2471              		.thumb
 2472              		.syntax unified
 2473 007a 0029     		cmp	r1, #0
 2474 007c DAD0     		beq	.L529
 2475              		.syntax unified
 2476              	@ 1155 "Drivers/CMSIS/Include/cmsis_gcc.h" 1
 2477 007e 53E8002F 		ldrex r2, [r3]
 2478              	@ 0 "" 2
 2479              		.thumb
 2480              		.syntax unified
 2481 0082 22F01002 		bic	r2, r2, #16
 2482              		.syntax unified
 2483              	@ 1206 "Drivers/CMSIS/Include/cmsis_gcc.h" 1
 2484 0086 43E80021 		strex r1, r2, [r3]
 2485              	@ 0 "" 2
 2486              		.thumb
 2487              		.syntax unified
 2488 008a 0029     		cmp	r1, #0
 2489 008c EFD1     		bne	.L526
 2490 008e D1E7     		b	.L529
 2491              	.L532:
 2492 0090 0F21     		movs	r1, #15
 2493 0092 A4F85A20 		strh	r2, [r4, #90]	@ movhi
 2494 0096 6265     		str	r2, [r4, #84]
 2495 0098 1962     		str	r1, [r3, #32]
 2496 009a 198B     		ldrh	r1, [r3, #24]
 2497 009c 89B2     		uxth	r1, r1
 2498 009e 41F00801 		orr	r1, r1, #8
 2499 00a2 2025     		movs	r5, #32
 2500 00a4 1983     		strh	r1, [r3, #24]	@ movhi
 2501 00a6 2046     		mov	r0, r4
 2502 00a8 E567     		str	r5, [r4, #124]
 2503 00aa 2266     		str	r2, [r4, #96]
 2504 00ac FFF7FEFF 		bl	HAL_UART_AbortReceiveCpltCallback
 2505 00b0 0020     		movs	r0, #0
 2506 00b2 38BD     		pop	{r3, r4, r5, pc}
 2507              	.L549:
 2508 00b4 2021     		movs	r1, #32
 2509 00b6 0F20     		movs	r0, #15
 2510 00b8 A4F85A20 		strh	r2, [r4, #90]	@ movhi
 2511 00bc 6265     		str	r2, [r4, #84]
 2512 00be 1862     		str	r0, [r3, #32]
 2513 00c0 2046     		mov	r0, r4
 2514 00c2 E167     		str	r1, [r4, #124]
 2515 00c4 2266     		str	r2, [r4, #96]
 2516 00c6 FFF7FEFF 		bl	HAL_UART_AbortReceiveCpltCallback
ARM GAS  /tmp/ccQrb7vt.s 			page 44


 2517 00ca 0020     		movs	r0, #0
 2518 00cc 38BD     		pop	{r3, r4, r5, pc}
 2519              	.L551:
 2520 00ce 00BF     		.align	2
 2521              	.L550:
 2522 00d0 00000000 		.word	UART_DMARxOnlyAbortCallback
 2524              		.section	.text.UART_DMARxOnlyAbortCallback,"ax",%progbits
 2525              		.align	1
 2526              		.p2align 2,,3
 2527              		.syntax unified
 2528              		.thumb
 2529              		.thumb_func
 2530              		.fpu fpv4-sp-d16
 2532              	UART_DMARxOnlyAbortCallback:
 2533              		@ args = 0, pretend = 0, frame = 0
 2534              		@ frame_needed = 0, uses_anonymous_args = 0
 2535 0000 806A     		ldr	r0, [r0, #40]
 2536 0002 0268     		ldr	r2, [r0]
 2537 0004 0021     		movs	r1, #0
 2538 0006 0F23     		movs	r3, #15
 2539 0008 10B5     		push	{r4, lr}
 2540 000a A0F85A10 		strh	r1, [r0, #90]	@ movhi
 2541 000e 1362     		str	r3, [r2, #32]
 2542 0010 138B     		ldrh	r3, [r2, #24]
 2543 0012 9BB2     		uxth	r3, r3
 2544 0014 2024     		movs	r4, #32
 2545 0016 43F00803 		orr	r3, r3, #8
 2546 001a 1383     		strh	r3, [r2, #24]	@ movhi
 2547 001c C467     		str	r4, [r0, #124]
 2548 001e 0166     		str	r1, [r0, #96]
 2549 0020 FFF7FEFF 		bl	HAL_UART_AbortReceiveCpltCallback
 2550 0024 10BD     		pop	{r4, pc}
 2552 0026 00BF     		.section	.text.HAL_UARTEx_RxEventCallback,"ax",%progbits
 2553              		.align	1
 2554              		.p2align 2,,3
 2555              		.weak	HAL_UARTEx_RxEventCallback
 2556              		.syntax unified
 2557              		.thumb
 2558              		.thumb_func
 2559              		.fpu fpv4-sp-d16
 2561              	HAL_UARTEx_RxEventCallback:
 2562              		@ args = 0, pretend = 0, frame = 0
 2563              		@ frame_needed = 0, uses_anonymous_args = 0
 2564              		@ link register save eliminated.
 2565 0000 7047     		bx	lr
 2567 0002 00BF     		.section	.text.HAL_UART_IRQHandler,"ax",%progbits
 2568              		.align	1
 2569              		.p2align 2,,3
 2570              		.global	HAL_UART_IRQHandler
 2571              		.syntax unified
 2572              		.thumb
 2573              		.thumb_func
 2574              		.fpu fpv4-sp-d16
 2576              	HAL_UART_IRQHandler:
 2577              		@ args = 0, pretend = 0, frame = 0
 2578              		@ frame_needed = 0, uses_anonymous_args = 0
 2579 0000 0368     		ldr	r3, [r0]
ARM GAS  /tmp/ccQrb7vt.s 			page 45


 2580 0002 DA69     		ldr	r2, [r3, #28]
 2581 0004 1968     		ldr	r1, [r3]
 2582 0006 40F60F0C 		movw	ip, #2063
 2583 000a 12EA0C0F 		tst	r2, ip
 2584 000e 70B5     		push	{r4, r5, r6, lr}
 2585 0010 9D68     		ldr	r5, [r3, #8]
 2586 0012 0446     		mov	r4, r0
 2587 0014 4ED1     		bne	.L556
 2588 0016 9606     		lsls	r6, r2, #26
 2589 0018 02D5     		bpl	.L557
 2590 001a 8E06     		lsls	r6, r1, #26
 2591 001c 00F1E380 		bmi	.L715
 2592              	.L557:
 2593 0020 206E     		ldr	r0, [r4, #96]
 2594 0022 0128     		cmp	r0, #1
 2595 0024 24D0     		beq	.L716
 2596              	.L578:
 2597 0026 D602     		lsls	r6, r2, #11
 2598 0028 02D5     		bpl	.L590
 2599 002a 6802     		lsls	r0, r5, #9
 2600 002c 00F1E080 		bmi	.L717
 2601              	.L590:
 2602 0030 1606     		lsls	r6, r2, #24
 2603 0032 14D4     		bmi	.L718
 2604              	.L591:
 2605 0034 5006     		lsls	r0, r2, #25
 2606 0036 01D5     		bpl	.L555
 2607 0038 4A06     		lsls	r2, r1, #25
 2608 003a 00D4     		bmi	.L712
 2609              	.L555:
 2610 003c 70BD     		pop	{r4, r5, r6, pc}
 2611              	.L712:
 2612              		.syntax unified
 2613              	@ 1155 "Drivers/CMSIS/Include/cmsis_gcc.h" 1
 2614 003e 53E8002F 		ldrex r2, [r3]
 2615              	@ 0 "" 2
 2616              		.thumb
 2617              		.syntax unified
 2618 0042 22F04002 		bic	r2, r2, #64
 2619              		.syntax unified
 2620              	@ 1206 "Drivers/CMSIS/Include/cmsis_gcc.h" 1
 2621 0046 43E80021 		strex r1, r2, [r3]
 2622              	@ 0 "" 2
 2623              		.thumb
 2624              		.syntax unified
 2625 004a 0029     		cmp	r1, #0
 2626 004c F7D1     		bne	.L712
 2627 004e 2022     		movs	r2, #32
 2628 0050 0023     		movs	r3, #0
 2629 0052 A267     		str	r2, [r4, #120]
 2630 0054 A366     		str	r3, [r4, #104]
 2631 0056 2046     		mov	r0, r4
 2632 0058 FFF7FEFF 		bl	HAL_UART_TxCpltCallback
 2633 005c 70BD     		pop	{r4, r5, r6, pc}
 2634              	.L718:
 2635 005e 0D06     		lsls	r5, r1, #24
 2636 0060 E8D5     		bpl	.L591
ARM GAS  /tmp/ccQrb7vt.s 			page 46


 2637 0062 A36E     		ldr	r3, [r4, #104]
 2638 0064 002B     		cmp	r3, #0
 2639 0066 E9D0     		beq	.L555
 2640 0068 2046     		mov	r0, r4
 2641              	.L713:
 2642 006a BDE87040 		pop	{r4, r5, r6, lr}
 2643 006e 1847     		bx	r3	@ indirect register sibling call
 2644              	.L716:
 2645 0070 D606     		lsls	r6, r2, #27
 2646 0072 D8D5     		bpl	.L578
 2647 0074 C806     		lsls	r0, r1, #27
 2648 0076 D6D5     		bpl	.L578
 2649 0078 1022     		movs	r2, #16
 2650 007a 1A62     		str	r2, [r3, #32]
 2651 007c 9A68     		ldr	r2, [r3, #8]
 2652 007e 5106     		lsls	r1, r2, #25
 2653 0080 40F1D380 		bpl	.L579
 2654 0084 206F     		ldr	r0, [r4, #112]
 2655 0086 0168     		ldr	r1, [r0]
 2656 0088 4A68     		ldr	r2, [r1, #4]
 2657 008a 92B2     		uxth	r2, r2
 2658 008c 002A     		cmp	r2, #0
 2659 008e D5D0     		beq	.L555
 2660 0090 B4F85850 		ldrh	r5, [r4, #88]
 2661 0094 9542     		cmp	r5, r2
 2662 0096 D1D9     		bls	.L555
 2663 0098 A4F85A20 		strh	r2, [r4, #90]	@ movhi
 2664 009c 0A68     		ldr	r2, [r1]
 2665 009e 9206     		lsls	r2, r2, #26
 2666 00a0 40F1F780 		bpl	.L710
 2667              	.L580:
 2668 00a4 B4F85A30 		ldrh	r3, [r4, #90]
 2669 00a8 E91A     		subs	r1, r5, r3
 2670 00aa 2046     		mov	r0, r4
 2671 00ac 89B2     		uxth	r1, r1
 2672 00ae FFF7FEFF 		bl	HAL_UARTEx_RxEventCallback
 2673 00b2 70BD     		pop	{r4, r5, r6, pc}
 2674              	.L556:
 2675 00b4 9248     		ldr	r0, .L719
 2676 00b6 05F00106 		and	r6, r5, #1
 2677 00ba 0840     		ands	r0, r0, r1
 2678 00bc 3043     		orrs	r0, r0, r6
 2679 00be AFD0     		beq	.L557
 2680 00c0 D507     		lsls	r5, r2, #31
 2681 00c2 09D5     		bpl	.L560
 2682 00c4 C805     		lsls	r0, r1, #23
 2683 00c6 07D5     		bpl	.L560
 2684 00c8 0120     		movs	r0, #1
 2685 00ca 1862     		str	r0, [r3, #32]
 2686 00cc D4F88000 		ldr	r0, [r4, #128]
 2687 00d0 40F00100 		orr	r0, r0, #1
 2688 00d4 C4F88000 		str	r0, [r4, #128]
 2689              	.L560:
 2690 00d8 9507     		lsls	r5, r2, #30
 2691 00da 7FD5     		bpl	.L561
 2692 00dc 8EB1     		cbz	r6, .L563
 2693 00de 0220     		movs	r0, #2
ARM GAS  /tmp/ccQrb7vt.s 			page 47


 2694 00e0 1862     		str	r0, [r3, #32]
 2695 00e2 D4F88000 		ldr	r0, [r4, #128]
 2696 00e6 40F00400 		orr	r0, r0, #4
 2697 00ea C4F88000 		str	r0, [r4, #128]
 2698 00ee 5007     		lsls	r0, r2, #29
 2699 00f0 07D5     		bpl	.L563
 2700              	.L565:
 2701 00f2 0420     		movs	r0, #4
 2702 00f4 1862     		str	r0, [r3, #32]
 2703 00f6 D4F88000 		ldr	r0, [r4, #128]
 2704 00fa 40F00200 		orr	r0, r0, #2
 2705 00fe C4F88000 		str	r0, [r4, #128]
 2706              	.L563:
 2707 0102 1007     		lsls	r0, r2, #28
 2708 0104 0BD5     		bpl	.L566
 2709 0106 01F02000 		and	r0, r1, #32
 2710 010a 3043     		orrs	r0, r0, r6
 2711 010c 07D0     		beq	.L566
 2712 010e 0820     		movs	r0, #8
 2713 0110 1862     		str	r0, [r3, #32]
 2714 0112 D4F88000 		ldr	r0, [r4, #128]
 2715 0116 40F00800 		orr	r0, r0, #8
 2716 011a C4F88000 		str	r0, [r4, #128]
 2717              	.L566:
 2718 011e 1605     		lsls	r6, r2, #20
 2719 0120 0AD5     		bpl	.L567
 2720 0122 4D01     		lsls	r5, r1, #5
 2721 0124 08D5     		bpl	.L567
 2722 0126 4FF40060 		mov	r0, #2048
 2723 012a 1862     		str	r0, [r3, #32]
 2724 012c D4F88000 		ldr	r0, [r4, #128]
 2725 0130 40F02000 		orr	r0, r0, #32
 2726 0134 C4F88000 		str	r0, [r4, #128]
 2727              	.L567:
 2728 0138 D4F88000 		ldr	r0, [r4, #128]
 2729 013c 0028     		cmp	r0, #0
 2730 013e 3FF47DAF 		beq	.L555
 2731 0142 9006     		lsls	r0, r2, #26
 2732 0144 06D5     		bpl	.L569
 2733 0146 8906     		lsls	r1, r1, #26
 2734 0148 04D5     		bpl	.L569
 2735 014a 626E     		ldr	r2, [r4, #100]
 2736 014c 12B1     		cbz	r2, .L569
 2737 014e 2046     		mov	r0, r4
 2738 0150 9047     		blx	r2
 2739 0152 2368     		ldr	r3, [r4]
 2740              	.L569:
 2741 0154 D4F88010 		ldr	r1, [r4, #128]
 2742 0158 9A68     		ldr	r2, [r3, #8]
 2743 015a 01F02801 		and	r1, r1, #40
 2744 015e 02F04002 		and	r2, r2, #64
 2745 0162 52EA0105 		orrs	r5, r2, r1
 2746 0166 00F0C480 		beq	.L570
 2747              	.L709:
 2748              		.syntax unified
 2749              	@ 1155 "Drivers/CMSIS/Include/cmsis_gcc.h" 1
 2750 016a 53E8002F 		ldrex r2, [r3]
ARM GAS  /tmp/ccQrb7vt.s 			page 48


 2751              	@ 0 "" 2
 2752              		.thumb
 2753              		.syntax unified
 2754 016e 22F49072 		bic	r2, r2, #288
 2755              		.syntax unified
 2756              	@ 1206 "Drivers/CMSIS/Include/cmsis_gcc.h" 1
 2757 0172 43E80021 		strex r1, r2, [r3]
 2758              	@ 0 "" 2
 2759              		.thumb
 2760              		.syntax unified
 2761 0176 0029     		cmp	r1, #0
 2762 0178 F7D1     		bne	.L709
 2763              	.L573:
 2764 017a 03F10802 		add	r2, r3, #8
 2765              		.syntax unified
 2766              	@ 1155 "Drivers/CMSIS/Include/cmsis_gcc.h" 1
 2767 017e 52E8002F 		ldrex r2, [r2]
 2768              	@ 0 "" 2
 2769              		.thumb
 2770              		.syntax unified
 2771 0182 22F00102 		bic	r2, r2, #1
 2772 0186 03F10800 		add	r0, r3, #8
 2773              		.syntax unified
 2774              	@ 1206 "Drivers/CMSIS/Include/cmsis_gcc.h" 1
 2775 018a 40E80021 		strex r1, r2, [r0]
 2776              	@ 0 "" 2
 2777              		.thumb
 2778              		.syntax unified
 2779 018e 0029     		cmp	r1, #0
 2780 0190 F3D1     		bne	.L573
 2781 0192 226E     		ldr	r2, [r4, #96]
 2782 0194 012A     		cmp	r2, #1
 2783 0196 33D0     		beq	.L574
 2784              	.L577:
 2785 0198 0022     		movs	r2, #0
 2786 019a 2021     		movs	r1, #32
 2787 019c E167     		str	r1, [r4, #124]
 2788 019e 2266     		str	r2, [r4, #96]
 2789 01a0 9968     		ldr	r1, [r3, #8]
 2790 01a2 6266     		str	r2, [r4, #100]
 2791 01a4 4A06     		lsls	r2, r1, #25
 2792 01a6 3CD5     		bpl	.L576
 2793              	.L575:
 2794 01a8 03F10802 		add	r2, r3, #8
 2795              		.syntax unified
 2796              	@ 1155 "Drivers/CMSIS/Include/cmsis_gcc.h" 1
 2797 01ac 52E8002F 		ldrex r2, [r2]
 2798              	@ 0 "" 2
 2799              		.thumb
 2800              		.syntax unified
 2801 01b0 22F04002 		bic	r2, r2, #64
 2802 01b4 03F10800 		add	r0, r3, #8
 2803              		.syntax unified
 2804              	@ 1206 "Drivers/CMSIS/Include/cmsis_gcc.h" 1
 2805 01b8 40E80021 		strex r1, r2, [r0]
 2806              	@ 0 "" 2
 2807              		.thumb
ARM GAS  /tmp/ccQrb7vt.s 			page 49


 2808              		.syntax unified
 2809 01bc 0029     		cmp	r1, #0
 2810 01be F3D1     		bne	.L575
 2811 01c0 206F     		ldr	r0, [r4, #112]
 2812 01c2 70B3     		cbz	r0, .L576
 2813 01c4 4F4B     		ldr	r3, .L719+4
 2814 01c6 8363     		str	r3, [r0, #56]
 2815 01c8 FFF7FEFF 		bl	HAL_DMA_Abort_IT
 2816 01cc 0028     		cmp	r0, #0
 2817 01ce 3FF435AF 		beq	.L555
 2818 01d2 206F     		ldr	r0, [r4, #112]
 2819 01d4 BDE87040 		pop	{r4, r5, r6, lr}
 2820 01d8 836B     		ldr	r3, [r0, #56]
 2821 01da 1847     		bx	r3	@ indirect register sibling call
 2822              	.L561:
 2823 01dc 5507     		lsls	r5, r2, #29
 2824 01de 90D5     		bpl	.L563
 2825 01e0 002E     		cmp	r6, #0
 2826 01e2 86D1     		bne	.L565
 2827 01e4 8DE7     		b	.L563
 2828              	.L715:
 2829 01e6 436E     		ldr	r3, [r0, #100]
 2830 01e8 002B     		cmp	r3, #0
 2831 01ea 7FF43EAF 		bne	.L713
 2832 01ee 25E7     		b	.L555
 2833              	.L717:
 2834 01f0 4FF48012 		mov	r2, #1048576
 2835 01f4 2046     		mov	r0, r4
 2836 01f6 1A62     		str	r2, [r3, #32]
 2837 01f8 BDE87040 		pop	{r4, r5, r6, lr}
 2838 01fc FFF7FEBF 		b	HAL_UARTEx_WakeupCallback
 2839              	.L574:
 2840              		.syntax unified
 2841              	@ 1155 "Drivers/CMSIS/Include/cmsis_gcc.h" 1
 2842 0200 53E8002F 		ldrex r2, [r3]
 2843              	@ 0 "" 2
 2844              		.thumb
 2845              		.syntax unified
 2846 0204 22F01002 		bic	r2, r2, #16
 2847              		.syntax unified
 2848              	@ 1206 "Drivers/CMSIS/Include/cmsis_gcc.h" 1
 2849 0208 43E80021 		strex r1, r2, [r3]
 2850              	@ 0 "" 2
 2851              		.thumb
 2852              		.syntax unified
 2853 020c 0029     		cmp	r1, #0
 2854 020e C3D0     		beq	.L577
 2855              		.syntax unified
 2856              	@ 1155 "Drivers/CMSIS/Include/cmsis_gcc.h" 1
 2857 0210 53E8002F 		ldrex r2, [r3]
 2858              	@ 0 "" 2
 2859              		.thumb
 2860              		.syntax unified
 2861 0214 22F01002 		bic	r2, r2, #16
 2862              		.syntax unified
 2863              	@ 1206 "Drivers/CMSIS/Include/cmsis_gcc.h" 1
 2864 0218 43E80021 		strex r1, r2, [r3]
ARM GAS  /tmp/ccQrb7vt.s 			page 50


 2865              	@ 0 "" 2
 2866              		.thumb
 2867              		.syntax unified
 2868 021c 0029     		cmp	r1, #0
 2869 021e EFD1     		bne	.L574
 2870 0220 BAE7     		b	.L577
 2871              	.L576:
 2872 0222 2046     		mov	r0, r4
 2873 0224 FFF7FEFF 		bl	HAL_UART_ErrorCallback
 2874 0228 70BD     		pop	{r4, r5, r6, pc}
 2875              	.L579:
 2876 022a B4F85A10 		ldrh	r1, [r4, #90]
 2877 022e B4F85A20 		ldrh	r2, [r4, #90]
 2878 0232 B4F85800 		ldrh	r0, [r4, #88]
 2879 0236 92B2     		uxth	r2, r2
 2880 0238 89B2     		uxth	r1, r1
 2881 023a 002A     		cmp	r2, #0
 2882 023c 3FF4FEAE 		beq	.L555
 2883 0240 411A     		subs	r1, r0, r1
 2884 0242 89B2     		uxth	r1, r1
 2885 0244 0029     		cmp	r1, #0
 2886 0246 3FF4F9AE 		beq	.L555
 2887              	.L711:
 2888              		.syntax unified
 2889              	@ 1155 "Drivers/CMSIS/Include/cmsis_gcc.h" 1
 2890 024a 53E8002F 		ldrex r2, [r3]
 2891              	@ 0 "" 2
 2892              		.thumb
 2893              		.syntax unified
 2894 024e 22F49072 		bic	r2, r2, #288
 2895              		.syntax unified
 2896              	@ 1206 "Drivers/CMSIS/Include/cmsis_gcc.h" 1
 2897 0252 43E80020 		strex r0, r2, [r3]
 2898              	@ 0 "" 2
 2899              		.thumb
 2900              		.syntax unified
 2901 0256 0028     		cmp	r0, #0
 2902 0258 F7D1     		bne	.L711
 2903              	.L588:
 2904 025a 03F10802 		add	r2, r3, #8
 2905              		.syntax unified
 2906              	@ 1155 "Drivers/CMSIS/Include/cmsis_gcc.h" 1
 2907 025e 52E8002F 		ldrex r2, [r2]
 2908              	@ 0 "" 2
 2909              		.thumb
 2910              		.syntax unified
 2911 0262 22F00102 		bic	r2, r2, #1
 2912 0266 03F10805 		add	r5, r3, #8
 2913              		.syntax unified
 2914              	@ 1206 "Drivers/CMSIS/Include/cmsis_gcc.h" 1
 2915 026a 45E80020 		strex r0, r2, [r5]
 2916              	@ 0 "" 2
 2917              		.thumb
 2918              		.syntax unified
 2919 026e 0028     		cmp	r0, #0
 2920 0270 F3D1     		bne	.L588
 2921 0272 2022     		movs	r2, #32
ARM GAS  /tmp/ccQrb7vt.s 			page 51


 2922 0274 E267     		str	r2, [r4, #124]
 2923 0276 6066     		str	r0, [r4, #100]
 2924 0278 2066     		str	r0, [r4, #96]
 2925              	.L589:
 2926              		.syntax unified
 2927              	@ 1155 "Drivers/CMSIS/Include/cmsis_gcc.h" 1
 2928 027a 53E8002F 		ldrex r2, [r3]
 2929              	@ 0 "" 2
 2930              		.thumb
 2931              		.syntax unified
 2932 027e 22F01002 		bic	r2, r2, #16
 2933              		.syntax unified
 2934              	@ 1206 "Drivers/CMSIS/Include/cmsis_gcc.h" 1
 2935 0282 43E80020 		strex r0, r2, [r3]
 2936              	@ 0 "" 2
 2937              		.thumb
 2938              		.syntax unified
 2939 0286 0028     		cmp	r0, #0
 2940 0288 F7D1     		bne	.L589
 2941 028a 2046     		mov	r0, r4
 2942 028c FFF7FEFF 		bl	HAL_UARTEx_RxEventCallback
 2943 0290 70BD     		pop	{r4, r5, r6, pc}
 2944              	.L710:
 2945              		.syntax unified
 2946              	@ 1155 "Drivers/CMSIS/Include/cmsis_gcc.h" 1
 2947 0292 53E8002F 		ldrex r2, [r3]
 2948              	@ 0 "" 2
 2949              		.thumb
 2950              		.syntax unified
 2951 0296 22F48072 		bic	r2, r2, #256
 2952              		.syntax unified
 2953              	@ 1206 "Drivers/CMSIS/Include/cmsis_gcc.h" 1
 2954 029a 43E80021 		strex r1, r2, [r3]
 2955              	@ 0 "" 2
 2956              		.thumb
 2957              		.syntax unified
 2958 029e 0029     		cmp	r1, #0
 2959 02a0 F7D1     		bne	.L710
 2960              	.L583:
 2961 02a2 03F10802 		add	r2, r3, #8
 2962              		.syntax unified
 2963              	@ 1155 "Drivers/CMSIS/Include/cmsis_gcc.h" 1
 2964 02a6 52E8002F 		ldrex r2, [r2]
 2965              	@ 0 "" 2
 2966              		.thumb
 2967              		.syntax unified
 2968 02aa 22F00102 		bic	r2, r2, #1
 2969 02ae 03F10805 		add	r5, r3, #8
 2970              		.syntax unified
 2971              	@ 1206 "Drivers/CMSIS/Include/cmsis_gcc.h" 1
 2972 02b2 45E80021 		strex r1, r2, [r5]
 2973              	@ 0 "" 2
 2974              		.thumb
 2975              		.syntax unified
 2976 02b6 0029     		cmp	r1, #0
 2977 02b8 F3D1     		bne	.L583
 2978              	.L584:
ARM GAS  /tmp/ccQrb7vt.s 			page 52


 2979 02ba 03F10802 		add	r2, r3, #8
 2980              		.syntax unified
 2981              	@ 1155 "Drivers/CMSIS/Include/cmsis_gcc.h" 1
 2982 02be 52E8002F 		ldrex r2, [r2]
 2983              	@ 0 "" 2
 2984              		.thumb
 2985              		.syntax unified
 2986 02c2 22F04002 		bic	r2, r2, #64
 2987 02c6 03F10805 		add	r5, r3, #8
 2988              		.syntax unified
 2989              	@ 1206 "Drivers/CMSIS/Include/cmsis_gcc.h" 1
 2990 02ca 45E80021 		strex r1, r2, [r5]
 2991              	@ 0 "" 2
 2992              		.thumb
 2993              		.syntax unified
 2994 02ce 0029     		cmp	r1, #0
 2995 02d0 F3D1     		bne	.L584
 2996 02d2 2022     		movs	r2, #32
 2997 02d4 E267     		str	r2, [r4, #124]
 2998 02d6 2166     		str	r1, [r4, #96]
 2999              	.L585:
 3000              		.syntax unified
 3001              	@ 1155 "Drivers/CMSIS/Include/cmsis_gcc.h" 1
 3002 02d8 53E8002F 		ldrex r2, [r3]
 3003              	@ 0 "" 2
 3004              		.thumb
 3005              		.syntax unified
 3006 02dc 22F01002 		bic	r2, r2, #16
 3007              		.syntax unified
 3008              	@ 1206 "Drivers/CMSIS/Include/cmsis_gcc.h" 1
 3009 02e0 43E80021 		strex r1, r2, [r3]
 3010              	@ 0 "" 2
 3011              		.thumb
 3012              		.syntax unified
 3013 02e4 0029     		cmp	r1, #0
 3014 02e6 F7D1     		bne	.L585
 3015 02e8 FFF7FEFF 		bl	HAL_DMA_Abort
 3016 02ec B4F85850 		ldrh	r5, [r4, #88]
 3017 02f0 D8E6     		b	.L580
 3018              	.L570:
 3019 02f2 2046     		mov	r0, r4
 3020 02f4 FFF7FEFF 		bl	HAL_UART_ErrorCallback
 3021 02f8 C4F88050 		str	r5, [r4, #128]
 3022 02fc 70BD     		pop	{r4, r5, r6, pc}
 3023              	.L720:
 3024 02fe 00BF     		.align	2
 3025              	.L719:
 3026 0300 20010004 		.word	67109152
 3027 0304 00000000 		.word	UART_DMAAbortOnError
 3029              		.section	.text.UART_RxISR_8BIT.part.0,"ax",%progbits
 3030              		.align	1
 3031              		.p2align 2,,3
 3032              		.syntax unified
 3033              		.thumb
 3034              		.thumb_func
 3035              		.fpu fpv4-sp-d16
 3037              	UART_RxISR_8BIT.part.0:
ARM GAS  /tmp/ccQrb7vt.s 			page 53


 3038              		@ args = 0, pretend = 0, frame = 0
 3039              		@ frame_needed = 0, uses_anonymous_args = 0
 3040 0000 08B5     		push	{r3, lr}
 3041 0002 0368     		ldr	r3, [r0]
 3042              	.L722:
 3043              		.syntax unified
 3044              	@ 1155 "Drivers/CMSIS/Include/cmsis_gcc.h" 1
 3045 0004 53E8002F 		ldrex r2, [r3]
 3046              	@ 0 "" 2
 3047              		.thumb
 3048              		.syntax unified
 3049 0008 22F49072 		bic	r2, r2, #288
 3050              		.syntax unified
 3051              	@ 1206 "Drivers/CMSIS/Include/cmsis_gcc.h" 1
 3052 000c 43E80021 		strex r1, r2, [r3]
 3053              	@ 0 "" 2
 3054              		.thumb
 3055              		.syntax unified
 3056 0010 0029     		cmp	r1, #0
 3057 0012 F7D1     		bne	.L722
 3058              	.L723:
 3059 0014 03F10802 		add	r2, r3, #8
 3060              		.syntax unified
 3061              	@ 1155 "Drivers/CMSIS/Include/cmsis_gcc.h" 1
 3062 0018 52E8002F 		ldrex r2, [r2]
 3063              	@ 0 "" 2
 3064              		.thumb
 3065              		.syntax unified
 3066 001c 22F00102 		bic	r2, r2, #1
 3067 0020 03F1080C 		add	ip, r3, #8
 3068              		.syntax unified
 3069              	@ 1206 "Drivers/CMSIS/Include/cmsis_gcc.h" 1
 3070 0024 4CE80021 		strex r1, r2, [ip]
 3071              	@ 0 "" 2
 3072              		.thumb
 3073              		.syntax unified
 3074 0028 0029     		cmp	r1, #0
 3075 002a F3D1     		bne	.L723
 3076 002c 2022     		movs	r2, #32
 3077 002e C267     		str	r2, [r0, #124]
 3078 0030 026E     		ldr	r2, [r0, #96]
 3079 0032 4166     		str	r1, [r0, #100]
 3080 0034 012A     		cmp	r2, #1
 3081 0036 12D1     		bne	.L724
 3082 0038 0166     		str	r1, [r0, #96]
 3083              	.L725:
 3084              		.syntax unified
 3085              	@ 1155 "Drivers/CMSIS/Include/cmsis_gcc.h" 1
 3086 003a 53E8002F 		ldrex r2, [r3]
 3087              	@ 0 "" 2
 3088              		.thumb
 3089              		.syntax unified
 3090 003e 22F01002 		bic	r2, r2, #16
 3091              		.syntax unified
 3092              	@ 1206 "Drivers/CMSIS/Include/cmsis_gcc.h" 1
 3093 0042 43E80021 		strex r1, r2, [r3]
 3094              	@ 0 "" 2
ARM GAS  /tmp/ccQrb7vt.s 			page 54


 3095              		.thumb
 3096              		.syntax unified
 3097 0046 0029     		cmp	r1, #0
 3098 0048 F7D1     		bne	.L725
 3099 004a DA69     		ldr	r2, [r3, #28]
 3100 004c B0F85810 		ldrh	r1, [r0, #88]
 3101 0050 D206     		lsls	r2, r2, #27
 3102 0052 44BF     		itt	mi
 3103 0054 1022     		movmi	r2, #16
 3104 0056 1A62     		strmi	r2, [r3, #32]
 3105 0058 FFF7FEFF 		bl	HAL_UARTEx_RxEventCallback
 3106 005c 08BD     		pop	{r3, pc}
 3107              	.L724:
 3108 005e FFF7FEFF 		bl	HAL_UART_RxCpltCallback
 3109 0062 08BD     		pop	{r3, pc}
 3111              		.thumb_set UART_RxISR_16BIT.part.0,UART_RxISR_8BIT.part.0
 3112              		.section	.text.UART_RxISR_16BIT,"ax",%progbits
 3113              		.align	1
 3114              		.p2align 2,,3
 3115              		.syntax unified
 3116              		.thumb
 3117              		.thumb_func
 3118              		.fpu fpv4-sp-d16
 3120              	UART_RxISR_16BIT:
 3121              		@ args = 0, pretend = 0, frame = 0
 3122              		@ frame_needed = 0, uses_anonymous_args = 0
 3123              		@ link register save eliminated.
 3124 0000 10B4     		push	{r4}
 3125 0002 C46F     		ldr	r4, [r0, #124]
 3126 0004 B0F85C10 		ldrh	r1, [r0, #92]
 3127 0008 0268     		ldr	r2, [r0]
 3128 000a 222C     		cmp	r4, #34
 3129 000c 07D0     		beq	.L739
 3130 000e 138B     		ldrh	r3, [r2, #24]
 3131 0010 9BB2     		uxth	r3, r3
 3132 0012 43F00803 		orr	r3, r3, #8
 3133 0016 1383     		strh	r3, [r2, #24]	@ movhi
 3134              	.L735:
 3135 0018 5DF8044B 		ldr	r4, [sp], #4
 3136 001c 7047     		bx	lr
 3137              	.L739:
 3138 001e 928C     		ldrh	r2, [r2, #36]
 3139 0020 446D     		ldr	r4, [r0, #84]
 3140 0022 1140     		ands	r1, r1, r2
 3141 0024 24F8021B 		strh	r1, [r4], #2	@ movhi
 3142 0028 B0F85A20 		ldrh	r2, [r0, #90]
 3143 002c 4465     		str	r4, [r0, #84]
 3144 002e 013A     		subs	r2, r2, #1
 3145 0030 92B2     		uxth	r2, r2
 3146 0032 A0F85A20 		strh	r2, [r0, #90]	@ movhi
 3147 0036 B0F85A30 		ldrh	r3, [r0, #90]
 3148 003a 9BB2     		uxth	r3, r3
 3149 003c 002B     		cmp	r3, #0
 3150 003e EBD1     		bne	.L735
 3151 0040 5DF8044B 		ldr	r4, [sp], #4
 3152 0044 FFF7FEBF 		b	UART_RxISR_16BIT.part.0
 3154              		.section	.text.UART_RxISR_8BIT,"ax",%progbits
ARM GAS  /tmp/ccQrb7vt.s 			page 55


 3155              		.align	1
 3156              		.p2align 2,,3
 3157              		.syntax unified
 3158              		.thumb
 3159              		.thumb_func
 3160              		.fpu fpv4-sp-d16
 3162              	UART_RxISR_8BIT:
 3163              		@ args = 0, pretend = 0, frame = 0
 3164              		@ frame_needed = 0, uses_anonymous_args = 0
 3165              		@ link register save eliminated.
 3166 0000 10B4     		push	{r4}
 3167 0002 C46F     		ldr	r4, [r0, #124]
 3168 0004 B0F85C10 		ldrh	r1, [r0, #92]
 3169 0008 0268     		ldr	r2, [r0]
 3170 000a 222C     		cmp	r4, #34
 3171 000c 07D0     		beq	.L744
 3172 000e 138B     		ldrh	r3, [r2, #24]
 3173 0010 9BB2     		uxth	r3, r3
 3174 0012 43F00803 		orr	r3, r3, #8
 3175 0016 1383     		strh	r3, [r2, #24]	@ movhi
 3176              	.L740:
 3177 0018 5DF8044B 		ldr	r4, [sp], #4
 3178 001c 7047     		bx	lr
 3179              	.L744:
 3180 001e 948C     		ldrh	r4, [r2, #36]
 3181 0020 426D     		ldr	r2, [r0, #84]
 3182 0022 2140     		ands	r1, r1, r4
 3183 0024 1170     		strb	r1, [r2]
 3184 0026 B0F85A20 		ldrh	r2, [r0, #90]
 3185 002a 416D     		ldr	r1, [r0, #84]
 3186 002c 013A     		subs	r2, r2, #1
 3187 002e 92B2     		uxth	r2, r2
 3188 0030 A0F85A20 		strh	r2, [r0, #90]	@ movhi
 3189 0034 B0F85A20 		ldrh	r2, [r0, #90]
 3190 0038 0131     		adds	r1, r1, #1
 3191 003a 92B2     		uxth	r2, r2
 3192 003c 4165     		str	r1, [r0, #84]
 3193 003e 002A     		cmp	r2, #0
 3194 0040 EAD1     		bne	.L740
 3195 0042 5DF8044B 		ldr	r4, [sp], #4
 3196 0046 FFF7FEBF 		b	UART_RxISR_8BIT.part.0
 3198 004a 00BF     		.section	.text.UART_DMARxHalfCplt,"ax",%progbits
 3199              		.align	1
 3200              		.p2align 2,,3
 3201              		.syntax unified
 3202              		.thumb
 3203              		.thumb_func
 3204              		.fpu fpv4-sp-d16
 3206              	UART_DMARxHalfCplt:
 3207              		@ args = 0, pretend = 0, frame = 0
 3208              		@ frame_needed = 0, uses_anonymous_args = 0
 3209 0000 806A     		ldr	r0, [r0, #40]
 3210 0002 08B5     		push	{r3, lr}
 3211 0004 036E     		ldr	r3, [r0, #96]
 3212 0006 012B     		cmp	r3, #1
 3213 0008 02D0     		beq	.L749
 3214 000a FFF7FEFF 		bl	HAL_UART_RxHalfCpltCallback
ARM GAS  /tmp/ccQrb7vt.s 			page 56


 3215 000e 08BD     		pop	{r3, pc}
 3216              	.L749:
 3217 0010 B0F85810 		ldrh	r1, [r0, #88]
 3218 0014 4908     		lsrs	r1, r1, #1
 3219 0016 FFF7FEFF 		bl	HAL_UARTEx_RxEventCallback
 3220 001a 08BD     		pop	{r3, pc}
 3222              		.section	.text.UART_DMAReceiveCplt,"ax",%progbits
 3223              		.align	1
 3224              		.p2align 2,,3
 3225              		.syntax unified
 3226              		.thumb
 3227              		.thumb_func
 3228              		.fpu fpv4-sp-d16
 3230              	UART_DMAReceiveCplt:
 3231              		@ args = 0, pretend = 0, frame = 0
 3232              		@ frame_needed = 0, uses_anonymous_args = 0
 3233 0000 08B5     		push	{r3, lr}
 3234 0002 0368     		ldr	r3, [r0]
 3235 0004 806A     		ldr	r0, [r0, #40]
 3236 0006 1A68     		ldr	r2, [r3]
 3237 0008 12F02002 		ands	r2, r2, #32
 3238 000c 27D1     		bne	.L751
 3239 000e 0368     		ldr	r3, [r0]
 3240 0010 A0F85A20 		strh	r2, [r0, #90]	@ movhi
 3241              	.L752:
 3242              		.syntax unified
 3243              	@ 1155 "Drivers/CMSIS/Include/cmsis_gcc.h" 1
 3244 0014 53E8002F 		ldrex r2, [r3]
 3245              	@ 0 "" 2
 3246              		.thumb
 3247              		.syntax unified
 3248 0018 22F48072 		bic	r2, r2, #256
 3249              		.syntax unified
 3250              	@ 1206 "Drivers/CMSIS/Include/cmsis_gcc.h" 1
 3251 001c 43E80021 		strex r1, r2, [r3]
 3252              	@ 0 "" 2
 3253              		.thumb
 3254              		.syntax unified
 3255 0020 0029     		cmp	r1, #0
 3256 0022 F7D1     		bne	.L752
 3257              	.L753:
 3258 0024 03F10802 		add	r2, r3, #8
 3259              		.syntax unified
 3260              	@ 1155 "Drivers/CMSIS/Include/cmsis_gcc.h" 1
 3261 0028 52E8002F 		ldrex r2, [r2]
 3262              	@ 0 "" 2
 3263              		.thumb
 3264              		.syntax unified
 3265 002c 22F00102 		bic	r2, r2, #1
 3266 0030 03F1080C 		add	ip, r3, #8
 3267              		.syntax unified
 3268              	@ 1206 "Drivers/CMSIS/Include/cmsis_gcc.h" 1
 3269 0034 4CE80021 		strex r1, r2, [ip]
 3270              	@ 0 "" 2
 3271              		.thumb
 3272              		.syntax unified
 3273 0038 0029     		cmp	r1, #0
ARM GAS  /tmp/ccQrb7vt.s 			page 57


 3274 003a F3D1     		bne	.L753
 3275              	.L754:
 3276 003c 03F10802 		add	r2, r3, #8
 3277              		.syntax unified
 3278              	@ 1155 "Drivers/CMSIS/Include/cmsis_gcc.h" 1
 3279 0040 52E8002F 		ldrex r2, [r2]
 3280              	@ 0 "" 2
 3281              		.thumb
 3282              		.syntax unified
 3283 0044 22F04002 		bic	r2, r2, #64
 3284 0048 03F1080C 		add	ip, r3, #8
 3285              		.syntax unified
 3286              	@ 1206 "Drivers/CMSIS/Include/cmsis_gcc.h" 1
 3287 004c 4CE80021 		strex r1, r2, [ip]
 3288              	@ 0 "" 2
 3289              		.thumb
 3290              		.syntax unified
 3291 0050 0029     		cmp	r1, #0
 3292 0052 F3D1     		bne	.L754
 3293 0054 2022     		movs	r2, #32
 3294 0056 C267     		str	r2, [r0, #124]
 3295 0058 026E     		ldr	r2, [r0, #96]
 3296 005a 012A     		cmp	r2, #1
 3297 005c 05D0     		beq	.L755
 3298              	.L751:
 3299 005e 036E     		ldr	r3, [r0, #96]
 3300 0060 012B     		cmp	r3, #1
 3301 0062 13D0     		beq	.L764
 3302 0064 FFF7FEFF 		bl	HAL_UART_RxCpltCallback
 3303 0068 08BD     		pop	{r3, pc}
 3304              	.L755:
 3305              		.syntax unified
 3306              	@ 1155 "Drivers/CMSIS/Include/cmsis_gcc.h" 1
 3307 006a 53E8002F 		ldrex r2, [r3]
 3308              	@ 0 "" 2
 3309              		.thumb
 3310              		.syntax unified
 3311 006e 22F01002 		bic	r2, r2, #16
 3312              		.syntax unified
 3313              	@ 1206 "Drivers/CMSIS/Include/cmsis_gcc.h" 1
 3314 0072 43E80021 		strex r1, r2, [r3]
 3315              	@ 0 "" 2
 3316              		.thumb
 3317              		.syntax unified
 3318 0076 0029     		cmp	r1, #0
 3319 0078 F1D0     		beq	.L751
 3320              		.syntax unified
 3321              	@ 1155 "Drivers/CMSIS/Include/cmsis_gcc.h" 1
 3322 007a 53E8002F 		ldrex r2, [r3]
 3323              	@ 0 "" 2
 3324              		.thumb
 3325              		.syntax unified
 3326 007e 22F01002 		bic	r2, r2, #16
 3327              		.syntax unified
 3328              	@ 1206 "Drivers/CMSIS/Include/cmsis_gcc.h" 1
 3329 0082 43E80021 		strex r1, r2, [r3]
 3330              	@ 0 "" 2
ARM GAS  /tmp/ccQrb7vt.s 			page 58


 3331              		.thumb
 3332              		.syntax unified
 3333 0086 0029     		cmp	r1, #0
 3334 0088 EFD1     		bne	.L755
 3335 008a E8E7     		b	.L751
 3336              	.L764:
 3337 008c B0F85810 		ldrh	r1, [r0, #88]
 3338 0090 FFF7FEFF 		bl	HAL_UARTEx_RxEventCallback
 3339 0094 08BD     		pop	{r3, pc}
 3341 0096 00BF     		.section	.text.HAL_UART_ReceiverTimeout_Config,"ax",%progbits
 3342              		.align	1
 3343              		.p2align 2,,3
 3344              		.global	HAL_UART_ReceiverTimeout_Config
 3345              		.syntax unified
 3346              		.thumb
 3347              		.thumb_func
 3348              		.fpu fpv4-sp-d16
 3350              	HAL_UART_ReceiverTimeout_Config:
 3351              		@ args = 0, pretend = 0, frame = 0
 3352              		@ frame_needed = 0, uses_anonymous_args = 0
 3353              		@ link register save eliminated.
 3354 0000 044B     		ldr	r3, .L767
 3355 0002 0268     		ldr	r2, [r0]
 3356 0004 9A42     		cmp	r2, r3
 3357 0006 04D0     		beq	.L765
 3358 0008 5369     		ldr	r3, [r2, #20]
 3359 000a 03F07F43 		and	r3, r3, #-16777216
 3360 000e 1943     		orrs	r1, r1, r3
 3361 0010 5161     		str	r1, [r2, #20]
 3362              	.L765:
 3363 0012 7047     		bx	lr
 3364              	.L768:
 3365              		.align	2
 3366              	.L767:
 3367 0014 00800040 		.word	1073774592
 3369              		.section	.text.HAL_UART_EnableReceiverTimeout,"ax",%progbits
 3370              		.align	1
 3371              		.p2align 2,,3
 3372              		.global	HAL_UART_EnableReceiverTimeout
 3373              		.syntax unified
 3374              		.thumb
 3375              		.thumb_func
 3376              		.fpu fpv4-sp-d16
 3378              	HAL_UART_EnableReceiverTimeout:
 3379              		@ args = 0, pretend = 0, frame = 0
 3380              		@ frame_needed = 0, uses_anonymous_args = 0
 3381              		@ link register save eliminated.
 3382 0000 0E49     		ldr	r1, .L774
 3383 0002 0268     		ldr	r2, [r0]
 3384 0004 8A42     		cmp	r2, r1
 3385 0006 0346     		mov	r3, r0
 3386 0008 15D0     		beq	.L771
 3387 000a 816F     		ldr	r1, [r0, #120]
 3388 000c 2029     		cmp	r1, #32
 3389 000e 10D1     		bne	.L773
 3390 0010 90F87400 		ldrb	r0, [r0, #116]	@ zero_extendqisi2
 3391 0014 0128     		cmp	r0, #1
ARM GAS  /tmp/ccQrb7vt.s 			page 59


 3392 0016 0CD0     		beq	.L773
 3393 0018 2420     		movs	r0, #36
 3394 001a 9867     		str	r0, [r3, #120]
 3395 001c 5068     		ldr	r0, [r2, #4]
 3396 001e 4FF0000C 		mov	ip, #0
 3397 0022 40F40000 		orr	r0, r0, #8388608
 3398 0026 5060     		str	r0, [r2, #4]
 3399 0028 6046     		mov	r0, ip
 3400 002a 9967     		str	r1, [r3, #120]
 3401 002c 83F874C0 		strb	ip, [r3, #116]
 3402 0030 7047     		bx	lr
 3403              	.L773:
 3404 0032 0220     		movs	r0, #2
 3405 0034 7047     		bx	lr
 3406              	.L771:
 3407 0036 0120     		movs	r0, #1
 3408 0038 7047     		bx	lr
 3409              	.L775:
 3410 003a 00BF     		.align	2
 3411              	.L774:
 3412 003c 00800040 		.word	1073774592
 3414              		.section	.text.HAL_UART_DisableReceiverTimeout,"ax",%progbits
 3415              		.align	1
 3416              		.p2align 2,,3
 3417              		.global	HAL_UART_DisableReceiverTimeout
 3418              		.syntax unified
 3419              		.thumb
 3420              		.thumb_func
 3421              		.fpu fpv4-sp-d16
 3423              	HAL_UART_DisableReceiverTimeout:
 3424              		@ args = 0, pretend = 0, frame = 0
 3425              		@ frame_needed = 0, uses_anonymous_args = 0
 3426              		@ link register save eliminated.
 3427 0000 0E49     		ldr	r1, .L781
 3428 0002 0268     		ldr	r2, [r0]
 3429 0004 8A42     		cmp	r2, r1
 3430 0006 0346     		mov	r3, r0
 3431 0008 15D0     		beq	.L778
 3432 000a 816F     		ldr	r1, [r0, #120]
 3433 000c 2029     		cmp	r1, #32
 3434 000e 10D1     		bne	.L780
 3435 0010 90F87400 		ldrb	r0, [r0, #116]	@ zero_extendqisi2
 3436 0014 0128     		cmp	r0, #1
 3437 0016 0CD0     		beq	.L780
 3438 0018 2420     		movs	r0, #36
 3439 001a 9867     		str	r0, [r3, #120]
 3440 001c 5068     		ldr	r0, [r2, #4]
 3441 001e 4FF0000C 		mov	ip, #0
 3442 0022 20F40000 		bic	r0, r0, #8388608
 3443 0026 5060     		str	r0, [r2, #4]
 3444 0028 6046     		mov	r0, ip
 3445 002a 9967     		str	r1, [r3, #120]
 3446 002c 83F874C0 		strb	ip, [r3, #116]
 3447 0030 7047     		bx	lr
 3448              	.L780:
 3449 0032 0220     		movs	r0, #2
 3450 0034 7047     		bx	lr
ARM GAS  /tmp/ccQrb7vt.s 			page 60


 3451              	.L778:
 3452 0036 0120     		movs	r0, #1
 3453 0038 7047     		bx	lr
 3454              	.L782:
 3455 003a 00BF     		.align	2
 3456              	.L781:
 3457 003c 00800040 		.word	1073774592
 3459              		.section	.text.HAL_MultiProcessor_EnterMuteMode,"ax",%progbits
 3460              		.align	1
 3461              		.p2align 2,,3
 3462              		.global	HAL_MultiProcessor_EnterMuteMode
 3463              		.syntax unified
 3464              		.thumb
 3465              		.thumb_func
 3466              		.fpu fpv4-sp-d16
 3468              	HAL_MultiProcessor_EnterMuteMode:
 3469              		@ args = 0, pretend = 0, frame = 0
 3470              		@ frame_needed = 0, uses_anonymous_args = 0
 3471              		@ link register save eliminated.
 3472 0000 0268     		ldr	r2, [r0]
 3473 0002 138B     		ldrh	r3, [r2, #24]
 3474 0004 9BB2     		uxth	r3, r3
 3475 0006 43F00403 		orr	r3, r3, #4
 3476 000a 1383     		strh	r3, [r2, #24]	@ movhi
 3477 000c 7047     		bx	lr
 3479 000e 00BF     		.section	.text.HAL_HalfDuplex_EnableTransmitter,"ax",%progbits
 3480              		.align	1
 3481              		.p2align 2,,3
 3482              		.global	HAL_HalfDuplex_EnableTransmitter
 3483              		.syntax unified
 3484              		.thumb
 3485              		.thumb_func
 3486              		.fpu fpv4-sp-d16
 3488              	HAL_HalfDuplex_EnableTransmitter:
 3489              		@ args = 0, pretend = 0, frame = 0
 3490              		@ frame_needed = 0, uses_anonymous_args = 0
 3491              		@ link register save eliminated.
 3492 0000 90F87430 		ldrb	r3, [r0, #116]	@ zero_extendqisi2
 3493 0004 012B     		cmp	r3, #1
 3494 0006 1BD0     		beq	.L788
 3495 0008 0121     		movs	r1, #1
 3496 000a 2423     		movs	r3, #36
 3497 000c 0268     		ldr	r2, [r0]
 3498 000e 80F87410 		strb	r1, [r0, #116]
 3499 0012 8367     		str	r3, [r0, #120]
 3500              	.L786:
 3501              		.syntax unified
 3502              	@ 1155 "Drivers/CMSIS/Include/cmsis_gcc.h" 1
 3503 0014 52E8003F 		ldrex r3, [r2]
 3504              	@ 0 "" 2
 3505              		.thumb
 3506              		.syntax unified
 3507 0018 23F00C03 		bic	r3, r3, #12
 3508              		.syntax unified
 3509              	@ 1206 "Drivers/CMSIS/Include/cmsis_gcc.h" 1
 3510 001c 42E80031 		strex r1, r3, [r2]
 3511              	@ 0 "" 2
ARM GAS  /tmp/ccQrb7vt.s 			page 61


 3512              		.thumb
 3513              		.syntax unified
 3514 0020 0029     		cmp	r1, #0
 3515 0022 F7D1     		bne	.L786
 3516              	.L787:
 3517              		.syntax unified
 3518              	@ 1155 "Drivers/CMSIS/Include/cmsis_gcc.h" 1
 3519 0024 52E8003F 		ldrex r3, [r2]
 3520              	@ 0 "" 2
 3521              		.thumb
 3522              		.syntax unified
 3523 0028 43F00803 		orr	r3, r3, #8
 3524              		.syntax unified
 3525              	@ 1206 "Drivers/CMSIS/Include/cmsis_gcc.h" 1
 3526 002c 42E80031 		strex r1, r3, [r2]
 3527              	@ 0 "" 2
 3528              		.thumb
 3529              		.syntax unified
 3530 0030 0029     		cmp	r1, #0
 3531 0032 F7D1     		bne	.L787
 3532 0034 2023     		movs	r3, #32
 3533 0036 8367     		str	r3, [r0, #120]
 3534 0038 80F87410 		strb	r1, [r0, #116]
 3535 003c 0846     		mov	r0, r1
 3536 003e 7047     		bx	lr
 3537              	.L788:
 3538 0040 0220     		movs	r0, #2
 3539 0042 7047     		bx	lr
 3541              		.section	.text.HAL_HalfDuplex_EnableReceiver,"ax",%progbits
 3542              		.align	1
 3543              		.p2align 2,,3
 3544              		.global	HAL_HalfDuplex_EnableReceiver
 3545              		.syntax unified
 3546              		.thumb
 3547              		.thumb_func
 3548              		.fpu fpv4-sp-d16
 3550              	HAL_HalfDuplex_EnableReceiver:
 3551              		@ args = 0, pretend = 0, frame = 0
 3552              		@ frame_needed = 0, uses_anonymous_args = 0
 3553              		@ link register save eliminated.
 3554 0000 90F87430 		ldrb	r3, [r0, #116]	@ zero_extendqisi2
 3555 0004 012B     		cmp	r3, #1
 3556 0006 1BD0     		beq	.L795
 3557 0008 0121     		movs	r1, #1
 3558 000a 2423     		movs	r3, #36
 3559 000c 0268     		ldr	r2, [r0]
 3560 000e 80F87410 		strb	r1, [r0, #116]
 3561 0012 8367     		str	r3, [r0, #120]
 3562              	.L793:
 3563              		.syntax unified
 3564              	@ 1155 "Drivers/CMSIS/Include/cmsis_gcc.h" 1
 3565 0014 52E8003F 		ldrex r3, [r2]
 3566              	@ 0 "" 2
 3567              		.thumb
 3568              		.syntax unified
 3569 0018 23F00C03 		bic	r3, r3, #12
 3570              		.syntax unified
ARM GAS  /tmp/ccQrb7vt.s 			page 62


 3571              	@ 1206 "Drivers/CMSIS/Include/cmsis_gcc.h" 1
 3572 001c 42E80031 		strex r1, r3, [r2]
 3573              	@ 0 "" 2
 3574              		.thumb
 3575              		.syntax unified
 3576 0020 0029     		cmp	r1, #0
 3577 0022 F7D1     		bne	.L793
 3578              	.L794:
 3579              		.syntax unified
 3580              	@ 1155 "Drivers/CMSIS/Include/cmsis_gcc.h" 1
 3581 0024 52E8003F 		ldrex r3, [r2]
 3582              	@ 0 "" 2
 3583              		.thumb
 3584              		.syntax unified
 3585 0028 43F00403 		orr	r3, r3, #4
 3586              		.syntax unified
 3587              	@ 1206 "Drivers/CMSIS/Include/cmsis_gcc.h" 1
 3588 002c 42E80031 		strex r1, r3, [r2]
 3589              	@ 0 "" 2
 3590              		.thumb
 3591              		.syntax unified
 3592 0030 0029     		cmp	r1, #0
 3593 0032 F7D1     		bne	.L794
 3594 0034 2023     		movs	r3, #32
 3595 0036 8367     		str	r3, [r0, #120]
 3596 0038 80F87410 		strb	r1, [r0, #116]
 3597 003c 0846     		mov	r0, r1
 3598 003e 7047     		bx	lr
 3599              	.L795:
 3600 0040 0220     		movs	r0, #2
 3601 0042 7047     		bx	lr
 3603              		.section	.text.HAL_LIN_SendBreak,"ax",%progbits
 3604              		.align	1
 3605              		.p2align 2,,3
 3606              		.global	HAL_LIN_SendBreak
 3607              		.syntax unified
 3608              		.thumb
 3609              		.thumb_func
 3610              		.fpu fpv4-sp-d16
 3612              	HAL_LIN_SendBreak:
 3613              		@ args = 0, pretend = 0, frame = 0
 3614              		@ frame_needed = 0, uses_anonymous_args = 0
 3615              		@ link register save eliminated.
 3616 0000 90F87430 		ldrb	r3, [r0, #116]	@ zero_extendqisi2
 3617 0004 012B     		cmp	r3, #1
 3618 0006 11D0     		beq	.L800
 3619 0008 0168     		ldr	r1, [r0]
 3620 000a 2423     		movs	r3, #36
 3621 000c 10B4     		push	{r4}
 3622 000e 8367     		str	r3, [r0, #120]
 3623 0010 0B8B     		ldrh	r3, [r1, #24]
 3624 0012 9BB2     		uxth	r3, r3
 3625 0014 0022     		movs	r2, #0
 3626 0016 43F00203 		orr	r3, r3, #2
 3627 001a 2024     		movs	r4, #32
 3628 001c 0B83     		strh	r3, [r1, #24]	@ movhi
 3629 001e 80F87420 		strb	r2, [r0, #116]
ARM GAS  /tmp/ccQrb7vt.s 			page 63


 3630 0022 8467     		str	r4, [r0, #120]
 3631 0024 1046     		mov	r0, r2
 3632 0026 5DF8044B 		ldr	r4, [sp], #4
 3633 002a 7047     		bx	lr
 3634              	.L800:
 3635 002c 0220     		movs	r0, #2
 3636 002e 7047     		bx	lr
 3638              		.section	.text.HAL_UART_GetState,"ax",%progbits
 3639              		.align	1
 3640              		.p2align 2,,3
 3641              		.global	HAL_UART_GetState
 3642              		.syntax unified
 3643              		.thumb
 3644              		.thumb_func
 3645              		.fpu fpv4-sp-d16
 3647              	HAL_UART_GetState:
 3648              		@ args = 0, pretend = 0, frame = 0
 3649              		@ frame_needed = 0, uses_anonymous_args = 0
 3650              		@ link register save eliminated.
 3651 0000 826F     		ldr	r2, [r0, #120]
 3652 0002 C06F     		ldr	r0, [r0, #124]
 3653 0004 1043     		orrs	r0, r0, r2
 3654 0006 7047     		bx	lr
 3656              		.section	.text.HAL_UART_GetError,"ax",%progbits
 3657              		.align	1
 3658              		.p2align 2,,3
 3659              		.global	HAL_UART_GetError
 3660              		.syntax unified
 3661              		.thumb
 3662              		.thumb_func
 3663              		.fpu fpv4-sp-d16
 3665              	HAL_UART_GetError:
 3666              		@ args = 0, pretend = 0, frame = 0
 3667              		@ frame_needed = 0, uses_anonymous_args = 0
 3668              		@ link register save eliminated.
 3669 0000 D0F88000 		ldr	r0, [r0, #128]
 3670 0004 7047     		bx	lr
 3672              		.global	__aeabi_uldivmod
 3673              		.global	__aeabi_ldivmod
 3674 0006 00BF     		.section	.text.UART_SetConfig,"ax",%progbits
 3675              		.align	1
 3676              		.p2align 2,,3
 3677              		.global	UART_SetConfig
 3678              		.syntax unified
 3679              		.thumb
 3680              		.thumb_func
 3681              		.fpu fpv4-sp-d16
 3683              	UART_SetConfig:
 3684              		@ args = 0, pretend = 0, frame = 0
 3685              		@ frame_needed = 0, uses_anonymous_args = 0
 3686 0000 38B5     		push	{r3, r4, r5, lr}
 3687 0002 0446     		mov	r4, r0
 3688 0004 0368     		ldr	r3, [r0]
 3689 0006 8268     		ldr	r2, [r0, #8]
 3690 0008 0069     		ldr	r0, [r0, #16]
 3691 000a 6169     		ldr	r1, [r4, #20]
 3692 000c 1D68     		ldr	r5, [r3]
ARM GAS  /tmp/ccQrb7vt.s 			page 64


 3693 000e 0243     		orrs	r2, r2, r0
 3694 0010 0A43     		orrs	r2, r2, r1
 3695 0012 E069     		ldr	r0, [r4, #28]
 3696 0014 9F49     		ldr	r1, .L912
 3697 0016 0243     		orrs	r2, r2, r0
 3698 0018 2940     		ands	r1, r1, r5
 3699 001a 0A43     		orrs	r2, r2, r1
 3700 001c 1A60     		str	r2, [r3]
 3701 001e 5A68     		ldr	r2, [r3, #4]
 3702 0020 E168     		ldr	r1, [r4, #12]
 3703 0022 22F44052 		bic	r2, r2, #12288
 3704 0026 0A43     		orrs	r2, r2, r1
 3705 0028 9B49     		ldr	r1, .L912+4
 3706 002a 5A60     		str	r2, [r3, #4]
 3707 002c 8B42     		cmp	r3, r1
 3708 002e A269     		ldr	r2, [r4, #24]
 3709 0030 9968     		ldr	r1, [r3, #8]
 3710 0032 71D0     		beq	.L808
 3711 0034 256A     		ldr	r5, [r4, #32]
 3712 0036 21F43061 		bic	r1, r1, #2816
 3713 003a 2A43     		orrs	r2, r2, r5
 3714 003c 0A43     		orrs	r2, r2, r1
 3715 003e 9749     		ldr	r1, .L912+8
 3716 0040 9A60     		str	r2, [r3, #8]
 3717 0042 8B42     		cmp	r3, r1
 3718 0044 24D0     		beq	.L907
 3719 0046 964A     		ldr	r2, .L912+12
 3720 0048 9342     		cmp	r3, r2
 3721 004a 43D0     		beq	.L908
 3722 004c 954A     		ldr	r2, .L912+16
 3723 004e 9342     		cmp	r3, r2
 3724 0050 00F0D780 		beq	.L909
 3725 0054 944A     		ldr	r2, .L912+20
 3726 0056 9342     		cmp	r3, r2
 3727 0058 00F0A180 		beq	.L910
 3728 005c 934A     		ldr	r2, .L912+24
 3729 005e 9342     		cmp	r3, r2
 3730 0060 11D1     		bne	.L843
 3731 0062 934B     		ldr	r3, .L912+28
 3732 0064 D3F88830 		ldr	r3, [r3, #136]
 3733 0068 03F44073 		and	r3, r3, #768
 3734 006c B3F5007F 		cmp	r3, #512
 3735 0070 00F0FF80 		beq	.L816
 3736 0074 00F2BE80 		bhi	.L837
 3737 0078 002B     		cmp	r3, #0
 3738 007a 00F0DC80 		beq	.L838
 3739 007e B3F5807F 		cmp	r3, #256
 3740 0082 00F09980 		beq	.L839
 3741              	.L843:
 3742 0086 0120     		movs	r0, #1
 3743              	.L822:
 3744 0088 0022     		movs	r2, #0
 3745 008a C4E91922 		strd	r2, r2, [r4, #100]
 3746 008e 38BD     		pop	{r3, r4, r5, pc}
 3747              	.L907:
 3748 0090 874B     		ldr	r3, .L912+28
 3749 0092 D3F88830 		ldr	r3, [r3, #136]
ARM GAS  /tmp/ccQrb7vt.s 			page 65


 3750 0096 03F00303 		and	r3, r3, #3
 3751 009a 013B     		subs	r3, r3, #1
 3752 009c 022B     		cmp	r3, #2
 3753 009e 78D9     		bls	.L810
 3754 00a0 B0F5004F 		cmp	r0, #32768
 3755 00a4 00F0F080 		beq	.L811
 3756              	.L812:
 3757 00a8 FFF7FEFF 		bl	HAL_RCC_GetPCLK2Freq
 3758              	.L851:
 3759 00ac 0028     		cmp	r0, #0
 3760 00ae 48D0     		beq	.L906
 3761              	.L828:
 3762 00b0 6268     		ldr	r2, [r4, #4]
 3763 00b2 4FF6EF71 		movw	r1, #65519
 3764 00b6 00EB5200 		add	r0, r0, r2, lsr #1
 3765 00ba B0FBF2F2 		udiv	r2, r0, r2
 3766 00be A2F11003 		sub	r3, r2, #16
 3767 00c2 8B42     		cmp	r3, r1
 3768 00c4 DFD8     		bhi	.L843
 3769 00c6 2368     		ldr	r3, [r4]
 3770 00c8 DA60     		str	r2, [r3, #12]
 3771 00ca 0022     		movs	r2, #0
 3772 00cc C4E91922 		strd	r2, r2, [r4, #100]
 3773 00d0 0020     		movs	r0, #0
 3774 00d2 38BD     		pop	{r3, r4, r5, pc}
 3775              	.L908:
 3776 00d4 764B     		ldr	r3, .L912+28
 3777 00d6 774A     		ldr	r2, .L912+32
 3778 00d8 D3F88830 		ldr	r3, [r3, #136]
 3779 00dc 03F00C03 		and	r3, r3, #12
 3780 00e0 D35C     		ldrb	r3, [r2, r3]	@ zero_extendqisi2
 3781              	.L813:
 3782 00e2 B0F5004F 		cmp	r0, #32768
 3783 00e6 6DD0     		beq	.L911
 3784 00e8 082B     		cmp	r3, #8
 3785 00ea CCD8     		bhi	.L843
 3786 00ec 01A2     		adr	r2, .L850
 3787 00ee 52F823F0 		ldr	pc, [r2, r3, lsl #2]
 3788 00f2 00BF     		.p2align 2
 3789              	.L850:
 3790 00f4 FD010000 		.word	.L824+1
 3791 00f8 A9000000 		.word	.L812+1
 3792 00fc 79020000 		.word	.L862+1
 3793 0100 87000000 		.word	.L843+1
 3794 0104 BF010000 		.word	.L826+1
 3795 0108 87000000 		.word	.L843+1
 3796 010c 87000000 		.word	.L843+1
 3797 0110 87000000 		.word	.L843+1
 3798 0114 27020000 		.word	.L849+1
 3799              		.p2align 1
 3800              	.L808:
 3801 0118 21F43061 		bic	r1, r1, #2816
 3802 011c 6448     		ldr	r0, .L912+28
 3803 011e 0A43     		orrs	r2, r2, r1
 3804 0120 9A60     		str	r2, [r3, #8]
 3805 0122 D0F88830 		ldr	r3, [r0, #136]
 3806 0126 03F44063 		and	r3, r3, #3072
ARM GAS  /tmp/ccQrb7vt.s 			page 66


 3807 012a B3F5006F 		cmp	r3, #2048
 3808 012e 00F08080 		beq	.L863
 3809 0132 0BD8     		bhi	.L852
 3810 0134 83B3     		cbz	r3, .L853
 3811 0136 B3F5806F 		cmp	r3, #1024
 3812 013a A4D1     		bne	.L843
 3813 013c FFF7FEFF 		bl	HAL_RCC_GetSysClockFreq
 3814              	.L841:
 3815 0140 48B9     		cbnz	r0, .L842
 3816              	.L906:
 3817 0142 0022     		movs	r2, #0
 3818 0144 C4E91922 		strd	r2, r2, [r4, #100]
 3819 0148 0020     		movs	r0, #0
 3820 014a 38BD     		pop	{r3, r4, r5, pc}
 3821              	.L852:
 3822 014c B3F5406F 		cmp	r3, #3072
 3823 0150 99D1     		bne	.L843
 3824 0152 4FF40040 		mov	r0, #32768
 3825              	.L842:
 3826 0156 6268     		ldr	r2, [r4, #4]
 3827 0158 02EB4203 		add	r3, r2, r2, lsl #1
 3828 015c 8342     		cmp	r3, r0
 3829 015e 92D8     		bhi	.L843
 3830 0160 B0EB023F 		cmp	r0, r2, lsl #12
 3831 0164 8FD8     		bhi	.L843
 3832 0166 0025     		movs	r5, #0
 3833 0168 5308     		lsrs	r3, r2, #1
 3834 016a 4FF4807C 		mov	ip, #256
 3835 016e 2946     		mov	r1, r5
 3836 0170 E0FB0C31 		umlal	r3, r1, r0, ip
 3837 0174 1846     		mov	r0, r3
 3838 0176 2B46     		mov	r3, r5
 3839 0178 FFF7FEFF 		bl	__aeabi_uldivmod
 3840 017c 4E4A     		ldr	r2, .L912+36
 3841 017e A0F54071 		sub	r1, r0, #768
 3842 0182 9142     		cmp	r1, r2
 3843 0184 0346     		mov	r3, r0
 3844 0186 3FF67EAF 		bhi	.L843
 3845 018a 2268     		ldr	r2, [r4]
 3846 018c 2846     		mov	r0, r5
 3847 018e D360     		str	r3, [r2, #12]
 3848 0190 7AE7     		b	.L822
 3849              	.L810:
 3850 0192 4A4A     		ldr	r2, .L912+40
 3851 0194 D35C     		ldrb	r3, [r2, r3]	@ zero_extendqisi2
 3852 0196 A4E7     		b	.L813
 3853              	.L853:
 3854 0198 FFF7FEFF 		bl	HAL_RCC_GetPCLK1Freq
 3855 019c D0E7     		b	.L841
 3856              	.L910:
 3857 019e 444B     		ldr	r3, .L912+28
 3858 01a0 D3F88830 		ldr	r3, [r3, #136]
 3859 01a4 03F0C003 		and	r3, r3, #192
 3860 01a8 802B     		cmp	r3, #128
 3861 01aa 62D0     		beq	.L816
 3862 01ac 3ED8     		bhi	.L831
 3863 01ae 002B     		cmp	r3, #0
ARM GAS  /tmp/ccQrb7vt.s 			page 67


 3864 01b0 41D0     		beq	.L838
 3865 01b2 402B     		cmp	r3, #64
 3866 01b4 7FF467AF 		bne	.L843
 3867              	.L839:
 3868 01b8 B0F5004F 		cmp	r0, #32768
 3869 01bc 5ED0     		beq	.L825
 3870              	.L826:
 3871 01be FFF7FEFF 		bl	HAL_RCC_GetSysClockFreq
 3872 01c2 73E7     		b	.L851
 3873              	.L911:
 3874 01c4 082B     		cmp	r3, #8
 3875 01c6 3FF65EAF 		bhi	.L843
 3876 01ca 01A2     		adr	r2, .L846
 3877 01cc 52F823F0 		ldr	pc, [r2, r3, lsl #2]
 3878              		.p2align 2
 3879              	.L846:
 3880 01d0 3D020000 		.word	.L823+1
 3881 01d4 89020000 		.word	.L811+1
 3882 01d8 8F020000 		.word	.L861+1
 3883 01dc 87000000 		.word	.L843+1
 3884 01e0 7D020000 		.word	.L825+1
 3885 01e4 87000000 		.word	.L843+1
 3886 01e8 87000000 		.word	.L843+1
 3887 01ec 87000000 		.word	.L843+1
 3888 01f0 83020000 		.word	.L857+1
 3889              		.p2align 1
 3890              	.L837:
 3891 01f4 B3F5407F 		cmp	r3, #768
 3892 01f8 12D0     		beq	.L840
 3893 01fa 44E7     		b	.L843
 3894              	.L824:
 3895 01fc FFF7FEFF 		bl	HAL_RCC_GetPCLK1Freq
 3896 0200 54E7     		b	.L851
 3897              	.L909:
 3898 0202 2B4B     		ldr	r3, .L912+28
 3899 0204 D3F88830 		ldr	r3, [r3, #136]
 3900 0208 03F03003 		and	r3, r3, #48
 3901 020c 202B     		cmp	r3, #32
 3902 020e 30D0     		beq	.L816
 3903 0210 03D8     		bhi	.L817
 3904 0212 83B1     		cbz	r3, .L838
 3905 0214 102B     		cmp	r3, #16
 3906 0216 CFD0     		beq	.L839
 3907 0218 35E7     		b	.L843
 3908              	.L817:
 3909 021a 302B     		cmp	r3, #48
 3910 021c 7FF433AF 		bne	.L843
 3911              	.L840:
 3912 0220 B0F5004F 		cmp	r0, #32768
 3913 0224 2DD0     		beq	.L857
 3914              	.L849:
 3915 0226 4FF40040 		mov	r0, #32768
 3916 022a 41E7     		b	.L828
 3917              	.L831:
 3918 022c C02B     		cmp	r3, #192
 3919 022e F7D0     		beq	.L840
 3920 0230 29E7     		b	.L843
ARM GAS  /tmp/ccQrb7vt.s 			page 68


 3921              	.L863:
 3922 0232 2348     		ldr	r0, .L912+44
 3923 0234 8FE7     		b	.L842
 3924              	.L838:
 3925 0236 B0F5004F 		cmp	r0, #32768
 3926 023a DFD1     		bne	.L824
 3927              	.L823:
 3928 023c FFF7FEFF 		bl	HAL_RCC_GetPCLK1Freq
 3929              	.L847:
 3930 0240 0028     		cmp	r0, #0
 3931 0242 3FF47EAF 		beq	.L906
 3932 0246 4300     		lsls	r3, r0, #1
 3933              	.L827:
 3934 0248 6268     		ldr	r2, [r4, #4]
 3935 024a 4FF6EF71 		movw	r1, #65519
 3936 024e 03EB5203 		add	r3, r3, r2, lsr #1
 3937 0252 B3FBF2F3 		udiv	r3, r3, r2
 3938 0256 A3F11002 		sub	r2, r3, #16
 3939 025a 8A42     		cmp	r2, r1
 3940 025c 3FF613AF 		bhi	.L843
 3941 0260 23F00F02 		bic	r2, r3, #15
 3942 0264 2168     		ldr	r1, [r4]
 3943 0266 92B2     		uxth	r2, r2
 3944 0268 C3F34203 		ubfx	r3, r3, #1, #3
 3945 026c 1343     		orrs	r3, r3, r2
 3946 026e CB60     		str	r3, [r1, #12]
 3947 0270 67E7     		b	.L906
 3948              	.L816:
 3949 0272 B0F5004F 		cmp	r0, #32768
 3950 0276 0AD0     		beq	.L861
 3951              	.L862:
 3952 0278 1148     		ldr	r0, .L912+44
 3953 027a 19E7     		b	.L828
 3954              	.L825:
 3955 027c FFF7FEFF 		bl	HAL_RCC_GetSysClockFreq
 3956 0280 DEE7     		b	.L847
 3957              	.L857:
 3958 0282 4FF48033 		mov	r3, #65536
 3959 0286 DFE7     		b	.L827
 3960              	.L811:
 3961 0288 FFF7FEFF 		bl	HAL_RCC_GetPCLK2Freq
 3962 028c D8E7     		b	.L847
 3963              	.L861:
 3964 028e 0D4B     		ldr	r3, .L912+48
 3965 0290 DAE7     		b	.L827
 3966              	.L913:
 3967 0292 00BF     		.align	2
 3968              	.L912:
 3969 0294 F369FFEF 		.word	-268473869
 3970 0298 00800040 		.word	1073774592
 3971 029c 00380140 		.word	1073821696
 3972 02a0 00440040 		.word	1073759232
 3973 02a4 00480040 		.word	1073760256
 3974 02a8 004C0040 		.word	1073761280
 3975 02ac 00500040 		.word	1073762304
 3976 02b0 00100240 		.word	1073876992
 3977 02b4 00000000 		.word	.LANCHOR1
ARM GAS  /tmp/ccQrb7vt.s 			page 69


 3978 02b8 FFFC0F00 		.word	1047807
 3979 02bc 00000000 		.word	.LANCHOR0
 3980 02c0 0024F400 		.word	16000000
 3981 02c4 0048E801 		.word	32000000
 3983              		.section	.text.UART_AdvFeatureConfig,"ax",%progbits
 3984              		.align	1
 3985              		.p2align 2,,3
 3986              		.global	UART_AdvFeatureConfig
 3987              		.syntax unified
 3988              		.thumb
 3989              		.thumb_func
 3990              		.fpu fpv4-sp-d16
 3992              	UART_AdvFeatureConfig:
 3993              		@ args = 0, pretend = 0, frame = 0
 3994              		@ frame_needed = 0, uses_anonymous_args = 0
 3995              		@ link register save eliminated.
 3996 0000 436A     		ldr	r3, [r0, #36]
 3997 0002 DA07     		lsls	r2, r3, #31
 3998 0004 10B4     		push	{r4}
 3999 0006 06D5     		bpl	.L915
 4000 0008 0168     		ldr	r1, [r0]
 4001 000a 846A     		ldr	r4, [r0, #40]
 4002 000c 4A68     		ldr	r2, [r1, #4]
 4003 000e 22F40032 		bic	r2, r2, #131072
 4004 0012 2243     		orrs	r2, r2, r4
 4005 0014 4A60     		str	r2, [r1, #4]
 4006              	.L915:
 4007 0016 9C07     		lsls	r4, r3, #30
 4008 0018 06D5     		bpl	.L916
 4009 001a 0168     		ldr	r1, [r0]
 4010 001c C46A     		ldr	r4, [r0, #44]
 4011 001e 4A68     		ldr	r2, [r1, #4]
 4012 0020 22F48032 		bic	r2, r2, #65536
 4013 0024 2243     		orrs	r2, r2, r4
 4014 0026 4A60     		str	r2, [r1, #4]
 4015              	.L916:
 4016 0028 5907     		lsls	r1, r3, #29
 4017 002a 06D5     		bpl	.L917
 4018 002c 0168     		ldr	r1, [r0]
 4019 002e 046B     		ldr	r4, [r0, #48]
 4020 0030 4A68     		ldr	r2, [r1, #4]
 4021 0032 22F48022 		bic	r2, r2, #262144
 4022 0036 2243     		orrs	r2, r2, r4
 4023 0038 4A60     		str	r2, [r1, #4]
 4024              	.L917:
 4025 003a 1A07     		lsls	r2, r3, #28
 4026 003c 06D5     		bpl	.L918
 4027 003e 0168     		ldr	r1, [r0]
 4028 0040 446B     		ldr	r4, [r0, #52]
 4029 0042 4A68     		ldr	r2, [r1, #4]
 4030 0044 22F40042 		bic	r2, r2, #32768
 4031 0048 2243     		orrs	r2, r2, r4
 4032 004a 4A60     		str	r2, [r1, #4]
 4033              	.L918:
 4034 004c DC06     		lsls	r4, r3, #27
 4035 004e 06D5     		bpl	.L919
 4036 0050 0168     		ldr	r1, [r0]
ARM GAS  /tmp/ccQrb7vt.s 			page 70


 4037 0052 846B     		ldr	r4, [r0, #56]
 4038 0054 8A68     		ldr	r2, [r1, #8]
 4039 0056 22F48052 		bic	r2, r2, #4096
 4040 005a 2243     		orrs	r2, r2, r4
 4041 005c 8A60     		str	r2, [r1, #8]
 4042              	.L919:
 4043 005e 9906     		lsls	r1, r3, #26
 4044 0060 06D5     		bpl	.L920
 4045 0062 0168     		ldr	r1, [r0]
 4046 0064 C46B     		ldr	r4, [r0, #60]
 4047 0066 8A68     		ldr	r2, [r1, #8]
 4048 0068 22F40052 		bic	r2, r2, #8192
 4049 006c 2243     		orrs	r2, r2, r4
 4050 006e 8A60     		str	r2, [r1, #8]
 4051              	.L920:
 4052 0070 5A06     		lsls	r2, r3, #25
 4053 0072 09D5     		bpl	.L922
 4054 0074 0168     		ldr	r1, [r0]
 4055 0076 046C     		ldr	r4, [r0, #64]
 4056 0078 4A68     		ldr	r2, [r1, #4]
 4057 007a 22F48012 		bic	r2, r2, #1048576
 4058 007e 2243     		orrs	r2, r2, r4
 4059 0080 B4F5801F 		cmp	r4, #1048576
 4060 0084 4A60     		str	r2, [r1, #4]
 4061 0086 0BD0     		beq	.L947
 4062              	.L922:
 4063 0088 1B06     		lsls	r3, r3, #24
 4064 008a 06D5     		bpl	.L914
 4065 008c 0268     		ldr	r2, [r0]
 4066 008e 816C     		ldr	r1, [r0, #72]
 4067 0090 5368     		ldr	r3, [r2, #4]
 4068 0092 23F40023 		bic	r3, r3, #524288
 4069 0096 0B43     		orrs	r3, r3, r1
 4070 0098 5360     		str	r3, [r2, #4]
 4071              	.L914:
 4072 009a 5DF8044B 		ldr	r4, [sp], #4
 4073 009e 7047     		bx	lr
 4074              	.L947:
 4075 00a0 4A68     		ldr	r2, [r1, #4]
 4076 00a2 446C     		ldr	r4, [r0, #68]
 4077 00a4 22F4C002 		bic	r2, r2, #6291456
 4078 00a8 2243     		orrs	r2, r2, r4
 4079 00aa 4A60     		str	r2, [r1, #4]
 4080 00ac ECE7     		b	.L922
 4082 00ae 00BF     		.section	.text.UART_CheckIdleState,"ax",%progbits
 4083              		.align	1
 4084              		.p2align 2,,3
 4085              		.global	UART_CheckIdleState
 4086              		.syntax unified
 4087              		.thumb
 4088              		.thumb_func
 4089              		.fpu fpv4-sp-d16
 4091              	UART_CheckIdleState:
 4092              		@ args = 0, pretend = 0, frame = 0
 4093              		@ frame_needed = 0, uses_anonymous_args = 0
 4094 0000 38B5     		push	{r3, r4, r5, lr}
 4095 0002 0023     		movs	r3, #0
ARM GAS  /tmp/ccQrb7vt.s 			page 71


 4096 0004 0446     		mov	r4, r0
 4097 0006 C0F88030 		str	r3, [r0, #128]
 4098 000a FFF7FEFF 		bl	HAL_GetTick
 4099 000e 2268     		ldr	r2, [r4]
 4100 0010 1368     		ldr	r3, [r2]
 4101 0012 1B07     		lsls	r3, r3, #28
 4102 0014 0546     		mov	r5, r0
 4103 0016 0CD4     		bmi	.L1007
 4104              	.L949:
 4105 0018 1368     		ldr	r3, [r2]
 4106 001a 5B07     		lsls	r3, r3, #29
 4107 001c 3AD4     		bmi	.L959
 4108              	.L960:
 4109 001e 2022     		movs	r2, #32
 4110 0020 0023     		movs	r3, #0
 4111 0022 A267     		str	r2, [r4, #120]
 4112 0024 1846     		mov	r0, r3
 4113 0026 E267     		str	r2, [r4, #124]
 4114 0028 2366     		str	r3, [r4, #96]
 4115              	.L953:
 4116 002a 0023     		movs	r3, #0
 4117 002c 84F87430 		strb	r3, [r4, #116]
 4118 0030 38BD     		pop	{r3, r4, r5, pc}
 4119              	.L1007:
 4120 0032 D369     		ldr	r3, [r2, #28]
 4121 0034 9802     		lsls	r0, r3, #10
 4122 0036 EFD4     		bmi	.L949
 4123 0038 09E0     		b	.L958
 4124              	.L950:
 4125 003a 1968     		ldr	r1, [r3]
 4126 003c 4907     		lsls	r1, r1, #29
 4127 003e 1A46     		mov	r2, r3
 4128 0040 02D5     		bpl	.L954
 4129 0042 D969     		ldr	r1, [r3, #28]
 4130 0044 0805     		lsls	r0, r1, #20
 4131 0046 4ED4     		bmi	.L1008
 4132              	.L954:
 4133 0048 DB69     		ldr	r3, [r3, #28]
 4134 004a 9902     		lsls	r1, r3, #10
 4135 004c E4D4     		bmi	.L949
 4136              	.L958:
 4137 004e FFF7FEFF 		bl	HAL_GetTick
 4138 0052 431B     		subs	r3, r0, r5
 4139 0054 B3F1007F 		cmp	r3, #33554432
 4140 0058 2368     		ldr	r3, [r4]
 4141 005a EED3     		bcc	.L950
 4142              	.L951:
 4143              		.syntax unified
 4144              	@ 1155 "Drivers/CMSIS/Include/cmsis_gcc.h" 1
 4145 005c 53E8002F 		ldrex r2, [r3]
 4146              	@ 0 "" 2
 4147              		.thumb
 4148              		.syntax unified
 4149 0060 22F4D072 		bic	r2, r2, #416
 4150              		.syntax unified
 4151              	@ 1206 "Drivers/CMSIS/Include/cmsis_gcc.h" 1
 4152 0064 43E80021 		strex r1, r2, [r3]
ARM GAS  /tmp/ccQrb7vt.s 			page 72


 4153              	@ 0 "" 2
 4154              		.thumb
 4155              		.syntax unified
 4156 0068 0029     		cmp	r1, #0
 4157 006a F7D1     		bne	.L951
 4158              	.L952:
 4159 006c 03F10802 		add	r2, r3, #8
 4160              		.syntax unified
 4161              	@ 1155 "Drivers/CMSIS/Include/cmsis_gcc.h" 1
 4162 0070 52E8002F 		ldrex r2, [r2]
 4163              	@ 0 "" 2
 4164              		.thumb
 4165              		.syntax unified
 4166 0074 22F00102 		bic	r2, r2, #1
 4167 0078 03F10800 		add	r0, r3, #8
 4168              		.syntax unified
 4169              	@ 1206 "Drivers/CMSIS/Include/cmsis_gcc.h" 1
 4170 007c 40E80021 		strex r1, r2, [r0]
 4171              	@ 0 "" 2
 4172              		.thumb
 4173              		.syntax unified
 4174 0080 0029     		cmp	r1, #0
 4175 0082 F3D1     		bne	.L952
 4176              	.L1005:
 4177 0084 2023     		movs	r3, #32
 4178 0086 A367     		str	r3, [r4, #120]
 4179 0088 E367     		str	r3, [r4, #124]
 4180 008a 0023     		movs	r3, #0
 4181 008c 84F87430 		strb	r3, [r4, #116]
 4182 0090 0320     		movs	r0, #3
 4183 0092 38BD     		pop	{r3, r4, r5, pc}
 4184              	.L959:
 4185 0094 D369     		ldr	r3, [r2, #28]
 4186 0096 5802     		lsls	r0, r3, #9
 4187 0098 C1D4     		bmi	.L960
 4188 009a 08E0     		b	.L968
 4189              	.L961:
 4190 009c 1A68     		ldr	r2, [r3]
 4191 009e 5107     		lsls	r1, r2, #29
 4192 00a0 02D5     		bpl	.L964
 4193 00a2 DA69     		ldr	r2, [r3, #28]
 4194 00a4 1205     		lsls	r2, r2, #20
 4195 00a6 3CD4     		bmi	.L1009
 4196              	.L964:
 4197 00a8 DB69     		ldr	r3, [r3, #28]
 4198 00aa 5B02     		lsls	r3, r3, #9
 4199 00ac B7D4     		bmi	.L960
 4200              	.L968:
 4201 00ae FFF7FEFF 		bl	HAL_GetTick
 4202 00b2 431B     		subs	r3, r0, r5
 4203 00b4 B3F1007F 		cmp	r3, #33554432
 4204 00b8 2368     		ldr	r3, [r4]
 4205 00ba EFD3     		bcc	.L961
 4206              	.L962:
 4207              		.syntax unified
 4208              	@ 1155 "Drivers/CMSIS/Include/cmsis_gcc.h" 1
 4209 00bc 53E8002F 		ldrex r2, [r3]
ARM GAS  /tmp/ccQrb7vt.s 			page 73


 4210              	@ 0 "" 2
 4211              		.thumb
 4212              		.syntax unified
 4213 00c0 22F4D072 		bic	r2, r2, #416
 4214              		.syntax unified
 4215              	@ 1206 "Drivers/CMSIS/Include/cmsis_gcc.h" 1
 4216 00c4 43E80021 		strex r1, r2, [r3]
 4217              	@ 0 "" 2
 4218              		.thumb
 4219              		.syntax unified
 4220 00c8 0029     		cmp	r1, #0
 4221 00ca F7D1     		bne	.L962
 4222              	.L963:
 4223 00cc 03F10802 		add	r2, r3, #8
 4224              		.syntax unified
 4225              	@ 1155 "Drivers/CMSIS/Include/cmsis_gcc.h" 1
 4226 00d0 52E8002F 		ldrex r2, [r2]
 4227              	@ 0 "" 2
 4228              		.thumb
 4229              		.syntax unified
 4230 00d4 22F00102 		bic	r2, r2, #1
 4231 00d8 03F10800 		add	r0, r3, #8
 4232              		.syntax unified
 4233              	@ 1206 "Drivers/CMSIS/Include/cmsis_gcc.h" 1
 4234 00dc 40E80021 		strex r1, r2, [r0]
 4235              	@ 0 "" 2
 4236              		.thumb
 4237              		.syntax unified
 4238 00e0 0029     		cmp	r1, #0
 4239 00e2 F3D1     		bne	.L963
 4240 00e4 CEE7     		b	.L1005
 4241              	.L1008:
 4242 00e6 4FF40062 		mov	r2, #2048
 4243 00ea 1A62     		str	r2, [r3, #32]
 4244              	.L1003:
 4245              		.syntax unified
 4246              	@ 1155 "Drivers/CMSIS/Include/cmsis_gcc.h" 1
 4247 00ec 53E8002F 		ldrex r2, [r3]
 4248              	@ 0 "" 2
 4249              		.thumb
 4250              		.syntax unified
 4251 00f0 22F4D072 		bic	r2, r2, #416
 4252              		.syntax unified
 4253              	@ 1206 "Drivers/CMSIS/Include/cmsis_gcc.h" 1
 4254 00f4 43E80021 		strex r1, r2, [r3]
 4255              	@ 0 "" 2
 4256              		.thumb
 4257              		.syntax unified
 4258 00f8 0029     		cmp	r1, #0
 4259 00fa F7D1     		bne	.L1003
 4260              	.L957:
 4261 00fc 03F10802 		add	r2, r3, #8
 4262              		.syntax unified
 4263              	@ 1155 "Drivers/CMSIS/Include/cmsis_gcc.h" 1
 4264 0100 52E8002F 		ldrex r2, [r2]
 4265              	@ 0 "" 2
 4266              		.thumb
ARM GAS  /tmp/ccQrb7vt.s 			page 74


 4267              		.syntax unified
 4268 0104 22F00102 		bic	r2, r2, #1
 4269 0108 03F10800 		add	r0, r3, #8
 4270              		.syntax unified
 4271              	@ 1206 "Drivers/CMSIS/Include/cmsis_gcc.h" 1
 4272 010c 40E80021 		strex r1, r2, [r0]
 4273              	@ 0 "" 2
 4274              		.thumb
 4275              		.syntax unified
 4276 0110 0029     		cmp	r1, #0
 4277 0112 F3D1     		bne	.L957
 4278              	.L1006:
 4279 0114 2023     		movs	r3, #32
 4280 0116 A367     		str	r3, [r4, #120]
 4281 0118 0320     		movs	r0, #3
 4282 011a E367     		str	r3, [r4, #124]
 4283 011c C4F88030 		str	r3, [r4, #128]
 4284 0120 83E7     		b	.L953
 4285              	.L1009:
 4286 0122 4FF40062 		mov	r2, #2048
 4287 0126 1A62     		str	r2, [r3, #32]
 4288              	.L1004:
 4289              		.syntax unified
 4290              	@ 1155 "Drivers/CMSIS/Include/cmsis_gcc.h" 1
 4291 0128 53E8002F 		ldrex r2, [r3]
 4292              	@ 0 "" 2
 4293              		.thumb
 4294              		.syntax unified
 4295 012c 22F4D072 		bic	r2, r2, #416
 4296              		.syntax unified
 4297              	@ 1206 "Drivers/CMSIS/Include/cmsis_gcc.h" 1
 4298 0130 43E80021 		strex r1, r2, [r3]
 4299              	@ 0 "" 2
 4300              		.thumb
 4301              		.syntax unified
 4302 0134 0029     		cmp	r1, #0
 4303 0136 F7D1     		bne	.L1004
 4304              	.L967:
 4305 0138 03F10802 		add	r2, r3, #8
 4306              		.syntax unified
 4307              	@ 1155 "Drivers/CMSIS/Include/cmsis_gcc.h" 1
 4308 013c 52E8002F 		ldrex r2, [r2]
 4309              	@ 0 "" 2
 4310              		.thumb
 4311              		.syntax unified
 4312 0140 22F00102 		bic	r2, r2, #1
 4313 0144 03F10800 		add	r0, r3, #8
 4314              		.syntax unified
 4315              	@ 1206 "Drivers/CMSIS/Include/cmsis_gcc.h" 1
 4316 0148 40E80021 		strex r1, r2, [r0]
 4317              	@ 0 "" 2
 4318              		.thumb
 4319              		.syntax unified
 4320 014c 0029     		cmp	r1, #0
 4321 014e F3D1     		bne	.L967
 4322 0150 E0E7     		b	.L1006
 4324 0152 00BF     		.section	.text.HAL_LIN_Init,"ax",%progbits
ARM GAS  /tmp/ccQrb7vt.s 			page 75


 4325              		.align	1
 4326              		.p2align 2,,3
 4327              		.global	HAL_LIN_Init
 4328              		.syntax unified
 4329              		.thumb
 4330              		.thumb_func
 4331              		.fpu fpv4-sp-d16
 4333              	HAL_LIN_Init:
 4334              		@ args = 0, pretend = 0, frame = 0
 4335              		@ frame_needed = 0, uses_anonymous_args = 0
 4336 0000 0028     		cmp	r0, #0
 4337 0002 3AD0     		beq	.L1026
 4338 0004 38B5     		push	{r3, r4, r5, lr}
 4339 0006 C369     		ldr	r3, [r0, #28]
 4340 0008 B3F5004F 		cmp	r3, #32768
 4341 000c 0446     		mov	r4, r0
 4342 000e 2DD0     		beq	.L1012
 4343 0010 8368     		ldr	r3, [r0, #8]
 4344 0012 5BBB     		cbnz	r3, .L1012
 4345 0014 836F     		ldr	r3, [r0, #120]
 4346 0016 0D46     		mov	r5, r1
 4347 0018 53B3     		cbz	r3, .L1029
 4348              	.L1014:
 4349 001a 2268     		ldr	r2, [r4]
 4350 001c 2423     		movs	r3, #36
 4351 001e A367     		str	r3, [r4, #120]
 4352 0020 1368     		ldr	r3, [r2]
 4353 0022 23F00103 		bic	r3, r3, #1
 4354 0026 2046     		mov	r0, r4
 4355 0028 1360     		str	r3, [r2]
 4356 002a FFF7FEFF 		bl	UART_SetConfig
 4357 002e 0128     		cmp	r0, #1
 4358 0030 1CD0     		beq	.L1012
 4359 0032 636A     		ldr	r3, [r4, #36]
 4360 0034 1BBB     		cbnz	r3, .L1030
 4361              	.L1015:
 4362 0036 2268     		ldr	r2, [r4]
 4363 0038 5368     		ldr	r3, [r2, #4]
 4364 003a 23F40063 		bic	r3, r3, #2048
 4365 003e 5360     		str	r3, [r2, #4]
 4366 0040 9368     		ldr	r3, [r2, #8]
 4367 0042 23F02A03 		bic	r3, r3, #42
 4368 0046 9360     		str	r3, [r2, #8]
 4369 0048 5368     		ldr	r3, [r2, #4]
 4370 004a 43F48043 		orr	r3, r3, #16384
 4371 004e 5360     		str	r3, [r2, #4]
 4372 0050 5368     		ldr	r3, [r2, #4]
 4373 0052 23F02003 		bic	r3, r3, #32
 4374 0056 2B43     		orrs	r3, r3, r5
 4375 0058 5360     		str	r3, [r2, #4]
 4376 005a 1368     		ldr	r3, [r2]
 4377 005c 43F00103 		orr	r3, r3, #1
 4378 0060 2046     		mov	r0, r4
 4379 0062 1360     		str	r3, [r2]
 4380 0064 BDE83840 		pop	{r3, r4, r5, lr}
 4381 0068 FFF7FEBF 		b	UART_CheckIdleState
 4382              	.L1012:
ARM GAS  /tmp/ccQrb7vt.s 			page 76


 4383 006c 0120     		movs	r0, #1
 4384 006e 38BD     		pop	{r3, r4, r5, pc}
 4385              	.L1029:
 4386 0070 80F87430 		strb	r3, [r0, #116]
 4387 0074 FFF7FEFF 		bl	HAL_UART_MspInit
 4388 0078 CFE7     		b	.L1014
 4389              	.L1026:
 4390 007a 0120     		movs	r0, #1
 4391 007c 7047     		bx	lr
 4392              	.L1030:
 4393 007e 2046     		mov	r0, r4
 4394 0080 FFF7FEFF 		bl	UART_AdvFeatureConfig
 4395 0084 D7E7     		b	.L1015
 4397              		.section	.text.UART_WaitOnFlagUntilTimeout,"ax",%progbits
 4398              		.align	1
 4399              		.p2align 2,,3
 4400              		.global	UART_WaitOnFlagUntilTimeout
 4401              		.syntax unified
 4402              		.thumb
 4403              		.thumb_func
 4404              		.fpu fpv4-sp-d16
 4406              	UART_WaitOnFlagUntilTimeout:
 4407              		@ args = 4, pretend = 0, frame = 0
 4408              		@ frame_needed = 0, uses_anonymous_args = 0
 4409 0000 2DE9F843 		push	{r3, r4, r5, r6, r7, r8, r9, lr}
 4410 0004 DDF82080 		ldr	r8, [sp, #32]
 4411 0008 0468     		ldr	r4, [r0]
 4412 000a 0746     		mov	r7, r0
 4413 000c 0E46     		mov	r6, r1
 4414 000e 1546     		mov	r5, r2
 4415 0010 9946     		mov	r9, r3
 4416              	.L1054:
 4417 0012 B8F1FF3F 		cmp	r8, #-1
 4418 0016 0AD1     		bne	.L1041
 4419              	.L1042:
 4420 0018 E369     		ldr	r3, [r4, #28]
 4421 001a 36EA0303 		bics	r3, r6, r3
 4422 001e 0CBF     		ite	eq
 4423 0020 0123     		moveq	r3, #1
 4424 0022 0023     		movne	r3, #0
 4425 0024 9D42     		cmp	r5, r3
 4426 0026 F7D0     		beq	.L1042
 4427              	.L1060:
 4428 0028 0020     		movs	r0, #0
 4429              	.L1037:
 4430 002a BDE8F883 		pop	{r3, r4, r5, r6, r7, r8, r9, pc}
 4431              	.L1041:
 4432 002e E269     		ldr	r2, [r4, #28]
 4433 0030 36EA0202 		bics	r2, r6, r2
 4434 0034 0CBF     		ite	eq
 4435 0036 0123     		moveq	r3, #1
 4436 0038 0023     		movne	r3, #0
 4437 003a AB42     		cmp	r3, r5
 4438 003c F4D1     		bne	.L1060
 4439 003e FFF7FEFF 		bl	HAL_GetTick
 4440 0042 A0EB0900 		sub	r0, r0, r9
 4441 0046 4045     		cmp	r0, r8
ARM GAS  /tmp/ccQrb7vt.s 			page 77


 4442 0048 31D8     		bhi	.L1061
 4443 004a 3C68     		ldr	r4, [r7]
 4444 004c 2246     		mov	r2, r4
 4445 004e B8F1000F 		cmp	r8, #0
 4446 0052 2DD0     		beq	.L1035
 4447 0054 2368     		ldr	r3, [r4]
 4448 0056 5807     		lsls	r0, r3, #29
 4449 0058 DBD5     		bpl	.L1054
 4450 005a E369     		ldr	r3, [r4, #28]
 4451 005c 1905     		lsls	r1, r3, #20
 4452 005e D8D5     		bpl	.L1054
 4453 0060 4FF40063 		mov	r3, #2048
 4454 0064 2362     		str	r3, [r4, #32]
 4455              		.syntax unified
 4456              	@ 1155 "Drivers/CMSIS/Include/cmsis_gcc.h" 1
 4457 0066 54E8003F 		ldrex r3, [r4]
 4458              	@ 0 "" 2
 4459              		.thumb
 4460              		.syntax unified
 4461 006a 23F4D073 		bic	r3, r3, #416
 4462              		.syntax unified
 4463              	@ 1206 "Drivers/CMSIS/Include/cmsis_gcc.h" 1
 4464 006e 44E80031 		strex r1, r3, [r4]
 4465              	@ 0 "" 2
 4466              		.thumb
 4467              		.syntax unified
 4468 0072 39B1     		cbz	r1, .L1040
 4469              	.L1039:
 4470              		.syntax unified
 4471              	@ 1155 "Drivers/CMSIS/Include/cmsis_gcc.h" 1
 4472 0074 52E8003F 		ldrex r3, [r2]
 4473              	@ 0 "" 2
 4474              		.thumb
 4475              		.syntax unified
 4476 0078 23F4D073 		bic	r3, r3, #416
 4477              		.syntax unified
 4478              	@ 1206 "Drivers/CMSIS/Include/cmsis_gcc.h" 1
 4479 007c 42E80031 		strex r1, r3, [r2]
 4480              	@ 0 "" 2
 4481              		.thumb
 4482              		.syntax unified
 4483 0080 0029     		cmp	r1, #0
 4484 0082 F7D1     		bne	.L1039
 4485              	.L1040:
 4486 0084 02F10803 		add	r3, r2, #8
 4487              		.syntax unified
 4488              	@ 1155 "Drivers/CMSIS/Include/cmsis_gcc.h" 1
 4489 0088 53E8003F 		ldrex r3, [r3]
 4490              	@ 0 "" 2
 4491              		.thumb
 4492              		.syntax unified
 4493 008c 23F00103 		bic	r3, r3, #1
 4494 0090 02F10800 		add	r0, r2, #8
 4495              		.syntax unified
 4496              	@ 1206 "Drivers/CMSIS/Include/cmsis_gcc.h" 1
 4497 0094 40E80031 		strex r1, r3, [r0]
 4498              	@ 0 "" 2
ARM GAS  /tmp/ccQrb7vt.s 			page 78


 4499              		.thumb
 4500              		.syntax unified
 4501 0098 0029     		cmp	r1, #0
 4502 009a F3D1     		bne	.L1040
 4503 009c 2023     		movs	r3, #32
 4504 009e BB67     		str	r3, [r7, #120]
 4505 00a0 87F87410 		strb	r1, [r7, #116]
 4506 00a4 FB67     		str	r3, [r7, #124]
 4507 00a6 0320     		movs	r0, #3
 4508 00a8 C7F88030 		str	r3, [r7, #128]
 4509 00ac BDE7     		b	.L1037
 4510              	.L1061:
 4511 00ae 3A68     		ldr	r2, [r7]
 4512              	.L1035:
 4513              		.syntax unified
 4514              	@ 1155 "Drivers/CMSIS/Include/cmsis_gcc.h" 1
 4515 00b0 52E8003F 		ldrex r3, [r2]
 4516              	@ 0 "" 2
 4517              		.thumb
 4518              		.syntax unified
 4519 00b4 23F4D073 		bic	r3, r3, #416
 4520              		.syntax unified
 4521              	@ 1206 "Drivers/CMSIS/Include/cmsis_gcc.h" 1
 4522 00b8 42E80031 		strex r1, r3, [r2]
 4523              	@ 0 "" 2
 4524              		.thumb
 4525              		.syntax unified
 4526 00bc 0029     		cmp	r1, #0
 4527 00be F7D1     		bne	.L1035
 4528              	.L1036:
 4529 00c0 02F10803 		add	r3, r2, #8
 4530              		.syntax unified
 4531              	@ 1155 "Drivers/CMSIS/Include/cmsis_gcc.h" 1
 4532 00c4 53E8003F 		ldrex r3, [r3]
 4533              	@ 0 "" 2
 4534              		.thumb
 4535              		.syntax unified
 4536 00c8 23F00103 		bic	r3, r3, #1
 4537 00cc 02F10800 		add	r0, r2, #8
 4538              		.syntax unified
 4539              	@ 1206 "Drivers/CMSIS/Include/cmsis_gcc.h" 1
 4540 00d0 40E80031 		strex r1, r3, [r0]
 4541              	@ 0 "" 2
 4542              		.thumb
 4543              		.syntax unified
 4544 00d4 0029     		cmp	r1, #0
 4545 00d6 F3D1     		bne	.L1036
 4546 00d8 2023     		movs	r3, #32
 4547 00da BB67     		str	r3, [r7, #120]
 4548 00dc 87F87410 		strb	r1, [r7, #116]
 4549 00e0 FB67     		str	r3, [r7, #124]
 4550 00e2 0320     		movs	r0, #3
 4551 00e4 A1E7     		b	.L1037
 4553 00e6 00BF     		.section	.text.HAL_UART_Transmit,"ax",%progbits
 4554              		.align	1
 4555              		.p2align 2,,3
 4556              		.global	HAL_UART_Transmit
ARM GAS  /tmp/ccQrb7vt.s 			page 79


 4557              		.syntax unified
 4558              		.thumb
 4559              		.thumb_func
 4560              		.fpu fpv4-sp-d16
 4562              	HAL_UART_Transmit:
 4563              		@ args = 0, pretend = 0, frame = 0
 4564              		@ frame_needed = 0, uses_anonymous_args = 0
 4565 0000 2DE9F043 		push	{r4, r5, r6, r7, r8, r9, lr}
 4566 0004 0546     		mov	r5, r0
 4567 0006 806F     		ldr	r0, [r0, #120]
 4568 0008 2028     		cmp	r0, #32
 4569 000a 83B0     		sub	sp, sp, #12
 4570 000c 40F0AA80 		bne	.L1084
 4571 0010 8946     		mov	r9, r1
 4572 0012 0029     		cmp	r1, #0
 4573 0014 47D0     		beq	.L1083
 4574 0016 1446     		mov	r4, r2
 4575 0018 002A     		cmp	r2, #0
 4576 001a 44D0     		beq	.L1083
 4577 001c 1E46     		mov	r6, r3
 4578 001e 95F87430 		ldrb	r3, [r5, #116]	@ zero_extendqisi2
 4579 0022 012B     		cmp	r3, #1
 4580 0024 00F09E80 		beq	.L1084
 4581 0028 0123     		movs	r3, #1
 4582 002a 85F87430 		strb	r3, [r5, #116]
 4583 002e 4FF00008 		mov	r8, #0
 4584 0032 2123     		movs	r3, #33
 4585 0034 C5F88080 		str	r8, [r5, #128]
 4586 0038 AB67     		str	r3, [r5, #120]
 4587 003a FFF7FEFF 		bl	HAL_GetTick
 4588 003e AB68     		ldr	r3, [r5, #8]
 4589 0040 A5F85040 		strh	r4, [r5, #80]	@ movhi
 4590 0044 B3F5805F 		cmp	r3, #4096
 4591 0048 A5F85240 		strh	r4, [r5, #82]	@ movhi
 4592 004c 0746     		mov	r7, r0
 4593 004e 00F08D80 		beq	.L1112
 4594              	.L1064:
 4595 0052 B5F85230 		ldrh	r3, [r5, #82]
 4596 0056 0022     		movs	r2, #0
 4597 0058 9BB2     		uxth	r3, r3
 4598 005a 85F87420 		strb	r2, [r5, #116]
 4599 005e B3B1     		cbz	r3, .L1065
 4600 0060 2C68     		ldr	r4, [r5]
 4601              	.L1102:
 4602 0062 711C     		adds	r1, r6, #1
 4603 0064 23D1     		bne	.L1075
 4604              	.L1076:
 4605 0066 E269     		ldr	r2, [r4, #28]
 4606 0068 1206     		lsls	r2, r2, #24
 4607 006a FCD5     		bpl	.L1076
 4608              	.L1077:
 4609 006c B9F1000F 		cmp	r9, #0
 4610 0070 73D0     		beq	.L1113
 4611 0072 19F8013B 		ldrb	r3, [r9], #1	@ zero_extendqisi2
 4612              	.L1111:
 4613 0076 2385     		strh	r3, [r4, #40]	@ movhi
 4614 0078 B5F85230 		ldrh	r3, [r5, #82]
ARM GAS  /tmp/ccQrb7vt.s 			page 80


 4615 007c 013B     		subs	r3, r3, #1
 4616 007e 9BB2     		uxth	r3, r3
 4617 0080 A5F85230 		strh	r3, [r5, #82]	@ movhi
 4618 0084 B5F85230 		ldrh	r3, [r5, #82]
 4619 0088 9BB2     		uxth	r3, r3
 4620 008a 002B     		cmp	r3, #0
 4621 008c E9D1     		bne	.L1102
 4622              	.L1065:
 4623 008e 0096     		str	r6, [sp]
 4624 0090 3B46     		mov	r3, r7
 4625 0092 0022     		movs	r2, #0
 4626 0094 4021     		movs	r1, #64
 4627 0096 2846     		mov	r0, r5
 4628 0098 FFF7FEFF 		bl	UART_WaitOnFlagUntilTimeout
 4629 009c 0028     		cmp	r0, #0
 4630 009e 6CD1     		bne	.L1087
 4631 00a0 2023     		movs	r3, #32
 4632 00a2 AB67     		str	r3, [r5, #120]
 4633 00a4 00E0     		b	.L1063
 4634              	.L1083:
 4635 00a6 0120     		movs	r0, #1
 4636              	.L1063:
 4637 00a8 03B0     		add	sp, sp, #12
 4638              		@ sp needed
 4639 00aa BDE8F083 		pop	{r4, r5, r6, r7, r8, r9, pc}
 4640              	.L1075:
 4641 00ae E369     		ldr	r3, [r4, #28]
 4642 00b0 1B06     		lsls	r3, r3, #24
 4643 00b2 DBD4     		bmi	.L1077
 4644 00b4 FFF7FEFF 		bl	HAL_GetTick
 4645 00b8 C01B     		subs	r0, r0, r7
 4646 00ba 8642     		cmp	r6, r0
 4647 00bc 2FD3     		bcc	.L1114
 4648 00be 2C68     		ldr	r4, [r5]
 4649 00c0 2346     		mov	r3, r4
 4650 00c2 6EB3     		cbz	r6, .L1069
 4651 00c4 2268     		ldr	r2, [r4]
 4652 00c6 5207     		lsls	r2, r2, #29
 4653 00c8 CBD5     		bpl	.L1102
 4654 00ca E269     		ldr	r2, [r4, #28]
 4655 00cc 1005     		lsls	r0, r2, #20
 4656 00ce C8D5     		bpl	.L1102
 4657 00d0 4FF40062 		mov	r2, #2048
 4658 00d4 2262     		str	r2, [r4, #32]
 4659              		.syntax unified
 4660              	@ 1155 "Drivers/CMSIS/Include/cmsis_gcc.h" 1
 4661 00d6 54E8002F 		ldrex r2, [r4]
 4662              	@ 0 "" 2
 4663              		.thumb
 4664              		.syntax unified
 4665 00da 22F4D072 		bic	r2, r2, #416
 4666              		.syntax unified
 4667              	@ 1206 "Drivers/CMSIS/Include/cmsis_gcc.h" 1
 4668 00de 44E80021 		strex r1, r2, [r4]
 4669              	@ 0 "" 2
 4670              		.thumb
 4671              		.syntax unified
ARM GAS  /tmp/ccQrb7vt.s 			page 81


 4672 00e2 39B1     		cbz	r1, .L1074
 4673              	.L1073:
 4674              		.syntax unified
 4675              	@ 1155 "Drivers/CMSIS/Include/cmsis_gcc.h" 1
 4676 00e4 53E8002F 		ldrex r2, [r3]
 4677              	@ 0 "" 2
 4678              		.thumb
 4679              		.syntax unified
 4680 00e8 22F4D072 		bic	r2, r2, #416
 4681              		.syntax unified
 4682              	@ 1206 "Drivers/CMSIS/Include/cmsis_gcc.h" 1
 4683 00ec 43E80021 		strex r1, r2, [r3]
 4684              	@ 0 "" 2
 4685              		.thumb
 4686              		.syntax unified
 4687 00f0 0029     		cmp	r1, #0
 4688 00f2 F7D1     		bne	.L1073
 4689              	.L1074:
 4690 00f4 03F10802 		add	r2, r3, #8
 4691              		.syntax unified
 4692              	@ 1155 "Drivers/CMSIS/Include/cmsis_gcc.h" 1
 4693 00f8 52E8002F 		ldrex r2, [r2]
 4694              	@ 0 "" 2
 4695              		.thumb
 4696              		.syntax unified
 4697 00fc 22F00102 		bic	r2, r2, #1
 4698 0100 03F10800 		add	r0, r3, #8
 4699              		.syntax unified
 4700              	@ 1206 "Drivers/CMSIS/Include/cmsis_gcc.h" 1
 4701 0104 40E80021 		strex r1, r2, [r0]
 4702              	@ 0 "" 2
 4703              		.thumb
 4704              		.syntax unified
 4705 0108 0029     		cmp	r1, #0
 4706 010a F3D1     		bne	.L1074
 4707 010c 2023     		movs	r3, #32
 4708 010e AB67     		str	r3, [r5, #120]
 4709 0110 85F87410 		strb	r1, [r5, #116]
 4710 0114 EB67     		str	r3, [r5, #124]
 4711 0116 0320     		movs	r0, #3
 4712 0118 C5F88030 		str	r3, [r5, #128]
 4713 011c C4E7     		b	.L1063
 4714              	.L1114:
 4715 011e 2B68     		ldr	r3, [r5]
 4716              	.L1069:
 4717              		.syntax unified
 4718              	@ 1155 "Drivers/CMSIS/Include/cmsis_gcc.h" 1
 4719 0120 53E8002F 		ldrex r2, [r3]
 4720              	@ 0 "" 2
 4721              		.thumb
 4722              		.syntax unified
 4723 0124 22F4D072 		bic	r2, r2, #416
 4724              		.syntax unified
 4725              	@ 1206 "Drivers/CMSIS/Include/cmsis_gcc.h" 1
 4726 0128 43E80021 		strex r1, r2, [r3]
 4727              	@ 0 "" 2
 4728              		.thumb
ARM GAS  /tmp/ccQrb7vt.s 			page 82


 4729              		.syntax unified
 4730 012c 0029     		cmp	r1, #0
 4731 012e F7D1     		bne	.L1069
 4732              	.L1070:
 4733 0130 03F10802 		add	r2, r3, #8
 4734              		.syntax unified
 4735              	@ 1155 "Drivers/CMSIS/Include/cmsis_gcc.h" 1
 4736 0134 52E8002F 		ldrex r2, [r2]
 4737              	@ 0 "" 2
 4738              		.thumb
 4739              		.syntax unified
 4740 0138 22F00102 		bic	r2, r2, #1
 4741 013c 03F10800 		add	r0, r3, #8
 4742              		.syntax unified
 4743              	@ 1206 "Drivers/CMSIS/Include/cmsis_gcc.h" 1
 4744 0140 40E80021 		strex r1, r2, [r0]
 4745              	@ 0 "" 2
 4746              		.thumb
 4747              		.syntax unified
 4748 0144 0029     		cmp	r1, #0
 4749 0146 F3D1     		bne	.L1070
 4750 0148 2023     		movs	r3, #32
 4751 014a 0320     		movs	r0, #3
 4752 014c AB67     		str	r3, [r5, #120]
 4753 014e 85F87410 		strb	r1, [r5, #116]
 4754 0152 EB67     		str	r3, [r5, #124]
 4755 0154 03B0     		add	sp, sp, #12
 4756              		@ sp needed
 4757 0156 BDE8F083 		pop	{r4, r5, r6, r7, r8, r9, pc}
 4758              	.L1113:
 4759 015a 38F8023B 		ldrh	r3, [r8], #2
 4760 015e C3F30803 		ubfx	r3, r3, #0, #9
 4761 0162 88E7     		b	.L1111
 4762              	.L1084:
 4763 0164 0220     		movs	r0, #2
 4764 0166 03B0     		add	sp, sp, #12
 4765              		@ sp needed
 4766 0168 BDE8F083 		pop	{r4, r5, r6, r7, r8, r9, pc}
 4767              	.L1112:
 4768 016c 2B69     		ldr	r3, [r5, #16]
 4769 016e 002B     		cmp	r3, #0
 4770 0170 7FF46FAF 		bne	.L1064
 4771 0174 C846     		mov	r8, r9
 4772 0176 9946     		mov	r9, r3
 4773 0178 6BE7     		b	.L1064
 4774              	.L1087:
 4775 017a 0320     		movs	r0, #3
 4776 017c 94E7     		b	.L1063
 4778 017e 00BF     		.section	.text.HAL_MultiProcessor_EnableMuteMode,"ax",%progbits
 4779              		.align	1
 4780              		.p2align 2,,3
 4781              		.global	HAL_MultiProcessor_EnableMuteMode
 4782              		.syntax unified
 4783              		.thumb
 4784              		.thumb_func
 4785              		.fpu fpv4-sp-d16
 4787              	HAL_MultiProcessor_EnableMuteMode:
ARM GAS  /tmp/ccQrb7vt.s 			page 83


 4788              		@ args = 0, pretend = 0, frame = 0
 4789              		@ frame_needed = 0, uses_anonymous_args = 0
 4790 0000 90F87430 		ldrb	r3, [r0, #116]	@ zero_extendqisi2
 4791 0004 012B     		cmp	r3, #1
 4792 0006 46D0     		beq	.L1123
 4793 0008 70B5     		push	{r4, r5, r6, lr}
 4794 000a 0121     		movs	r1, #1
 4795 000c 2423     		movs	r3, #36
 4796 000e 0268     		ldr	r2, [r0]
 4797 0010 80F87410 		strb	r1, [r0, #116]
 4798 0014 82B0     		sub	sp, sp, #8
 4799 0016 0546     		mov	r5, r0
 4800 0018 8367     		str	r3, [r0, #120]
 4801              	.L1117:
 4802              		.syntax unified
 4803              	@ 1155 "Drivers/CMSIS/Include/cmsis_gcc.h" 1
 4804 001a 52E8003F 		ldrex r3, [r2]
 4805              	@ 0 "" 2
 4806              		.thumb
 4807              		.syntax unified
 4808 001e 43F40053 		orr	r3, r3, #8192
 4809              		.syntax unified
 4810              	@ 1206 "Drivers/CMSIS/Include/cmsis_gcc.h" 1
 4811 0022 42E80034 		strex r4, r3, [r2]
 4812              	@ 0 "" 2
 4813              		.thumb
 4814              		.syntax unified
 4815 0026 002C     		cmp	r4, #0
 4816 0028 F7D1     		bne	.L1117
 4817 002a 2023     		movs	r3, #32
 4818 002c AB67     		str	r3, [r5, #120]
 4819 002e C5F88040 		str	r4, [r5, #128]
 4820 0032 FFF7FEFF 		bl	HAL_GetTick
 4821 0036 2B68     		ldr	r3, [r5]
 4822 0038 1A68     		ldr	r2, [r3]
 4823 003a 1207     		lsls	r2, r2, #28
 4824 003c 0646     		mov	r6, r0
 4825 003e 0CD4     		bmi	.L1132
 4826 0040 1B68     		ldr	r3, [r3]
 4827 0042 5B07     		lsls	r3, r3, #29
 4828 0044 18D4     		bmi	.L1120
 4829              	.L1122:
 4830 0046 0023     		movs	r3, #0
 4831 0048 2022     		movs	r2, #32
 4832 004a 1846     		mov	r0, r3
 4833 004c AA67     		str	r2, [r5, #120]
 4834 004e 85F87430 		strb	r3, [r5, #116]
 4835 0052 EA67     		str	r2, [r5, #124]
 4836 0054 2B66     		str	r3, [r5, #96]
 4837 0056 02B0     		add	sp, sp, #8
 4838              		@ sp needed
 4839 0058 70BD     		pop	{r4, r5, r6, pc}
 4840              	.L1132:
 4841 005a 6FF07E43 		mvn	r3, #-33554432
 4842 005e 0093     		str	r3, [sp]
 4843 0060 2246     		mov	r2, r4
 4844 0062 0346     		mov	r3, r0
ARM GAS  /tmp/ccQrb7vt.s 			page 84


 4845 0064 4FF40011 		mov	r1, #2097152
 4846 0068 2846     		mov	r0, r5
 4847 006a FFF7FEFF 		bl	UART_WaitOnFlagUntilTimeout
 4848 006e 78B9     		cbnz	r0, .L1121
 4849 0070 2B68     		ldr	r3, [r5]
 4850 0072 1B68     		ldr	r3, [r3]
 4851 0074 5B07     		lsls	r3, r3, #29
 4852 0076 E6D5     		bpl	.L1122
 4853              	.L1120:
 4854 0078 6FF07E43 		mvn	r3, #-33554432
 4855 007c 0093     		str	r3, [sp]
 4856 007e 0022     		movs	r2, #0
 4857 0080 3346     		mov	r3, r6
 4858 0082 4FF48001 		mov	r1, #4194304
 4859 0086 2846     		mov	r0, r5
 4860 0088 FFF7FEFF 		bl	UART_WaitOnFlagUntilTimeout
 4861 008c 0028     		cmp	r0, #0
 4862 008e DAD0     		beq	.L1122
 4863              	.L1121:
 4864 0090 0320     		movs	r0, #3
 4865 0092 02B0     		add	sp, sp, #8
 4866              		@ sp needed
 4867 0094 70BD     		pop	{r4, r5, r6, pc}
 4868              	.L1123:
 4869 0096 0220     		movs	r0, #2
 4870 0098 7047     		bx	lr
 4872 009a 00BF     		.section	.text.HAL_MultiProcessor_DisableMuteMode,"ax",%progbits
 4873              		.align	1
 4874              		.p2align 2,,3
 4875              		.global	HAL_MultiProcessor_DisableMuteMode
 4876              		.syntax unified
 4877              		.thumb
 4878              		.thumb_func
 4879              		.fpu fpv4-sp-d16
 4881              	HAL_MultiProcessor_DisableMuteMode:
 4882              		@ args = 0, pretend = 0, frame = 0
 4883              		@ frame_needed = 0, uses_anonymous_args = 0
 4884 0000 90F87430 		ldrb	r3, [r0, #116]	@ zero_extendqisi2
 4885 0004 012B     		cmp	r3, #1
 4886 0006 46D0     		beq	.L1141
 4887 0008 70B5     		push	{r4, r5, r6, lr}
 4888 000a 0121     		movs	r1, #1
 4889 000c 2423     		movs	r3, #36
 4890 000e 0268     		ldr	r2, [r0]
 4891 0010 80F87410 		strb	r1, [r0, #116]
 4892 0014 82B0     		sub	sp, sp, #8
 4893 0016 0546     		mov	r5, r0
 4894 0018 8367     		str	r3, [r0, #120]
 4895              	.L1135:
 4896              		.syntax unified
 4897              	@ 1155 "Drivers/CMSIS/Include/cmsis_gcc.h" 1
 4898 001a 52E8003F 		ldrex r3, [r2]
 4899              	@ 0 "" 2
 4900              		.thumb
 4901              		.syntax unified
 4902 001e 23F40053 		bic	r3, r3, #8192
 4903              		.syntax unified
ARM GAS  /tmp/ccQrb7vt.s 			page 85


 4904              	@ 1206 "Drivers/CMSIS/Include/cmsis_gcc.h" 1
 4905 0022 42E80034 		strex r4, r3, [r2]
 4906              	@ 0 "" 2
 4907              		.thumb
 4908              		.syntax unified
 4909 0026 002C     		cmp	r4, #0
 4910 0028 F7D1     		bne	.L1135
 4911 002a 2023     		movs	r3, #32
 4912 002c AB67     		str	r3, [r5, #120]
 4913 002e C5F88040 		str	r4, [r5, #128]
 4914 0032 FFF7FEFF 		bl	HAL_GetTick
 4915 0036 2B68     		ldr	r3, [r5]
 4916 0038 1A68     		ldr	r2, [r3]
 4917 003a 1207     		lsls	r2, r2, #28
 4918 003c 0646     		mov	r6, r0
 4919 003e 0CD4     		bmi	.L1150
 4920 0040 1B68     		ldr	r3, [r3]
 4921 0042 5B07     		lsls	r3, r3, #29
 4922 0044 18D4     		bmi	.L1138
 4923              	.L1140:
 4924 0046 0023     		movs	r3, #0
 4925 0048 2022     		movs	r2, #32
 4926 004a 1846     		mov	r0, r3
 4927 004c AA67     		str	r2, [r5, #120]
 4928 004e 85F87430 		strb	r3, [r5, #116]
 4929 0052 EA67     		str	r2, [r5, #124]
 4930 0054 2B66     		str	r3, [r5, #96]
 4931 0056 02B0     		add	sp, sp, #8
 4932              		@ sp needed
 4933 0058 70BD     		pop	{r4, r5, r6, pc}
 4934              	.L1150:
 4935 005a 6FF07E43 		mvn	r3, #-33554432
 4936 005e 0093     		str	r3, [sp]
 4937 0060 2246     		mov	r2, r4
 4938 0062 0346     		mov	r3, r0
 4939 0064 4FF40011 		mov	r1, #2097152
 4940 0068 2846     		mov	r0, r5
 4941 006a FFF7FEFF 		bl	UART_WaitOnFlagUntilTimeout
 4942 006e 78B9     		cbnz	r0, .L1139
 4943 0070 2B68     		ldr	r3, [r5]
 4944 0072 1B68     		ldr	r3, [r3]
 4945 0074 5B07     		lsls	r3, r3, #29
 4946 0076 E6D5     		bpl	.L1140
 4947              	.L1138:
 4948 0078 6FF07E43 		mvn	r3, #-33554432
 4949 007c 0093     		str	r3, [sp]
 4950 007e 0022     		movs	r2, #0
 4951 0080 3346     		mov	r3, r6
 4952 0082 4FF48001 		mov	r1, #4194304
 4953 0086 2846     		mov	r0, r5
 4954 0088 FFF7FEFF 		bl	UART_WaitOnFlagUntilTimeout
 4955 008c 0028     		cmp	r0, #0
 4956 008e DAD0     		beq	.L1140
 4957              	.L1139:
 4958 0090 0320     		movs	r0, #3
 4959 0092 02B0     		add	sp, sp, #8
 4960              		@ sp needed
ARM GAS  /tmp/ccQrb7vt.s 			page 86


 4961 0094 70BD     		pop	{r4, r5, r6, pc}
 4962              	.L1141:
 4963 0096 0220     		movs	r0, #2
 4964 0098 7047     		bx	lr
 4966 009a 00BF     		.section	.text.HAL_UART_Init,"ax",%progbits
 4967              		.align	1
 4968              		.p2align 2,,3
 4969              		.global	HAL_UART_Init
 4970              		.syntax unified
 4971              		.thumb
 4972              		.thumb_func
 4973              		.fpu fpv4-sp-d16
 4975              	HAL_UART_Init:
 4976              		@ args = 0, pretend = 0, frame = 0
 4977              		@ frame_needed = 0, uses_anonymous_args = 0
 4978 0000 0028     		cmp	r0, #0
 4979 0002 62D0     		beq	.L1174
 4980 0004 70B5     		push	{r4, r5, r6, lr}
 4981 0006 836F     		ldr	r3, [r0, #120]
 4982 0008 82B0     		sub	sp, sp, #8
 4983 000a 0446     		mov	r4, r0
 4984 000c 002B     		cmp	r3, #0
 4985 000e 49D0     		beq	.L1175
 4986              	.L1154:
 4987 0010 2268     		ldr	r2, [r4]
 4988 0012 2423     		movs	r3, #36
 4989 0014 A367     		str	r3, [r4, #120]
 4990 0016 1368     		ldr	r3, [r2]
 4991 0018 23F00103 		bic	r3, r3, #1
 4992 001c 2046     		mov	r0, r4
 4993 001e 1360     		str	r3, [r2]
 4994 0020 FFF7FEFF 		bl	UART_SetConfig
 4995 0024 0128     		cmp	r0, #1
 4996 0026 3AD0     		beq	.L1155
 4997 0028 636A     		ldr	r3, [r4, #36]
 4998 002a 002B     		cmp	r3, #0
 4999 002c 33D1     		bne	.L1176
 5000              	.L1156:
 5001 002e 2368     		ldr	r3, [r4]
 5002 0030 5968     		ldr	r1, [r3, #4]
 5003 0032 21F49041 		bic	r1, r1, #18432
 5004 0036 5960     		str	r1, [r3, #4]
 5005 0038 9968     		ldr	r1, [r3, #8]
 5006 003a 21F02A01 		bic	r1, r1, #42
 5007 003e 9960     		str	r1, [r3, #8]
 5008 0040 1968     		ldr	r1, [r3]
 5009 0042 0025     		movs	r5, #0
 5010 0044 41F00101 		orr	r1, r1, #1
 5011 0048 1960     		str	r1, [r3]
 5012 004a C4F88050 		str	r5, [r4, #128]
 5013 004e FFF7FEFF 		bl	HAL_GetTick
 5014 0052 2368     		ldr	r3, [r4]
 5015 0054 1A68     		ldr	r2, [r3]
 5016 0056 1207     		lsls	r2, r2, #28
 5017 0058 0646     		mov	r6, r0
 5018 005a 0CD4     		bmi	.L1177
 5019 005c 1B68     		ldr	r3, [r3]
ARM GAS  /tmp/ccQrb7vt.s 			page 87


 5020 005e 5B07     		lsls	r3, r3, #29
 5021 0060 25D4     		bmi	.L1159
 5022              	.L1161:
 5023 0062 0023     		movs	r3, #0
 5024 0064 2022     		movs	r2, #32
 5025 0066 A267     		str	r2, [r4, #120]
 5026 0068 84F87430 		strb	r3, [r4, #116]
 5027 006c E267     		str	r2, [r4, #124]
 5028 006e 1846     		mov	r0, r3
 5029 0070 2366     		str	r3, [r4, #96]
 5030              	.L1153:
 5031 0072 02B0     		add	sp, sp, #8
 5032              		@ sp needed
 5033 0074 70BD     		pop	{r4, r5, r6, pc}
 5034              	.L1177:
 5035 0076 6FF07E43 		mvn	r3, #-33554432
 5036 007a 0093     		str	r3, [sp]
 5037 007c 2A46     		mov	r2, r5
 5038 007e 0346     		mov	r3, r0
 5039 0080 4FF40011 		mov	r1, #2097152
 5040 0084 2046     		mov	r0, r4
 5041 0086 FFF7FEFF 		bl	UART_WaitOnFlagUntilTimeout
 5042 008a E0B9     		cbnz	r0, .L1160
 5043 008c 2368     		ldr	r3, [r4]
 5044 008e 1B68     		ldr	r3, [r3]
 5045 0090 5B07     		lsls	r3, r3, #29
 5046 0092 0CD4     		bmi	.L1159
 5047 0094 E5E7     		b	.L1161
 5048              	.L1176:
 5049 0096 2046     		mov	r0, r4
 5050 0098 FFF7FEFF 		bl	UART_AdvFeatureConfig
 5051 009c C7E7     		b	.L1156
 5052              	.L1155:
 5053 009e 0120     		movs	r0, #1
 5054 00a0 02B0     		add	sp, sp, #8
 5055              		@ sp needed
 5056 00a2 70BD     		pop	{r4, r5, r6, pc}
 5057              	.L1175:
 5058 00a4 80F87430 		strb	r3, [r0, #116]
 5059 00a8 FFF7FEFF 		bl	HAL_UART_MspInit
 5060 00ac B0E7     		b	.L1154
 5061              	.L1159:
 5062 00ae 6FF07E43 		mvn	r3, #-33554432
 5063 00b2 0093     		str	r3, [sp]
 5064 00b4 0022     		movs	r2, #0
 5065 00b6 3346     		mov	r3, r6
 5066 00b8 4FF48001 		mov	r1, #4194304
 5067 00bc 2046     		mov	r0, r4
 5068 00be FFF7FEFF 		bl	UART_WaitOnFlagUntilTimeout
 5069 00c2 0028     		cmp	r0, #0
 5070 00c4 CDD0     		beq	.L1161
 5071              	.L1160:
 5072 00c6 0320     		movs	r0, #3
 5073 00c8 D3E7     		b	.L1153
 5074              	.L1174:
 5075 00ca 0120     		movs	r0, #1
 5076 00cc 7047     		bx	lr
ARM GAS  /tmp/ccQrb7vt.s 			page 88


 5078 00ce 00BF     		.section	.text.HAL_HalfDuplex_Init,"ax",%progbits
 5079              		.align	1
 5080              		.p2align 2,,3
 5081              		.global	HAL_HalfDuplex_Init
 5082              		.syntax unified
 5083              		.thumb
 5084              		.thumb_func
 5085              		.fpu fpv4-sp-d16
 5087              	HAL_HalfDuplex_Init:
 5088              		@ args = 0, pretend = 0, frame = 0
 5089              		@ frame_needed = 0, uses_anonymous_args = 0
 5090 0000 0028     		cmp	r0, #0
 5091 0002 66D0     		beq	.L1201
 5092 0004 70B5     		push	{r4, r5, r6, lr}
 5093 0006 836F     		ldr	r3, [r0, #120]
 5094 0008 82B0     		sub	sp, sp, #8
 5095 000a 0446     		mov	r4, r0
 5096 000c 002B     		cmp	r3, #0
 5097 000e 4DD0     		beq	.L1202
 5098              	.L1181:
 5099 0010 2268     		ldr	r2, [r4]
 5100 0012 2423     		movs	r3, #36
 5101 0014 A367     		str	r3, [r4, #120]
 5102 0016 1368     		ldr	r3, [r2]
 5103 0018 23F00103 		bic	r3, r3, #1
 5104 001c 2046     		mov	r0, r4
 5105 001e 1360     		str	r3, [r2]
 5106 0020 FFF7FEFF 		bl	UART_SetConfig
 5107 0024 0128     		cmp	r0, #1
 5108 0026 3ED0     		beq	.L1182
 5109 0028 636A     		ldr	r3, [r4, #36]
 5110 002a 002B     		cmp	r3, #0
 5111 002c 37D1     		bne	.L1203
 5112              	.L1183:
 5113 002e 2368     		ldr	r3, [r4]
 5114 0030 5968     		ldr	r1, [r3, #4]
 5115 0032 21F49041 		bic	r1, r1, #18432
 5116 0036 5960     		str	r1, [r3, #4]
 5117 0038 9968     		ldr	r1, [r3, #8]
 5118 003a 21F02201 		bic	r1, r1, #34
 5119 003e 9960     		str	r1, [r3, #8]
 5120 0040 9968     		ldr	r1, [r3, #8]
 5121 0042 41F00801 		orr	r1, r1, #8
 5122 0046 9960     		str	r1, [r3, #8]
 5123 0048 1968     		ldr	r1, [r3]
 5124 004a 0025     		movs	r5, #0
 5125 004c 41F00101 		orr	r1, r1, #1
 5126 0050 1960     		str	r1, [r3]
 5127 0052 C4F88050 		str	r5, [r4, #128]
 5128 0056 FFF7FEFF 		bl	HAL_GetTick
 5129 005a 2368     		ldr	r3, [r4]
 5130 005c 1A68     		ldr	r2, [r3]
 5131 005e 1207     		lsls	r2, r2, #28
 5132 0060 0646     		mov	r6, r0
 5133 0062 0CD4     		bmi	.L1204
 5134 0064 1B68     		ldr	r3, [r3]
 5135 0066 5B07     		lsls	r3, r3, #29
ARM GAS  /tmp/ccQrb7vt.s 			page 89


 5136 0068 25D4     		bmi	.L1186
 5137              	.L1188:
 5138 006a 0023     		movs	r3, #0
 5139 006c 2022     		movs	r2, #32
 5140 006e A267     		str	r2, [r4, #120]
 5141 0070 84F87430 		strb	r3, [r4, #116]
 5142 0074 E267     		str	r2, [r4, #124]
 5143 0076 1846     		mov	r0, r3
 5144 0078 2366     		str	r3, [r4, #96]
 5145              	.L1180:
 5146 007a 02B0     		add	sp, sp, #8
 5147              		@ sp needed
 5148 007c 70BD     		pop	{r4, r5, r6, pc}
 5149              	.L1204:
 5150 007e 6FF07E43 		mvn	r3, #-33554432
 5151 0082 0093     		str	r3, [sp]
 5152 0084 2A46     		mov	r2, r5
 5153 0086 0346     		mov	r3, r0
 5154 0088 4FF40011 		mov	r1, #2097152
 5155 008c 2046     		mov	r0, r4
 5156 008e FFF7FEFF 		bl	UART_WaitOnFlagUntilTimeout
 5157 0092 E0B9     		cbnz	r0, .L1187
 5158 0094 2368     		ldr	r3, [r4]
 5159 0096 1B68     		ldr	r3, [r3]
 5160 0098 5B07     		lsls	r3, r3, #29
 5161 009a 0CD4     		bmi	.L1186
 5162 009c E5E7     		b	.L1188
 5163              	.L1203:
 5164 009e 2046     		mov	r0, r4
 5165 00a0 FFF7FEFF 		bl	UART_AdvFeatureConfig
 5166 00a4 C3E7     		b	.L1183
 5167              	.L1182:
 5168 00a6 0120     		movs	r0, #1
 5169 00a8 02B0     		add	sp, sp, #8
 5170              		@ sp needed
 5171 00aa 70BD     		pop	{r4, r5, r6, pc}
 5172              	.L1202:
 5173 00ac 80F87430 		strb	r3, [r0, #116]
 5174 00b0 FFF7FEFF 		bl	HAL_UART_MspInit
 5175 00b4 ACE7     		b	.L1181
 5176              	.L1186:
 5177 00b6 6FF07E43 		mvn	r3, #-33554432
 5178 00ba 0093     		str	r3, [sp]
 5179 00bc 0022     		movs	r2, #0
 5180 00be 3346     		mov	r3, r6
 5181 00c0 4FF48001 		mov	r1, #4194304
 5182 00c4 2046     		mov	r0, r4
 5183 00c6 FFF7FEFF 		bl	UART_WaitOnFlagUntilTimeout
 5184 00ca 0028     		cmp	r0, #0
 5185 00cc CDD0     		beq	.L1188
 5186              	.L1187:
 5187 00ce 0320     		movs	r0, #3
 5188 00d0 D3E7     		b	.L1180
 5189              	.L1201:
 5190 00d2 0120     		movs	r0, #1
 5191 00d4 7047     		bx	lr
 5193 00d6 00BF     		.section	.text.HAL_MultiProcessor_Init,"ax",%progbits
ARM GAS  /tmp/ccQrb7vt.s 			page 90


 5194              		.align	1
 5195              		.p2align 2,,3
 5196              		.global	HAL_MultiProcessor_Init
 5197              		.syntax unified
 5198              		.thumb
 5199              		.thumb_func
 5200              		.fpu fpv4-sp-d16
 5202              	HAL_MultiProcessor_Init:
 5203              		@ args = 0, pretend = 0, frame = 0
 5204              		@ frame_needed = 0, uses_anonymous_args = 0
 5205 0000 0028     		cmp	r0, #0
 5206 0002 73D0     		beq	.L1229
 5207 0004 70B5     		push	{r4, r5, r6, lr}
 5208 0006 836F     		ldr	r3, [r0, #120]
 5209 0008 82B0     		sub	sp, sp, #8
 5210 000a 0E46     		mov	r6, r1
 5211 000c 1546     		mov	r5, r2
 5212 000e 0446     		mov	r4, r0
 5213 0010 002B     		cmp	r3, #0
 5214 0012 58D0     		beq	.L1230
 5215              	.L1208:
 5216 0014 2268     		ldr	r2, [r4]
 5217 0016 2423     		movs	r3, #36
 5218 0018 A367     		str	r3, [r4, #120]
 5219 001a 1368     		ldr	r3, [r2]
 5220 001c 23F00103 		bic	r3, r3, #1
 5221 0020 1360     		str	r3, [r2]
 5222 0022 2046     		mov	r0, r4
 5223 0024 FFF7FEFF 		bl	UART_SetConfig
 5224 0028 0128     		cmp	r0, #1
 5225 002a 49D0     		beq	.L1209
 5226 002c 636A     		ldr	r3, [r4, #36]
 5227 002e 002B     		cmp	r3, #0
 5228 0030 32D1     		bne	.L1231
 5229              	.L1210:
 5230 0032 2368     		ldr	r3, [r4]
 5231 0034 5A68     		ldr	r2, [r3, #4]
 5232 0036 22F49042 		bic	r2, r2, #18432
 5233 003a 5A60     		str	r2, [r3, #4]
 5234 003c 9A68     		ldr	r2, [r3, #8]
 5235 003e B5F5006F 		cmp	r5, #2048
 5236 0042 22F02A02 		bic	r2, r2, #42
 5237 0046 9A60     		str	r2, [r3, #8]
 5238 0048 1FD0     		beq	.L1232
 5239              	.L1211:
 5240 004a 1968     		ldr	r1, [r3]
 5241 004c 21F40061 		bic	r1, r1, #2048
 5242 0050 2943     		orrs	r1, r1, r5
 5243 0052 1960     		str	r1, [r3]
 5244 0054 1968     		ldr	r1, [r3]
 5245 0056 0026     		movs	r6, #0
 5246 0058 41F00101 		orr	r1, r1, #1
 5247 005c 1960     		str	r1, [r3]
 5248 005e C4F88060 		str	r6, [r4, #128]
 5249 0062 FFF7FEFF 		bl	HAL_GetTick
 5250 0066 2368     		ldr	r3, [r4]
 5251 0068 1A68     		ldr	r2, [r3]
ARM GAS  /tmp/ccQrb7vt.s 			page 91


 5252 006a 1207     		lsls	r2, r2, #28
 5253 006c 0546     		mov	r5, r0
 5254 006e 17D4     		bmi	.L1233
 5255 0070 1B68     		ldr	r3, [r3]
 5256 0072 5B07     		lsls	r3, r3, #29
 5257 0074 2CD4     		bmi	.L1214
 5258              	.L1216:
 5259 0076 0023     		movs	r3, #0
 5260 0078 2022     		movs	r2, #32
 5261 007a A267     		str	r2, [r4, #120]
 5262 007c 84F87430 		strb	r3, [r4, #116]
 5263 0080 E267     		str	r2, [r4, #124]
 5264 0082 1846     		mov	r0, r3
 5265 0084 2366     		str	r3, [r4, #96]
 5266              	.L1207:
 5267 0086 02B0     		add	sp, sp, #8
 5268              		@ sp needed
 5269 0088 70BD     		pop	{r4, r5, r6, pc}
 5270              	.L1232:
 5271 008a 5A68     		ldr	r2, [r3, #4]
 5272 008c 22F07F42 		bic	r2, r2, #-16777216
 5273 0090 42EA0662 		orr	r2, r2, r6, lsl #24
 5274 0094 5A60     		str	r2, [r3, #4]
 5275 0096 D8E7     		b	.L1211
 5276              	.L1231:
 5277 0098 2046     		mov	r0, r4
 5278 009a FFF7FEFF 		bl	UART_AdvFeatureConfig
 5279 009e C8E7     		b	.L1210
 5280              	.L1233:
 5281 00a0 6FF07E43 		mvn	r3, #-33554432
 5282 00a4 0093     		str	r3, [sp]
 5283 00a6 3246     		mov	r2, r6
 5284 00a8 0346     		mov	r3, r0
 5285 00aa 4FF40011 		mov	r1, #2097152
 5286 00ae 2046     		mov	r0, r4
 5287 00b0 FFF7FEFF 		bl	UART_WaitOnFlagUntilTimeout
 5288 00b4 C0B9     		cbnz	r0, .L1215
 5289 00b6 2368     		ldr	r3, [r4]
 5290 00b8 1B68     		ldr	r3, [r3]
 5291 00ba 5B07     		lsls	r3, r3, #29
 5292 00bc 08D4     		bmi	.L1214
 5293 00be DAE7     		b	.L1216
 5294              	.L1209:
 5295 00c0 0120     		movs	r0, #1
 5296 00c2 02B0     		add	sp, sp, #8
 5297              		@ sp needed
 5298 00c4 70BD     		pop	{r4, r5, r6, pc}
 5299              	.L1230:
 5300 00c6 80F87430 		strb	r3, [r0, #116]
 5301 00ca FFF7FEFF 		bl	HAL_UART_MspInit
 5302 00ce A1E7     		b	.L1208
 5303              	.L1214:
 5304 00d0 6FF07E43 		mvn	r3, #-33554432
 5305 00d4 0093     		str	r3, [sp]
 5306 00d6 0022     		movs	r2, #0
 5307 00d8 2B46     		mov	r3, r5
 5308 00da 4FF48001 		mov	r1, #4194304
ARM GAS  /tmp/ccQrb7vt.s 			page 92


 5309 00de 2046     		mov	r0, r4
 5310 00e0 FFF7FEFF 		bl	UART_WaitOnFlagUntilTimeout
 5311 00e4 0028     		cmp	r0, #0
 5312 00e6 C6D0     		beq	.L1216
 5313              	.L1215:
 5314 00e8 0320     		movs	r0, #3
 5315 00ea CCE7     		b	.L1207
 5316              	.L1229:
 5317 00ec 0120     		movs	r0, #1
 5318 00ee 7047     		bx	lr
 5320              		.section	.text.UART_Start_Receive_IT,"ax",%progbits
 5321              		.align	1
 5322              		.p2align 2,,3
 5323              		.global	UART_Start_Receive_IT
 5324              		.syntax unified
 5325              		.thumb
 5326              		.thumb_func
 5327              		.fpu fpv4-sp-d16
 5329              	UART_Start_Receive_IT:
 5330              		@ args = 0, pretend = 0, frame = 0
 5331              		@ frame_needed = 0, uses_anonymous_args = 0
 5332              		@ link register save eliminated.
 5333 0000 10B4     		push	{r4}
 5334 0002 8468     		ldr	r4, [r0, #8]
 5335 0004 4165     		str	r1, [r0, #84]
 5336 0006 0023     		movs	r3, #0
 5337 0008 B4F5805F 		cmp	r4, #4096
 5338 000c A0F85820 		strh	r2, [r0, #88]	@ movhi
 5339 0010 A0F85A20 		strh	r2, [r0, #90]	@ movhi
 5340 0014 4366     		str	r3, [r0, #100]
 5341 0016 4ED0     		beq	.L1261
 5342 0018 74BB     		cbnz	r4, .L1237
 5343 001a 0369     		ldr	r3, [r0, #16]
 5344 001c 002B     		cmp	r3, #0
 5345 001e 14BF     		ite	ne
 5346 0020 7F23     		movne	r3, #127
 5347 0022 FF23     		moveq	r3, #255
 5348              	.L1236:
 5349 0024 0024     		movs	r4, #0
 5350 0026 2221     		movs	r1, #34
 5351 0028 0268     		ldr	r2, [r0]
 5352 002a C0F88040 		str	r4, [r0, #128]
 5353 002e A0F85C30 		strh	r3, [r0, #92]	@ movhi
 5354 0032 C167     		str	r1, [r0, #124]
 5355              	.L1238:
 5356 0034 02F10803 		add	r3, r2, #8
 5357              		.syntax unified
 5358              	@ 1155 "Drivers/CMSIS/Include/cmsis_gcc.h" 1
 5359 0038 53E8003F 		ldrex r3, [r3]
 5360              	@ 0 "" 2
 5361              		.thumb
 5362              		.syntax unified
 5363 003c 43F00103 		orr	r3, r3, #1
 5364 0040 02F10804 		add	r4, r2, #8
 5365              		.syntax unified
 5366              	@ 1206 "Drivers/CMSIS/Include/cmsis_gcc.h" 1
 5367 0044 44E80031 		strex r1, r3, [r4]
ARM GAS  /tmp/ccQrb7vt.s 			page 93


 5368              	@ 0 "" 2
 5369              		.thumb
 5370              		.syntax unified
 5371 0048 0029     		cmp	r1, #0
 5372 004a F3D1     		bne	.L1238
 5373 004c 8468     		ldr	r4, [r0, #8]
 5374 004e 0369     		ldr	r3, [r0, #16]
 5375 0050 B4F5805F 		cmp	r4, #4096
 5376 0054 19D0     		beq	.L1262
 5377 0056 1E4C     		ldr	r4, .L1264
 5378 0058 4466     		str	r4, [r0, #100]
 5379 005a 80F87410 		strb	r1, [r0, #116]
 5380 005e CBB1     		cbz	r3, .L1244
 5381              	.L1243:
 5382              		.syntax unified
 5383              	@ 1155 "Drivers/CMSIS/Include/cmsis_gcc.h" 1
 5384 0060 52E8003F 		ldrex r3, [r2]
 5385              	@ 0 "" 2
 5386              		.thumb
 5387              		.syntax unified
 5388 0064 43F49073 		orr	r3, r3, #288
 5389              		.syntax unified
 5390              	@ 1206 "Drivers/CMSIS/Include/cmsis_gcc.h" 1
 5391 0068 42E80031 		strex r1, r3, [r2]
 5392              	@ 0 "" 2
 5393              		.thumb
 5394              		.syntax unified
 5395 006c 0029     		cmp	r1, #0
 5396 006e F7D1     		bne	.L1243
 5397              	.L1258:
 5398 0070 0020     		movs	r0, #0
 5399 0072 5DF8044B 		ldr	r4, [sp], #4
 5400 0076 7047     		bx	lr
 5401              	.L1237:
 5402 0078 B4F1805F 		cmp	r4, #268435456
 5403 007c D2D1     		bne	.L1236
 5404 007e 0369     		ldr	r3, [r0, #16]
 5405 0080 002B     		cmp	r3, #0
 5406 0082 0CBF     		ite	eq
 5407 0084 7F23     		moveq	r3, #127
 5408 0086 3F23     		movne	r3, #63
 5409 0088 CCE7     		b	.L1236
 5410              	.L1262:
 5411 008a DBB9     		cbnz	r3, .L1263
 5412 008c 1149     		ldr	r1, .L1264+4
 5413 008e 4166     		str	r1, [r0, #100]
 5414 0090 80F87430 		strb	r3, [r0, #116]
 5415              	.L1244:
 5416              		.syntax unified
 5417              	@ 1155 "Drivers/CMSIS/Include/cmsis_gcc.h" 1
 5418 0094 52E8003F 		ldrex r3, [r2]
 5419              	@ 0 "" 2
 5420              		.thumb
 5421              		.syntax unified
 5422 0098 43F02003 		orr	r3, r3, #32
 5423              		.syntax unified
 5424              	@ 1206 "Drivers/CMSIS/Include/cmsis_gcc.h" 1
ARM GAS  /tmp/ccQrb7vt.s 			page 94


 5425 009c 42E80031 		strex r1, r3, [r2]
 5426              	@ 0 "" 2
 5427              		.thumb
 5428              		.syntax unified
 5429 00a0 0029     		cmp	r1, #0
 5430 00a2 E5D0     		beq	.L1258
 5431              		.syntax unified
 5432              	@ 1155 "Drivers/CMSIS/Include/cmsis_gcc.h" 1
 5433 00a4 52E8003F 		ldrex r3, [r2]
 5434              	@ 0 "" 2
 5435              		.thumb
 5436              		.syntax unified
 5437 00a8 43F02003 		orr	r3, r3, #32
 5438              		.syntax unified
 5439              	@ 1206 "Drivers/CMSIS/Include/cmsis_gcc.h" 1
 5440 00ac 42E80031 		strex r1, r3, [r2]
 5441              	@ 0 "" 2
 5442              		.thumb
 5443              		.syntax unified
 5444 00b0 0029     		cmp	r1, #0
 5445 00b2 EFD1     		bne	.L1244
 5446 00b4 DCE7     		b	.L1258
 5447              	.L1261:
 5448 00b6 0269     		ldr	r2, [r0, #16]
 5449 00b8 002A     		cmp	r2, #0
 5450 00ba 40F2FF13 		movw	r3, #511
 5451 00be 18BF     		it	ne
 5452 00c0 FF23     		movne	r3, #255
 5453 00c2 AFE7     		b	.L1236
 5454              	.L1263:
 5455 00c4 024B     		ldr	r3, .L1264
 5456 00c6 4366     		str	r3, [r0, #100]
 5457 00c8 80F87410 		strb	r1, [r0, #116]
 5458 00cc C8E7     		b	.L1243
 5459              	.L1265:
 5460 00ce 00BF     		.align	2
 5461              	.L1264:
 5462 00d0 00000000 		.word	UART_RxISR_8BIT
 5463 00d4 00000000 		.word	UART_RxISR_16BIT
 5465              		.section	.text.UART_Start_Receive_DMA,"ax",%progbits
 5466              		.align	1
 5467              		.p2align 2,,3
 5468              		.global	UART_Start_Receive_DMA
 5469              		.syntax unified
 5470              		.thumb
 5471              		.thumb_func
 5472              		.fpu fpv4-sp-d16
 5474              	UART_Start_Receive_DMA:
 5475              		@ args = 0, pretend = 0, frame = 0
 5476              		@ frame_needed = 0, uses_anonymous_args = 0
 5477 0000 70B5     		push	{r4, r5, r6, lr}
 5478 0002 2223     		movs	r3, #34
 5479 0004 0026     		movs	r6, #0
 5480 0006 0546     		mov	r5, r0
 5481 0008 C0F88060 		str	r6, [r0, #128]
 5482 000c 4165     		str	r1, [r0, #84]
 5483 000e A0F85820 		strh	r2, [r0, #88]	@ movhi
ARM GAS  /tmp/ccQrb7vt.s 			page 95


 5484 0012 C367     		str	r3, [r0, #124]
 5485 0014 006F     		ldr	r0, [r0, #112]
 5486 0016 2C68     		ldr	r4, [r5]
 5487 0018 70B1     		cbz	r0, .L1267
 5488 001a 1346     		mov	r3, r2
 5489 001c 0A46     		mov	r2, r1
 5490 001e 04F12401 		add	r1, r4, #36
 5491 0022 1D4C     		ldr	r4, .L1284
 5492 0024 C462     		str	r4, [r0, #44]
 5493 0026 1D4C     		ldr	r4, .L1284+4
 5494 0028 0463     		str	r4, [r0, #48]
 5495 002a 1D4C     		ldr	r4, .L1284+8
 5496 002c 8663     		str	r6, [r0, #56]
 5497 002e 4463     		str	r4, [r0, #52]
 5498 0030 FFF7FEFF 		bl	HAL_DMA_Start_IT
 5499 0034 30BB     		cbnz	r0, .L1282
 5500 0036 2C68     		ldr	r4, [r5]
 5501              	.L1267:
 5502 0038 2B69     		ldr	r3, [r5, #16]
 5503 003a 0022     		movs	r2, #0
 5504 003c 85F87420 		strb	r2, [r5, #116]
 5505 0040 3BB1     		cbz	r3, .L1270
 5506              	.L1269:
 5507              		.syntax unified
 5508              	@ 1155 "Drivers/CMSIS/Include/cmsis_gcc.h" 1
 5509 0042 54E8003F 		ldrex r3, [r4]
 5510              	@ 0 "" 2
 5511              		.thumb
 5512              		.syntax unified
 5513 0046 43F48073 		orr	r3, r3, #256
 5514              		.syntax unified
 5515              	@ 1206 "Drivers/CMSIS/Include/cmsis_gcc.h" 1
 5516 004a 44E80032 		strex r2, r3, [r4]
 5517              	@ 0 "" 2
 5518              		.thumb
 5519              		.syntax unified
 5520 004e 002A     		cmp	r2, #0
 5521 0050 F7D1     		bne	.L1269
 5522              	.L1270:
 5523 0052 04F10803 		add	r3, r4, #8
 5524              		.syntax unified
 5525              	@ 1155 "Drivers/CMSIS/Include/cmsis_gcc.h" 1
 5526 0056 53E8003F 		ldrex r3, [r3]
 5527              	@ 0 "" 2
 5528              		.thumb
 5529              		.syntax unified
 5530 005a 43F00103 		orr	r3, r3, #1
 5531 005e 04F10801 		add	r1, r4, #8
 5532              		.syntax unified
 5533              	@ 1206 "Drivers/CMSIS/Include/cmsis_gcc.h" 1
 5534 0062 41E80032 		strex r2, r3, [r1]
 5535              	@ 0 "" 2
 5536              		.thumb
 5537              		.syntax unified
 5538 0066 002A     		cmp	r2, #0
 5539 0068 F3D1     		bne	.L1270
 5540              	.L1272:
ARM GAS  /tmp/ccQrb7vt.s 			page 96


 5541 006a 04F10803 		add	r3, r4, #8
 5542              		.syntax unified
 5543              	@ 1155 "Drivers/CMSIS/Include/cmsis_gcc.h" 1
 5544 006e 53E8003F 		ldrex r3, [r3]
 5545              	@ 0 "" 2
 5546              		.thumb
 5547              		.syntax unified
 5548 0072 43F04003 		orr	r3, r3, #64
 5549 0076 04F10802 		add	r2, r4, #8
 5550              		.syntax unified
 5551              	@ 1206 "Drivers/CMSIS/Include/cmsis_gcc.h" 1
 5552 007a 42E80030 		strex r0, r3, [r2]
 5553              	@ 0 "" 2
 5554              		.thumb
 5555              		.syntax unified
 5556 007e 0028     		cmp	r0, #0
 5557 0080 F3D1     		bne	.L1272
 5558 0082 70BD     		pop	{r4, r5, r6, pc}
 5559              	.L1282:
 5560 0084 1022     		movs	r2, #16
 5561 0086 2023     		movs	r3, #32
 5562 0088 85F87460 		strb	r6, [r5, #116]
 5563 008c C5F88020 		str	r2, [r5, #128]
 5564 0090 0120     		movs	r0, #1
 5565 0092 EB67     		str	r3, [r5, #124]
 5566 0094 70BD     		pop	{r4, r5, r6, pc}
 5567              	.L1285:
 5568 0096 00BF     		.align	2
 5569              	.L1284:
 5570 0098 00000000 		.word	UART_DMAReceiveCplt
 5571 009c 00000000 		.word	UART_DMARxHalfCplt
 5572 00a0 00000000 		.word	UART_DMAError
 5574              		.section	.text.HAL_UART_Receive_DMA,"ax",%progbits
 5575              		.align	1
 5576              		.p2align 2,,3
 5577              		.global	HAL_UART_Receive_DMA
 5578              		.syntax unified
 5579              		.thumb
 5580              		.thumb_func
 5581              		.fpu fpv4-sp-d16
 5583              	HAL_UART_Receive_DMA:
 5584              		@ args = 0, pretend = 0, frame = 0
 5585              		@ frame_needed = 0, uses_anonymous_args = 0
 5586              		@ link register save eliminated.
 5587 0000 C36F     		ldr	r3, [r0, #124]
 5588 0002 202B     		cmp	r3, #32
 5589 0004 20D1     		bne	.L1294
 5590 0006 E9B1     		cbz	r1, .L1293
 5591 0008 E2B1     		cbz	r2, .L1293
 5592 000a 90F87430 		ldrb	r3, [r0, #116]	@ zero_extendqisi2
 5593 000e 012B     		cmp	r3, #1
 5594 0010 1AD0     		beq	.L1294
 5595 0012 30B4     		push	{r4, r5}
 5596 0014 0D4B     		ldr	r3, .L1304
 5597 0016 0468     		ldr	r4, [r0]
 5598 0018 0125     		movs	r5, #1
 5599 001a 80F87450 		strb	r5, [r0, #116]
ARM GAS  /tmp/ccQrb7vt.s 			page 97


 5600 001e 9C42     		cmp	r4, r3
 5601 0020 4FF00005 		mov	r5, #0
 5602 0024 0566     		str	r5, [r0, #96]
 5603 0026 0AD0     		beq	.L1288
 5604 0028 6368     		ldr	r3, [r4, #4]
 5605 002a 1B02     		lsls	r3, r3, #8
 5606 002c 07D5     		bpl	.L1288
 5607              	.L1303:
 5608              		.syntax unified
 5609              	@ 1155 "Drivers/CMSIS/Include/cmsis_gcc.h" 1
 5610 002e 54E8003F 		ldrex r3, [r4]
 5611              	@ 0 "" 2
 5612              		.thumb
 5613              		.syntax unified
 5614 0032 43F08063 		orr	r3, r3, #67108864
 5615              		.syntax unified
 5616              	@ 1206 "Drivers/CMSIS/Include/cmsis_gcc.h" 1
 5617 0036 44E80035 		strex r5, r3, [r4]
 5618              	@ 0 "" 2
 5619              		.thumb
 5620              		.syntax unified
 5621 003a 002D     		cmp	r5, #0
 5622 003c F7D1     		bne	.L1303
 5623              	.L1288:
 5624 003e 30BC     		pop	{r4, r5}
 5625 0040 FFF7FEBF 		b	UART_Start_Receive_DMA
 5626              	.L1293:
 5627 0044 0120     		movs	r0, #1
 5628 0046 7047     		bx	lr
 5629              	.L1294:
 5630 0048 0220     		movs	r0, #2
 5631 004a 7047     		bx	lr
 5632              	.L1305:
 5633              		.align	2
 5634              	.L1304:
 5635 004c 00800040 		.word	1073774592
 5637              		.section	.rodata.CSWTCH.53,"a"
 5638              		.align	2
 5639              		.set	.LANCHOR0,. + 0
 5642              	CSWTCH.53:
 5643 0000 04       		.byte	4
 5644 0001 02       		.byte	2
 5645 0002 08       		.byte	8
 5646              		.section	.rodata.CSWTCH.54,"a"
 5647              		.align	2
 5648              		.set	.LANCHOR1,. + 0
 5651              	CSWTCH.54:
 5652 0000 00       		.byte	0
 5653 0001 10       		.byte	16
 5654 0002 10       		.byte	16
 5655 0003 10       		.byte	16
 5656 0004 04       		.byte	4
 5657 0005 10       		.byte	16
 5658 0006 10       		.byte	16
 5659 0007 10       		.byte	16
 5660 0008 02       		.byte	2
 5661 0009 10       		.byte	16
ARM GAS  /tmp/ccQrb7vt.s 			page 98


 5662 000a 10       		.byte	16
 5663 000b 10       		.byte	16
 5664 000c 08       		.byte	8
 5665              		.ident	"GCC: (Arch Repository) 11.2.0"
ARM GAS  /tmp/ccQrb7vt.s 			page 99

