ARM GAS  /tmp/ccyGcoIQ.s 			page 1


   1              		.cpu cortex-m4
   2              		.eabi_attribute 27, 1
   3              		.eabi_attribute 28, 1
   4              		.eabi_attribute 20, 1
   5              		.eabi_attribute 21, 1
   6              		.eabi_attribute 23, 3
   7              		.eabi_attribute 24, 1
   8              		.eabi_attribute 25, 1
   9              		.eabi_attribute 26, 1
  10              		.eabi_attribute 30, 2
  11              		.eabi_attribute 34, 1
  12              		.eabi_attribute 18, 4
  13              		.file	"stm32l4xx_hal_rcc_ex.c"
  14              		.text
  15              		.section	.text.RCCEx_GetSAIxPeriphCLKFreq,"ax",%progbits
  16              		.align	1
  17              		.p2align 2,,3
  18              		.arch armv7e-m
  19              		.syntax unified
  20              		.thumb
  21              		.thumb_func
  22              		.fpu fpv4-sp-d16
  24              	RCCEx_GetSAIxPeriphCLKFreq:
  25              		@ args = 0, pretend = 0, frame = 0
  26              		@ frame_needed = 0, uses_anonymous_args = 0
  27              		@ link register save eliminated.
  28 0000 B0F5006F 		cmp	r0, #2048
  29 0004 10B4     		push	{r4}
  30 0006 2CD0     		beq	.L56
  31 0008 B0F5805F 		cmp	r0, #4096
  32 000c 0CD0     		beq	.L57
  33              	.L5:
  34 000e 314B     		ldr	r3, .L59
  35 0010 1868     		ldr	r0, [r3]
  36 0012 10F00060 		ands	r0, r0, #134217728
  37 0016 4CD0     		beq	.L1
  38 0018 1869     		ldr	r0, [r3, #16]
  39 001a 10F48030 		ands	r0, r0, #65536
  40 001e 48D0     		beq	.L1
  41 0020 D868     		ldr	r0, [r3, #12]
  42 0022 1A69     		ldr	r2, [r3, #16]
  43 0024 1C69     		ldr	r4, [r3, #16]
  44 0026 33E0     		b	.L54
  45              	.L57:
  46 0028 2A4B     		ldr	r3, .L59
  47 002a D3F88830 		ldr	r3, [r3, #136]
  48 002e 03F04073 		and	r3, r3, #50331648
  49 0032 B3F1407F 		cmp	r3, #50331648
  50 0036 3FD0     		beq	.L17
  51 0038 B3F1007F 		cmp	r3, #33554432
  52 003c 1CD0     		beq	.L7
  53 003e 002B     		cmp	r3, #0
  54 0040 E5D0     		beq	.L5
  55 0042 B3F1807F 		cmp	r3, #16777216
  56 0046 40D1     		bne	.L20
  57              	.L13:
  58 0048 224B     		ldr	r3, .L59
ARM GAS  /tmp/ccyGcoIQ.s 			page 2


  59 004a 1868     		ldr	r0, [r3]
  60 004c 10F00050 		ands	r0, r0, #536870912
  61 0050 2FD0     		beq	.L1
  62 0052 5869     		ldr	r0, [r3, #20]
  63 0054 10F48030 		ands	r0, r0, #65536
  64 0058 2BD0     		beq	.L1
  65 005a D868     		ldr	r0, [r3, #12]
  66 005c 5A69     		ldr	r2, [r3, #20]
  67 005e 5C69     		ldr	r4, [r3, #20]
  68 0060 16E0     		b	.L54
  69              	.L56:
  70 0062 1C4B     		ldr	r3, .L59
  71 0064 D3F88830 		ldr	r3, [r3, #136]
  72 0068 03F44003 		and	r3, r3, #12582912
  73 006c B3F5400F 		cmp	r3, #12582912
  74 0070 22D0     		beq	.L17
  75 0072 B3F5000F 		cmp	r3, #8388608
  76 0076 23D1     		bne	.L58
  77              	.L7:
  78 0078 164B     		ldr	r3, .L59
  79 007a 1868     		ldr	r0, [r3]
  80 007c 10F00070 		ands	r0, r0, #33554432
  81 0080 17D0     		beq	.L1
  82 0082 D868     		ldr	r0, [r3, #12]
  83 0084 10F48030 		ands	r0, r0, #65536
  84 0088 13D0     		beq	.L1
  85 008a D868     		ldr	r0, [r3, #12]
  86 008c DA68     		ldr	r2, [r3, #12]
  87 008e DC68     		ldr	r4, [r3, #12]
  88              	.L54:
  89 0090 C2F30623 		ubfx	r3, r2, #8, #7
  90 0094 14F4003F 		tst	r4, #131072
  91 0098 C0F30210 		ubfx	r0, r0, #4, #3
  92 009c 00F10100 		add	r0, r0, #1
  93 00a0 14BF     		ite	ne
  94 00a2 1122     		movne	r2, #17
  95 00a4 0722     		moveq	r2, #7
  96 00a6 B1FBF0F1 		udiv	r1, r1, r0
  97 00aa 03FB01F0 		mul	r0, r3, r1
  98 00ae B0FBF2F0 		udiv	r0, r0, r2
  99              	.L1:
 100 00b2 5DF8044B 		ldr	r4, [sp], #4
 101 00b6 7047     		bx	lr
 102              	.L17:
 103 00b8 0748     		ldr	r0, .L59+4
 104 00ba 5DF8044B 		ldr	r4, [sp], #4
 105 00be 7047     		bx	lr
 106              	.L58:
 107 00c0 002B     		cmp	r3, #0
 108 00c2 A4D0     		beq	.L5
 109 00c4 B3F5800F 		cmp	r3, #4194304
 110 00c8 BED0     		beq	.L13
 111              	.L20:
 112 00ca 0020     		movs	r0, #0
 113 00cc 5DF8044B 		ldr	r4, [sp], #4
 114 00d0 7047     		bx	lr
 115              	.L60:
ARM GAS  /tmp/ccyGcoIQ.s 			page 3


 116 00d2 00BF     		.align	2
 117              	.L59:
 118 00d4 00100240 		.word	1073876992
 119 00d8 68FF1F00 		.word	2097000
 121              		.section	.text.RCCEx_PLLSAI1_Config,"ax",%progbits
 122              		.align	1
 123              		.p2align 2,,3
 124              		.syntax unified
 125              		.thumb
 126              		.thumb_func
 127              		.fpu fpv4-sp-d16
 129              	RCCEx_PLLSAI1_Config:
 130              		@ args = 0, pretend = 0, frame = 0
 131              		@ frame_needed = 0, uses_anonymous_args = 0
 132 0000 454A     		ldr	r2, .L95
 133 0002 F8B5     		push	{r3, r4, r5, r6, r7, lr}
 134 0004 D568     		ldr	r5, [r2, #12]
 135 0006 0F46     		mov	r7, r1
 136 0008 A907     		lsls	r1, r5, #30
 137 000a 0446     		mov	r4, r0
 138 000c 0068     		ldr	r0, [r0]
 139 000e 06D0     		beq	.L62
 140 0010 D168     		ldr	r1, [r2, #12]
 141 0012 01F00301 		and	r1, r1, #3
 142 0016 8142     		cmp	r1, r0
 143 0018 4CD0     		beq	.L92
 144              	.L85:
 145 001a 0120     		movs	r0, #1
 146              	.L87:
 147 001c F8BD     		pop	{r3, r4, r5, r6, r7, pc}
 148              	.L62:
 149 001e 0228     		cmp	r0, #2
 150 0020 59D0     		beq	.L65
 151 0022 0328     		cmp	r0, #3
 152 0024 50D0     		beq	.L66
 153 0026 0128     		cmp	r0, #1
 154 0028 F7D1     		bne	.L85
 155 002a 1268     		ldr	r2, [r2]
 156 002c 9307     		lsls	r3, r2, #30
 157 002e F5D5     		bpl	.L87
 158              	.L67:
 159 0030 3949     		ldr	r1, .L95
 160 0032 CA68     		ldr	r2, [r1, #12]
 161 0034 22F07302 		bic	r2, r2, #115
 162 0038 42EA0003 		orr	r3, r2, r0
 163 003c 6268     		ldr	r2, [r4, #4]
 164 003e 013A     		subs	r2, r2, #1
 165 0040 43EA0213 		orr	r3, r3, r2, lsl #4
 166 0044 CB60     		str	r3, [r1, #12]
 167              	.L64:
 168 0046 344D     		ldr	r5, .L95
 169 0048 2B68     		ldr	r3, [r5]
 170 004a 23F08063 		bic	r3, r3, #67108864
 171 004e 2B60     		str	r3, [r5]
 172 0050 FFF7FEFF 		bl	HAL_GetTick
 173 0054 0646     		mov	r6, r0
 174 0056 04E0     		b	.L68
ARM GAS  /tmp/ccyGcoIQ.s 			page 4


 175              	.L69:
 176 0058 FFF7FEFF 		bl	HAL_GetTick
 177 005c 831B     		subs	r3, r0, r6
 178 005e 022B     		cmp	r3, #2
 179 0060 3DD8     		bhi	.L74
 180              	.L68:
 181 0062 2B68     		ldr	r3, [r5]
 182 0064 1A01     		lsls	r2, r3, #4
 183 0066 F7D4     		bmi	.L69
 184 0068 A368     		ldr	r3, [r4, #8]
 185 006a 1A02     		lsls	r2, r3, #8
 186 006c 002F     		cmp	r7, #0
 187 006e 38D1     		bne	.L93
 188 0070 2B69     		ldr	r3, [r5, #16]
 189 0072 E168     		ldr	r1, [r4, #12]
 190 0074 23F41F33 		bic	r3, r3, #162816
 191 0078 23F44073 		bic	r3, r3, #768
 192 007c 0909     		lsrs	r1, r1, #4
 193 007e 1343     		orrs	r3, r3, r2
 194 0080 43EA4143 		orr	r3, r3, r1, lsl #17
 195 0084 2B61     		str	r3, [r5, #16]
 196              	.L71:
 197 0086 244D     		ldr	r5, .L95
 198 0088 2B68     		ldr	r3, [r5]
 199 008a 43F08063 		orr	r3, r3, #67108864
 200 008e 2B60     		str	r3, [r5]
 201 0090 FFF7FEFF 		bl	HAL_GetTick
 202 0094 0646     		mov	r6, r0
 203 0096 04E0     		b	.L73
 204              	.L75:
 205 0098 FFF7FEFF 		bl	HAL_GetTick
 206 009c 831B     		subs	r3, r0, r6
 207 009e 022B     		cmp	r3, #2
 208 00a0 1DD8     		bhi	.L74
 209              	.L73:
 210 00a2 2B68     		ldr	r3, [r5]
 211 00a4 1B01     		lsls	r3, r3, #4
 212 00a6 F7D5     		bpl	.L75
 213 00a8 2B69     		ldr	r3, [r5, #16]
 214 00aa A269     		ldr	r2, [r4, #24]
 215 00ac 1343     		orrs	r3, r3, r2
 216 00ae 0020     		movs	r0, #0
 217 00b0 2B61     		str	r3, [r5, #16]
 218 00b2 F8BD     		pop	{r3, r4, r5, r6, r7, pc}
 219              	.L92:
 220 00b4 0029     		cmp	r1, #0
 221 00b6 B0D0     		beq	.L85
 222 00b8 D368     		ldr	r3, [r2, #12]
 223 00ba 6268     		ldr	r2, [r4, #4]
 224 00bc C3F30213 		ubfx	r3, r3, #4, #3
 225 00c0 0133     		adds	r3, r3, #1
 226 00c2 9342     		cmp	r3, r2
 227 00c4 A9D1     		bne	.L85
 228 00c6 BEE7     		b	.L64
 229              	.L66:
 230 00c8 1168     		ldr	r1, [r2]
 231 00ca 8D03     		lsls	r5, r1, #14
ARM GAS  /tmp/ccyGcoIQ.s 			page 5


 232 00cc B0D4     		bmi	.L67
 233 00ce 1268     		ldr	r2, [r2]
 234 00d0 5103     		lsls	r1, r2, #13
 235 00d2 A2D5     		bpl	.L85
 236 00d4 ACE7     		b	.L67
 237              	.L65:
 238 00d6 1268     		ldr	r2, [r2]
 239 00d8 5605     		lsls	r6, r2, #21
 240 00da 9ED5     		bpl	.L85
 241 00dc A8E7     		b	.L67
 242              	.L74:
 243 00de 0320     		movs	r0, #3
 244 00e0 F8BD     		pop	{r3, r4, r5, r6, r7, pc}
 245              	.L93:
 246 00e2 012F     		cmp	r7, #1
 247 00e4 2B69     		ldr	r3, [r5, #16]
 248 00e6 0BD0     		beq	.L94
 249 00e8 6169     		ldr	r1, [r4, #20]
 250 00ea 23F0C063 		bic	r3, r3, #100663296
 251 00ee 4908     		lsrs	r1, r1, #1
 252 00f0 23F4FE43 		bic	r3, r3, #32512
 253 00f4 0139     		subs	r1, r1, #1
 254 00f6 1343     		orrs	r3, r3, r2
 255 00f8 43EA4163 		orr	r3, r3, r1, lsl #25
 256 00fc 2B61     		str	r3, [r5, #16]
 257 00fe C2E7     		b	.L71
 258              	.L94:
 259 0100 2169     		ldr	r1, [r4, #16]
 260 0102 23F4C003 		bic	r3, r3, #6291456
 261 0106 4908     		lsrs	r1, r1, #1
 262 0108 23F4FE43 		bic	r3, r3, #32512
 263 010c 0139     		subs	r1, r1, #1
 264 010e 1343     		orrs	r3, r3, r2
 265 0110 43EA4153 		orr	r3, r3, r1, lsl #21
 266 0114 2B61     		str	r3, [r5, #16]
 267 0116 B6E7     		b	.L71
 268              	.L96:
 269              		.align	2
 270              	.L95:
 271 0118 00100240 		.word	1073876992
 273              		.section	.text.RCCEx_PLLSAI2_Config,"ax",%progbits
 274              		.align	1
 275              		.p2align 2,,3
 276              		.syntax unified
 277              		.thumb
 278              		.thumb_func
 279              		.fpu fpv4-sp-d16
 281              	RCCEx_PLLSAI2_Config:
 282              		@ args = 0, pretend = 0, frame = 0
 283              		@ frame_needed = 0, uses_anonymous_args = 0
 284 0000 3E4A     		ldr	r2, .L129
 285 0002 F8B5     		push	{r3, r4, r5, r6, r7, lr}
 286 0004 D568     		ldr	r5, [r2, #12]
 287 0006 0F46     		mov	r7, r1
 288 0008 A907     		lsls	r1, r5, #30
 289 000a 0446     		mov	r4, r0
 290 000c 0068     		ldr	r0, [r0]
ARM GAS  /tmp/ccyGcoIQ.s 			page 6


 291 000e 06D0     		beq	.L98
 292 0010 D168     		ldr	r1, [r2, #12]
 293 0012 01F00301 		and	r1, r1, #3
 294 0016 8142     		cmp	r1, r0
 295 0018 4CD0     		beq	.L127
 296              	.L120:
 297 001a 0120     		movs	r0, #1
 298              	.L122:
 299 001c F8BD     		pop	{r3, r4, r5, r6, r7, pc}
 300              	.L98:
 301 001e 0228     		cmp	r0, #2
 302 0020 59D0     		beq	.L101
 303 0022 0328     		cmp	r0, #3
 304 0024 50D0     		beq	.L102
 305 0026 0128     		cmp	r0, #1
 306 0028 F7D1     		bne	.L120
 307 002a 1268     		ldr	r2, [r2]
 308 002c 9307     		lsls	r3, r2, #30
 309 002e F5D5     		bpl	.L122
 310              	.L103:
 311 0030 3249     		ldr	r1, .L129
 312 0032 CA68     		ldr	r2, [r1, #12]
 313 0034 22F07302 		bic	r2, r2, #115
 314 0038 42EA0003 		orr	r3, r2, r0
 315 003c 6268     		ldr	r2, [r4, #4]
 316 003e 013A     		subs	r2, r2, #1
 317 0040 43EA0213 		orr	r3, r3, r2, lsl #4
 318 0044 CB60     		str	r3, [r1, #12]
 319              	.L100:
 320 0046 2D4D     		ldr	r5, .L129
 321 0048 2B68     		ldr	r3, [r5]
 322 004a 23F08053 		bic	r3, r3, #268435456
 323 004e 2B60     		str	r3, [r5]
 324 0050 FFF7FEFF 		bl	HAL_GetTick
 325 0054 0646     		mov	r6, r0
 326 0056 04E0     		b	.L104
 327              	.L105:
 328 0058 FFF7FEFF 		bl	HAL_GetTick
 329 005c 831B     		subs	r3, r0, r6
 330 005e 022B     		cmp	r3, #2
 331 0060 3DD8     		bhi	.L109
 332              	.L104:
 333 0062 2B68     		ldr	r3, [r5]
 334 0064 9A00     		lsls	r2, r3, #2
 335 0066 F7D4     		bmi	.L105
 336 0068 A368     		ldr	r3, [r4, #8]
 337 006a 1A02     		lsls	r2, r3, #8
 338 006c 002F     		cmp	r7, #0
 339 006e 38D1     		bne	.L128
 340 0070 6B69     		ldr	r3, [r5, #20]
 341 0072 E168     		ldr	r1, [r4, #12]
 342 0074 23F41F33 		bic	r3, r3, #162816
 343 0078 23F44073 		bic	r3, r3, #768
 344 007c 0909     		lsrs	r1, r1, #4
 345 007e 1343     		orrs	r3, r3, r2
 346 0080 43EA4143 		orr	r3, r3, r1, lsl #17
 347 0084 6B61     		str	r3, [r5, #20]
ARM GAS  /tmp/ccyGcoIQ.s 			page 7


 348              	.L107:
 349 0086 1D4D     		ldr	r5, .L129
 350 0088 2B68     		ldr	r3, [r5]
 351 008a 43F08053 		orr	r3, r3, #268435456
 352 008e 2B60     		str	r3, [r5]
 353 0090 FFF7FEFF 		bl	HAL_GetTick
 354 0094 0646     		mov	r6, r0
 355 0096 04E0     		b	.L108
 356              	.L110:
 357 0098 FFF7FEFF 		bl	HAL_GetTick
 358 009c 831B     		subs	r3, r0, r6
 359 009e 022B     		cmp	r3, #2
 360 00a0 1DD8     		bhi	.L109
 361              	.L108:
 362 00a2 2B68     		ldr	r3, [r5]
 363 00a4 9B00     		lsls	r3, r3, #2
 364 00a6 F7D5     		bpl	.L110
 365 00a8 6B69     		ldr	r3, [r5, #20]
 366 00aa 6269     		ldr	r2, [r4, #20]
 367 00ac 1343     		orrs	r3, r3, r2
 368 00ae 0020     		movs	r0, #0
 369 00b0 6B61     		str	r3, [r5, #20]
 370 00b2 F8BD     		pop	{r3, r4, r5, r6, r7, pc}
 371              	.L127:
 372 00b4 0029     		cmp	r1, #0
 373 00b6 B0D0     		beq	.L120
 374 00b8 D368     		ldr	r3, [r2, #12]
 375 00ba 6268     		ldr	r2, [r4, #4]
 376 00bc C3F30213 		ubfx	r3, r3, #4, #3
 377 00c0 0133     		adds	r3, r3, #1
 378 00c2 9342     		cmp	r3, r2
 379 00c4 A9D1     		bne	.L120
 380 00c6 BEE7     		b	.L100
 381              	.L102:
 382 00c8 1168     		ldr	r1, [r2]
 383 00ca 8D03     		lsls	r5, r1, #14
 384 00cc B0D4     		bmi	.L103
 385 00ce 1268     		ldr	r2, [r2]
 386 00d0 5103     		lsls	r1, r2, #13
 387 00d2 A2D5     		bpl	.L120
 388 00d4 ACE7     		b	.L103
 389              	.L101:
 390 00d6 1268     		ldr	r2, [r2]
 391 00d8 5605     		lsls	r6, r2, #21
 392 00da 9ED5     		bpl	.L120
 393 00dc A8E7     		b	.L103
 394              	.L109:
 395 00de 0320     		movs	r0, #3
 396 00e0 F8BD     		pop	{r3, r4, r5, r6, r7, pc}
 397              	.L128:
 398 00e2 6B69     		ldr	r3, [r5, #20]
 399 00e4 2169     		ldr	r1, [r4, #16]
 400 00e6 23F0C063 		bic	r3, r3, #100663296
 401 00ea 4908     		lsrs	r1, r1, #1
 402 00ec 23F4FE43 		bic	r3, r3, #32512
 403 00f0 0139     		subs	r1, r1, #1
 404 00f2 1343     		orrs	r3, r3, r2
ARM GAS  /tmp/ccyGcoIQ.s 			page 8


 405 00f4 43EA4163 		orr	r3, r3, r1, lsl #25
 406 00f8 6B61     		str	r3, [r5, #20]
 407 00fa C4E7     		b	.L107
 408              	.L130:
 409              		.align	2
 410              	.L129:
 411 00fc 00100240 		.word	1073876992
 413              		.section	.text.HAL_RCCEx_PeriphCLKConfig,"ax",%progbits
 414              		.align	1
 415              		.p2align 2,,3
 416              		.global	HAL_RCCEx_PeriphCLKConfig
 417              		.syntax unified
 418              		.thumb
 419              		.thumb_func
 420              		.fpu fpv4-sp-d16
 422              	HAL_RCCEx_PeriphCLKConfig:
 423              		@ args = 0, pretend = 0, frame = 8
 424              		@ frame_needed = 0, uses_anonymous_args = 0
 425 0000 2DE9F043 		push	{r4, r5, r6, r7, r8, r9, lr}
 426 0004 0368     		ldr	r3, [r0]
 427 0006 13F40065 		ands	r5, r3, #2048
 428 000a 83B0     		sub	sp, sp, #12
 429 000c 0446     		mov	r4, r0
 430 000e 16D0     		beq	.L132
 431 0010 416E     		ldr	r1, [r0, #100]
 432 0012 B1F5000F 		cmp	r1, #8388608
 433 0016 00F0D681 		beq	.L133
 434 001a 00F21881 		bhi	.L134
 435 001e 0029     		cmp	r1, #0
 436 0020 00F0A881 		beq	.L135
 437 0024 B1F5800F 		cmp	r1, #4194304
 438 0028 40F0BC81 		bne	.L252
 439 002c 0021     		movs	r1, #0
 440 002e 2030     		adds	r0, r0, #32
 441 0030 FFF7FEFF 		bl	RCCEx_PLLSAI2_Config
 442 0034 0546     		mov	r5, r0
 443 0036 2368     		ldr	r3, [r4]
 444 0038 002D     		cmp	r5, #0
 445 003a 00F0C281 		beq	.L256
 446              	.L132:
 447 003e D804     		lsls	r0, r3, #19
 448 0040 40F11681 		bpl	.L182
 449              	.L266:
 450 0044 A16E     		ldr	r1, [r4, #104]
 451 0046 B1F1007F 		cmp	r1, #33554432
 452 004a 00F0C281 		beq	.L140
 453 004e 00F26F81 		bhi	.L141
 454 0052 0029     		cmp	r1, #0
 455 0054 00F08881 		beq	.L142
 456 0058 B1F1807F 		cmp	r1, #16777216
 457 005c 40F0A481 		bne	.L253
 458 0060 0021     		movs	r1, #0
 459 0062 04F12000 		add	r0, r4, #32
 460 0066 FFF7FEFF 		bl	RCCEx_PLLSAI2_Config
 461 006a 2368     		ldr	r3, [r4]
 462 006c 8046     		mov	r8, r0
 463              	.L144:
ARM GAS  /tmp/ccyGcoIQ.s 			page 9


 464 006e B8F1000F 		cmp	r8, #0
 465 0072 40F06581 		bne	.L184
 466              	.L268:
 467 0076 B349     		ldr	r1, .L269
 468 0078 A06E     		ldr	r0, [r4, #104]
 469 007a D1F88820 		ldr	r2, [r1, #136]
 470 007e 22F04072 		bic	r2, r2, #50331648
 471 0082 0243     		orrs	r2, r2, r0
 472 0084 C1F88820 		str	r2, [r1, #136]
 473 0088 9903     		lsls	r1, r3, #14
 474 008a 00F1F580 		bmi	.L257
 475              	.L145:
 476 008e DA07     		lsls	r2, r3, #31
 477 0090 08D5     		bpl	.L155
 478 0092 AC49     		ldr	r1, .L269
 479 0094 A06B     		ldr	r0, [r4, #56]
 480 0096 D1F88820 		ldr	r2, [r1, #136]
 481 009a 22F00302 		bic	r2, r2, #3
 482 009e 0243     		orrs	r2, r2, r0
 483 00a0 C1F88820 		str	r2, [r1, #136]
 484              	.L155:
 485 00a4 9F07     		lsls	r7, r3, #30
 486 00a6 08D5     		bpl	.L156
 487 00a8 A649     		ldr	r1, .L269
 488 00aa E06B     		ldr	r0, [r4, #60]
 489 00ac D1F88820 		ldr	r2, [r1, #136]
 490 00b0 22F00C02 		bic	r2, r2, #12
 491 00b4 0243     		orrs	r2, r2, r0
 492 00b6 C1F88820 		str	r2, [r1, #136]
 493              	.L156:
 494 00ba 5E07     		lsls	r6, r3, #29
 495 00bc 08D5     		bpl	.L157
 496 00be A149     		ldr	r1, .L269
 497 00c0 206C     		ldr	r0, [r4, #64]
 498 00c2 D1F88820 		ldr	r2, [r1, #136]
 499 00c6 22F03002 		bic	r2, r2, #48
 500 00ca 0243     		orrs	r2, r2, r0
 501 00cc C1F88820 		str	r2, [r1, #136]
 502              	.L157:
 503 00d0 1807     		lsls	r0, r3, #28
 504 00d2 08D5     		bpl	.L158
 505 00d4 9B49     		ldr	r1, .L269
 506 00d6 606C     		ldr	r0, [r4, #68]
 507 00d8 D1F88820 		ldr	r2, [r1, #136]
 508 00dc 22F0C002 		bic	r2, r2, #192
 509 00e0 0243     		orrs	r2, r2, r0
 510 00e2 C1F88820 		str	r2, [r1, #136]
 511              	.L158:
 512 00e6 D906     		lsls	r1, r3, #27
 513 00e8 08D5     		bpl	.L159
 514 00ea 9649     		ldr	r1, .L269
 515 00ec A06C     		ldr	r0, [r4, #72]
 516 00ee D1F88820 		ldr	r2, [r1, #136]
 517 00f2 22F44072 		bic	r2, r2, #768
 518 00f6 0243     		orrs	r2, r2, r0
 519 00f8 C1F88820 		str	r2, [r1, #136]
 520              	.L159:
ARM GAS  /tmp/ccyGcoIQ.s 			page 10


 521 00fc 9A06     		lsls	r2, r3, #26
 522 00fe 08D5     		bpl	.L160
 523 0100 9049     		ldr	r1, .L269
 524 0102 E06C     		ldr	r0, [r4, #76]
 525 0104 D1F88820 		ldr	r2, [r1, #136]
 526 0108 22F44062 		bic	r2, r2, #3072
 527 010c 0243     		orrs	r2, r2, r0
 528 010e C1F88820 		str	r2, [r1, #136]
 529              	.L160:
 530 0112 9F05     		lsls	r7, r3, #22
 531 0114 08D5     		bpl	.L161
 532 0116 8B49     		ldr	r1, .L269
 533 0118 E06D     		ldr	r0, [r4, #92]
 534 011a D1F88820 		ldr	r2, [r1, #136]
 535 011e 22F44022 		bic	r2, r2, #786432
 536 0122 0243     		orrs	r2, r2, r0
 537 0124 C1F88820 		str	r2, [r1, #136]
 538              	.L161:
 539 0128 5E05     		lsls	r6, r3, #21
 540 012a 08D5     		bpl	.L162
 541 012c 8549     		ldr	r1, .L269
 542 012e 206E     		ldr	r0, [r4, #96]
 543 0130 D1F88820 		ldr	r2, [r1, #136]
 544 0134 22F44012 		bic	r2, r2, #3145728
 545 0138 0243     		orrs	r2, r2, r0
 546 013a C1F88820 		str	r2, [r1, #136]
 547              	.L162:
 548 013e 5806     		lsls	r0, r3, #25
 549 0140 08D5     		bpl	.L163
 550 0142 8049     		ldr	r1, .L269
 551 0144 206D     		ldr	r0, [r4, #80]
 552 0146 D1F88820 		ldr	r2, [r1, #136]
 553 014a 22F44052 		bic	r2, r2, #12288
 554 014e 0243     		orrs	r2, r2, r0
 555 0150 C1F88820 		str	r2, [r1, #136]
 556              	.L163:
 557 0154 1906     		lsls	r1, r3, #24
 558 0156 08D5     		bpl	.L164
 559 0158 7A49     		ldr	r1, .L269
 560 015a 606D     		ldr	r0, [r4, #84]
 561 015c D1F88820 		ldr	r2, [r1, #136]
 562 0160 22F44042 		bic	r2, r2, #49152
 563 0164 0243     		orrs	r2, r2, r0
 564 0166 C1F88820 		str	r2, [r1, #136]
 565              	.L164:
 566 016a DA05     		lsls	r2, r3, #23
 567 016c 08D5     		bpl	.L165
 568 016e 7549     		ldr	r1, .L269
 569 0170 A06D     		ldr	r0, [r4, #88]
 570 0172 D1F88820 		ldr	r2, [r1, #136]
 571 0176 22F44032 		bic	r2, r2, #196608
 572 017a 0243     		orrs	r2, r2, r0
 573 017c C1F88820 		str	r2, [r1, #136]
 574              	.L165:
 575 0180 9F04     		lsls	r7, r3, #18
 576 0182 10D5     		bpl	.L166
 577 0184 6F49     		ldr	r1, .L269
ARM GAS  /tmp/ccyGcoIQ.s 			page 11


 578 0186 E06E     		ldr	r0, [r4, #108]
 579 0188 D1F88820 		ldr	r2, [r1, #136]
 580 018c 22F04062 		bic	r2, r2, #201326592
 581 0190 0243     		orrs	r2, r2, r0
 582 0192 B0F1006F 		cmp	r0, #134217728
 583 0196 C1F88820 		str	r2, [r1, #136]
 584 019a 00F0F980 		beq	.L258
 585 019e B0F1806F 		cmp	r0, #67108864
 586 01a2 00F03281 		beq	.L259
 587              	.L166:
 588 01a6 1E03     		lsls	r6, r3, #12
 589 01a8 10D5     		bpl	.L169
 590 01aa 6649     		ldr	r1, .L269
 591 01ac 206F     		ldr	r0, [r4, #112]
 592 01ae D1F88820 		ldr	r2, [r1, #136]
 593 01b2 22F04062 		bic	r2, r2, #201326592
 594 01b6 0243     		orrs	r2, r2, r0
 595 01b8 B0F1006F 		cmp	r0, #134217728
 596 01bc C1F88820 		str	r2, [r1, #136]
 597 01c0 00F0EB80 		beq	.L260
 598 01c4 B0F1806F 		cmp	r0, #67108864
 599 01c8 00F02981 		beq	.L261
 600              	.L169:
 601 01cc 5803     		lsls	r0, r3, #13
 602 01ce 10D5     		bpl	.L172
 603 01d0 5C49     		ldr	r1, .L269
 604 01d2 606F     		ldr	r0, [r4, #116]
 605 01d4 D1F88820 		ldr	r2, [r1, #136]
 606 01d8 22F04062 		bic	r2, r2, #201326592
 607 01dc 0243     		orrs	r2, r2, r0
 608 01de B0F1006F 		cmp	r0, #134217728
 609 01e2 C1F88820 		str	r2, [r1, #136]
 610 01e6 00F0CE80 		beq	.L262
 611 01ea B0F1806F 		cmp	r0, #67108864
 612 01ee 00F00281 		beq	.L263
 613              	.L172:
 614 01f2 5904     		lsls	r1, r3, #17
 615 01f4 10D5     		bpl	.L175
 616 01f6 5348     		ldr	r0, .L269
 617 01f8 A16F     		ldr	r1, [r4, #120]
 618 01fa D0F88820 		ldr	r2, [r0, #136]
 619 01fe 22F04052 		bic	r2, r2, #805306368
 620 0202 0A43     		orrs	r2, r2, r1
 621 0204 B1F1805F 		cmp	r1, #268435456
 622 0208 C0F88820 		str	r2, [r0, #136]
 623 020c 00F0CF80 		beq	.L264
 624 0210 B1F1005F 		cmp	r1, #536870912
 625 0214 00F0E480 		beq	.L265
 626              	.L175:
 627 0218 1A04     		lsls	r2, r3, #16
 628 021a 08D5     		bpl	.L179
 629 021c 4949     		ldr	r1, .L269
 630 021e E06F     		ldr	r0, [r4, #124]
 631 0220 D1F88820 		ldr	r2, [r1, #136]
 632 0224 22F08042 		bic	r2, r2, #1073741824
 633 0228 0243     		orrs	r2, r2, r0
 634 022a C1F88820 		str	r2, [r1, #136]
ARM GAS  /tmp/ccyGcoIQ.s 			page 12


 635              	.L179:
 636 022e DB03     		lsls	r3, r3, #15
 637 0230 09D5     		bpl	.L180
 638 0232 444A     		ldr	r2, .L269
 639 0234 D4F88010 		ldr	r1, [r4, #128]
 640 0238 D2F88830 		ldr	r3, [r2, #136]
 641 023c 23F00043 		bic	r3, r3, #-2147483648
 642 0240 0B43     		orrs	r3, r3, r1
 643 0242 C2F88830 		str	r3, [r2, #136]
 644              	.L180:
 645 0246 2846     		mov	r0, r5
 646 0248 03B0     		add	sp, sp, #12
 647              		@ sp needed
 648 024a BDE8F083 		pop	{r4, r5, r6, r7, r8, r9, pc}
 649              	.L134:
 650 024e B1F5400F 		cmp	r1, #12582912
 651 0252 40F0A780 		bne	.L252
 652              	.L137:
 653 0256 3B48     		ldr	r0, .L269
 654 0258 D0F88820 		ldr	r2, [r0, #136]
 655 025c 22F44002 		bic	r2, r2, #12582912
 656 0260 0A43     		orrs	r2, r2, r1
 657 0262 C0F88820 		str	r2, [r0, #136]
 658 0266 D804     		lsls	r0, r3, #19
 659 0268 4FF00005 		mov	r5, #0
 660 026c 3FF5EAAE 		bmi	.L266
 661              	.L182:
 662 0270 A846     		mov	r8, r5
 663              	.L139:
 664 0272 9903     		lsls	r1, r3, #14
 665 0274 7FF50BAF 		bpl	.L145
 666              	.L257:
 667 0278 324B     		ldr	r3, .L269
 668 027a 9A6D     		ldr	r2, [r3, #88]
 669 027c D200     		lsls	r2, r2, #3
 670 027e 65D5     		bpl	.L267
 671 0280 4FF00009 		mov	r9, #0
 672              	.L146:
 673 0284 304E     		ldr	r6, .L269+4
 674 0286 3368     		ldr	r3, [r6]
 675 0288 43F48073 		orr	r3, r3, #256
 676 028c 3360     		str	r3, [r6]
 677 028e FFF7FEFF 		bl	HAL_GetTick
 678 0292 0746     		mov	r7, r0
 679 0294 04E0     		b	.L147
 680              	.L149:
 681 0296 FFF7FEFF 		bl	HAL_GetTick
 682 029a C31B     		subs	r3, r0, r7
 683 029c 022B     		cmp	r3, #2
 684 029e 61D8     		bhi	.L152
 685              	.L147:
 686 02a0 3368     		ldr	r3, [r6]
 687 02a2 DB05     		lsls	r3, r3, #23
 688 02a4 F7D5     		bpl	.L149
 689 02a6 B8F1000F 		cmp	r8, #0
 690 02aa 40F0C280 		bne	.L186
 691 02ae 254E     		ldr	r6, .L269
ARM GAS  /tmp/ccyGcoIQ.s 			page 13


 692 02b0 D4F88420 		ldr	r2, [r4, #132]
 693 02b4 D6F89030 		ldr	r3, [r6, #144]
 694 02b8 13F44073 		ands	r3, r3, #768
 695 02bc 26D0     		beq	.L150
 696 02be 9342     		cmp	r3, r2
 697 02c0 24D0     		beq	.L150
 698 02c2 D6F89010 		ldr	r1, [r6, #144]
 699 02c6 D6F89030 		ldr	r3, [r6, #144]
 700 02ca 43F48033 		orr	r3, r3, #65536
 701 02ce C6F89030 		str	r3, [r6, #144]
 702 02d2 D6F89030 		ldr	r3, [r6, #144]
 703 02d6 23F48033 		bic	r3, r3, #65536
 704 02da C6F89030 		str	r3, [r6, #144]
 705 02de C807     		lsls	r0, r1, #31
 706 02e0 21F44073 		bic	r3, r1, #768
 707 02e4 C6F89030 		str	r3, [r6, #144]
 708 02e8 10D5     		bpl	.L150
 709 02ea FFF7FEFF 		bl	HAL_GetTick
 710 02ee 41F28838 		movw	r8, #5000
 711 02f2 0746     		mov	r7, r0
 712 02f4 04E0     		b	.L151
 713              	.L153:
 714 02f6 FFF7FEFF 		bl	HAL_GetTick
 715 02fa C01B     		subs	r0, r0, r7
 716 02fc 4045     		cmp	r0, r8
 717 02fe 31D8     		bhi	.L152
 718              	.L151:
 719 0300 D6F89030 		ldr	r3, [r6, #144]
 720 0304 9907     		lsls	r1, r3, #30
 721 0306 F6D5     		bpl	.L153
 722 0308 D4F88420 		ldr	r2, [r4, #132]
 723              	.L150:
 724 030c 0D49     		ldr	r1, .L269
 725 030e D1F89030 		ldr	r3, [r1, #144]
 726 0312 23F44073 		bic	r3, r3, #768
 727 0316 1343     		orrs	r3, r3, r2
 728 0318 C1F89030 		str	r3, [r1, #144]
 729              	.L148:
 730 031c B9F1000F 		cmp	r9, #0
 731 0320 04D0     		beq	.L254
 732 0322 084A     		ldr	r2, .L269
 733 0324 936D     		ldr	r3, [r2, #88]
 734 0326 23F08053 		bic	r3, r3, #268435456
 735 032a 9365     		str	r3, [r2, #88]
 736              	.L254:
 737 032c 2368     		ldr	r3, [r4]
 738 032e AEE6     		b	.L145
 739              	.L141:
 740 0330 B1F1407F 		cmp	r1, #50331648
 741 0334 38D1     		bne	.L253
 742 0336 A846     		mov	r8, r5
 743 0338 B8F1000F 		cmp	r8, #0
 744 033c 3FF49BAE 		beq	.L268
 745              	.L184:
 746 0340 4546     		mov	r5, r8
 747 0342 96E7     		b	.L139
 748              	.L270:
ARM GAS  /tmp/ccyGcoIQ.s 			page 14


 749              		.align	2
 750              	.L269:
 751 0344 00100240 		.word	1073876992
 752 0348 00700040 		.word	1073770496
 753              	.L267:
 754 034c 9A6D     		ldr	r2, [r3, #88]
 755 034e 42F08052 		orr	r2, r2, #268435456
 756 0352 9A65     		str	r2, [r3, #88]
 757 0354 9B6D     		ldr	r3, [r3, #88]
 758 0356 03F08053 		and	r3, r3, #268435456
 759 035a 0193     		str	r3, [sp, #4]
 760 035c 019B     		ldr	r3, [sp, #4]
 761 035e 4FF00109 		mov	r9, #1
 762 0362 8FE7     		b	.L146
 763              	.L152:
 764 0364 0325     		movs	r5, #3
 765 0366 D9E7     		b	.L148
 766              	.L142:
 767 0368 201D     		adds	r0, r4, #4
 768 036a FFF7FEFF 		bl	RCCEx_PLLSAI1_Config
 769 036e 2368     		ldr	r3, [r4]
 770 0370 8046     		mov	r8, r0
 771 0372 7CE6     		b	.L144
 772              	.L135:
 773 0374 0430     		adds	r0, r0, #4
 774 0376 FFF7FEFF 		bl	RCCEx_PLLSAI1_Config
 775 037a 0546     		mov	r5, r0
 776 037c 2368     		ldr	r3, [r4]
 777 037e 002D     		cmp	r5, #0
 778 0380 7FF45DAE 		bne	.L132
 779 0384 1DE0     		b	.L256
 780              	.L262:
 781 0386 CA68     		ldr	r2, [r1, #12]
 782 0388 42F48012 		orr	r2, r2, #1048576
 783 038c CA60     		str	r2, [r1, #12]
 784 038e 30E7     		b	.L172
 785              	.L258:
 786 0390 CA68     		ldr	r2, [r1, #12]
 787 0392 42F48012 		orr	r2, r2, #1048576
 788 0396 CA60     		str	r2, [r1, #12]
 789 0398 05E7     		b	.L166
 790              	.L260:
 791 039a CA68     		ldr	r2, [r1, #12]
 792 039c 42F48012 		orr	r2, r2, #1048576
 793 03a0 CA60     		str	r2, [r1, #12]
 794 03a2 13E7     		b	.L169
 795              	.L252:
 796 03a4 0125     		movs	r5, #1
 797 03a6 4AE6     		b	.L132
 798              	.L253:
 799 03a8 0125     		movs	r5, #1
 800 03aa A846     		mov	r8, r5
 801 03ac 61E7     		b	.L139
 802              	.L264:
 803 03ae 0221     		movs	r1, #2
 804 03b0 201D     		adds	r0, r4, #4
 805 03b2 FFF7FEFF 		bl	RCCEx_PLLSAI1_Config
ARM GAS  /tmp/ccyGcoIQ.s 			page 15


 806 03b6 2368     		ldr	r3, [r4]
 807 03b8 0028     		cmp	r0, #0
 808 03ba 3FF42DAF 		beq	.L175
 809 03be 0546     		mov	r5, r0
 810 03c0 2AE7     		b	.L175
 811              	.L256:
 812 03c2 616E     		ldr	r1, [r4, #100]
 813 03c4 47E7     		b	.L137
 814              	.L133:
 815 03c6 1C48     		ldr	r0, .L271
 816 03c8 C268     		ldr	r2, [r0, #12]
 817 03ca 42F48032 		orr	r2, r2, #65536
 818 03ce C260     		str	r2, [r0, #12]
 819 03d0 41E7     		b	.L137
 820              	.L140:
 821 03d2 1949     		ldr	r1, .L271
 822 03d4 CA68     		ldr	r2, [r1, #12]
 823 03d6 42F48032 		orr	r2, r2, #65536
 824 03da CA60     		str	r2, [r1, #12]
 825 03dc A846     		mov	r8, r5
 826 03de 46E6     		b	.L144
 827              	.L265:
 828 03e0 0221     		movs	r1, #2
 829 03e2 04F12000 		add	r0, r4, #32
 830 03e6 FFF7FEFF 		bl	RCCEx_PLLSAI2_Config
 831 03ea 2368     		ldr	r3, [r4]
 832 03ec 0028     		cmp	r0, #0
 833 03ee 3FF413AF 		beq	.L175
 834 03f2 0546     		mov	r5, r0
 835 03f4 10E7     		b	.L175
 836              	.L263:
 837 03f6 0121     		movs	r1, #1
 838 03f8 201D     		adds	r0, r4, #4
 839 03fa FFF7FEFF 		bl	RCCEx_PLLSAI1_Config
 840 03fe 2368     		ldr	r3, [r4]
 841 0400 0028     		cmp	r0, #0
 842 0402 3FF4F6AE 		beq	.L172
 843 0406 0546     		mov	r5, r0
 844 0408 F3E6     		b	.L172
 845              	.L259:
 846 040a 0121     		movs	r1, #1
 847 040c 201D     		adds	r0, r4, #4
 848 040e FFF7FEFF 		bl	RCCEx_PLLSAI1_Config
 849 0412 2368     		ldr	r3, [r4]
 850 0414 0028     		cmp	r0, #0
 851 0416 3FF4C6AE 		beq	.L166
 852 041a 0546     		mov	r5, r0
 853 041c C3E6     		b	.L166
 854              	.L261:
 855 041e 0121     		movs	r1, #1
 856 0420 201D     		adds	r0, r4, #4
 857 0422 FFF7FEFF 		bl	RCCEx_PLLSAI1_Config
 858 0426 2368     		ldr	r3, [r4]
 859 0428 0028     		cmp	r0, #0
 860 042a 3FF4CFAE 		beq	.L169
 861 042e 0546     		mov	r5, r0
 862 0430 CCE6     		b	.L169
ARM GAS  /tmp/ccyGcoIQ.s 			page 16


 863              	.L186:
 864 0432 4546     		mov	r5, r8
 865 0434 72E7     		b	.L148
 866              	.L272:
 867 0436 00BF     		.align	2
 868              	.L271:
 869 0438 00100240 		.word	1073876992
 871              		.section	.text.HAL_RCCEx_GetPeriphCLKConfig,"ax",%progbits
 872              		.align	1
 873              		.p2align 2,,3
 874              		.global	HAL_RCCEx_GetPeriphCLKConfig
 875              		.syntax unified
 876              		.thumb
 877              		.thumb_func
 878              		.fpu fpv4-sp-d16
 880              	HAL_RCCEx_GetPeriphCLKConfig:
 881              		@ args = 0, pretend = 0, frame = 0
 882              		@ frame_needed = 0, uses_anonymous_args = 0
 883              		@ link register save eliminated.
 884 0000 4E4B     		ldr	r3, .L275
 885 0002 4F4A     		ldr	r2, .L275+4
 886 0004 0260     		str	r2, [r0]
 887 0006 10B4     		push	{r4}
 888 0008 DC68     		ldr	r4, [r3, #12]
 889 000a 04F00304 		and	r4, r4, #3
 890 000e 4460     		str	r4, [r0, #4]
 891 0010 D968     		ldr	r1, [r3, #12]
 892 0012 C1F30211 		ubfx	r1, r1, #4, #3
 893 0016 0131     		adds	r1, r1, #1
 894 0018 8160     		str	r1, [r0, #8]
 895 001a 1A69     		ldr	r2, [r3, #16]
 896 001c C2F30622 		ubfx	r2, r2, #8, #7
 897 0020 C260     		str	r2, [r0, #12]
 898 0022 1A69     		ldr	r2, [r3, #16]
 899 0024 520B     		lsrs	r2, r2, #13
 900 0026 02F01002 		and	r2, r2, #16
 901 002a 0732     		adds	r2, r2, #7
 902 002c 0261     		str	r2, [r0, #16]
 903 002e 1A69     		ldr	r2, [r3, #16]
 904 0030 C2F34152 		ubfx	r2, r2, #21, #2
 905 0034 0132     		adds	r2, r2, #1
 906 0036 5200     		lsls	r2, r2, #1
 907 0038 4261     		str	r2, [r0, #20]
 908 003a 1A69     		ldr	r2, [r3, #16]
 909 003c 0462     		str	r4, [r0, #32]
 910 003e C2F34162 		ubfx	r2, r2, #25, #2
 911 0042 0132     		adds	r2, r2, #1
 912 0044 5200     		lsls	r2, r2, #1
 913 0046 8261     		str	r2, [r0, #24]
 914 0048 4162     		str	r1, [r0, #36]
 915 004a 5A69     		ldr	r2, [r3, #20]
 916 004c C2F30622 		ubfx	r2, r2, #8, #7
 917 0050 8262     		str	r2, [r0, #40]
 918 0052 5A69     		ldr	r2, [r3, #20]
 919 0054 520B     		lsrs	r2, r2, #13
 920 0056 02F01002 		and	r2, r2, #16
 921 005a 0732     		adds	r2, r2, #7
ARM GAS  /tmp/ccyGcoIQ.s 			page 17


 922 005c C262     		str	r2, [r0, #44]
 923 005e 5A69     		ldr	r2, [r3, #20]
 924 0060 C2F34162 		ubfx	r2, r2, #25, #2
 925 0064 0132     		adds	r2, r2, #1
 926 0066 5200     		lsls	r2, r2, #1
 927 0068 0263     		str	r2, [r0, #48]
 928 006a D3F88820 		ldr	r2, [r3, #136]
 929 006e 02F00302 		and	r2, r2, #3
 930 0072 8263     		str	r2, [r0, #56]
 931 0074 D3F88820 		ldr	r2, [r3, #136]
 932 0078 02F00C02 		and	r2, r2, #12
 933 007c C263     		str	r2, [r0, #60]
 934 007e D3F88820 		ldr	r2, [r3, #136]
 935 0082 02F03002 		and	r2, r2, #48
 936 0086 0264     		str	r2, [r0, #64]
 937 0088 D3F88820 		ldr	r2, [r3, #136]
 938 008c 02F0C002 		and	r2, r2, #192
 939 0090 4264     		str	r2, [r0, #68]
 940 0092 D3F88820 		ldr	r2, [r3, #136]
 941 0096 02F44072 		and	r2, r2, #768
 942 009a 8264     		str	r2, [r0, #72]
 943 009c D3F88820 		ldr	r2, [r3, #136]
 944 00a0 5DF8044B 		ldr	r4, [sp], #4
 945 00a4 02F44062 		and	r2, r2, #3072
 946 00a8 C264     		str	r2, [r0, #76]
 947 00aa D3F88820 		ldr	r2, [r3, #136]
 948 00ae 02F44052 		and	r2, r2, #12288
 949 00b2 0265     		str	r2, [r0, #80]
 950 00b4 D3F88820 		ldr	r2, [r3, #136]
 951 00b8 02F44042 		and	r2, r2, #49152
 952 00bc 4265     		str	r2, [r0, #84]
 953 00be D3F88820 		ldr	r2, [r3, #136]
 954 00c2 02F44032 		and	r2, r2, #196608
 955 00c6 8265     		str	r2, [r0, #88]
 956 00c8 D3F88820 		ldr	r2, [r3, #136]
 957 00cc 02F44022 		and	r2, r2, #786432
 958 00d0 C265     		str	r2, [r0, #92]
 959 00d2 D3F88820 		ldr	r2, [r3, #136]
 960 00d6 02F44012 		and	r2, r2, #3145728
 961 00da 0266     		str	r2, [r0, #96]
 962 00dc D3F88820 		ldr	r2, [r3, #136]
 963 00e0 02F44002 		and	r2, r2, #12582912
 964 00e4 4266     		str	r2, [r0, #100]
 965 00e6 D3F88820 		ldr	r2, [r3, #136]
 966 00ea 02F04072 		and	r2, r2, #50331648
 967 00ee 8266     		str	r2, [r0, #104]
 968 00f0 D3F89020 		ldr	r2, [r3, #144]
 969 00f4 02F44072 		and	r2, r2, #768
 970 00f8 C0F88420 		str	r2, [r0, #132]
 971 00fc D3F88820 		ldr	r2, [r3, #136]
 972 0100 02F04062 		and	r2, r2, #201326592
 973 0104 C266     		str	r2, [r0, #108]
 974 0106 D3F88820 		ldr	r2, [r3, #136]
 975 010a 02F04062 		and	r2, r2, #201326592
 976 010e 0267     		str	r2, [r0, #112]
 977 0110 D3F88820 		ldr	r2, [r3, #136]
 978 0114 02F04062 		and	r2, r2, #201326592
ARM GAS  /tmp/ccyGcoIQ.s 			page 18


 979 0118 4267     		str	r2, [r0, #116]
 980 011a D3F88820 		ldr	r2, [r3, #136]
 981 011e 02F04052 		and	r2, r2, #805306368
 982 0122 8267     		str	r2, [r0, #120]
 983 0124 D3F88820 		ldr	r2, [r3, #136]
 984 0128 02F08042 		and	r2, r2, #1073741824
 985 012c C267     		str	r2, [r0, #124]
 986 012e D3F88830 		ldr	r3, [r3, #136]
 987 0132 03F00043 		and	r3, r3, #-2147483648
 988 0136 C0F88030 		str	r3, [r0, #128]
 989 013a 7047     		bx	lr
 990              	.L276:
 991              		.align	2
 992              	.L275:
 993 013c 00100240 		.word	1073876992
 994 0140 FFFF0F00 		.word	1048575
 996              		.section	.text.HAL_RCCEx_GetPeriphCLKFreq,"ax",%progbits
 997              		.align	1
 998              		.p2align 2,,3
 999              		.global	HAL_RCCEx_GetPeriphCLKFreq
 1000              		.syntax unified
 1001              		.thumb
 1002              		.thumb_func
 1003              		.fpu fpv4-sp-d16
 1005              	HAL_RCCEx_GetPeriphCLKFreq:
 1006              		@ args = 0, pretend = 0, frame = 0
 1007              		@ frame_needed = 0, uses_anonymous_args = 0
 1008              		@ link register save eliminated.
 1009 0000 B0F5003F 		cmp	r0, #131072
 1010 0004 A24A     		ldr	r2, .L506
 1011 0006 3BD0     		beq	.L499
 1012 0008 D368     		ldr	r3, [r2, #12]
 1013 000a 03F00303 		and	r3, r3, #3
 1014 000e 022B     		cmp	r3, #2
 1015 0010 00F01581 		beq	.L282
 1016 0014 032B     		cmp	r3, #3
 1017 0016 00F00B81 		beq	.L283
 1018 001a 012B     		cmp	r3, #1
 1019 001c 00F0F480 		beq	.L500
 1020 0020 0021     		movs	r1, #0
 1021              	.L284:
 1022 0022 B0F5807F 		cmp	r0, #256
 1023 0026 00F01F81 		beq	.L287
 1024 002a 51D8     		bhi	.L288
 1025 002c 2028     		cmp	r0, #32
 1026 002e 39D8     		bhi	.L289
 1027 0030 0028     		cmp	r0, #0
 1028 0032 00F02C81 		beq	.L488
 1029 0036 0138     		subs	r0, r0, #1
 1030 0038 1F28     		cmp	r0, #31
 1031 003a 31D8     		bhi	.L351
 1032 003c DFE810F0 		tbh	[pc, r0, lsl #1]
 1033              	.L291:
 1034 0040 7F01     		.2byte	(.L296-.L291)/2
 1035 0042 9C01     		.2byte	(.L295-.L291)/2
 1036 0044 3000     		.2byte	(.L351-.L291)/2
 1037 0046 4F01     		.2byte	(.L294-.L291)/2
ARM GAS  /tmp/ccyGcoIQ.s 			page 19


 1038 0048 3000     		.2byte	(.L351-.L291)/2
 1039 004a 3000     		.2byte	(.L351-.L291)/2
 1040 004c 3000     		.2byte	(.L351-.L291)/2
 1041 004e 6001     		.2byte	(.L293-.L291)/2
 1042 0050 3000     		.2byte	(.L351-.L291)/2
 1043 0052 3000     		.2byte	(.L351-.L291)/2
 1044 0054 3000     		.2byte	(.L351-.L291)/2
 1045 0056 3000     		.2byte	(.L351-.L291)/2
 1046 0058 3000     		.2byte	(.L351-.L291)/2
 1047 005a 3000     		.2byte	(.L351-.L291)/2
 1048 005c 3000     		.2byte	(.L351-.L291)/2
 1049 005e 6F01     		.2byte	(.L292-.L291)/2
 1050 0060 3000     		.2byte	(.L351-.L291)/2
 1051 0062 3000     		.2byte	(.L351-.L291)/2
 1052 0064 3000     		.2byte	(.L351-.L291)/2
 1053 0066 3000     		.2byte	(.L351-.L291)/2
 1054 0068 3000     		.2byte	(.L351-.L291)/2
 1055 006a 3000     		.2byte	(.L351-.L291)/2
 1056 006c 3000     		.2byte	(.L351-.L291)/2
 1057 006e 3000     		.2byte	(.L351-.L291)/2
 1058 0070 3000     		.2byte	(.L351-.L291)/2
 1059 0072 3000     		.2byte	(.L351-.L291)/2
 1060 0074 3000     		.2byte	(.L351-.L291)/2
 1061 0076 3000     		.2byte	(.L351-.L291)/2
 1062 0078 3000     		.2byte	(.L351-.L291)/2
 1063 007a 3000     		.2byte	(.L351-.L291)/2
 1064 007c 3000     		.2byte	(.L351-.L291)/2
 1065 007e 8C01     		.2byte	(.L290-.L291)/2
 1066              		.p2align 1
 1067              	.L499:
 1068 0080 D2F89030 		ldr	r3, [r2, #144]
 1069 0084 03F44073 		and	r3, r3, #768
 1070 0088 B3F5007F 		cmp	r3, #512
 1071 008c 00F01881 		beq	.L344
 1072 0090 B3F5407F 		cmp	r3, #768
 1073 0094 00F01C81 		beq	.L280
 1074 0098 B3F5807F 		cmp	r3, #256
 1075 009c 00F0DA80 		beq	.L345
 1076              	.L351:
 1077 00a0 0020     		movs	r0, #0
 1078 00a2 7047     		bx	lr
 1079              	.L289:
 1080 00a4 4028     		cmp	r0, #64
 1081 00a6 00F0DE81 		beq	.L297
 1082 00aa 8028     		cmp	r0, #128
 1083 00ac F8D1     		bne	.L351
 1084 00ae 784A     		ldr	r2, .L506
 1085 00b0 D2F88830 		ldr	r3, [r2, #136]
 1086 00b4 03F44043 		and	r3, r3, #49152
 1087 00b8 B3F5804F 		cmp	r3, #16384
 1088 00bc 00F01E81 		beq	.L489
 1089 00c0 B3F5004F 		cmp	r3, #32768
 1090 00c4 00F0DC80 		beq	.L342
 1091              	.L497:
 1092 00c8 002B     		cmp	r3, #0
 1093 00ca E9D1     		bne	.L351
 1094              	.L320:
ARM GAS  /tmp/ccyGcoIQ.s 			page 20


 1095 00cc FFF7FEBF 		b	HAL_RCC_GetPCLK1Freq
 1096              	.L288:
 1097 00d0 B0F5805F 		cmp	r0, #4096
 1098 00d4 19D0     		beq	.L299
 1099 00d6 11D9     		bls	.L501
 1100 00d8 B0F5004F 		cmp	r0, #32768
 1101 00dc 00F0B681 		beq	.L304
 1102 00e0 10B4     		push	{r4}
 1103 00e2 19D9     		bls	.L502
 1104 00e4 B0F5803F 		cmp	r0, #65536
 1105 00e8 11D1     		bne	.L503
 1106 00ea 694B     		ldr	r3, .L506
 1107 00ec D3F88830 		ldr	r3, [r3, #136]
 1108 00f0 002B     		cmp	r3, #0
 1109 00f2 C0F2B580 		blt	.L334
 1110 00f6 5DF8044B 		ldr	r4, [sp], #4
 1111 00fa 2BE1     		b	.L495
 1112              	.L501:
 1113 00fc B0F5806F 		cmp	r0, #1024
 1114 0100 00F0CE80 		beq	.L301
 1115 0104 B0F5006F 		cmp	r0, #2048
 1116 0108 60D1     		bne	.L504
 1117              	.L299:
 1118 010a FFF7FEBF 		b	RCCEx_GetSAIxPeriphCLKFreq
 1119              	.L503:
 1120 010e 2CD2     		bcs	.L505
 1121              	.L352:
 1122 0110 0020     		movs	r0, #0
 1123              	.L277:
 1124 0112 5DF8044B 		ldr	r4, [sp], #4
 1125 0116 7047     		bx	lr
 1126              	.L502:
 1127 0118 B0F5005F 		cmp	r0, #8192
 1128 011c 2BD0     		beq	.L306
 1129 011e B0F5804F 		cmp	r0, #16384
 1130 0122 F5D1     		bne	.L352
 1131 0124 5A48     		ldr	r0, .L506
 1132 0126 D0F88820 		ldr	r2, [r0, #136]
 1133 012a 02F04052 		and	r2, r2, #805306368
 1134 012e B2F1005F 		cmp	r2, #536870912
 1135 0132 00F04781 		beq	.L333
 1136 0136 B2F1405F 		cmp	r2, #805306368
 1137 013a 00F09180 		beq	.L334
 1138 013e B2F1805F 		cmp	r2, #268435456
 1139 0142 E5D1     		bne	.L352
 1140 0144 0246     		mov	r2, r0
 1141 0146 0068     		ldr	r0, [r0]
 1142 0148 10F00060 		ands	r0, r0, #134217728
 1143 014c E1D0     		beq	.L277
 1144 014e 1069     		ldr	r0, [r2, #16]
 1145 0150 10F08070 		ands	r0, r0, #16777216
 1146 0154 DDD0     		beq	.L277
 1147 0156 1069     		ldr	r0, [r2, #16]
 1148 0158 D468     		ldr	r4, [r2, #12]
 1149 015a 1369     		ldr	r3, [r2, #16]
 1150 015c C0F30622 		ubfx	r2, r0, #8, #7
 1151              	.L492:
ARM GAS  /tmp/ccyGcoIQ.s 			page 21


 1152 0160 C3F34163 		ubfx	r3, r3, #25, #2
 1153 0164 C4F30214 		ubfx	r4, r4, #4, #3
 1154 0168 26E0     		b	.L494
 1155              	.L505:
 1156 016a B0F5802F 		cmp	r0, #262144
 1157 016e 02D0     		beq	.L306
 1158 0170 B0F5002F 		cmp	r0, #524288
 1159 0174 CCD1     		bne	.L352
 1160              	.L306:
 1161 0176 464C     		ldr	r4, .L506
 1162 0178 D4F88820 		ldr	r2, [r4, #136]
 1163 017c 02F04062 		and	r2, r2, #201326592
 1164 0180 B2F1006F 		cmp	r2, #134217728
 1165 0184 00F02F81 		beq	.L309
 1166 0188 B2F1406F 		cmp	r2, #201326592
 1167 018c 00F07981 		beq	.L310
 1168 0190 B2F1806F 		cmp	r2, #67108864
 1169 0194 BCD1     		bne	.L352
 1170 0196 2068     		ldr	r0, [r4]
 1171 0198 10F00060 		ands	r0, r0, #134217728
 1172 019c B9D0     		beq	.L277
 1173 019e 2069     		ldr	r0, [r4, #16]
 1174 01a0 10F48010 		ands	r0, r0, #1048576
 1175 01a4 B5D0     		beq	.L277
 1176 01a6 2269     		ldr	r2, [r4, #16]
 1177 01a8 E068     		ldr	r0, [r4, #12]
 1178 01aa 2369     		ldr	r3, [r4, #16]
 1179              	.L493:
 1180 01ac C2F30622 		ubfx	r2, r2, #8, #7
 1181 01b0 C3F34153 		ubfx	r3, r3, #21, #2
 1182 01b4 C0F30214 		ubfx	r4, r0, #4, #3
 1183              	.L494:
 1184 01b8 0133     		adds	r3, r3, #1
 1185 01ba 01FB02F0 		mul	r0, r1, r2
 1186 01be 0134     		adds	r4, r4, #1
 1187 01c0 5B00     		lsls	r3, r3, #1
 1188 01c2 B0FBF4F0 		udiv	r0, r0, r4
 1189 01c6 B0FBF3F0 		udiv	r0, r0, r3
 1190 01ca A2E7     		b	.L277
 1191              	.L504:
 1192 01cc B0F5007F 		cmp	r0, #512
 1193 01d0 7FF466AF 		bne	.L351
 1194 01d4 2E4A     		ldr	r2, .L506
 1195 01d6 D2F88830 		ldr	r3, [r2, #136]
 1196 01da 03F44023 		and	r3, r3, #786432
 1197 01de B3F5002F 		cmp	r3, #524288
 1198 01e2 4DD0     		beq	.L342
 1199 01e4 00F20D81 		bhi	.L339
 1200 01e8 002B     		cmp	r3, #0
 1201 01ea 3FF46FAF 		beq	.L320
 1202 01ee B3F5802F 		cmp	r3, #262144
 1203 01f2 7FF455AF 		bne	.L351
 1204 01f6 264B     		ldr	r3, .L506
 1205 01f8 D3F89400 		ldr	r0, [r3, #148]
 1206 01fc 10F00200 		ands	r0, r0, #2
 1207 0200 18BF     		it	ne
 1208 0202 4FF4FA40 		movne	r0, #32000
ARM GAS  /tmp/ccyGcoIQ.s 			page 22


 1209 0206 7047     		bx	lr
 1210              	.L500:
 1211 0208 1168     		ldr	r1, [r2]
 1212 020a 11F00201 		ands	r1, r1, #2
 1213 020e 3FF408AF 		beq	.L284
 1214 0212 1368     		ldr	r3, [r2]
 1215 0214 1B07     		lsls	r3, r3, #28
 1216 0216 4CBF     		ite	mi
 1217 0218 1368     		ldrmi	r3, [r2]
 1218 021a D2F89430 		ldrpl	r3, [r2, #148]
 1219 021e 1D4A     		ldr	r2, .L506+4
 1220 0220 4CBF     		ite	mi
 1221 0222 C3F30313 		ubfxmi	r3, r3, #4, #4
 1222 0226 C3F30323 		ubfxpl	r3, r3, #8, #4
 1223 022a 52F82310 		ldr	r1, [r2, r3, lsl #2]
 1224 022e F8E6     		b	.L284
 1225              	.L283:
 1226 0230 1168     		ldr	r1, [r2]
 1227 0232 194A     		ldr	r2, .L506+8
 1228 0234 11F40031 		ands	r1, r1, #131072
 1229 0238 18BF     		it	ne
 1230 023a 1146     		movne	r1, r2
 1231 023c F1E6     		b	.L284
 1232              	.L282:
 1233 023e 1168     		ldr	r1, [r2]
 1234 0240 164A     		ldr	r2, .L506+12
 1235 0242 11F48061 		ands	r1, r1, #1024
 1236 0246 18BF     		it	ne
 1237 0248 1146     		movne	r1, r2
 1238 024a EAE6     		b	.L284
 1239              	.L343:
 1240 024c B3F5401F 		cmp	r3, #3145728
 1241 0250 7FF426AF 		bne	.L351
 1242              	.L345:
 1243 0254 D2F89000 		ldr	r0, [r2, #144]
 1244 0258 C0F34000 		ubfx	r0, r0, #1, #1
 1245 025c C003     		lsls	r0, r0, #15
 1246 025e 7047     		bx	lr
 1247              	.L334:
 1248 0260 5DF8044B 		ldr	r4, [sp], #4
 1249 0264 FFF7FEBF 		b	HAL_RCC_GetSysClockFreq
 1250              	.L287:
 1251 0268 094A     		ldr	r2, .L506
 1252 026a D2F88830 		ldr	r3, [r2, #136]
 1253 026e 03F44033 		and	r3, r3, #196608
 1254 0272 B3F5803F 		cmp	r3, #65536
 1255 0276 41D0     		beq	.L489
 1256 0278 B3F5003F 		cmp	r3, #131072
 1257 027c 7FF424AF 		bne	.L497
 1258              	.L342:
 1259 0280 1068     		ldr	r0, [r2]
 1260 0282 064B     		ldr	r3, .L506+12
 1261 0284 10F48060 		ands	r0, r0, #1024
 1262 0288 18BF     		it	ne
 1263 028a 1846     		movne	r0, r3
 1264 028c 7047     		bx	lr
 1265              	.L488:
ARM GAS  /tmp/ccyGcoIQ.s 			page 23


 1266 028e 7047     		bx	lr
 1267              	.L507:
 1268              		.align	2
 1269              	.L506:
 1270 0290 00100240 		.word	1073876992
 1271 0294 00000000 		.word	MSIRangeTable
 1272 0298 00127A00 		.word	8000000
 1273 029c 0024F400 		.word	16000000
 1274              	.L301:
 1275 02a0 814A     		ldr	r2, .L508
 1276 02a2 D2F88830 		ldr	r3, [r2, #136]
 1277 02a6 03F44013 		and	r3, r3, #3145728
 1278 02aa B3F5001F 		cmp	r3, #2097152
 1279 02ae E7D0     		beq	.L342
 1280 02b0 CCD8     		bhi	.L343
 1281 02b2 002B     		cmp	r3, #0
 1282 02b4 3FF40AAF 		beq	.L320
 1283 02b8 B3F5801F 		cmp	r3, #1048576
 1284 02bc 7FF4F0AE 		bne	.L351
 1285              	.L344:
 1286 02c0 D2F89400 		ldr	r0, [r2, #148]
 1287 02c4 10F00200 		ands	r0, r0, #2
 1288 02c8 18BF     		it	ne
 1289 02ca 4FF4FA40 		movne	r0, #32000
 1290 02ce 7047     		bx	lr
 1291              	.L280:
 1292 02d0 1068     		ldr	r0, [r2]
 1293 02d2 764B     		ldr	r3, .L508+4
 1294 02d4 10F40030 		ands	r0, r0, #131072
 1295 02d8 18BF     		it	ne
 1296 02da 1846     		movne	r0, r3
 1297 02dc 7047     		bx	lr
 1298              	.L294:
 1299 02de 724A     		ldr	r2, .L508
 1300 02e0 D2F88830 		ldr	r3, [r2, #136]
 1301 02e4 03F03003 		and	r3, r3, #48
 1302 02e8 202B     		cmp	r3, #32
 1303 02ea C9D0     		beq	.L342
 1304 02ec 00F2A680 		bhi	.L322
 1305 02f0 002B     		cmp	r3, #0
 1306 02f2 3FF4EBAE 		beq	.L320
 1307 02f6 102B     		cmp	r3, #16
 1308 02f8 7FF4D2AE 		bne	.L351
 1309              	.L489:
 1310 02fc FFF7FEBF 		b	HAL_RCC_GetSysClockFreq
 1311              	.L293:
 1312 0300 694A     		ldr	r2, .L508
 1313 0302 D2F88830 		ldr	r3, [r2, #136]
 1314 0306 03F0C003 		and	r3, r3, #192
 1315 030a 802B     		cmp	r3, #128
 1316 030c B8D0     		beq	.L342
 1317 030e 00F29980 		bhi	.L325
 1318 0312 002B     		cmp	r3, #0
 1319 0314 3FF4DAAE 		beq	.L320
 1320 0318 402B     		cmp	r3, #64
 1321 031a EFD0     		beq	.L489
 1322 031c C0E6     		b	.L351
ARM GAS  /tmp/ccyGcoIQ.s 			page 24


 1323              	.L292:
 1324 031e 624A     		ldr	r2, .L508
 1325 0320 D2F88830 		ldr	r3, [r2, #136]
 1326 0324 03F44073 		and	r3, r3, #768
 1327 0328 B3F5007F 		cmp	r3, #512
 1328 032c A8D0     		beq	.L342
 1329 032e 7BD8     		bhi	.L328
 1330 0330 002B     		cmp	r3, #0
 1331 0332 3FF4CBAE 		beq	.L320
 1332 0336 B3F5807F 		cmp	r3, #256
 1333 033a DFD0     		beq	.L489
 1334 033c B0E6     		b	.L351
 1335              	.L296:
 1336 033e 5A4A     		ldr	r2, .L508
 1337 0340 D2F88830 		ldr	r3, [r2, #136]
 1338 0344 03F00303 		and	r3, r3, #3
 1339 0348 022B     		cmp	r3, #2
 1340 034a 99D0     		beq	.L342
 1341 034c 032B     		cmp	r3, #3
 1342 034e 81D0     		beq	.L345
 1343 0350 012B     		cmp	r3, #1
 1344 0352 D3D0     		beq	.L489
 1345              	.L495:
 1346 0354 FFF7FEBF 		b	HAL_RCC_GetPCLK2Freq
 1347              	.L290:
 1348 0358 534A     		ldr	r2, .L508
 1349 035a D2F88830 		ldr	r3, [r2, #136]
 1350 035e 03F44063 		and	r3, r3, #3072
 1351 0362 B3F5006F 		cmp	r3, #2048
 1352 0366 8BD0     		beq	.L342
 1353 0368 63D8     		bhi	.L331
 1354 036a 002B     		cmp	r3, #0
 1355 036c 3FF4AEAE 		beq	.L320
 1356 0370 B3F5806F 		cmp	r3, #1024
 1357 0374 C2D0     		beq	.L489
 1358 0376 93E6     		b	.L351
 1359              	.L295:
 1360 0378 4B4B     		ldr	r3, .L508
 1361 037a D3F88830 		ldr	r3, [r3, #136]
 1362 037e 03F00C03 		and	r3, r3, #12
 1363 0382 0C2B     		cmp	r3, #12
 1364 0384 3FF68CAE 		bhi	.L351
 1365 0388 01A2     		adr	r2, .L318
 1366 038a 52F823F0 		ldr	pc, [r2, r3, lsl #2]
 1367 038e 00BF     		.p2align 2
 1368              	.L318:
 1369 0390 CD000000 		.word	.L320+1
 1370 0394 A1000000 		.word	.L351+1
 1371 0398 A1000000 		.word	.L351+1
 1372 039c A1000000 		.word	.L351+1
 1373 03a0 FD020000 		.word	.L489+1
 1374 03a4 A1000000 		.word	.L351+1
 1375 03a8 A1000000 		.word	.L351+1
 1376 03ac A1000000 		.word	.L351+1
 1377 03b0 19040000 		.word	.L319+1
 1378 03b4 A1000000 		.word	.L351+1
 1379 03b8 A1000000 		.word	.L351+1
ARM GAS  /tmp/ccyGcoIQ.s 			page 25


 1380 03bc A1000000 		.word	.L351+1
 1381 03c0 0B040000 		.word	.L341+1
 1382              		.p2align 1
 1383              	.L333:
 1384 03c4 0068     		ldr	r0, [r0]
 1385 03c6 10F00050 		ands	r0, r0, #536870912
 1386 03ca 3FF4A2AE 		beq	.L277
 1387 03ce 364B     		ldr	r3, .L508
 1388 03d0 5869     		ldr	r0, [r3, #20]
 1389 03d2 10F08070 		ands	r0, r0, #16777216
 1390 03d6 3FF49CAE 		beq	.L277
 1391 03da 5A69     		ldr	r2, [r3, #20]
 1392 03dc DC68     		ldr	r4, [r3, #12]
 1393 03de 5B69     		ldr	r3, [r3, #20]
 1394 03e0 C2F30622 		ubfx	r2, r2, #8, #7
 1395 03e4 BCE6     		b	.L492
 1396              	.L309:
 1397 03e6 2068     		ldr	r0, [r4]
 1398 03e8 10F00070 		ands	r0, r0, #33554432
 1399 03ec 3FF491AE 		beq	.L277
 1400 03f0 E068     		ldr	r0, [r4, #12]
 1401 03f2 10F48010 		ands	r0, r0, #1048576
 1402 03f6 3FF48CAE 		beq	.L277
 1403 03fa E268     		ldr	r2, [r4, #12]
 1404 03fc E068     		ldr	r0, [r4, #12]
 1405 03fe E368     		ldr	r3, [r4, #12]
 1406 0400 D4E6     		b	.L493
 1407              	.L339:
 1408 0402 B3F5402F 		cmp	r3, #786432
 1409 0406 7FF44BAE 		bne	.L351
 1410              	.L341:
 1411 040a 274B     		ldr	r3, .L508
 1412 040c D3F89000 		ldr	r0, [r3, #144]
 1413 0410 C0F34000 		ubfx	r0, r0, #1, #1
 1414 0414 C003     		lsls	r0, r0, #15
 1415 0416 7047     		bx	lr
 1416              	.L319:
 1417 0418 234A     		ldr	r2, .L508
 1418 041a 254B     		ldr	r3, .L508+8
 1419 041c 1068     		ldr	r0, [r2]
 1420 041e 10F48060 		ands	r0, r0, #1024
 1421 0422 18BF     		it	ne
 1422 0424 1846     		movne	r0, r3
 1423 0426 7047     		bx	lr
 1424              	.L328:
 1425 0428 B3F5407F 		cmp	r3, #768
 1426 042c 3FF412AF 		beq	.L345
 1427 0430 36E6     		b	.L351
 1428              	.L331:
 1429 0432 B3F5406F 		cmp	r3, #3072
 1430 0436 3FF40DAF 		beq	.L345
 1431 043a 31E6     		b	.L351
 1432              	.L322:
 1433 043c 302B     		cmp	r3, #48
 1434 043e 3FF409AF 		beq	.L345
 1435 0442 2DE6     		b	.L351
 1436              	.L325:
ARM GAS  /tmp/ccyGcoIQ.s 			page 26


 1437 0444 C02B     		cmp	r3, #192
 1438 0446 3FF405AF 		beq	.L345
 1439 044a 29E6     		b	.L351
 1440              	.L304:
 1441 044c 164B     		ldr	r3, .L508
 1442 044e D3F88820 		ldr	r2, [r3, #136]
 1443 0452 5200     		lsls	r2, r2, #1
 1444 0454 7FF53AAE 		bpl	.L320
 1445 0458 1868     		ldr	r0, [r3]
 1446 045a 154B     		ldr	r3, .L508+8
 1447 045c 10F48060 		ands	r0, r0, #1024
 1448 0460 18BF     		it	ne
 1449 0462 1846     		movne	r0, r3
 1450 0464 7047     		bx	lr
 1451              	.L297:
 1452 0466 104A     		ldr	r2, .L508
 1453 0468 D2F88830 		ldr	r3, [r2, #136]
 1454 046c 03F44053 		and	r3, r3, #12288
 1455 0470 B3F5805F 		cmp	r3, #4096
 1456 0474 3FF442AF 		beq	.L489
 1457 0478 B3F5005F 		cmp	r3, #8192
 1458 047c 7FF424AE 		bne	.L497
 1459 0480 FEE6     		b	.L342
 1460              	.L310:
 1461 0482 2068     		ldr	r0, [r4]
 1462 0484 10F00200 		ands	r0, r0, #2
 1463 0488 3FF443AE 		beq	.L277
 1464 048c 2368     		ldr	r3, [r4]
 1465 048e 094A     		ldr	r2, .L508+12
 1466 0490 1907     		lsls	r1, r3, #28
 1467 0492 4BBF     		itete	mi
 1468 0494 2368     		ldrmi	r3, [r4]
 1469 0496 D4F89430 		ldrpl	r3, [r4, #148]
 1470 049a C3F30313 		ubfxmi	r3, r3, #4, #4
 1471 049e C3F30323 		ubfxpl	r3, r3, #8, #4
 1472 04a2 52F82300 		ldr	r0, [r2, r3, lsl #2]
 1473 04a6 34E6     		b	.L277
 1474              	.L509:
 1475              		.align	2
 1476              	.L508:
 1477 04a8 00100240 		.word	1073876992
 1478 04ac 90D00300 		.word	250000
 1479 04b0 0024F400 		.word	16000000
 1480 04b4 00000000 		.word	MSIRangeTable
 1482              		.section	.text.HAL_RCCEx_EnablePLLSAI1,"ax",%progbits
 1483              		.align	1
 1484              		.p2align 2,,3
 1485              		.global	HAL_RCCEx_EnablePLLSAI1
 1486              		.syntax unified
 1487              		.thumb
 1488              		.thumb_func
 1489              		.fpu fpv4-sp-d16
 1491              	HAL_RCCEx_EnablePLLSAI1:
 1492              		@ args = 0, pretend = 0, frame = 0
 1493              		@ frame_needed = 0, uses_anonymous_args = 0
 1494 0000 70B5     		push	{r4, r5, r6, lr}
 1495 0002 204C     		ldr	r4, .L522
ARM GAS  /tmp/ccyGcoIQ.s 			page 27


 1496 0004 2368     		ldr	r3, [r4]
 1497 0006 23F08063 		bic	r3, r3, #67108864
 1498 000a 2360     		str	r3, [r4]
 1499 000c 0646     		mov	r6, r0
 1500 000e FFF7FEFF 		bl	HAL_GetTick
 1501 0012 0546     		mov	r5, r0
 1502 0014 04E0     		b	.L511
 1503              	.L513:
 1504 0016 FFF7FEFF 		bl	HAL_GetTick
 1505 001a 431B     		subs	r3, r0, r5
 1506 001c 022B     		cmp	r3, #2
 1507 001e 2ED8     		bhi	.L515
 1508              	.L511:
 1509 0020 2368     		ldr	r3, [r4]
 1510 0022 1A01     		lsls	r2, r3, #4
 1511 0024 F7D4     		bmi	.L513
 1512 0026 2269     		ldr	r2, [r4, #16]
 1513 0028 174B     		ldr	r3, .L522+4
 1514 002a B168     		ldr	r1, [r6, #8]
 1515 002c 154D     		ldr	r5, .L522
 1516 002e 1340     		ands	r3, r3, r2
 1517 0030 F268     		ldr	r2, [r6, #12]
 1518 0032 43EA0123 		orr	r3, r3, r1, lsl #8
 1519 0036 1209     		lsrs	r2, r2, #4
 1520 0038 43EA4243 		orr	r3, r3, r2, lsl #17
 1521 003c D6E90412 		ldrd	r1, r2, [r6, #16]
 1522 0040 4908     		lsrs	r1, r1, #1
 1523 0042 0139     		subs	r1, r1, #1
 1524 0044 5208     		lsrs	r2, r2, #1
 1525 0046 43EA4153 		orr	r3, r3, r1, lsl #21
 1526 004a 013A     		subs	r2, r2, #1
 1527 004c 43EA4263 		orr	r3, r3, r2, lsl #25
 1528 0050 2361     		str	r3, [r4, #16]
 1529 0052 2369     		ldr	r3, [r4, #16]
 1530 0054 B269     		ldr	r2, [r6, #24]
 1531 0056 1343     		orrs	r3, r3, r2
 1532 0058 2361     		str	r3, [r4, #16]
 1533 005a 2368     		ldr	r3, [r4]
 1534 005c 43F08063 		orr	r3, r3, #67108864
 1535 0060 2360     		str	r3, [r4]
 1536 0062 FFF7FEFF 		bl	HAL_GetTick
 1537 0066 0446     		mov	r4, r0
 1538 0068 04E0     		b	.L517
 1539              	.L516:
 1540 006a FFF7FEFF 		bl	HAL_GetTick
 1541 006e 001B     		subs	r0, r0, r4
 1542 0070 0228     		cmp	r0, #2
 1543 0072 04D8     		bhi	.L515
 1544              	.L517:
 1545 0074 2B68     		ldr	r3, [r5]
 1546 0076 1B01     		lsls	r3, r3, #4
 1547 0078 F7D5     		bpl	.L516
 1548 007a 0020     		movs	r0, #0
 1549 007c 70BD     		pop	{r4, r5, r6, pc}
 1550              	.L515:
 1551 007e 0320     		movs	r0, #3
 1552 0080 70BD     		pop	{r4, r5, r6, pc}
ARM GAS  /tmp/ccyGcoIQ.s 			page 28


 1553              	.L523:
 1554 0082 00BF     		.align	2
 1555              	.L522:
 1556 0084 00100240 		.word	1073876992
 1557 0088 FF809DF9 		.word	-107118337
 1559              		.section	.text.HAL_RCCEx_DisablePLLSAI1,"ax",%progbits
 1560              		.align	1
 1561              		.p2align 2,,3
 1562              		.global	HAL_RCCEx_DisablePLLSAI1
 1563              		.syntax unified
 1564              		.thumb
 1565              		.thumb_func
 1566              		.fpu fpv4-sp-d16
 1568              	HAL_RCCEx_DisablePLLSAI1:
 1569              		@ args = 0, pretend = 0, frame = 0
 1570              		@ frame_needed = 0, uses_anonymous_args = 0
 1571 0000 38B5     		push	{r3, r4, r5, lr}
 1572 0002 124C     		ldr	r4, .L531
 1573 0004 2368     		ldr	r3, [r4]
 1574 0006 23F08063 		bic	r3, r3, #67108864
 1575 000a 2360     		str	r3, [r4]
 1576 000c FFF7FEFF 		bl	HAL_GetTick
 1577 0010 0546     		mov	r5, r0
 1578 0012 04E0     		b	.L525
 1579              	.L527:
 1580 0014 FFF7FEFF 		bl	HAL_GetTick
 1581 0018 401B     		subs	r0, r0, r5
 1582 001a 0228     		cmp	r0, #2
 1583 001c 14D8     		bhi	.L529
 1584              	.L525:
 1585 001e 2368     		ldr	r3, [r4]
 1586 0020 13F00063 		ands	r3, r3, #134217728
 1587 0024 F6D1     		bne	.L527
 1588 0026 1846     		mov	r0, r3
 1589              	.L526:
 1590 0028 084A     		ldr	r2, .L531
 1591 002a 1369     		ldr	r3, [r2, #16]
 1592 002c 23F08873 		bic	r3, r3, #17825792
 1593 0030 23F48033 		bic	r3, r3, #65536
 1594 0034 1361     		str	r3, [r2, #16]
 1595 0036 1368     		ldr	r3, [r2]
 1596 0038 13F0085F 		tst	r3, #570425344
 1597 003c 03D1     		bne	.L528
 1598 003e D368     		ldr	r3, [r2, #12]
 1599 0040 23F00303 		bic	r3, r3, #3
 1600 0044 D360     		str	r3, [r2, #12]
 1601              	.L528:
 1602 0046 38BD     		pop	{r3, r4, r5, pc}
 1603              	.L529:
 1604 0048 0320     		movs	r0, #3
 1605 004a EDE7     		b	.L526
 1606              	.L532:
 1607              		.align	2
 1608              	.L531:
 1609 004c 00100240 		.word	1073876992
 1611              		.section	.text.HAL_RCCEx_EnablePLLSAI2,"ax",%progbits
 1612              		.align	1
ARM GAS  /tmp/ccyGcoIQ.s 			page 29


 1613              		.p2align 2,,3
 1614              		.global	HAL_RCCEx_EnablePLLSAI2
 1615              		.syntax unified
 1616              		.thumb
 1617              		.thumb_func
 1618              		.fpu fpv4-sp-d16
 1620              	HAL_RCCEx_EnablePLLSAI2:
 1621              		@ args = 0, pretend = 0, frame = 0
 1622              		@ frame_needed = 0, uses_anonymous_args = 0
 1623 0000 70B5     		push	{r4, r5, r6, lr}
 1624 0002 1D4C     		ldr	r4, .L545
 1625 0004 2368     		ldr	r3, [r4]
 1626 0006 23F08053 		bic	r3, r3, #268435456
 1627 000a 2360     		str	r3, [r4]
 1628 000c 0646     		mov	r6, r0
 1629 000e FFF7FEFF 		bl	HAL_GetTick
 1630 0012 0546     		mov	r5, r0
 1631 0014 04E0     		b	.L534
 1632              	.L536:
 1633 0016 FFF7FEFF 		bl	HAL_GetTick
 1634 001a 431B     		subs	r3, r0, r5
 1635 001c 022B     		cmp	r3, #2
 1636 001e 29D8     		bhi	.L538
 1637              	.L534:
 1638 0020 2368     		ldr	r3, [r4]
 1639 0022 9A00     		lsls	r2, r3, #2
 1640 0024 F7D4     		bmi	.L536
 1641 0026 6269     		ldr	r2, [r4, #20]
 1642 0028 144B     		ldr	r3, .L545+4
 1643 002a B168     		ldr	r1, [r6, #8]
 1644 002c 124D     		ldr	r5, .L545
 1645 002e 1340     		ands	r3, r3, r2
 1646 0030 F268     		ldr	r2, [r6, #12]
 1647 0032 43EA0123 		orr	r3, r3, r1, lsl #8
 1648 0036 1209     		lsrs	r2, r2, #4
 1649 0038 43EA4243 		orr	r3, r3, r2, lsl #17
 1650 003c 3269     		ldr	r2, [r6, #16]
 1651 003e 5208     		lsrs	r2, r2, #1
 1652 0040 013A     		subs	r2, r2, #1
 1653 0042 43EA4263 		orr	r3, r3, r2, lsl #25
 1654 0046 6361     		str	r3, [r4, #20]
 1655 0048 6369     		ldr	r3, [r4, #20]
 1656 004a 7269     		ldr	r2, [r6, #20]
 1657 004c 1343     		orrs	r3, r3, r2
 1658 004e 6361     		str	r3, [r4, #20]
 1659 0050 2368     		ldr	r3, [r4]
 1660 0052 43F08053 		orr	r3, r3, #268435456
 1661 0056 2360     		str	r3, [r4]
 1662 0058 FFF7FEFF 		bl	HAL_GetTick
 1663 005c 0446     		mov	r4, r0
 1664 005e 04E0     		b	.L540
 1665              	.L539:
 1666 0060 FFF7FEFF 		bl	HAL_GetTick
 1667 0064 001B     		subs	r0, r0, r4
 1668 0066 0228     		cmp	r0, #2
 1669 0068 04D8     		bhi	.L538
 1670              	.L540:
ARM GAS  /tmp/ccyGcoIQ.s 			page 30


 1671 006a 2B68     		ldr	r3, [r5]
 1672 006c 9B00     		lsls	r3, r3, #2
 1673 006e F7D5     		bpl	.L539
 1674 0070 0020     		movs	r0, #0
 1675 0072 70BD     		pop	{r4, r5, r6, pc}
 1676              	.L538:
 1677 0074 0320     		movs	r0, #3
 1678 0076 70BD     		pop	{r4, r5, r6, pc}
 1679              	.L546:
 1680              		.align	2
 1681              	.L545:
 1682 0078 00100240 		.word	1073876992
 1683 007c FF80FDF9 		.word	-100826881
 1685              		.section	.text.HAL_RCCEx_DisablePLLSAI2,"ax",%progbits
 1686              		.align	1
 1687              		.p2align 2,,3
 1688              		.global	HAL_RCCEx_DisablePLLSAI2
 1689              		.syntax unified
 1690              		.thumb
 1691              		.thumb_func
 1692              		.fpu fpv4-sp-d16
 1694              	HAL_RCCEx_DisablePLLSAI2:
 1695              		@ args = 0, pretend = 0, frame = 0
 1696              		@ frame_needed = 0, uses_anonymous_args = 0
 1697 0000 38B5     		push	{r3, r4, r5, lr}
 1698 0002 124C     		ldr	r4, .L554
 1699 0004 2368     		ldr	r3, [r4]
 1700 0006 23F08053 		bic	r3, r3, #268435456
 1701 000a 2360     		str	r3, [r4]
 1702 000c FFF7FEFF 		bl	HAL_GetTick
 1703 0010 0546     		mov	r5, r0
 1704 0012 04E0     		b	.L548
 1705              	.L550:
 1706 0014 FFF7FEFF 		bl	HAL_GetTick
 1707 0018 401B     		subs	r0, r0, r5
 1708 001a 0228     		cmp	r0, #2
 1709 001c 14D8     		bhi	.L552
 1710              	.L548:
 1711 001e 2368     		ldr	r3, [r4]
 1712 0020 13F00053 		ands	r3, r3, #536870912
 1713 0024 F6D1     		bne	.L550
 1714 0026 1846     		mov	r0, r3
 1715              	.L549:
 1716 0028 084A     		ldr	r2, .L554
 1717 002a 5369     		ldr	r3, [r2, #20]
 1718 002c 23F08073 		bic	r3, r3, #16777216
 1719 0030 23F48033 		bic	r3, r3, #65536
 1720 0034 5361     		str	r3, [r2, #20]
 1721 0036 1368     		ldr	r3, [r2]
 1722 0038 13F0206F 		tst	r3, #167772160
 1723 003c 03D1     		bne	.L551
 1724 003e D368     		ldr	r3, [r2, #12]
 1725 0040 23F00303 		bic	r3, r3, #3
 1726 0044 D360     		str	r3, [r2, #12]
 1727              	.L551:
 1728 0046 38BD     		pop	{r3, r4, r5, pc}
 1729              	.L552:
ARM GAS  /tmp/ccyGcoIQ.s 			page 31


 1730 0048 0320     		movs	r0, #3
 1731 004a EDE7     		b	.L549
 1732              	.L555:
 1733              		.align	2
 1734              	.L554:
 1735 004c 00100240 		.word	1073876992
 1737              		.section	.text.HAL_RCCEx_WakeUpStopCLKConfig,"ax",%progbits
 1738              		.align	1
 1739              		.p2align 2,,3
 1740              		.global	HAL_RCCEx_WakeUpStopCLKConfig
 1741              		.syntax unified
 1742              		.thumb
 1743              		.thumb_func
 1744              		.fpu fpv4-sp-d16
 1746              	HAL_RCCEx_WakeUpStopCLKConfig:
 1747              		@ args = 0, pretend = 0, frame = 0
 1748              		@ frame_needed = 0, uses_anonymous_args = 0
 1749              		@ link register save eliminated.
 1750 0000 034A     		ldr	r2, .L557
 1751 0002 9368     		ldr	r3, [r2, #8]
 1752 0004 23F40043 		bic	r3, r3, #32768
 1753 0008 1843     		orrs	r0, r0, r3
 1754 000a 9060     		str	r0, [r2, #8]
 1755 000c 7047     		bx	lr
 1756              	.L558:
 1757 000e 00BF     		.align	2
 1758              	.L557:
 1759 0010 00100240 		.word	1073876992
 1761              		.section	.text.HAL_RCCEx_StandbyMSIRangeConfig,"ax",%progbits
 1762              		.align	1
 1763              		.p2align 2,,3
 1764              		.global	HAL_RCCEx_StandbyMSIRangeConfig
 1765              		.syntax unified
 1766              		.thumb
 1767              		.thumb_func
 1768              		.fpu fpv4-sp-d16
 1770              	HAL_RCCEx_StandbyMSIRangeConfig:
 1771              		@ args = 0, pretend = 0, frame = 0
 1772              		@ frame_needed = 0, uses_anonymous_args = 0
 1773              		@ link register save eliminated.
 1774 0000 044A     		ldr	r2, .L560
 1775 0002 D2F89430 		ldr	r3, [r2, #148]
 1776 0006 23F47063 		bic	r3, r3, #3840
 1777 000a 43EA0010 		orr	r0, r3, r0, lsl #4
 1778 000e C2F89400 		str	r0, [r2, #148]
 1779 0012 7047     		bx	lr
 1780              	.L561:
 1781              		.align	2
 1782              	.L560:
 1783 0014 00100240 		.word	1073876992
 1785              		.section	.text.HAL_RCCEx_EnableLSECSS,"ax",%progbits
 1786              		.align	1
 1787              		.p2align 2,,3
 1788              		.global	HAL_RCCEx_EnableLSECSS
 1789              		.syntax unified
 1790              		.thumb
 1791              		.thumb_func
ARM GAS  /tmp/ccyGcoIQ.s 			page 32


 1792              		.fpu fpv4-sp-d16
 1794              	HAL_RCCEx_EnableLSECSS:
 1795              		@ args = 0, pretend = 0, frame = 0
 1796              		@ frame_needed = 0, uses_anonymous_args = 0
 1797              		@ link register save eliminated.
 1798 0000 034A     		ldr	r2, .L563
 1799 0002 D2F89030 		ldr	r3, [r2, #144]
 1800 0006 43F02003 		orr	r3, r3, #32
 1801 000a C2F89030 		str	r3, [r2, #144]
 1802 000e 7047     		bx	lr
 1803              	.L564:
 1804              		.align	2
 1805              	.L563:
 1806 0010 00100240 		.word	1073876992
 1808              		.section	.text.HAL_RCCEx_DisableLSECSS,"ax",%progbits
 1809              		.align	1
 1810              		.p2align 2,,3
 1811              		.global	HAL_RCCEx_DisableLSECSS
 1812              		.syntax unified
 1813              		.thumb
 1814              		.thumb_func
 1815              		.fpu fpv4-sp-d16
 1817              	HAL_RCCEx_DisableLSECSS:
 1818              		@ args = 0, pretend = 0, frame = 0
 1819              		@ frame_needed = 0, uses_anonymous_args = 0
 1820              		@ link register save eliminated.
 1821 0000 054B     		ldr	r3, .L566
 1822 0002 D3F89020 		ldr	r2, [r3, #144]
 1823 0006 22F02002 		bic	r2, r2, #32
 1824 000a C3F89020 		str	r2, [r3, #144]
 1825 000e 9A69     		ldr	r2, [r3, #24]
 1826 0010 22F40072 		bic	r2, r2, #512
 1827 0014 9A61     		str	r2, [r3, #24]
 1828 0016 7047     		bx	lr
 1829              	.L567:
 1830              		.align	2
 1831              	.L566:
 1832 0018 00100240 		.word	1073876992
 1834              		.section	.text.HAL_RCCEx_EnableLSECSS_IT,"ax",%progbits
 1835              		.align	1
 1836              		.p2align 2,,3
 1837              		.global	HAL_RCCEx_EnableLSECSS_IT
 1838              		.syntax unified
 1839              		.thumb
 1840              		.thumb_func
 1841              		.fpu fpv4-sp-d16
 1843              	HAL_RCCEx_EnableLSECSS_IT:
 1844              		@ args = 0, pretend = 0, frame = 0
 1845              		@ frame_needed = 0, uses_anonymous_args = 0
 1846              		@ link register save eliminated.
 1847 0000 0A4A     		ldr	r2, .L569
 1848 0002 0B4B     		ldr	r3, .L569+4
 1849 0004 D2F89010 		ldr	r1, [r2, #144]
 1850 0008 41F02001 		orr	r1, r1, #32
 1851 000c C2F89010 		str	r1, [r2, #144]
 1852 0010 9169     		ldr	r1, [r2, #24]
 1853 0012 41F40071 		orr	r1, r1, #512
ARM GAS  /tmp/ccyGcoIQ.s 			page 33


 1854 0016 9161     		str	r1, [r2, #24]
 1855 0018 1A68     		ldr	r2, [r3]
 1856 001a 42F40022 		orr	r2, r2, #524288
 1857 001e 1A60     		str	r2, [r3]
 1858 0020 9A68     		ldr	r2, [r3, #8]
 1859 0022 42F40022 		orr	r2, r2, #524288
 1860 0026 9A60     		str	r2, [r3, #8]
 1861 0028 7047     		bx	lr
 1862              	.L570:
 1863 002a 00BF     		.align	2
 1864              	.L569:
 1865 002c 00100240 		.word	1073876992
 1866 0030 00040140 		.word	1073808384
 1868              		.section	.text.HAL_RCCEx_LSECSS_Callback,"ax",%progbits
 1869              		.align	1
 1870              		.p2align 2,,3
 1871              		.weak	HAL_RCCEx_LSECSS_Callback
 1872              		.syntax unified
 1873              		.thumb
 1874              		.thumb_func
 1875              		.fpu fpv4-sp-d16
 1877              	HAL_RCCEx_LSECSS_Callback:
 1878              		@ args = 0, pretend = 0, frame = 0
 1879              		@ frame_needed = 0, uses_anonymous_args = 0
 1880              		@ link register save eliminated.
 1881 0000 7047     		bx	lr
 1883 0002 00BF     		.section	.text.HAL_RCCEx_LSECSS_IRQHandler,"ax",%progbits
 1884              		.align	1
 1885              		.p2align 2,,3
 1886              		.global	HAL_RCCEx_LSECSS_IRQHandler
 1887              		.syntax unified
 1888              		.thumb
 1889              		.thumb_func
 1890              		.fpu fpv4-sp-d16
 1892              	HAL_RCCEx_LSECSS_IRQHandler:
 1893              		@ args = 0, pretend = 0, frame = 0
 1894              		@ frame_needed = 0, uses_anonymous_args = 0
 1895 0000 10B5     		push	{r4, lr}
 1896 0002 054C     		ldr	r4, .L579
 1897 0004 E369     		ldr	r3, [r4, #28]
 1898 0006 9B05     		lsls	r3, r3, #22
 1899 0008 00D4     		bmi	.L578
 1900 000a 10BD     		pop	{r4, pc}
 1901              	.L578:
 1902 000c FFF7FEFF 		bl	HAL_RCCEx_LSECSS_Callback
 1903 0010 4FF40073 		mov	r3, #512
 1904 0014 2362     		str	r3, [r4, #32]
 1905 0016 10BD     		pop	{r4, pc}
 1906              	.L580:
 1907              		.align	2
 1908              	.L579:
 1909 0018 00100240 		.word	1073876992
 1911              		.section	.text.HAL_RCCEx_EnableLSCO,"ax",%progbits
 1912              		.align	1
 1913              		.p2align 2,,3
 1914              		.global	HAL_RCCEx_EnableLSCO
 1915              		.syntax unified
ARM GAS  /tmp/ccyGcoIQ.s 			page 34


 1916              		.thumb
 1917              		.thumb_func
 1918              		.fpu fpv4-sp-d16
 1920              	HAL_RCCEx_EnableLSCO:
 1921              		@ args = 0, pretend = 0, frame = 32
 1922              		@ frame_needed = 0, uses_anonymous_args = 0
 1923 0000 70B5     		push	{r4, r5, r6, lr}
 1924 0002 2B4C     		ldr	r4, .L589+8
 1925 0004 E36C     		ldr	r3, [r4, #76]
 1926 0006 43F00103 		orr	r3, r3, #1
 1927 000a E364     		str	r3, [r4, #76]
 1928 000c E36C     		ldr	r3, [r4, #76]
 1929 000e 88B0     		sub	sp, sp, #32
 1930 0010 9FED257B 		vldr.64	d7, .L589	@ int
 1931 0014 03F00103 		and	r3, r3, #1
 1932 0018 0093     		str	r3, [sp]
 1933 001a 0022     		movs	r2, #0
 1934 001c 0223     		movs	r3, #2
 1935 001e 0546     		mov	r5, r0
 1936 0020 02A9     		add	r1, sp, #8
 1937 0022 4FF09040 		mov	r0, #1207959552
 1938 0026 CDE90423 		strd	r2, [sp, #16]
 1939 002a 8DED027B 		vstr.64	d7, [sp, #8]	@ int
 1940 002e 009B     		ldr	r3, [sp]
 1941 0030 FFF7FEFF 		bl	HAL_GPIO_Init
 1942 0034 A36D     		ldr	r3, [r4, #88]
 1943 0036 DA00     		lsls	r2, r3, #3
 1944 0038 21D4     		bmi	.L586
 1945 003a A36D     		ldr	r3, [r4, #88]
 1946 003c 43F08053 		orr	r3, r3, #268435456
 1947 0040 A365     		str	r3, [r4, #88]
 1948 0042 A36D     		ldr	r3, [r4, #88]
 1949 0044 03F08053 		and	r3, r3, #268435456
 1950 0048 0193     		str	r3, [sp, #4]
 1951 004a 019B     		ldr	r3, [sp, #4]
 1952 004c 194B     		ldr	r3, .L589+12
 1953 004e 1B68     		ldr	r3, [r3]
 1954 0050 DB05     		lsls	r3, r3, #23
 1955 0052 4FF00106 		mov	r6, #1
 1956 0056 18D5     		bpl	.L583
 1957              	.L588:
 1958 0058 154A     		ldr	r2, .L589+8
 1959 005a D2F89030 		ldr	r3, [r2, #144]
 1960 005e 23F04073 		bic	r3, r3, #50331648
 1961 0062 43EA0500 		orr	r0, r3, r5
 1962 0066 40F08070 		orr	r0, r0, #16777216
 1963 006a C2F89000 		str	r0, [r2, #144]
 1964              	.L584:
 1965 006e 26B1     		cbz	r6, .L581
 1966 0070 0F4A     		ldr	r2, .L589+8
 1967 0072 936D     		ldr	r3, [r2, #88]
 1968 0074 23F08053 		bic	r3, r3, #268435456
 1969 0078 9365     		str	r3, [r2, #88]
 1970              	.L581:
 1971 007a 08B0     		add	sp, sp, #32
 1972              		@ sp needed
 1973 007c 70BD     		pop	{r4, r5, r6, pc}
ARM GAS  /tmp/ccyGcoIQ.s 			page 35


 1974              	.L586:
 1975 007e 0D4B     		ldr	r3, .L589+12
 1976 0080 1B68     		ldr	r3, [r3]
 1977 0082 DB05     		lsls	r3, r3, #23
 1978 0084 4FF00006 		mov	r6, #0
 1979 0088 E6D4     		bmi	.L588
 1980              	.L583:
 1981 008a FFF7FEFF 		bl	HAL_PWR_EnableBkUpAccess
 1982 008e 084A     		ldr	r2, .L589+8
 1983 0090 D2F89030 		ldr	r3, [r2, #144]
 1984 0094 23F04073 		bic	r3, r3, #50331648
 1985 0098 2B43     		orrs	r3, r3, r5
 1986 009a 43F08073 		orr	r3, r3, #16777216
 1987 009e C2F89030 		str	r3, [r2, #144]
 1988 00a2 FFF7FEFF 		bl	HAL_PWR_DisableBkUpAccess
 1989 00a6 E2E7     		b	.L584
 1990              	.L590:
 1991              		.align	3
 1992              	.L589:
 1993 00a8 04000000 		.word	4
 1994 00ac 03000000 		.word	3
 1995 00b0 00100240 		.word	1073876992
 1996 00b4 00700040 		.word	1073770496
 1998              		.section	.text.HAL_RCCEx_DisableLSCO,"ax",%progbits
 1999              		.align	1
 2000              		.p2align 2,,3
 2001              		.global	HAL_RCCEx_DisableLSCO
 2002              		.syntax unified
 2003              		.thumb
 2004              		.thumb_func
 2005              		.fpu fpv4-sp-d16
 2007              	HAL_RCCEx_DisableLSCO:
 2008              		@ args = 0, pretend = 0, frame = 8
 2009              		@ frame_needed = 0, uses_anonymous_args = 0
 2010 0000 10B5     		push	{r4, lr}
 2011 0002 1A4B     		ldr	r3, .L599
 2012 0004 9A6D     		ldr	r2, [r3, #88]
 2013 0006 D200     		lsls	r2, r2, #3
 2014 0008 82B0     		sub	sp, sp, #8
 2015 000a 1DD4     		bmi	.L596
 2016 000c 9A6D     		ldr	r2, [r3, #88]
 2017 000e 42F08052 		orr	r2, r2, #268435456
 2018 0012 9A65     		str	r2, [r3, #88]
 2019 0014 9B6D     		ldr	r3, [r3, #88]
 2020 0016 03F08053 		and	r3, r3, #268435456
 2021 001a 0193     		str	r3, [sp, #4]
 2022 001c 019B     		ldr	r3, [sp, #4]
 2023 001e 144B     		ldr	r3, .L599+4
 2024 0020 1B68     		ldr	r3, [r3]
 2025 0022 DB05     		lsls	r3, r3, #23
 2026 0024 4FF00104 		mov	r4, #1
 2027 0028 14D5     		bpl	.L593
 2028              	.L598:
 2029 002a 104A     		ldr	r2, .L599
 2030 002c D2F89030 		ldr	r3, [r2, #144]
 2031 0030 23F08073 		bic	r3, r3, #16777216
 2032 0034 C2F89030 		str	r3, [r2, #144]
ARM GAS  /tmp/ccyGcoIQ.s 			page 36


 2033              	.L594:
 2034 0038 24B1     		cbz	r4, .L591
 2035 003a 0C4A     		ldr	r2, .L599
 2036 003c 936D     		ldr	r3, [r2, #88]
 2037 003e 23F08053 		bic	r3, r3, #268435456
 2038 0042 9365     		str	r3, [r2, #88]
 2039              	.L591:
 2040 0044 02B0     		add	sp, sp, #8
 2041              		@ sp needed
 2042 0046 10BD     		pop	{r4, pc}
 2043              	.L596:
 2044 0048 094B     		ldr	r3, .L599+4
 2045 004a 1B68     		ldr	r3, [r3]
 2046 004c DB05     		lsls	r3, r3, #23
 2047 004e 4FF00004 		mov	r4, #0
 2048 0052 EAD4     		bmi	.L598
 2049              	.L593:
 2050 0054 FFF7FEFF 		bl	HAL_PWR_EnableBkUpAccess
 2051 0058 044A     		ldr	r2, .L599
 2052 005a D2F89030 		ldr	r3, [r2, #144]
 2053 005e 23F08073 		bic	r3, r3, #16777216
 2054 0062 C2F89030 		str	r3, [r2, #144]
 2055 0066 FFF7FEFF 		bl	HAL_PWR_DisableBkUpAccess
 2056 006a E5E7     		b	.L594
 2057              	.L600:
 2058              		.align	2
 2059              	.L599:
 2060 006c 00100240 		.word	1073876992
 2061 0070 00700040 		.word	1073770496
 2063              		.section	.text.HAL_RCCEx_EnableMSIPLLMode,"ax",%progbits
 2064              		.align	1
 2065              		.p2align 2,,3
 2066              		.global	HAL_RCCEx_EnableMSIPLLMode
 2067              		.syntax unified
 2068              		.thumb
 2069              		.thumb_func
 2070              		.fpu fpv4-sp-d16
 2072              	HAL_RCCEx_EnableMSIPLLMode:
 2073              		@ args = 0, pretend = 0, frame = 0
 2074              		@ frame_needed = 0, uses_anonymous_args = 0
 2075              		@ link register save eliminated.
 2076 0000 024A     		ldr	r2, .L602
 2077 0002 1368     		ldr	r3, [r2]
 2078 0004 43F00403 		orr	r3, r3, #4
 2079 0008 1360     		str	r3, [r2]
 2080 000a 7047     		bx	lr
 2081              	.L603:
 2082              		.align	2
 2083              	.L602:
 2084 000c 00100240 		.word	1073876992
 2086              		.section	.text.HAL_RCCEx_DisableMSIPLLMode,"ax",%progbits
 2087              		.align	1
 2088              		.p2align 2,,3
 2089              		.global	HAL_RCCEx_DisableMSIPLLMode
 2090              		.syntax unified
 2091              		.thumb
 2092              		.thumb_func
ARM GAS  /tmp/ccyGcoIQ.s 			page 37


 2093              		.fpu fpv4-sp-d16
 2095              	HAL_RCCEx_DisableMSIPLLMode:
 2096              		@ args = 0, pretend = 0, frame = 0
 2097              		@ frame_needed = 0, uses_anonymous_args = 0
 2098              		@ link register save eliminated.
 2099 0000 024A     		ldr	r2, .L605
 2100 0002 1368     		ldr	r3, [r2]
 2101 0004 23F00403 		bic	r3, r3, #4
 2102 0008 1360     		str	r3, [r2]
 2103 000a 7047     		bx	lr
 2104              	.L606:
 2105              		.align	2
 2106              	.L605:
 2107 000c 00100240 		.word	1073876992
 2109              		.ident	"GCC: (Arch Repository) 11.2.0"
ARM GAS  /tmp/ccyGcoIQ.s 			page 38

