ARM GAS  /tmp/ccYEW8DG.s 			page 1


   1              		.cpu cortex-m4
   2              		.eabi_attribute 27, 1
   3              		.eabi_attribute 28, 1
   4              		.eabi_attribute 20, 1
   5              		.eabi_attribute 21, 1
   6              		.eabi_attribute 23, 3
   7              		.eabi_attribute 24, 1
   8              		.eabi_attribute 25, 1
   9              		.eabi_attribute 26, 1
  10              		.eabi_attribute 30, 2
  11              		.eabi_attribute 34, 1
  12              		.eabi_attribute 18, 4
  13              		.file	"stm32l4xx_hal_cortex.c"
  14              		.text
  15              		.section	.text.HAL_NVIC_SetPriorityGrouping,"ax",%progbits
  16              		.align	1
  17              		.p2align 2,,3
  18              		.global	HAL_NVIC_SetPriorityGrouping
  19              		.arch armv7e-m
  20              		.syntax unified
  21              		.thumb
  22              		.thumb_func
  23              		.fpu fpv4-sp-d16
  25              	HAL_NVIC_SetPriorityGrouping:
  26              		@ args = 0, pretend = 0, frame = 0
  27              		@ frame_needed = 0, uses_anonymous_args = 0
  28              		@ link register save eliminated.
  29 0000 0749     		ldr	r1, .L3
  30 0002 CA68     		ldr	r2, [r1, #12]
  31 0004 0302     		lsls	r3, r0, #8
  32 0006 4FF6FF00 		movw	r0, #63743
  33 000a 03F4E063 		and	r3, r3, #1792
  34 000e 0240     		ands	r2, r2, r0
  35 0010 1343     		orrs	r3, r3, r2
  36 0012 43F0BF63 		orr	r3, r3, #100139008
  37 0016 43F40033 		orr	r3, r3, #131072
  38 001a CB60     		str	r3, [r1, #12]
  39 001c 7047     		bx	lr
  40              	.L4:
  41 001e 00BF     		.align	2
  42              	.L3:
  43 0020 00ED00E0 		.word	-536810240
  45              		.section	.text.HAL_NVIC_SetPriority,"ax",%progbits
  46              		.align	1
  47              		.p2align 2,,3
  48              		.global	HAL_NVIC_SetPriority
  49              		.syntax unified
  50              		.thumb
  51              		.thumb_func
  52              		.fpu fpv4-sp-d16
  54              	HAL_NVIC_SetPriority:
  55              		@ args = 0, pretend = 0, frame = 0
  56              		@ frame_needed = 0, uses_anonymous_args = 0
  57 0000 1B4B     		ldr	r3, .L11
  58 0002 DB68     		ldr	r3, [r3, #12]
  59 0004 C3F30223 		ubfx	r3, r3, #8, #3
  60 0008 00B5     		push	{lr}
ARM GAS  /tmp/ccYEW8DG.s 			page 2


  61 000a C3F1070E 		rsb	lr, r3, #7
  62 000e BEF1040F 		cmp	lr, #4
  63 0012 03F1040C 		add	ip, r3, #4
  64 0016 28BF     		it	cs
  65 0018 4FF0040E 		movcs	lr, #4
  66 001c BCF1060F 		cmp	ip, #6
  67 0020 1CD9     		bls	.L9
  68 0022 A3F1030C 		sub	ip, r3, #3
  69 0026 4FF0FF33 		mov	r3, #-1
  70 002a 03FA0CF3 		lsl	r3, r3, ip
  71 002e 22EA0302 		bic	r2, r2, r3
  72              	.L6:
  73 0032 4FF0FF33 		mov	r3, #-1
  74 0036 03FA0EF3 		lsl	r3, r3, lr
  75 003a 21EA0303 		bic	r3, r1, r3
  76 003e 03FA0CF3 		lsl	r3, r3, ip
  77 0042 1343     		orrs	r3, r3, r2
  78 0044 1B01     		lsls	r3, r3, #4
  79 0046 0028     		cmp	r0, #0
  80 0048 DBB2     		uxtb	r3, r3
  81 004a 0ADB     		blt	.L7
  82 004c 00F16040 		add	r0, r0, #-536870912
  83 0050 00F56140 		add	r0, r0, #57600
  84 0054 80F80033 		strb	r3, [r0, #768]
  85 0058 5DF804FB 		ldr	pc, [sp], #4
  86              	.L9:
  87 005c 0022     		movs	r2, #0
  88 005e 9446     		mov	ip, r2
  89 0060 E7E7     		b	.L6
  90              	.L7:
  91 0062 044A     		ldr	r2, .L11+4
  92 0064 00F00F00 		and	r0, r0, #15
  93 0068 0244     		add	r2, r2, r0
  94 006a 1376     		strb	r3, [r2, #24]
  95 006c 5DF804FB 		ldr	pc, [sp], #4
  96              	.L12:
  97              		.align	2
  98              	.L11:
  99 0070 00ED00E0 		.word	-536810240
 100 0074 FCEC00E0 		.word	-536810244
 102              		.section	.text.HAL_NVIC_EnableIRQ,"ax",%progbits
 103              		.align	1
 104              		.p2align 2,,3
 105              		.global	HAL_NVIC_EnableIRQ
 106              		.syntax unified
 107              		.thumb
 108              		.thumb_func
 109              		.fpu fpv4-sp-d16
 111              	HAL_NVIC_EnableIRQ:
 112              		@ args = 0, pretend = 0, frame = 0
 113              		@ frame_needed = 0, uses_anonymous_args = 0
 114              		@ link register save eliminated.
 115 0000 0028     		cmp	r0, #0
 116 0002 07DB     		blt	.L13
 117 0004 044A     		ldr	r2, .L15
 118 0006 4109     		lsrs	r1, r0, #5
 119 0008 0123     		movs	r3, #1
ARM GAS  /tmp/ccYEW8DG.s 			page 3


 120 000a 00F01F00 		and	r0, r0, #31
 121 000e 8340     		lsls	r3, r3, r0
 122 0010 42F82130 		str	r3, [r2, r1, lsl #2]
 123              	.L13:
 124 0014 7047     		bx	lr
 125              	.L16:
 126 0016 00BF     		.align	2
 127              	.L15:
 128 0018 00E100E0 		.word	-536813312
 130              		.section	.text.HAL_NVIC_DisableIRQ,"ax",%progbits
 131              		.align	1
 132              		.p2align 2,,3
 133              		.global	HAL_NVIC_DisableIRQ
 134              		.syntax unified
 135              		.thumb
 136              		.thumb_func
 137              		.fpu fpv4-sp-d16
 139              	HAL_NVIC_DisableIRQ:
 140              		@ args = 0, pretend = 0, frame = 0
 141              		@ frame_needed = 0, uses_anonymous_args = 0
 142              		@ link register save eliminated.
 143 0000 0028     		cmp	r0, #0
 144 0002 0CDB     		blt	.L17
 145 0004 4309     		lsrs	r3, r0, #5
 146 0006 0649     		ldr	r1, .L19
 147 0008 00F01F00 		and	r0, r0, #31
 148 000c 2033     		adds	r3, r3, #32
 149 000e 0122     		movs	r2, #1
 150 0010 8240     		lsls	r2, r2, r0
 151 0012 41F82320 		str	r2, [r1, r3, lsl #2]
 152              		.syntax unified
 153              	@ 946 "Drivers/CMSIS/Include/cmsis_gcc.h" 1
 154 0016 BFF34F8F 		dsb 0xF
 155              	@ 0 "" 2
 156              	@ 935 "Drivers/CMSIS/Include/cmsis_gcc.h" 1
 157 001a BFF36F8F 		isb 0xF
 158              	@ 0 "" 2
 159              		.thumb
 160              		.syntax unified
 161              	.L17:
 162 001e 7047     		bx	lr
 163              	.L20:
 164              		.align	2
 165              	.L19:
 166 0020 00E100E0 		.word	-536813312
 168              		.section	.text.HAL_NVIC_SystemReset,"ax",%progbits
 169              		.align	1
 170              		.p2align 2,,3
 171              		.global	HAL_NVIC_SystemReset
 172              		.syntax unified
 173              		.thumb
 174              		.thumb_func
 175              		.fpu fpv4-sp-d16
 177              	HAL_NVIC_SystemReset:
 178              		@ Volatile: function does not return.
 179              		@ args = 0, pretend = 0, frame = 0
 180              		@ frame_needed = 0, uses_anonymous_args = 0
ARM GAS  /tmp/ccYEW8DG.s 			page 4


 181              		@ link register save eliminated.
 182              		.syntax unified
 183              	@ 946 "Drivers/CMSIS/Include/cmsis_gcc.h" 1
 184 0000 BFF34F8F 		dsb 0xF
 185              	@ 0 "" 2
 186              		.thumb
 187              		.syntax unified
 188 0004 0549     		ldr	r1, .L23
 189 0006 064B     		ldr	r3, .L23+4
 190 0008 CA68     		ldr	r2, [r1, #12]
 191 000a 02F4E062 		and	r2, r2, #1792
 192 000e 1343     		orrs	r3, r3, r2
 193 0010 CB60     		str	r3, [r1, #12]
 194              		.syntax unified
 195              	@ 946 "Drivers/CMSIS/Include/cmsis_gcc.h" 1
 196 0012 BFF34F8F 		dsb 0xF
 197              	@ 0 "" 2
 198              		.thumb
 199              		.syntax unified
 200              	.L22:
 201              		.syntax unified
 202              	@ 1944 "Drivers/CMSIS/Include/core_cm4.h" 1
 203 0016 00BF     		nop
 204              	@ 0 "" 2
 205              		.thumb
 206              		.syntax unified
 207 0018 FDE7     		b	.L22
 208              	.L24:
 209 001a 00BF     		.align	2
 210              	.L23:
 211 001c 00ED00E0 		.word	-536810240
 212 0020 0400FA05 		.word	100270084
 214              		.section	.text.HAL_SYSTICK_Config,"ax",%progbits
 215              		.align	1
 216              		.p2align 2,,3
 217              		.global	HAL_SYSTICK_Config
 218              		.syntax unified
 219              		.thumb
 220              		.thumb_func
 221              		.fpu fpv4-sp-d16
 223              	HAL_SYSTICK_Config:
 224              		@ args = 0, pretend = 0, frame = 0
 225              		@ frame_needed = 0, uses_anonymous_args = 0
 226              		@ link register save eliminated.
 227 0000 0138     		subs	r0, r0, #1
 228 0002 B0F1807F 		cmp	r0, #16777216
 229 0006 10D2     		bcs	.L27
 230 0008 10B4     		push	{r4}
 231 000a 4FF0E023 		mov	r3, #-536813568
 232 000e 084C     		ldr	r4, .L32
 233 0010 5861     		str	r0, [r3, #20]
 234 0012 4FF0F00C 		mov	ip, #240
 235 0016 84F823C0 		strb	ip, [r4, #35]
 236 001a 0022     		movs	r2, #0
 237 001c 0721     		movs	r1, #7
 238 001e 1046     		mov	r0, r2
 239 0020 9A61     		str	r2, [r3, #24]
ARM GAS  /tmp/ccYEW8DG.s 			page 5


 240 0022 5DF8044B 		ldr	r4, [sp], #4
 241 0026 1961     		str	r1, [r3, #16]
 242 0028 7047     		bx	lr
 243              	.L27:
 244 002a 0120     		movs	r0, #1
 245 002c 7047     		bx	lr
 246              	.L33:
 247 002e 00BF     		.align	2
 248              	.L32:
 249 0030 00ED00E0 		.word	-536810240
 251              		.section	.text.HAL_NVIC_GetPriorityGrouping,"ax",%progbits
 252              		.align	1
 253              		.p2align 2,,3
 254              		.global	HAL_NVIC_GetPriorityGrouping
 255              		.syntax unified
 256              		.thumb
 257              		.thumb_func
 258              		.fpu fpv4-sp-d16
 260              	HAL_NVIC_GetPriorityGrouping:
 261              		@ args = 0, pretend = 0, frame = 0
 262              		@ frame_needed = 0, uses_anonymous_args = 0
 263              		@ link register save eliminated.
 264 0000 024B     		ldr	r3, .L35
 265 0002 D868     		ldr	r0, [r3, #12]
 266 0004 C0F30220 		ubfx	r0, r0, #8, #3
 267 0008 7047     		bx	lr
 268              	.L36:
 269 000a 00BF     		.align	2
 270              	.L35:
 271 000c 00ED00E0 		.word	-536810240
 273              		.section	.text.HAL_NVIC_GetPriority,"ax",%progbits
 274              		.align	1
 275              		.p2align 2,,3
 276              		.global	HAL_NVIC_GetPriority
 277              		.syntax unified
 278              		.thumb
 279              		.thumb_func
 280              		.fpu fpv4-sp-d16
 282              	HAL_NVIC_GetPriority:
 283              		@ args = 0, pretend = 0, frame = 0
 284              		@ frame_needed = 0, uses_anonymous_args = 0
 285              		@ link register save eliminated.
 286 0000 0028     		cmp	r0, #0
 287 0002 10B4     		push	{r4}
 288 0004 27DB     		blt	.L38
 289 0006 00F16040 		add	r0, r0, #-536870912
 290 000a 00F56140 		add	r0, r0, #57600
 291 000e 90F80003 		ldrb	r0, [r0, #768]	@ zero_extendqisi2
 292 0012 0009     		lsrs	r0, r0, #4
 293              	.L39:
 294 0014 01F00701 		and	r1, r1, #7
 295 0018 C1F1070C 		rsb	ip, r1, #7
 296 001c BCF1040F 		cmp	ip, #4
 297 0020 01F10404 		add	r4, r1, #4
 298 0024 28BF     		it	cs
 299 0026 4FF0040C 		movcs	ip, #4
 300 002a 062C     		cmp	r4, #6
ARM GAS  /tmp/ccYEW8DG.s 			page 6


 301 002c 11D9     		bls	.L41
 302 002e 0339     		subs	r1, r1, #3
 303 0030 4FF0FF34 		mov	r4, #-1
 304 0034 8C40     		lsls	r4, r4, r1
 305 0036 20EA0404 		bic	r4, r0, r4
 306 003a C840     		lsrs	r0, r0, r1
 307              	.L40:
 308 003c 4FF0FF31 		mov	r1, #-1
 309 0040 01FA0CF1 		lsl	r1, r1, ip
 310 0044 20EA0100 		bic	r0, r0, r1
 311 0048 1060     		str	r0, [r2]
 312 004a 1C60     		str	r4, [r3]
 313 004c 5DF8044B 		ldr	r4, [sp], #4
 314 0050 7047     		bx	lr
 315              	.L41:
 316 0052 0024     		movs	r4, #0
 317 0054 F2E7     		b	.L40
 318              	.L38:
 319 0056 034C     		ldr	r4, .L43
 320 0058 00F00F00 		and	r0, r0, #15
 321 005c 0444     		add	r4, r4, r0
 322 005e 207E     		ldrb	r0, [r4, #24]	@ zero_extendqisi2
 323 0060 0009     		lsrs	r0, r0, #4
 324 0062 D7E7     		b	.L39
 325              	.L44:
 326              		.align	2
 327              	.L43:
 328 0064 FCEC00E0 		.word	-536810244
 330              		.section	.text.HAL_NVIC_SetPendingIRQ,"ax",%progbits
 331              		.align	1
 332              		.p2align 2,,3
 333              		.global	HAL_NVIC_SetPendingIRQ
 334              		.syntax unified
 335              		.thumb
 336              		.thumb_func
 337              		.fpu fpv4-sp-d16
 339              	HAL_NVIC_SetPendingIRQ:
 340              		@ args = 0, pretend = 0, frame = 0
 341              		@ frame_needed = 0, uses_anonymous_args = 0
 342              		@ link register save eliminated.
 343 0000 0028     		cmp	r0, #0
 344 0002 08DB     		blt	.L45
 345 0004 4309     		lsrs	r3, r0, #5
 346 0006 0449     		ldr	r1, .L47
 347 0008 00F01F00 		and	r0, r0, #31
 348 000c 0122     		movs	r2, #1
 349 000e 4033     		adds	r3, r3, #64
 350 0010 8240     		lsls	r2, r2, r0
 351 0012 41F82320 		str	r2, [r1, r3, lsl #2]
 352              	.L45:
 353 0016 7047     		bx	lr
 354              	.L48:
 355              		.align	2
 356              	.L47:
 357 0018 00E100E0 		.word	-536813312
 359              		.section	.text.HAL_NVIC_GetPendingIRQ,"ax",%progbits
 360              		.align	1
ARM GAS  /tmp/ccYEW8DG.s 			page 7


 361              		.p2align 2,,3
 362              		.global	HAL_NVIC_GetPendingIRQ
 363              		.syntax unified
 364              		.thumb
 365              		.thumb_func
 366              		.fpu fpv4-sp-d16
 368              	HAL_NVIC_GetPendingIRQ:
 369              		@ args = 0, pretend = 0, frame = 0
 370              		@ frame_needed = 0, uses_anonymous_args = 0
 371              		@ link register save eliminated.
 372 0000 0028     		cmp	r0, #0
 373 0002 0BDB     		blt	.L51
 374 0004 4309     		lsrs	r3, r0, #5
 375 0006 064A     		ldr	r2, .L52
 376 0008 4033     		adds	r3, r3, #64
 377 000a 00F01F00 		and	r0, r0, #31
 378 000e 52F82330 		ldr	r3, [r2, r3, lsl #2]
 379 0012 23FA00F0 		lsr	r0, r3, r0
 380 0016 00F00100 		and	r0, r0, #1
 381 001a 7047     		bx	lr
 382              	.L51:
 383 001c 0020     		movs	r0, #0
 384 001e 7047     		bx	lr
 385              	.L53:
 386              		.align	2
 387              	.L52:
 388 0020 00E100E0 		.word	-536813312
 390              		.section	.text.HAL_NVIC_ClearPendingIRQ,"ax",%progbits
 391              		.align	1
 392              		.p2align 2,,3
 393              		.global	HAL_NVIC_ClearPendingIRQ
 394              		.syntax unified
 395              		.thumb
 396              		.thumb_func
 397              		.fpu fpv4-sp-d16
 399              	HAL_NVIC_ClearPendingIRQ:
 400              		@ args = 0, pretend = 0, frame = 0
 401              		@ frame_needed = 0, uses_anonymous_args = 0
 402              		@ link register save eliminated.
 403 0000 0028     		cmp	r0, #0
 404 0002 08DB     		blt	.L54
 405 0004 4309     		lsrs	r3, r0, #5
 406 0006 0449     		ldr	r1, .L56
 407 0008 00F01F00 		and	r0, r0, #31
 408 000c 0122     		movs	r2, #1
 409 000e 6033     		adds	r3, r3, #96
 410 0010 8240     		lsls	r2, r2, r0
 411 0012 41F82320 		str	r2, [r1, r3, lsl #2]
 412              	.L54:
 413 0016 7047     		bx	lr
 414              	.L57:
 415              		.align	2
 416              	.L56:
 417 0018 00E100E0 		.word	-536813312
 419              		.section	.text.HAL_NVIC_GetActive,"ax",%progbits
 420              		.align	1
 421              		.p2align 2,,3
ARM GAS  /tmp/ccYEW8DG.s 			page 8


 422              		.global	HAL_NVIC_GetActive
 423              		.syntax unified
 424              		.thumb
 425              		.thumb_func
 426              		.fpu fpv4-sp-d16
 428              	HAL_NVIC_GetActive:
 429              		@ args = 0, pretend = 0, frame = 0
 430              		@ frame_needed = 0, uses_anonymous_args = 0
 431              		@ link register save eliminated.
 432 0000 0028     		cmp	r0, #0
 433 0002 0BDB     		blt	.L60
 434 0004 4309     		lsrs	r3, r0, #5
 435 0006 064A     		ldr	r2, .L61
 436 0008 8033     		adds	r3, r3, #128
 437 000a 00F01F00 		and	r0, r0, #31
 438 000e 52F82330 		ldr	r3, [r2, r3, lsl #2]
 439 0012 23FA00F0 		lsr	r0, r3, r0
 440 0016 00F00100 		and	r0, r0, #1
 441 001a 7047     		bx	lr
 442              	.L60:
 443 001c 0020     		movs	r0, #0
 444 001e 7047     		bx	lr
 445              	.L62:
 446              		.align	2
 447              	.L61:
 448 0020 00E100E0 		.word	-536813312
 450              		.section	.text.HAL_SYSTICK_CLKSourceConfig,"ax",%progbits
 451              		.align	1
 452              		.p2align 2,,3
 453              		.global	HAL_SYSTICK_CLKSourceConfig
 454              		.syntax unified
 455              		.thumb
 456              		.thumb_func
 457              		.fpu fpv4-sp-d16
 459              	HAL_SYSTICK_CLKSourceConfig:
 460              		@ args = 0, pretend = 0, frame = 0
 461              		@ frame_needed = 0, uses_anonymous_args = 0
 462              		@ link register save eliminated.
 463 0000 4FF0E022 		mov	r2, #-536813568
 464 0004 0428     		cmp	r0, #4
 465 0006 1369     		ldr	r3, [r2, #16]
 466 0008 0CBF     		ite	eq
 467 000a 43F00403 		orreq	r3, r3, #4
 468 000e 23F00403 		bicne	r3, r3, #4
 469 0012 1361     		str	r3, [r2, #16]
 470 0014 7047     		bx	lr
 472 0016 00BF     		.section	.text.HAL_SYSTICK_Callback,"ax",%progbits
 473              		.align	1
 474              		.p2align 2,,3
 475              		.weak	HAL_SYSTICK_Callback
 476              		.syntax unified
 477              		.thumb
 478              		.thumb_func
 479              		.fpu fpv4-sp-d16
 481              	HAL_SYSTICK_Callback:
 482              		@ args = 0, pretend = 0, frame = 0
 483              		@ frame_needed = 0, uses_anonymous_args = 0
ARM GAS  /tmp/ccYEW8DG.s 			page 9


 484              		@ link register save eliminated.
 485 0000 7047     		bx	lr
 487 0002 00BF     		.section	.text.HAL_SYSTICK_IRQHandler,"ax",%progbits
 488              		.align	1
 489              		.p2align 2,,3
 490              		.global	HAL_SYSTICK_IRQHandler
 491              		.syntax unified
 492              		.thumb
 493              		.thumb_func
 494              		.fpu fpv4-sp-d16
 496              	HAL_SYSTICK_IRQHandler:
 497              		@ args = 0, pretend = 0, frame = 0
 498              		@ frame_needed = 0, uses_anonymous_args = 0
 499 0000 08B5     		push	{r3, lr}
 500 0002 FFF7FEFF 		bl	HAL_SYSTICK_Callback
 501 0006 08BD     		pop	{r3, pc}
 503              		.section	.text.HAL_MPU_Enable,"ax",%progbits
 504              		.align	1
 505              		.p2align 2,,3
 506              		.global	HAL_MPU_Enable
 507              		.syntax unified
 508              		.thumb
 509              		.thumb_func
 510              		.fpu fpv4-sp-d16
 512              	HAL_MPU_Enable:
 513              		@ args = 0, pretend = 0, frame = 0
 514              		@ frame_needed = 0, uses_anonymous_args = 0
 515              		@ link register save eliminated.
 516 0000 044B     		ldr	r3, .L70
 517 0002 40F00100 		orr	r0, r0, #1
 518 0006 C3F89400 		str	r0, [r3, #148]
 519              		.syntax unified
 520              	@ 946 "Drivers/CMSIS/Include/cmsis_gcc.h" 1
 521 000a BFF34F8F 		dsb 0xF
 522              	@ 0 "" 2
 523              	@ 935 "Drivers/CMSIS/Include/cmsis_gcc.h" 1
 524 000e BFF36F8F 		isb 0xF
 525              	@ 0 "" 2
 526              		.thumb
 527              		.syntax unified
 528 0012 7047     		bx	lr
 529              	.L71:
 530              		.align	2
 531              	.L70:
 532 0014 00ED00E0 		.word	-536810240
 534              		.section	.text.HAL_MPU_Disable,"ax",%progbits
 535              		.align	1
 536              		.p2align 2,,3
 537              		.global	HAL_MPU_Disable
 538              		.syntax unified
 539              		.thumb
 540              		.thumb_func
 541              		.fpu fpv4-sp-d16
 543              	HAL_MPU_Disable:
 544              		@ args = 0, pretend = 0, frame = 0
 545              		@ frame_needed = 0, uses_anonymous_args = 0
 546              		@ link register save eliminated.
ARM GAS  /tmp/ccYEW8DG.s 			page 10


 547              		.syntax unified
 548              	@ 957 "Drivers/CMSIS/Include/cmsis_gcc.h" 1
 549 0000 BFF35F8F 		dmb 0xF
 550              	@ 0 "" 2
 551              		.thumb
 552              		.syntax unified
 553 0004 024B     		ldr	r3, .L73
 554 0006 0022     		movs	r2, #0
 555 0008 C3F89420 		str	r2, [r3, #148]
 556 000c 7047     		bx	lr
 557              	.L74:
 558 000e 00BF     		.align	2
 559              	.L73:
 560 0010 00ED00E0 		.word	-536810240
 562              		.section	.text.HAL_MPU_ConfigRegion,"ax",%progbits
 563              		.align	1
 564              		.p2align 2,,3
 565              		.global	HAL_MPU_ConfigRegion
 566              		.syntax unified
 567              		.thumb
 568              		.thumb_func
 569              		.fpu fpv4-sp-d16
 571              	HAL_MPU_ConfigRegion:
 572              		@ args = 0, pretend = 0, frame = 0
 573              		@ frame_needed = 0, uses_anonymous_args = 0
 574 0000 1749     		ldr	r1, .L82
 575 0002 4378     		ldrb	r3, [r0, #1]	@ zero_extendqisi2
 576 0004 C1F89830 		str	r3, [r1, #152]
 577 0008 0278     		ldrb	r2, [r0]	@ zero_extendqisi2
 578 000a 22B3     		cbz	r2, .L76
 579 000c 4368     		ldr	r3, [r0, #4]
 580 000e 00B5     		push	{lr}
 581 0010 C1F89C30 		str	r3, [r1, #156]
 582 0014 C37A     		ldrb	r3, [r0, #11]	@ zero_extendqisi2
 583 0016 90F80CC0 		ldrb	ip, [r0, #12]	@ zero_extendqisi2
 584 001a 90F80FE0 		ldrb	lr, [r0, #15]	@ zero_extendqisi2
 585 001e 1B06     		lsls	r3, r3, #24
 586 0020 43EA0C73 		orr	r3, r3, ip, lsl #28
 587 0024 90F80AC0 		ldrb	ip, [r0, #10]	@ zero_extendqisi2
 588 0028 1343     		orrs	r3, r3, r2
 589 002a 43EACC43 		orr	r3, r3, ip, lsl #19
 590 002e 90F80DC0 		ldrb	ip, [r0, #13]	@ zero_extendqisi2
 591 0032 827B     		ldrb	r2, [r0, #14]	@ zero_extendqisi2
 592 0034 43EA8C43 		orr	r3, r3, ip, lsl #18
 593 0038 43EA4243 		orr	r3, r3, r2, lsl #17
 594 003c 90F809C0 		ldrb	ip, [r0, #9]	@ zero_extendqisi2
 595 0040 027A     		ldrb	r2, [r0, #8]	@ zero_extendqisi2
 596 0042 43EA0E43 		orr	r3, r3, lr, lsl #16
 597 0046 43EA0C23 		orr	r3, r3, ip, lsl #8
 598 004a 43EA4203 		orr	r3, r3, r2, lsl #1
 599 004e C1F8A030 		str	r3, [r1, #160]
 600 0052 5DF804FB 		ldr	pc, [sp], #4
 601              	.L76:
 602 0056 C1F89C20 		str	r2, [r1, #156]
 603 005a C1F8A020 		str	r2, [r1, #160]
 604 005e 7047     		bx	lr
 605              	.L83:
ARM GAS  /tmp/ccYEW8DG.s 			page 11


 606              		.align	2
 607              	.L82:
 608 0060 00ED00E0 		.word	-536810240
 610              		.ident	"GCC: (Arch Repository) 11.2.0"
ARM GAS  /tmp/ccYEW8DG.s 			page 12

