ARM GAS  /tmp/ccNejxAl.s 			page 1


   1              		.cpu cortex-m4
   2              		.eabi_attribute 27, 1
   3              		.eabi_attribute 28, 1
   4              		.eabi_attribute 20, 1
   5              		.eabi_attribute 21, 1
   6              		.eabi_attribute 23, 3
   7              		.eabi_attribute 24, 1
   8              		.eabi_attribute 25, 1
   9              		.eabi_attribute 26, 1
  10              		.eabi_attribute 30, 2
  11              		.eabi_attribute 34, 1
  12              		.eabi_attribute 18, 4
  13              		.file	"stm32l4xx_hal_i2c.c"
  14              		.text
  15              		.section	.text.I2C_WaitOnTXISFlagUntilTimeout.constprop.0,"ax",%progbits
  16              		.align	1
  17              		.p2align 2,,3
  18              		.arch armv7e-m
  19              		.syntax unified
  20              		.thumb
  21              		.thumb_func
  22              		.fpu fpv4-sp-d16
  24              	I2C_WaitOnTXISFlagUntilTimeout.constprop.0:
  25              		@ args = 0, pretend = 0, frame = 0
  26              		@ frame_needed = 0, uses_anonymous_args = 0
  27 0000 2DE9F843 		push	{r3, r4, r5, r6, r7, r8, r9, lr}
  28 0004 0546     		mov	r5, r0
  29 0006 8946     		mov	r9, r1
  30 0008 4FF02008 		mov	r8, #32
  31              	.L2:
  32 000c 2A68     		ldr	r2, [r5]
  33 000e 9769     		ldr	r7, [r2, #24]
  34 0010 17F00207 		ands	r7, r7, #2
  35 0014 40F0AF80 		bne	.L44
  36 0018 9369     		ldr	r3, [r2, #24]
  37 001a 13F01003 		ands	r3, r3, #16
  38 001e 39D0     		beq	.L25
  39 0020 1023     		movs	r3, #16
  40 0022 D361     		str	r3, [r2, #28]
  41 0024 4E46     		mov	r6, r9
  42              	.L6:
  43 0026 9369     		ldr	r3, [r2, #24]
  44 0028 9B06     		lsls	r3, r3, #26
  45 002a 77D4     		bmi	.L12
  46 002c 002F     		cmp	r7, #0
  47 002e 40F08280 		bne	.L26
  48 0032 FFF7FEFF 		bl	HAL_GetTick
  49 0036 801B     		subs	r0, r0, r6
  50 0038 1928     		cmp	r0, #25
  51 003a 2A68     		ldr	r2, [r5]
  52 003c F3D9     		bls	.L6
  53 003e 5068     		ldr	r0, [r2, #4]
  54 0040 95F84230 		ldrb	r3, [r5, #66]	@ zero_extendqisi2
  55 0044 9169     		ldr	r1, [r2, #24]
  56 0046 0C04     		lsls	r4, r1, #16
  57 0048 DBB2     		uxtb	r3, r3
  58 004a 0DD5     		bpl	.L9
ARM GAS  /tmp/ccNejxAl.s 			page 2


  59 004c 4104     		lsls	r1, r0, #17
  60 004e 0BD4     		bmi	.L9
  61 0050 202B     		cmp	r3, #32
  62 0052 09D0     		beq	.L9
  63 0054 5368     		ldr	r3, [r2, #4]
  64 0056 43F48043 		orr	r3, r3, #16384
  65 005a 5360     		str	r3, [r2, #4]
  66 005c FFF7FEFF 		bl	HAL_GetTick
  67 0060 2A68     		ldr	r2, [r5]
  68 0062 0646     		mov	r6, r0
  69 0064 00E0     		b	.L9
  70              	.L45:
  71 0066 2A68     		ldr	r2, [r5]
  72              	.L9:
  73 0068 9469     		ldr	r4, [r2, #24]
  74 006a 14F02004 		ands	r4, r4, #32
  75 006e DAD1     		bne	.L6
  76 0070 FFF7FEFF 		bl	HAL_GetTick
  77 0074 801B     		subs	r0, r0, r6
  78 0076 1928     		cmp	r0, #25
  79 0078 F5D9     		bls	.L45
  80 007a 6B6C     		ldr	r3, [r5, #68]
  81 007c 2A68     		ldr	r2, [r5]
  82 007e 85F84040 		strb	r4, [r5, #64]
  83 0082 43F02003 		orr	r3, r3, #32
  84 0086 6B64     		str	r3, [r5, #68]
  85 0088 0127     		movs	r7, #1
  86 008a 85F84180 		strb	r8, [r5, #65]
  87 008e 85F84240 		strb	r4, [r5, #66]
  88 0092 E9E7     		b	.L9
  89              	.L25:
  90 0094 4FF0020C 		mov	ip, #2
  91 0098 0820     		movs	r0, #8
  92 009a 0924     		movs	r4, #9
  93 009c 0326     		movs	r6, #3
  94 009e 4FF0010E 		mov	lr, #1
  95 00a2 1F46     		mov	r7, r3
  96              	.L3:
  97 00a4 9169     		ldr	r1, [r2, #24]
  98 00a6 11F4807F 		tst	r1, #256
  99 00aa 25D0     		beq	.L14
 100 00ac 4FF48073 		mov	r3, #256
 101 00b0 D361     		str	r3, [r2, #28]
 102 00b2 4B05     		lsls	r3, r1, #21
 103 00b4 29D4     		bmi	.L27
 104 00b6 8F05     		lsls	r7, r1, #22
 105 00b8 5BD4     		bmi	.L28
 106 00ba 7046     		mov	r0, lr
 107              	.L17:
 108 00bc 9369     		ldr	r3, [r2, #24]
 109 00be 9907     		lsls	r1, r3, #30
 110 00c0 44BF     		itt	mi
 111 00c2 0023     		movmi	r3, #0
 112 00c4 9362     		strmi	r3, [r2, #40]
 113 00c6 9369     		ldr	r3, [r2, #24]
 114 00c8 DB07     		lsls	r3, r3, #31
 115 00ca 03D4     		bmi	.L22
ARM GAS  /tmp/ccNejxAl.s 			page 3


 116 00cc 9369     		ldr	r3, [r2, #24]
 117 00ce 43F00103 		orr	r3, r3, #1
 118 00d2 9361     		str	r3, [r2, #24]
 119              	.L22:
 120 00d4 5368     		ldr	r3, [r2, #4]
 121 00d6 2A4C     		ldr	r4, .L47
 122 00d8 2340     		ands	r3, r3, r4
 123 00da 5360     		str	r3, [r2, #4]
 124 00dc 6B6C     		ldr	r3, [r5, #68]
 125 00de 0021     		movs	r1, #0
 126 00e0 0343     		orrs	r3, r3, r0
 127 00e2 2022     		movs	r2, #32
 128 00e4 6B64     		str	r3, [r5, #68]
 129 00e6 85F84010 		strb	r1, [r5, #64]
 130 00ea 85F84120 		strb	r2, [r5, #65]
 131 00ee 85F84210 		strb	r1, [r5, #66]
 132 00f2 0120     		movs	r0, #1
 133 00f4 BDE8F883 		pop	{r3, r4, r5, r6, r7, r8, r9, pc}
 134              	.L14:
 135 00f8 4E05     		lsls	r6, r1, #21
 136 00fa 07D4     		bmi	.L15
 137 00fc 8805     		lsls	r0, r1, #22
 138 00fe 23D5     		bpl	.L19
 139 0100 6046     		mov	r0, ip
 140              	.L16:
 141 0102 4FF40073 		mov	r3, #512
 142 0106 D361     		str	r3, [r2, #28]
 143 0108 D8E7     		b	.L17
 144              	.L27:
 145 010a 2046     		mov	r0, r4
 146              	.L15:
 147 010c 4FF48063 		mov	r3, #1024
 148 0110 8C05     		lsls	r4, r1, #22
 149 0112 D361     		str	r3, [r2, #28]
 150 0114 D2D5     		bpl	.L17
 151 0116 40F00200 		orr	r0, r0, #2
 152 011a F2E7     		b	.L16
 153              	.L12:
 154 011c 5FB9     		cbnz	r7, .L26
 155 011e C2F81C80 		str	r8, [r2, #28]
 156 0122 4FF0060C 		mov	ip, #6
 157 0126 0C20     		movs	r0, #12
 158 0128 0D24     		movs	r4, #13
 159 012a 0726     		movs	r6, #7
 160 012c 4FF0050E 		mov	lr, #5
 161 0130 0423     		movs	r3, #4
 162 0132 0127     		movs	r7, #1
 163 0134 B6E7     		b	.L3
 164              	.L26:
 165 0136 4FF0060C 		mov	ip, #6
 166 013a 0C20     		movs	r0, #12
 167 013c 0D24     		movs	r4, #13
 168 013e 0726     		movs	r6, #7
 169 0140 4FF0050E 		mov	lr, #5
 170 0144 0423     		movs	r3, #4
 171 0146 ADE7     		b	.L3
 172              	.L19:
ARM GAS  /tmp/ccNejxAl.s 			page 4


 173 0148 C7B9     		cbnz	r7, .L46
 174 014a FFF7FEFF 		bl	HAL_GetTick
 175 014e A0EB0900 		sub	r0, r0, r9
 176 0152 1928     		cmp	r0, #25
 177 0154 7FF65AAF 		bls	.L2
 178 0158 6B6C     		ldr	r3, [r5, #68]
 179 015a 85F84070 		strb	r7, [r5, #64]
 180 015e 2022     		movs	r2, #32
 181 0160 1343     		orrs	r3, r3, r2
 182 0162 6B64     		str	r3, [r5, #68]
 183 0164 85F84120 		strb	r2, [r5, #65]
 184 0168 85F84270 		strb	r7, [r5, #66]
 185 016c 0120     		movs	r0, #1
 186 016e BDE8F883 		pop	{r3, r4, r5, r6, r7, r8, r9, pc}
 187              	.L28:
 188 0172 3046     		mov	r0, r6
 189 0174 C5E7     		b	.L16
 190              	.L44:
 191 0176 0020     		movs	r0, #0
 192 0178 BDE8F883 		pop	{r3, r4, r5, r6, r7, r8, r9, pc}
 193              	.L46:
 194 017c 1846     		mov	r0, r3
 195 017e 9DE7     		b	.L17
 196              	.L48:
 197              		.align	2
 198              	.L47:
 199 0180 00E800FE 		.word	-33495040
 201              		.section	.text.I2C_RequestMemoryWrite.constprop.0,"ax",%progbits
 202              		.align	1
 203              		.p2align 2,,3
 204              		.syntax unified
 205              		.thumb
 206              		.thumb_func
 207              		.fpu fpv4-sp-d16
 209              	I2C_RequestMemoryWrite.constprop.0:
 210              		@ args = 4, pretend = 0, frame = 0
 211              		@ frame_needed = 0, uses_anonymous_args = 0
 212 0000 2DE9F041 		push	{r4, r5, r6, r7, r8, lr}
 213 0004 1446     		mov	r4, r2
 214 0006 0268     		ldr	r2, [r0]
 215 0008 224E     		ldr	r6, .L61
 216 000a 9846     		mov	r8, r3
 217 000c 5368     		ldr	r3, [r2, #4]
 218 000e C1F30901 		ubfx	r1, r1, #0, #10
 219 0012 3340     		ands	r3, r3, r6
 220 0014 1943     		orrs	r1, r1, r3
 221 0016 5FFA88F3 		uxtb	r3, r8
 222 001a 41EA0341 		orr	r1, r1, r3, lsl #16
 223 001e 069E     		ldr	r6, [sp, #24]
 224 0020 41F08071 		orr	r1, r1, #16777216
 225 0024 41F40051 		orr	r1, r1, #8192
 226 0028 5160     		str	r1, [r2, #4]
 227 002a 3146     		mov	r1, r6
 228 002c 0546     		mov	r5, r0
 229 002e FFF7FEFF 		bl	I2C_WaitOnTXISFlagUntilTimeout.constprop.0
 230 0032 E8B9     		cbnz	r0, .L54
 231 0034 B8F1010F 		cmp	r8, #1
ARM GAS  /tmp/ccNejxAl.s 			page 5


 232 0038 2968     		ldr	r1, [r5]
 233 003a 0746     		mov	r7, r0
 234 003c 0FD1     		bne	.L52
 235              	.L59:
 236 003e E4B2     		uxtb	r4, r4
 237 0040 8C62     		str	r4, [r1, #40]
 238 0042 05E0     		b	.L55
 239              	.L57:
 240 0044 FFF7FEFF 		bl	HAL_GetTick
 241 0048 831B     		subs	r3, r0, r6
 242 004a 192B     		cmp	r3, #25
 243 004c 14D8     		bhi	.L60
 244 004e 2968     		ldr	r1, [r5]
 245              	.L55:
 246 0050 8C69     		ldr	r4, [r1, #24]
 247 0052 14F08004 		ands	r4, r4, #128
 248 0056 F5D0     		beq	.L57
 249 0058 3846     		mov	r0, r7
 250 005a BDE8F081 		pop	{r4, r5, r6, r7, r8, pc}
 251              	.L52:
 252 005e 230A     		lsrs	r3, r4, #8
 253 0060 8B62     		str	r3, [r1, #40]
 254 0062 2846     		mov	r0, r5
 255 0064 3146     		mov	r1, r6
 256 0066 FFF7FEFF 		bl	I2C_WaitOnTXISFlagUntilTimeout.constprop.0
 257 006a 08B9     		cbnz	r0, .L54
 258 006c 2968     		ldr	r1, [r5]
 259 006e E6E7     		b	.L59
 260              	.L54:
 261 0070 0127     		movs	r7, #1
 262 0072 3846     		mov	r0, r7
 263 0074 BDE8F081 		pop	{r4, r5, r6, r7, r8, pc}
 264              	.L60:
 265 0078 6B6C     		ldr	r3, [r5, #68]
 266 007a 85F84040 		strb	r4, [r5, #64]
 267 007e 2022     		movs	r2, #32
 268 0080 1343     		orrs	r3, r3, r2
 269 0082 6B64     		str	r3, [r5, #68]
 270 0084 0127     		movs	r7, #1
 271 0086 85F84120 		strb	r2, [r5, #65]
 272 008a 85F84240 		strb	r4, [r5, #66]
 273 008e 3846     		mov	r0, r7
 274 0090 BDE8F081 		pop	{r4, r5, r6, r7, r8, pc}
 275              	.L62:
 276              		.align	2
 277              	.L61:
 278 0094 009800FC 		.word	-67069952
 280              		.section	.text.I2C_RequestMemoryRead.constprop.0,"ax",%progbits
 281              		.align	1
 282              		.p2align 2,,3
 283              		.syntax unified
 284              		.thumb
 285              		.thumb_func
 286              		.fpu fpv4-sp-d16
 288              	I2C_RequestMemoryRead.constprop.0:
 289              		@ args = 4, pretend = 0, frame = 0
 290              		@ frame_needed = 0, uses_anonymous_args = 0
ARM GAS  /tmp/ccNejxAl.s 			page 6


 291 0000 2DE9F041 		push	{r4, r5, r6, r7, r8, lr}
 292 0004 1446     		mov	r4, r2
 293 0006 0268     		ldr	r2, [r0]
 294 0008 214E     		ldr	r6, .L75
 295 000a 9846     		mov	r8, r3
 296 000c 5368     		ldr	r3, [r2, #4]
 297 000e C1F30901 		ubfx	r1, r1, #0, #10
 298 0012 3340     		ands	r3, r3, r6
 299 0014 1943     		orrs	r1, r1, r3
 300 0016 5FFA88F3 		uxtb	r3, r8
 301 001a 069E     		ldr	r6, [sp, #24]
 302 001c 41EA0341 		orr	r1, r1, r3, lsl #16
 303 0020 41F40051 		orr	r1, r1, #8192
 304 0024 5160     		str	r1, [r2, #4]
 305 0026 3146     		mov	r1, r6
 306 0028 0546     		mov	r5, r0
 307 002a FFF7FEFF 		bl	I2C_WaitOnTXISFlagUntilTimeout.constprop.0
 308 002e E8B9     		cbnz	r0, .L68
 309 0030 B8F1010F 		cmp	r8, #1
 310 0034 2968     		ldr	r1, [r5]
 311 0036 0746     		mov	r7, r0
 312 0038 0FD1     		bne	.L66
 313              	.L73:
 314 003a E4B2     		uxtb	r4, r4
 315 003c 8C62     		str	r4, [r1, #40]
 316 003e 05E0     		b	.L69
 317              	.L71:
 318 0040 FFF7FEFF 		bl	HAL_GetTick
 319 0044 831B     		subs	r3, r0, r6
 320 0046 192B     		cmp	r3, #25
 321 0048 14D8     		bhi	.L74
 322 004a 2968     		ldr	r1, [r5]
 323              	.L69:
 324 004c 8C69     		ldr	r4, [r1, #24]
 325 004e 14F04004 		ands	r4, r4, #64
 326 0052 F5D0     		beq	.L71
 327 0054 3846     		mov	r0, r7
 328 0056 BDE8F081 		pop	{r4, r5, r6, r7, r8, pc}
 329              	.L66:
 330 005a 230A     		lsrs	r3, r4, #8
 331 005c 8B62     		str	r3, [r1, #40]
 332 005e 2846     		mov	r0, r5
 333 0060 3146     		mov	r1, r6
 334 0062 FFF7FEFF 		bl	I2C_WaitOnTXISFlagUntilTimeout.constprop.0
 335 0066 08B9     		cbnz	r0, .L68
 336 0068 2968     		ldr	r1, [r5]
 337 006a E6E7     		b	.L73
 338              	.L68:
 339 006c 0127     		movs	r7, #1
 340 006e 3846     		mov	r0, r7
 341 0070 BDE8F081 		pop	{r4, r5, r6, r7, r8, pc}
 342              	.L74:
 343 0074 6B6C     		ldr	r3, [r5, #68]
 344 0076 85F84040 		strb	r4, [r5, #64]
 345 007a 2022     		movs	r2, #32
 346 007c 1343     		orrs	r3, r3, r2
 347 007e 6B64     		str	r3, [r5, #68]
ARM GAS  /tmp/ccNejxAl.s 			page 7


 348 0080 0127     		movs	r7, #1
 349 0082 85F84120 		strb	r2, [r5, #65]
 350 0086 85F84240 		strb	r4, [r5, #66]
 351 008a 3846     		mov	r0, r7
 352 008c BDE8F081 		pop	{r4, r5, r6, r7, r8, pc}
 353              	.L76:
 354              		.align	2
 355              	.L75:
 356 0090 009800FC 		.word	-67069952
 358              		.section	.text.I2C_WaitOnTXISFlagUntilTimeout,"ax",%progbits
 359              		.align	1
 360              		.p2align 2,,3
 361              		.syntax unified
 362              		.thumb
 363              		.thumb_func
 364              		.fpu fpv4-sp-d16
 366              	I2C_WaitOnTXISFlagUntilTimeout:
 367              		@ args = 0, pretend = 0, frame = 0
 368              		@ frame_needed = 0, uses_anonymous_args = 0
 369 0000 2DE9F047 		push	{r4, r5, r6, r7, r8, r9, r10, lr}
 370 0004 8246     		mov	r10, r0
 371 0006 0E46     		mov	r6, r1
 372 0008 1746     		mov	r7, r2
 373 000a 4FF02008 		mov	r8, #32
 374              	.L78:
 375 000e DAF80030 		ldr	r3, [r10]
 376              	.L103:
 377 0012 9D69     		ldr	r5, [r3, #24]
 378 0014 15F00205 		ands	r5, r5, #2
 379 0018 40F0D280 		bne	.L132
 380 001c 9A69     		ldr	r2, [r3, #24]
 381 001e 12F01002 		ands	r2, r2, #16
 382 0022 4FD0     		beq	.L106
 383 0024 1022     		movs	r2, #16
 384 0026 DA61     		str	r2, [r3, #28]
 385 0028 B946     		mov	r9, r7
 386              	.L80:
 387 002a 741C     		adds	r4, r6, #1
 388 002c 9A69     		ldr	r2, [r3, #24]
 389 002e 5CD1     		bne	.L88
 390 0030 9006     		lsls	r0, r2, #26
 391 0032 00F1B880 		bmi	.L89
 392 0036 002D     		cmp	r5, #0
 393 0038 40F0B880 		bne	.L108
 394              	.L90:
 395 003c 9C69     		ldr	r4, [r3, #24]
 396 003e A106     		lsls	r1, r4, #26
 397 0040 FCD5     		bpl	.L90
 398              	.L91:
 399 0042 C3F81C80 		str	r8, [r3, #28]
 400 0046 4FF0060E 		mov	lr, #6
 401 004a 0C20     		movs	r0, #12
 402 004c 0D24     		movs	r4, #13
 403 004e 4FF0070C 		mov	ip, #7
 404 0052 4FF00509 		mov	r9, #5
 405 0056 0422     		movs	r2, #4
 406 0058 0125     		movs	r5, #1
ARM GAS  /tmp/ccNejxAl.s 			page 8


 407              	.L79:
 408 005a 9969     		ldr	r1, [r3, #24]
 409 005c 11F4807F 		tst	r1, #256
 410 0060 27D0     		beq	.L93
 411 0062 4FF48072 		mov	r2, #256
 412 0066 4E05     		lsls	r6, r1, #21
 413 0068 DA61     		str	r2, [r3, #28]
 414 006a 35D4     		bmi	.L109
 415 006c 8D05     		lsls	r5, r1, #22
 416 006e 7CD4     		bmi	.L110
 417 0070 4846     		mov	r0, r9
 418              	.L96:
 419 0072 9A69     		ldr	r2, [r3, #24]
 420 0074 9407     		lsls	r4, r2, #30
 421 0076 44BF     		itt	mi
 422 0078 0022     		movmi	r2, #0
 423 007a 9A62     		strmi	r2, [r3, #40]
 424 007c 9A69     		ldr	r2, [r3, #24]
 425 007e D107     		lsls	r1, r2, #31
 426 0080 03D4     		bmi	.L101
 427 0082 9A69     		ldr	r2, [r3, #24]
 428 0084 42F00102 		orr	r2, r2, #1
 429 0088 9A61     		str	r2, [r3, #24]
 430              	.L101:
 431 008a 5A68     		ldr	r2, [r3, #4]
 432 008c 4F4C     		ldr	r4, .L135
 433 008e 2240     		ands	r2, r2, r4
 434 0090 5A60     		str	r2, [r3, #4]
 435 0092 DAF84430 		ldr	r3, [r10, #68]
 436 0096 0021     		movs	r1, #0
 437 0098 0343     		orrs	r3, r3, r0
 438 009a 2022     		movs	r2, #32
 439 009c CAF84430 		str	r3, [r10, #68]
 440 00a0 8AF84010 		strb	r1, [r10, #64]
 441 00a4 8AF84120 		strb	r2, [r10, #65]
 442 00a8 0120     		movs	r0, #1
 443 00aa 8AF84210 		strb	r1, [r10, #66]
 444              	.L102:
 445 00ae BDE8F087 		pop	{r4, r5, r6, r7, r8, r9, r10, pc}
 446              	.L93:
 447 00b2 4C05     		lsls	r4, r1, #21
 448 00b4 11D4     		bmi	.L94
 449 00b6 8905     		lsls	r1, r1, #22
 450 00b8 59D5     		bpl	.L98
 451 00ba 7046     		mov	r0, lr
 452              	.L95:
 453 00bc 4FF40072 		mov	r2, #512
 454 00c0 DA61     		str	r2, [r3, #28]
 455 00c2 D6E7     		b	.L96
 456              	.L106:
 457 00c4 4FF0020E 		mov	lr, #2
 458 00c8 0820     		movs	r0, #8
 459 00ca 0924     		movs	r4, #9
 460 00cc 4FF0030C 		mov	ip, #3
 461 00d0 4FF00109 		mov	r9, #1
 462 00d4 1546     		mov	r5, r2
 463 00d6 C0E7     		b	.L79
ARM GAS  /tmp/ccNejxAl.s 			page 9


 464              	.L109:
 465 00d8 2046     		mov	r0, r4
 466              	.L94:
 467 00da 4FF48062 		mov	r2, #1024
 468 00de 8C05     		lsls	r4, r1, #22
 469 00e0 DA61     		str	r2, [r3, #28]
 470 00e2 C6D5     		bpl	.L96
 471 00e4 40F00200 		orr	r0, r0, #2
 472 00e8 E8E7     		b	.L95
 473              	.L88:
 474 00ea 9206     		lsls	r2, r2, #26
 475 00ec 5BD4     		bmi	.L89
 476 00ee 002D     		cmp	r5, #0
 477 00f0 5CD1     		bne	.L108
 478 00f2 FFF7FEFF 		bl	HAL_GetTick
 479 00f6 A0EB0900 		sub	r0, r0, r9
 480 00fa 8642     		cmp	r6, r0
 481 00fc DAF80030 		ldr	r3, [r10]
 482 0100 01D3     		bcc	.L81
 483 0102 002E     		cmp	r6, #0
 484 0104 91D1     		bne	.L80
 485              	.L81:
 486 0106 5868     		ldr	r0, [r3, #4]
 487 0108 9AF84220 		ldrb	r2, [r10, #66]	@ zero_extendqisi2
 488 010c 9969     		ldr	r1, [r3, #24]
 489 010e 0C04     		lsls	r4, r1, #16
 490 0110 D2B2     		uxtb	r2, r2
 491 0112 0FD5     		bpl	.L85
 492 0114 4104     		lsls	r1, r0, #17
 493 0116 0DD4     		bmi	.L85
 494 0118 202A     		cmp	r2, #32
 495 011a 0BD0     		beq	.L85
 496 011c 5A68     		ldr	r2, [r3, #4]
 497 011e 42F48042 		orr	r2, r2, #16384
 498 0122 5A60     		str	r2, [r3, #4]
 499 0124 FFF7FEFF 		bl	HAL_GetTick
 500 0128 DAF80030 		ldr	r3, [r10]
 501 012c 8146     		mov	r9, r0
 502 012e 01E0     		b	.L85
 503              	.L133:
 504 0130 DAF80030 		ldr	r3, [r10]
 505              	.L85:
 506 0134 9C69     		ldr	r4, [r3, #24]
 507 0136 14F02004 		ands	r4, r4, #32
 508 013a 7FF476AF 		bne	.L80
 509 013e FFF7FEFF 		bl	HAL_GetTick
 510 0142 A0EB0900 		sub	r0, r0, r9
 511 0146 1928     		cmp	r0, #25
 512 0148 F2D9     		bls	.L133
 513 014a DAF84420 		ldr	r2, [r10, #68]
 514 014e DAF80030 		ldr	r3, [r10]
 515 0152 8AF84040 		strb	r4, [r10, #64]
 516 0156 42F02002 		orr	r2, r2, #32
 517 015a CAF84420 		str	r2, [r10, #68]
 518 015e 0125     		movs	r5, #1
 519 0160 8AF84180 		strb	r8, [r10, #65]
 520 0164 8AF84240 		strb	r4, [r10, #66]
ARM GAS  /tmp/ccNejxAl.s 			page 10


 521 0168 E4E7     		b	.L85
 522              	.L110:
 523 016a 6046     		mov	r0, ip
 524 016c A6E7     		b	.L95
 525              	.L98:
 526 016e 55BB     		cbnz	r5, .L134
 527 0170 721C     		adds	r2, r6, #1
 528 0172 3FF44EAF 		beq	.L103
 529 0176 FFF7FEFF 		bl	HAL_GetTick
 530 017a C01B     		subs	r0, r0, r7
 531 017c B042     		cmp	r0, r6
 532 017e 02D8     		bhi	.L104
 533 0180 002E     		cmp	r6, #0
 534 0182 7FF444AF 		bne	.L78
 535              	.L104:
 536 0186 DAF84430 		ldr	r3, [r10, #68]
 537 018a 0022     		movs	r2, #0
 538 018c 43F02003 		orr	r3, r3, #32
 539 0190 2021     		movs	r1, #32
 540 0192 CAF84430 		str	r3, [r10, #68]
 541 0196 8AF84020 		strb	r2, [r10, #64]
 542 019a 8AF84110 		strb	r1, [r10, #65]
 543 019e 0120     		movs	r0, #1
 544 01a0 8AF84220 		strb	r2, [r10, #66]
 545 01a4 83E7     		b	.L102
 546              	.L89:
 547 01a6 002D     		cmp	r5, #0
 548 01a8 3FF44BAF 		beq	.L91
 549              	.L108:
 550 01ac 4FF0060E 		mov	lr, #6
 551 01b0 0C20     		movs	r0, #12
 552 01b2 0D24     		movs	r4, #13
 553 01b4 4FF0070C 		mov	ip, #7
 554 01b8 4FF00509 		mov	r9, #5
 555 01bc 0422     		movs	r2, #4
 556 01be 4CE7     		b	.L79
 557              	.L132:
 558 01c0 0020     		movs	r0, #0
 559 01c2 BDE8F087 		pop	{r4, r5, r6, r7, r8, r9, r10, pc}
 560              	.L134:
 561 01c6 1046     		mov	r0, r2
 562 01c8 53E7     		b	.L96
 563              	.L136:
 564 01ca 00BF     		.align	2
 565              	.L135:
 566 01cc 00E800FE 		.word	-33495040
 568              		.section	.text.I2C_WaitOnSTOPFlagUntilTimeout,"ax",%progbits
 569              		.align	1
 570              		.p2align 2,,3
 571              		.syntax unified
 572              		.thumb
 573              		.thumb_func
 574              		.fpu fpv4-sp-d16
 576              	I2C_WaitOnSTOPFlagUntilTimeout:
 577              		@ args = 0, pretend = 0, frame = 0
 578              		@ frame_needed = 0, uses_anonymous_args = 0
 579 0000 2DE9F047 		push	{r4, r5, r6, r7, r8, r9, r10, lr}
ARM GAS  /tmp/ccNejxAl.s 			page 11


 580 0004 8246     		mov	r10, r0
 581 0006 0E46     		mov	r6, r1
 582 0008 1746     		mov	r7, r2
 583 000a 4FF02008 		mov	r8, #32
 584              	.L138:
 585 000e DAF80030 		ldr	r3, [r10]
 586 0012 9D69     		ldr	r5, [r3, #24]
 587 0014 15F02005 		ands	r5, r5, #32
 588 0018 40F0D080 		bne	.L189
 589 001c 9A69     		ldr	r2, [r3, #24]
 590 001e 12F01002 		ands	r2, r2, #16
 591 0022 4FD0     		beq	.L165
 592 0024 1022     		movs	r2, #16
 593 0026 DA61     		str	r2, [r3, #28]
 594 0028 B946     		mov	r9, r7
 595              	.L140:
 596 002a 741C     		adds	r4, r6, #1
 597 002c 9A69     		ldr	r2, [r3, #24]
 598 002e 5CD1     		bne	.L148
 599 0030 9006     		lsls	r0, r2, #26
 600 0032 00F1B680 		bmi	.L149
 601 0036 002D     		cmp	r5, #0
 602 0038 40F0B680 		bne	.L167
 603              	.L150:
 604 003c 9C69     		ldr	r4, [r3, #24]
 605 003e A106     		lsls	r1, r4, #26
 606 0040 FCD5     		bpl	.L150
 607              	.L151:
 608 0042 C3F81C80 		str	r8, [r3, #28]
 609 0046 4FF0060E 		mov	lr, #6
 610 004a 0C20     		movs	r0, #12
 611 004c 0D24     		movs	r4, #13
 612 004e 4FF0070C 		mov	ip, #7
 613 0052 4FF00509 		mov	r9, #5
 614 0056 0422     		movs	r2, #4
 615 0058 0125     		movs	r5, #1
 616              	.L139:
 617 005a 9969     		ldr	r1, [r3, #24]
 618 005c 11F4807F 		tst	r1, #256
 619 0060 27D0     		beq	.L153
 620 0062 4FF48072 		mov	r2, #256
 621 0066 4E05     		lsls	r6, r1, #21
 622 0068 DA61     		str	r2, [r3, #28]
 623 006a 35D4     		bmi	.L168
 624 006c 8D05     		lsls	r5, r1, #22
 625 006e 7CD4     		bmi	.L169
 626 0070 4846     		mov	r0, r9
 627              	.L156:
 628 0072 9A69     		ldr	r2, [r3, #24]
 629 0074 9107     		lsls	r1, r2, #30
 630 0076 44BF     		itt	mi
 631 0078 0022     		movmi	r2, #0
 632 007a 9A62     		strmi	r2, [r3, #40]
 633 007c 9A69     		ldr	r2, [r3, #24]
 634 007e D207     		lsls	r2, r2, #31
 635 0080 03D4     		bmi	.L161
 636 0082 9A69     		ldr	r2, [r3, #24]
ARM GAS  /tmp/ccNejxAl.s 			page 12


 637 0084 42F00102 		orr	r2, r2, #1
 638 0088 9A61     		str	r2, [r3, #24]
 639              	.L161:
 640 008a 5A68     		ldr	r2, [r3, #4]
 641 008c 4E4C     		ldr	r4, .L192
 642 008e 2240     		ands	r2, r2, r4
 643 0090 5A60     		str	r2, [r3, #4]
 644 0092 DAF84430 		ldr	r3, [r10, #68]
 645 0096 0021     		movs	r1, #0
 646 0098 0343     		orrs	r3, r3, r0
 647 009a 2022     		movs	r2, #32
 648 009c CAF84430 		str	r3, [r10, #68]
 649 00a0 8AF84010 		strb	r1, [r10, #64]
 650 00a4 8AF84120 		strb	r2, [r10, #65]
 651 00a8 8AF84210 		strb	r1, [r10, #66]
 652 00ac 0120     		movs	r0, #1
 653 00ae BDE8F087 		pop	{r4, r5, r6, r7, r8, r9, r10, pc}
 654              	.L153:
 655 00b2 4C05     		lsls	r4, r1, #21
 656 00b4 11D4     		bmi	.L154
 657 00b6 8805     		lsls	r0, r1, #22
 658 00b8 59D5     		bpl	.L158
 659 00ba 7046     		mov	r0, lr
 660              	.L155:
 661 00bc 4FF40072 		mov	r2, #512
 662 00c0 DA61     		str	r2, [r3, #28]
 663 00c2 D6E7     		b	.L156
 664              	.L165:
 665 00c4 4FF0020E 		mov	lr, #2
 666 00c8 0820     		movs	r0, #8
 667 00ca 0924     		movs	r4, #9
 668 00cc 4FF0030C 		mov	ip, #3
 669 00d0 4FF00109 		mov	r9, #1
 670 00d4 1546     		mov	r5, r2
 671 00d6 C0E7     		b	.L139
 672              	.L168:
 673 00d8 2046     		mov	r0, r4
 674              	.L154:
 675 00da 4FF48062 		mov	r2, #1024
 676 00de 8C05     		lsls	r4, r1, #22
 677 00e0 DA61     		str	r2, [r3, #28]
 678 00e2 C6D5     		bpl	.L156
 679 00e4 40F00200 		orr	r0, r0, #2
 680 00e8 E8E7     		b	.L155
 681              	.L148:
 682 00ea 9206     		lsls	r2, r2, #26
 683 00ec 59D4     		bmi	.L149
 684 00ee 002D     		cmp	r5, #0
 685 00f0 5AD1     		bne	.L167
 686 00f2 FFF7FEFF 		bl	HAL_GetTick
 687 00f6 A0EB0900 		sub	r0, r0, r9
 688 00fa 8642     		cmp	r6, r0
 689 00fc DAF80030 		ldr	r3, [r10]
 690 0100 01D3     		bcc	.L141
 691 0102 002E     		cmp	r6, #0
 692 0104 91D1     		bne	.L140
 693              	.L141:
ARM GAS  /tmp/ccNejxAl.s 			page 13


 694 0106 5868     		ldr	r0, [r3, #4]
 695 0108 9AF84220 		ldrb	r2, [r10, #66]	@ zero_extendqisi2
 696 010c 9969     		ldr	r1, [r3, #24]
 697 010e 0C04     		lsls	r4, r1, #16
 698 0110 D2B2     		uxtb	r2, r2
 699 0112 0FD5     		bpl	.L145
 700 0114 4104     		lsls	r1, r0, #17
 701 0116 0DD4     		bmi	.L145
 702 0118 202A     		cmp	r2, #32
 703 011a 0BD0     		beq	.L145
 704 011c 5A68     		ldr	r2, [r3, #4]
 705 011e 42F48042 		orr	r2, r2, #16384
 706 0122 5A60     		str	r2, [r3, #4]
 707 0124 FFF7FEFF 		bl	HAL_GetTick
 708 0128 DAF80030 		ldr	r3, [r10]
 709 012c 8146     		mov	r9, r0
 710 012e 01E0     		b	.L145
 711              	.L190:
 712 0130 DAF80030 		ldr	r3, [r10]
 713              	.L145:
 714 0134 9C69     		ldr	r4, [r3, #24]
 715 0136 14F02004 		ands	r4, r4, #32
 716 013a 7FF476AF 		bne	.L140
 717 013e FFF7FEFF 		bl	HAL_GetTick
 718 0142 A0EB0900 		sub	r0, r0, r9
 719 0146 1928     		cmp	r0, #25
 720 0148 F2D9     		bls	.L190
 721 014a DAF84430 		ldr	r3, [r10, #68]
 722 014e 8AF84040 		strb	r4, [r10, #64]
 723 0152 43F02003 		orr	r3, r3, #32
 724 0156 CAF84430 		str	r3, [r10, #68]
 725 015a 0125     		movs	r5, #1
 726 015c 8AF84180 		strb	r8, [r10, #65]
 727 0160 DAF80030 		ldr	r3, [r10]
 728 0164 8AF84240 		strb	r4, [r10, #66]
 729 0168 E4E7     		b	.L145
 730              	.L169:
 731 016a 6046     		mov	r0, ip
 732 016c A6E7     		b	.L155
 733              	.L158:
 734 016e 45BB     		cbnz	r5, .L191
 735 0170 FFF7FEFF 		bl	HAL_GetTick
 736 0174 C01B     		subs	r0, r0, r7
 737 0176 B042     		cmp	r0, r6
 738 0178 02D8     		bhi	.L163
 739 017a 002E     		cmp	r6, #0
 740 017c 7FF447AF 		bne	.L138
 741              	.L163:
 742 0180 DAF84430 		ldr	r3, [r10, #68]
 743 0184 0022     		movs	r2, #0
 744 0186 43F02003 		orr	r3, r3, #32
 745 018a 2021     		movs	r1, #32
 746 018c CAF84430 		str	r3, [r10, #68]
 747 0190 8AF84020 		strb	r2, [r10, #64]
 748 0194 8AF84110 		strb	r1, [r10, #65]
 749 0198 8AF84220 		strb	r2, [r10, #66]
 750 019c 0120     		movs	r0, #1
ARM GAS  /tmp/ccNejxAl.s 			page 14


 751 019e BDE8F087 		pop	{r4, r5, r6, r7, r8, r9, r10, pc}
 752              	.L149:
 753 01a2 002D     		cmp	r5, #0
 754 01a4 3FF44DAF 		beq	.L151
 755              	.L167:
 756 01a8 4FF0060E 		mov	lr, #6
 757 01ac 0C20     		movs	r0, #12
 758 01ae 0D24     		movs	r4, #13
 759 01b0 4FF0070C 		mov	ip, #7
 760 01b4 4FF00509 		mov	r9, #5
 761 01b8 0422     		movs	r2, #4
 762 01ba 4EE7     		b	.L139
 763              	.L189:
 764 01bc 0020     		movs	r0, #0
 765 01be BDE8F087 		pop	{r4, r5, r6, r7, r8, r9, r10, pc}
 766              	.L191:
 767 01c2 1046     		mov	r0, r2
 768 01c4 55E7     		b	.L156
 769              	.L193:
 770 01c6 00BF     		.align	2
 771              	.L192:
 772 01c8 00E800FE 		.word	-33495040
 774              		.section	.text.I2C_WaitOnRXNEFlagUntilTimeout,"ax",%progbits
 775              		.align	1
 776              		.p2align 2,,3
 777              		.syntax unified
 778              		.thumb
 779              		.thumb_func
 780              		.fpu fpv4-sp-d16
 782              	I2C_WaitOnRXNEFlagUntilTimeout:
 783              		@ args = 0, pretend = 0, frame = 0
 784              		@ frame_needed = 0, uses_anonymous_args = 0
 785 0000 2DE9F047 		push	{r4, r5, r6, r7, r8, r9, r10, lr}
 786 0004 8246     		mov	r10, r0
 787 0006 0E46     		mov	r6, r1
 788 0008 1746     		mov	r7, r2
 789 000a 4FF02008 		mov	r8, #32
 790              	.L195:
 791 000e DAF80030 		ldr	r3, [r10]
 792 0012 9D69     		ldr	r5, [r3, #24]
 793 0014 15F00405 		ands	r5, r5, #4
 794 0018 40F0D180 		bne	.L226
 795 001c 9A69     		ldr	r2, [r3, #24]
 796 001e 12F01002 		ands	r2, r2, #16
 797 0022 4FD0     		beq	.L227
 798 0024 1022     		movs	r2, #16
 799 0026 DA61     		str	r2, [r3, #28]
 800 0028 B946     		mov	r9, r7
 801              	.L197:
 802 002a 741C     		adds	r4, r6, #1
 803 002c 9A69     		ldr	r2, [r3, #24]
 804 002e 5CD1     		bne	.L205
 805 0030 9006     		lsls	r0, r2, #26
 806 0032 00F1B780 		bmi	.L206
 807 0036 002D     		cmp	r5, #0
 808 0038 40F0B780 		bne	.L229
 809              	.L207:
ARM GAS  /tmp/ccNejxAl.s 			page 15


 810 003c 9C69     		ldr	r4, [r3, #24]
 811 003e A106     		lsls	r1, r4, #26
 812 0040 FCD5     		bpl	.L207
 813              	.L208:
 814 0042 C3F81C80 		str	r8, [r3, #28]
 815 0046 4FF0060E 		mov	lr, #6
 816 004a 0C20     		movs	r0, #12
 817 004c 0D24     		movs	r4, #13
 818 004e 4FF0070C 		mov	ip, #7
 819 0052 4FF00509 		mov	r9, #5
 820 0056 0422     		movs	r2, #4
 821 0058 0125     		movs	r5, #1
 822              	.L196:
 823 005a 9969     		ldr	r1, [r3, #24]
 824 005c 11F4807F 		tst	r1, #256
 825 0060 27D0     		beq	.L210
 826 0062 4FF48072 		mov	r2, #256
 827 0066 4E05     		lsls	r6, r1, #21
 828 0068 DA61     		str	r2, [r3, #28]
 829 006a 35D4     		bmi	.L230
 830 006c 8D05     		lsls	r5, r1, #22
 831 006e 7CD4     		bmi	.L231
 832 0070 4846     		mov	r0, r9
 833              	.L213:
 834 0072 9A69     		ldr	r2, [r3, #24]
 835 0074 9507     		lsls	r5, r2, #30
 836 0076 44BF     		itt	mi
 837 0078 0022     		movmi	r2, #0
 838 007a 9A62     		strmi	r2, [r3, #40]
 839 007c 9A69     		ldr	r2, [r3, #24]
 840 007e D407     		lsls	r4, r2, #31
 841 0080 03D4     		bmi	.L218
 842 0082 9A69     		ldr	r2, [r3, #24]
 843 0084 42F00102 		orr	r2, r2, #1
 844 0088 9A61     		str	r2, [r3, #24]
 845              	.L218:
 846 008a 5A68     		ldr	r2, [r3, #4]
 847 008c 5F4C     		ldr	r4, .L260
 848 008e 2240     		ands	r2, r2, r4
 849 0090 5A60     		str	r2, [r3, #4]
 850 0092 DAF84430 		ldr	r3, [r10, #68]
 851 0096 0021     		movs	r1, #0
 852 0098 0343     		orrs	r3, r3, r0
 853 009a 2022     		movs	r2, #32
 854 009c CAF84430 		str	r3, [r10, #68]
 855 00a0 8AF84010 		strb	r1, [r10, #64]
 856 00a4 8AF84120 		strb	r2, [r10, #65]
 857 00a8 8AF84210 		strb	r1, [r10, #66]
 858 00ac 0120     		movs	r0, #1
 859 00ae BDE8F087 		pop	{r4, r5, r6, r7, r8, r9, r10, pc}
 860              	.L210:
 861 00b2 4C05     		lsls	r4, r1, #21
 862 00b4 11D4     		bmi	.L211
 863 00b6 8905     		lsls	r1, r1, #22
 864 00b8 59D5     		bpl	.L215
 865 00ba 7046     		mov	r0, lr
 866              	.L212:
ARM GAS  /tmp/ccNejxAl.s 			page 16


 867 00bc 4FF40072 		mov	r2, #512
 868 00c0 DA61     		str	r2, [r3, #28]
 869 00c2 D6E7     		b	.L213
 870              	.L227:
 871 00c4 4FF0020E 		mov	lr, #2
 872 00c8 0820     		movs	r0, #8
 873 00ca 0924     		movs	r4, #9
 874 00cc 4FF0030C 		mov	ip, #3
 875 00d0 4FF00109 		mov	r9, #1
 876 00d4 1546     		mov	r5, r2
 877 00d6 C0E7     		b	.L196
 878              	.L230:
 879 00d8 2046     		mov	r0, r4
 880              	.L211:
 881 00da 4FF48062 		mov	r2, #1024
 882 00de 8C05     		lsls	r4, r1, #22
 883 00e0 DA61     		str	r2, [r3, #28]
 884 00e2 C6D5     		bpl	.L213
 885 00e4 40F00200 		orr	r0, r0, #2
 886 00e8 E8E7     		b	.L212
 887              	.L205:
 888 00ea 9206     		lsls	r2, r2, #26
 889 00ec 5AD4     		bmi	.L206
 890 00ee 002D     		cmp	r5, #0
 891 00f0 5BD1     		bne	.L229
 892 00f2 FFF7FEFF 		bl	HAL_GetTick
 893 00f6 A0EB0900 		sub	r0, r0, r9
 894 00fa 8642     		cmp	r6, r0
 895 00fc DAF80030 		ldr	r3, [r10]
 896 0100 01D3     		bcc	.L198
 897 0102 002E     		cmp	r6, #0
 898 0104 91D1     		bne	.L197
 899              	.L198:
 900 0106 5868     		ldr	r0, [r3, #4]
 901 0108 9AF84220 		ldrb	r2, [r10, #66]	@ zero_extendqisi2
 902 010c 9969     		ldr	r1, [r3, #24]
 903 010e 0C04     		lsls	r4, r1, #16
 904 0110 D2B2     		uxtb	r2, r2
 905 0112 0FD5     		bpl	.L202
 906 0114 4104     		lsls	r1, r0, #17
 907 0116 0DD4     		bmi	.L202
 908 0118 202A     		cmp	r2, #32
 909 011a 0BD0     		beq	.L202
 910 011c 5A68     		ldr	r2, [r3, #4]
 911 011e 42F48042 		orr	r2, r2, #16384
 912 0122 5A60     		str	r2, [r3, #4]
 913 0124 FFF7FEFF 		bl	HAL_GetTick
 914 0128 DAF80030 		ldr	r3, [r10]
 915 012c 8146     		mov	r9, r0
 916 012e 01E0     		b	.L202
 917              	.L257:
 918 0130 DAF80030 		ldr	r3, [r10]
 919              	.L202:
 920 0134 9C69     		ldr	r4, [r3, #24]
 921 0136 14F02004 		ands	r4, r4, #32
 922 013a 7FF476AF 		bne	.L197
 923 013e FFF7FEFF 		bl	HAL_GetTick
ARM GAS  /tmp/ccNejxAl.s 			page 17


 924 0142 A0EB0900 		sub	r0, r0, r9
 925 0146 1928     		cmp	r0, #25
 926 0148 F2D9     		bls	.L257
 927 014a DAF84430 		ldr	r3, [r10, #68]
 928 014e 8AF84040 		strb	r4, [r10, #64]
 929 0152 43F02003 		orr	r3, r3, #32
 930 0156 CAF84430 		str	r3, [r10, #68]
 931 015a 0125     		movs	r5, #1
 932 015c 8AF84180 		strb	r8, [r10, #65]
 933 0160 DAF80030 		ldr	r3, [r10]
 934 0164 8AF84240 		strb	r4, [r10, #66]
 935 0168 E4E7     		b	.L202
 936              	.L231:
 937 016a 6046     		mov	r0, ip
 938 016c A6E7     		b	.L212
 939              	.L215:
 940 016e 002D     		cmp	r5, #0
 941 0170 4AD1     		bne	.L258
 942 0172 9A69     		ldr	r2, [r3, #24]
 943 0174 9106     		lsls	r1, r2, #26
 944 0176 25D4     		bmi	.L259
 945 0178 FFF7FEFF 		bl	HAL_GetTick
 946 017c C01B     		subs	r0, r0, r7
 947 017e B042     		cmp	r0, r6
 948 0180 02D8     		bhi	.L224
 949 0182 002E     		cmp	r6, #0
 950 0184 7FF443AF 		bne	.L195
 951              	.L224:
 952 0188 DAF84430 		ldr	r3, [r10, #68]
 953 018c 2022     		movs	r2, #32
 954 018e 1343     		orrs	r3, r3, r2
 955 0190 0021     		movs	r1, #0
 956 0192 CAF84430 		str	r3, [r10, #68]
 957 0196 8AF84010 		strb	r1, [r10, #64]
 958 019a 8AF84120 		strb	r2, [r10, #65]
 959 019e 0120     		movs	r0, #1
 960 01a0 BDE8F087 		pop	{r4, r5, r6, r7, r8, r9, r10, pc}
 961              	.L206:
 962 01a4 002D     		cmp	r5, #0
 963 01a6 3FF44CAF 		beq	.L208
 964              	.L229:
 965 01aa 4FF0060E 		mov	lr, #6
 966 01ae 0C20     		movs	r0, #12
 967 01b0 0D24     		movs	r4, #13
 968 01b2 4FF0070C 		mov	ip, #7
 969 01b6 4FF00509 		mov	r9, #5
 970 01ba 0422     		movs	r2, #4
 971 01bc 4DE7     		b	.L196
 972              	.L226:
 973 01be 0020     		movs	r0, #0
 974 01c0 BDE8F087 		pop	{r4, r5, r6, r7, r8, r9, r10, pc}
 975              	.L259:
 976 01c4 9A69     		ldr	r2, [r3, #24]
 977 01c6 5207     		lsls	r2, r2, #29
 978 01c8 03D5     		bpl	.L221
 979 01ca BAF82820 		ldrh	r2, [r10, #40]
 980 01ce 002A     		cmp	r2, #0
ARM GAS  /tmp/ccNejxAl.s 			page 18


 981 01d0 F5D1     		bne	.L226
 982              	.L221:
 983 01d2 9A69     		ldr	r2, [r3, #24]
 984 01d4 12F01002 		ands	r2, r2, #16
 985 01d8 1CBF     		itt	ne
 986 01da 1021     		movne	r1, #16
 987 01dc 0422     		movne	r2, #4
 988 01de 4FF02004 		mov	r4, #32
 989 01e2 18BF     		it	ne
 990 01e4 D961     		strne	r1, [r3, #28]
 991 01e6 CAF84420 		str	r2, [r10, #68]
 992 01ea DC61     		str	r4, [r3, #28]
 993 01ec 5A68     		ldr	r2, [r3, #4]
 994 01ee 0749     		ldr	r1, .L260
 995 01f0 0A40     		ands	r2, r2, r1
 996 01f2 0021     		movs	r1, #0
 997 01f4 5A60     		str	r2, [r3, #4]
 998 01f6 8AF84140 		strb	r4, [r10, #65]
 999 01fa 8AF84010 		strb	r1, [r10, #64]
 1000 01fe 8AF84210 		strb	r1, [r10, #66]
 1001 0202 0120     		movs	r0, #1
 1002 0204 BDE8F087 		pop	{r4, r5, r6, r7, r8, r9, r10, pc}
 1003              	.L258:
 1004 0208 1046     		mov	r0, r2
 1005 020a 32E7     		b	.L213
 1006              	.L261:
 1007              		.align	2
 1008              	.L260:
 1009 020c 00E800FE 		.word	-33495040
 1011              		.section	.text.HAL_I2C_MspInit,"ax",%progbits
 1012              		.align	1
 1013              		.p2align 2,,3
 1014              		.weak	HAL_I2C_MspInit
 1015              		.syntax unified
 1016              		.thumb
 1017              		.thumb_func
 1018              		.fpu fpv4-sp-d16
 1020              	HAL_I2C_MspInit:
 1021              		@ args = 0, pretend = 0, frame = 0
 1022              		@ frame_needed = 0, uses_anonymous_args = 0
 1023              		@ link register save eliminated.
 1024 0000 7047     		bx	lr
 1026 0002 00BF     		.section	.text.HAL_I2C_Init,"ax",%progbits
 1027              		.align	1
 1028              		.p2align 2,,3
 1029              		.global	HAL_I2C_Init
 1030              		.syntax unified
 1031              		.thumb
 1032              		.thumb_func
 1033              		.fpu fpv4-sp-d16
 1035              	HAL_I2C_Init:
 1036              		@ args = 0, pretend = 0, frame = 0
 1037              		@ frame_needed = 0, uses_anonymous_args = 0
 1038 0000 0028     		cmp	r0, #0
 1039 0002 4FD0     		beq	.L268
 1040 0004 10B5     		push	{r4, lr}
 1041 0006 90F84130 		ldrb	r3, [r0, #65]	@ zero_extendqisi2
ARM GAS  /tmp/ccNejxAl.s 			page 19


 1042 000a 0446     		mov	r4, r0
 1043 000c 03F0FF02 		and	r2, r3, #255
 1044 0010 002B     		cmp	r3, #0
 1045 0012 42D0     		beq	.L273
 1046              	.L265:
 1047 0014 2368     		ldr	r3, [r4]
 1048 0016 2422     		movs	r2, #36
 1049 0018 84F84120 		strb	r2, [r4, #65]
 1050 001c 1968     		ldr	r1, [r3]
 1051 001e 6268     		ldr	r2, [r4, #4]
 1052 0020 21F00101 		bic	r1, r1, #1
 1053 0024 22F07062 		bic	r2, r2, #251658240
 1054 0028 1960     		str	r1, [r3]
 1055 002a 1A61     		str	r2, [r3, #16]
 1056 002c 9A68     		ldr	r2, [r3, #8]
 1057 002e E168     		ldr	r1, [r4, #12]
 1058 0030 22F40042 		bic	r2, r2, #32768
 1059 0034 0129     		cmp	r1, #1
 1060 0036 9A60     		str	r2, [r3, #8]
 1061 0038 A268     		ldr	r2, [r4, #8]
 1062 003a 2AD0     		beq	.L274
 1063 003c 42F40442 		orr	r2, r2, #33792
 1064 0040 0229     		cmp	r1, #2
 1065 0042 9A60     		str	r2, [r3, #8]
 1066 0044 04BF     		itt	eq
 1067 0046 4FF40062 		moveq	r2, #2048
 1068 004a 5A60     		streq	r2, [r3, #4]
 1069              	.L267:
 1070 004c 5968     		ldr	r1, [r3, #4]
 1071 004e 2269     		ldr	r2, [r4, #16]
 1072 0050 41F00071 		orr	r1, r1, #33554432
 1073 0054 41F40041 		orr	r1, r1, #32768
 1074 0058 5960     		str	r1, [r3, #4]
 1075 005a 6169     		ldr	r1, [r4, #20]
 1076 005c D868     		ldr	r0, [r3, #12]
 1077 005e 0A43     		orrs	r2, r2, r1
 1078 0060 A169     		ldr	r1, [r4, #24]
 1079 0062 20F40040 		bic	r0, r0, #32768
 1080 0066 42EA0122 		orr	r2, r2, r1, lsl #8
 1081 006a E169     		ldr	r1, [r4, #28]
 1082 006c D860     		str	r0, [r3, #12]
 1083 006e 206A     		ldr	r0, [r4, #32]
 1084 0070 DA60     		str	r2, [r3, #12]
 1085 0072 0143     		orrs	r1, r1, r0
 1086 0074 1960     		str	r1, [r3]
 1087 0076 1968     		ldr	r1, [r3]
 1088 0078 41F00101 		orr	r1, r1, #1
 1089 007c 1960     		str	r1, [r3]
 1090 007e 0022     		movs	r2, #0
 1091 0080 2023     		movs	r3, #32
 1092 0082 6264     		str	r2, [r4, #68]
 1093 0084 84F84130 		strb	r3, [r4, #65]
 1094 0088 2263     		str	r2, [r4, #48]
 1095 008a 84F84220 		strb	r2, [r4, #66]
 1096 008e 1046     		mov	r0, r2
 1097 0090 10BD     		pop	{r4, pc}
 1098              	.L274:
ARM GAS  /tmp/ccNejxAl.s 			page 20


 1099 0092 42F40042 		orr	r2, r2, #32768
 1100 0096 9A60     		str	r2, [r3, #8]
 1101 0098 D8E7     		b	.L267
 1102              	.L273:
 1103 009a 80F84020 		strb	r2, [r0, #64]
 1104 009e FFF7FEFF 		bl	HAL_I2C_MspInit
 1105 00a2 B7E7     		b	.L265
 1106              	.L268:
 1107 00a4 0120     		movs	r0, #1
 1108 00a6 7047     		bx	lr
 1110              		.section	.text.HAL_I2C_MspDeInit,"ax",%progbits
 1111              		.align	1
 1112              		.p2align 2,,3
 1113              		.weak	HAL_I2C_MspDeInit
 1114              		.syntax unified
 1115              		.thumb
 1116              		.thumb_func
 1117              		.fpu fpv4-sp-d16
 1119              	HAL_I2C_MspDeInit:
 1120              		@ args = 0, pretend = 0, frame = 0
 1121              		@ frame_needed = 0, uses_anonymous_args = 0
 1122              		@ link register save eliminated.
 1123 0000 7047     		bx	lr
 1125 0002 00BF     		.section	.text.HAL_I2C_DeInit,"ax",%progbits
 1126              		.align	1
 1127              		.p2align 2,,3
 1128              		.global	HAL_I2C_DeInit
 1129              		.syntax unified
 1130              		.thumb
 1131              		.thumb_func
 1132              		.fpu fpv4-sp-d16
 1134              	HAL_I2C_DeInit:
 1135              		@ args = 0, pretend = 0, frame = 0
 1136              		@ frame_needed = 0, uses_anonymous_args = 0
 1137 0000 B0B1     		cbz	r0, .L278
 1138 0002 0268     		ldr	r2, [r0]
 1139 0004 2423     		movs	r3, #36
 1140 0006 10B5     		push	{r4, lr}
 1141 0008 80F84130 		strb	r3, [r0, #65]
 1142 000c 1368     		ldr	r3, [r2]
 1143 000e 23F00103 		bic	r3, r3, #1
 1144 0012 0446     		mov	r4, r0
 1145 0014 1360     		str	r3, [r2]
 1146 0016 FFF7FEFF 		bl	HAL_I2C_MspDeInit
 1147 001a 0023     		movs	r3, #0
 1148 001c 6364     		str	r3, [r4, #68]
 1149 001e 84F84030 		strb	r3, [r4, #64]
 1150 0022 84F84130 		strb	r3, [r4, #65]
 1151 0026 2363     		str	r3, [r4, #48]
 1152 0028 84F84230 		strb	r3, [r4, #66]
 1153 002c 1846     		mov	r0, r3
 1154 002e 10BD     		pop	{r4, pc}
 1155              	.L278:
 1156 0030 0120     		movs	r0, #1
 1157 0032 7047     		bx	lr
 1159              		.section	.text.HAL_I2C_Master_Transmit,"ax",%progbits
 1160              		.align	1
ARM GAS  /tmp/ccNejxAl.s 			page 21


 1161              		.p2align 2,,3
 1162              		.global	HAL_I2C_Master_Transmit
 1163              		.syntax unified
 1164              		.thumb
 1165              		.thumb_func
 1166              		.fpu fpv4-sp-d16
 1168              	HAL_I2C_Master_Transmit:
 1169              		@ args = 4, pretend = 0, frame = 0
 1170              		@ frame_needed = 0, uses_anonymous_args = 0
 1171 0000 2DE9F84F 		push	{r3, r4, r5, r6, r7, r8, r9, r10, fp, lr}
 1172 0004 1E46     		mov	r6, r3
 1173 0006 90F84130 		ldrb	r3, [r0, #65]	@ zero_extendqisi2
 1174 000a DDF82880 		ldr	r8, [sp, #40]
 1175 000e 202B     		cmp	r3, #32
 1176 0010 40F08F80 		bne	.L330
 1177 0014 90F84030 		ldrb	r3, [r0, #64]	@ zero_extendqisi2
 1178 0018 012B     		cmp	r3, #1
 1179 001a 0546     		mov	r5, r0
 1180 001c 00F08980 		beq	.L330
 1181 0020 0123     		movs	r3, #1
 1182 0022 80F84030 		strb	r3, [r0, #64]
 1183 0026 8B46     		mov	fp, r1
 1184 0028 1746     		mov	r7, r2
 1185 002a FFF7FEFF 		bl	HAL_GetTick
 1186 002e 8146     		mov	r9, r0
 1187 0030 05E0     		b	.L285
 1188              	.L286:
 1189 0032 FFF7FEFF 		bl	HAL_GetTick
 1190 0036 A0EB0900 		sub	r0, r0, r9
 1191 003a 1928     		cmp	r0, #25
 1192 003c 7CD8     		bhi	.L321
 1193              	.L285:
 1194 003e 2868     		ldr	r0, [r5]
 1195 0040 8469     		ldr	r4, [r0, #24]
 1196 0042 14F40044 		ands	r4, r4, #32768
 1197 0046 F4D1     		bne	.L286
 1198 0048 2123     		movs	r3, #33
 1199 004a 85F84130 		strb	r3, [r5, #65]
 1200 004e 1023     		movs	r3, #16
 1201 0050 85F84230 		strb	r3, [r5, #66]
 1202 0054 6C64     		str	r4, [r5, #68]
 1203 0056 6E85     		strh	r6, [r5, #42]	@ movhi
 1204 0058 6B8D     		ldrh	r3, [r5, #42]
 1205 005a 6F62     		str	r7, [r5, #36]
 1206 005c 9BB2     		uxth	r3, r3
 1207 005e FF2B     		cmp	r3, #255
 1208 0060 6C63     		str	r4, [r5, #52]
 1209 0062 CBF3090B 		ubfx	fp, fp, #0, #10
 1210 0066 75D8     		bhi	.L373
 1211 0068 6B8D     		ldrh	r3, [r5, #42]
 1212 006a A449     		ldr	r1, .L379
 1213 006c 4268     		ldr	r2, [r0, #4]
 1214 006e 9BB2     		uxth	r3, r3
 1215 0070 2B85     		strh	r3, [r5, #40]	@ movhi
 1216 0072 DBB2     		uxtb	r3, r3
 1217 0074 4BEA0343 		orr	r3, fp, r3, lsl #16
 1218 0078 0A40     		ands	r2, r2, r1
ARM GAS  /tmp/ccNejxAl.s 			page 22


 1219 007a 1343     		orrs	r3, r3, r2
 1220 007c 43F00073 		orr	r3, r3, #33554432
 1221 0080 43F40053 		orr	r3, r3, #8192
 1222 0084 4360     		str	r3, [r0, #4]
 1223              	.L288:
 1224 0086 6B8D     		ldrh	r3, [r5, #42]
 1225 0088 9BB2     		uxth	r3, r3
 1226 008a 002B     		cmp	r3, #0
 1227 008c 00F0F780 		beq	.L327
 1228 0090 4FF0200A 		mov	r10, #32
 1229              	.L314:
 1230 0094 8669     		ldr	r6, [r0, #24]
 1231 0096 16F00206 		ands	r6, r6, #2
 1232 009a 40F0DA80 		bne	.L374
 1233              	.L317:
 1234 009e 8369     		ldr	r3, [r0, #24]
 1235 00a0 13F01003 		ands	r3, r3, #16
 1236 00a4 63D0     		beq	.L332
 1237 00a6 1023     		movs	r3, #16
 1238 00a8 C361     		str	r3, [r0, #28]
 1239 00aa 4F46     		mov	r7, r9
 1240              	.L292:
 1241 00ac B8F1FF3F 		cmp	r8, #-1
 1242 00b0 8369     		ldr	r3, [r0, #24]
 1243 00b2 7DD1     		bne	.L300
 1244 00b4 9906     		lsls	r1, r3, #26
 1245 00b6 00F1ED80 		bmi	.L301
 1246 00ba 002E     		cmp	r6, #0
 1247 00bc 40F0ED80 		bne	.L334
 1248              	.L302:
 1249 00c0 8369     		ldr	r3, [r0, #24]
 1250 00c2 9A06     		lsls	r2, r3, #26
 1251 00c4 FCD5     		bpl	.L302
 1252              	.L303:
 1253 00c6 C0F81CA0 		str	r10, [r0, #28]
 1254 00ca 4FF0060E 		mov	lr, #6
 1255 00ce 0C21     		movs	r1, #12
 1256 00d0 0D24     		movs	r4, #13
 1257 00d2 0727     		movs	r7, #7
 1258 00d4 4FF0050C 		mov	ip, #5
 1259 00d8 0423     		movs	r3, #4
 1260 00da 0126     		movs	r6, #1
 1261              	.L291:
 1262 00dc 8269     		ldr	r2, [r0, #24]
 1263 00de 12F4807F 		tst	r2, #256
 1264 00e2 53D0     		beq	.L305
 1265              	.L375:
 1266 00e4 4FF48073 		mov	r3, #256
 1267 00e8 C361     		str	r3, [r0, #28]
 1268 00ea 5305     		lsls	r3, r2, #21
 1269 00ec 57D4     		bmi	.L335
 1270 00ee 9605     		lsls	r6, r2, #22
 1271 00f0 00F1CE80 		bmi	.L336
 1272 00f4 6146     		mov	r1, ip
 1273              	.L308:
 1274 00f6 8369     		ldr	r3, [r0, #24]
 1275 00f8 9E07     		lsls	r6, r3, #30
ARM GAS  /tmp/ccNejxAl.s 			page 23


 1276 00fa 44BF     		itt	mi
 1277 00fc 0023     		movmi	r3, #0
 1278 00fe 8362     		strmi	r3, [r0, #40]
 1279 0100 8369     		ldr	r3, [r0, #24]
 1280 0102 DC07     		lsls	r4, r3, #31
 1281 0104 03D4     		bmi	.L313
 1282 0106 8369     		ldr	r3, [r0, #24]
 1283 0108 43F00103 		orr	r3, r3, #1
 1284 010c 8361     		str	r3, [r0, #24]
 1285              	.L313:
 1286 010e 4368     		ldr	r3, [r0, #4]
 1287 0110 7B4C     		ldr	r4, .L379+4
 1288 0112 2340     		ands	r3, r3, r4
 1289 0114 4360     		str	r3, [r0, #4]
 1290 0116 6B6C     		ldr	r3, [r5, #68]
 1291 0118 0022     		movs	r2, #0
 1292 011a 2020     		movs	r0, #32
 1293 011c 0B43     		orrs	r3, r3, r1
 1294 011e 6B64     		str	r3, [r5, #68]
 1295 0120 85F84020 		strb	r2, [r5, #64]
 1296 0124 85F84100 		strb	r0, [r5, #65]
 1297 0128 85F84220 		strb	r2, [r5, #66]
 1298 012c 0120     		movs	r0, #1
 1299 012e BDE8F88F 		pop	{r3, r4, r5, r6, r7, r8, r9, r10, fp, pc}
 1300              	.L330:
 1301 0132 0220     		movs	r0, #2
 1302              	.L369:
 1303 0134 BDE8F88F 		pop	{r3, r4, r5, r6, r7, r8, r9, r10, fp, pc}
 1304              	.L321:
 1305 0138 6B6C     		ldr	r3, [r5, #68]
 1306 013a 0022     		movs	r2, #0
 1307 013c 43F02003 		orr	r3, r3, #32
 1308 0140 2021     		movs	r1, #32
 1309 0142 6B64     		str	r3, [r5, #68]
 1310 0144 85F84020 		strb	r2, [r5, #64]
 1311 0148 85F84110 		strb	r1, [r5, #65]
 1312 014c 0120     		movs	r0, #1
 1313 014e 85F84220 		strb	r2, [r5, #66]
 1314 0152 EFE7     		b	.L369
 1315              	.L373:
 1316 0154 4368     		ldr	r3, [r0, #4]
 1317 0156 694A     		ldr	r2, .L379
 1318 0158 1340     		ands	r3, r3, r2
 1319 015a 43EA0B03 		orr	r3, r3, fp
 1320 015e 43F0FF73 		orr	r3, r3, #33423360
 1321 0162 43F49033 		orr	r3, r3, #73728
 1322 0166 FF22     		movs	r2, #255
 1323 0168 2A85     		strh	r2, [r5, #40]	@ movhi
 1324 016a 4360     		str	r3, [r0, #4]
 1325 016c 8BE7     		b	.L288
 1326              	.L332:
 1327 016e 8269     		ldr	r2, [r0, #24]
 1328 0170 12F4807F 		tst	r2, #256
 1329 0174 4FF0020E 		mov	lr, #2
 1330 0178 4FF00801 		mov	r1, #8
 1331 017c 4FF00904 		mov	r4, #9
 1332 0180 4FF00307 		mov	r7, #3
ARM GAS  /tmp/ccNejxAl.s 			page 24


 1333 0184 4FF0010C 		mov	ip, #1
 1334 0188 1E46     		mov	r6, r3
 1335 018a ABD1     		bne	.L375
 1336              	.L305:
 1337 018c 5405     		lsls	r4, r2, #21
 1338 018e 07D4     		bmi	.L306
 1339 0190 9705     		lsls	r7, r2, #22
 1340 0192 47D5     		bpl	.L310
 1341 0194 7146     		mov	r1, lr
 1342              	.L307:
 1343 0196 4FF40073 		mov	r3, #512
 1344 019a C361     		str	r3, [r0, #28]
 1345 019c ABE7     		b	.L308
 1346              	.L335:
 1347 019e 2146     		mov	r1, r4
 1348              	.L306:
 1349 01a0 4FF48063 		mov	r3, #1024
 1350 01a4 C361     		str	r3, [r0, #28]
 1351 01a6 9305     		lsls	r3, r2, #22
 1352 01a8 A5D5     		bpl	.L308
 1353 01aa 41F00201 		orr	r1, r1, #2
 1354 01ae F2E7     		b	.L307
 1355              	.L300:
 1356 01b0 9B06     		lsls	r3, r3, #26
 1357 01b2 6FD4     		bmi	.L301
 1358 01b4 002E     		cmp	r6, #0
 1359 01b6 70D1     		bne	.L334
 1360 01b8 FFF7FEFF 		bl	HAL_GetTick
 1361 01bc C01B     		subs	r0, r0, r7
 1362 01be 8045     		cmp	r8, r0
 1363 01c0 2868     		ldr	r0, [r5]
 1364 01c2 03D3     		bcc	.L293
 1365 01c4 B8F1000F 		cmp	r8, #0
 1366 01c8 7FF470AF 		bne	.L292
 1367              	.L293:
 1368 01cc 4168     		ldr	r1, [r0, #4]
 1369 01ce 95F84230 		ldrb	r3, [r5, #66]	@ zero_extendqisi2
 1370 01d2 8269     		ldr	r2, [r0, #24]
 1371 01d4 1204     		lsls	r2, r2, #16
 1372 01d6 DBB2     		uxtb	r3, r3
 1373 01d8 0DD5     		bpl	.L297
 1374 01da 4C04     		lsls	r4, r1, #17
 1375 01dc 0BD4     		bmi	.L297
 1376 01de 202B     		cmp	r3, #32
 1377 01e0 09D0     		beq	.L297
 1378 01e2 4368     		ldr	r3, [r0, #4]
 1379 01e4 43F48043 		orr	r3, r3, #16384
 1380 01e8 4360     		str	r3, [r0, #4]
 1381 01ea FFF7FEFF 		bl	HAL_GetTick
 1382 01ee 0746     		mov	r7, r0
 1383 01f0 2868     		ldr	r0, [r5]
 1384 01f2 00E0     		b	.L297
 1385              	.L376:
 1386 01f4 2868     		ldr	r0, [r5]
 1387              	.L297:
 1388 01f6 8469     		ldr	r4, [r0, #24]
 1389 01f8 14F02004 		ands	r4, r4, #32
ARM GAS  /tmp/ccNejxAl.s 			page 25


 1390 01fc 7FF456AF 		bne	.L292
 1391 0200 FFF7FEFF 		bl	HAL_GetTick
 1392 0204 C01B     		subs	r0, r0, r7
 1393 0206 1928     		cmp	r0, #25
 1394 0208 F4D9     		bls	.L376
 1395 020a 6B6C     		ldr	r3, [r5, #68]
 1396 020c 2868     		ldr	r0, [r5]
 1397 020e 85F84040 		strb	r4, [r5, #64]
 1398 0212 43F02003 		orr	r3, r3, #32
 1399 0216 6B64     		str	r3, [r5, #68]
 1400 0218 0126     		movs	r6, #1
 1401 021a 85F841A0 		strb	r10, [r5, #65]
 1402 021e 85F84240 		strb	r4, [r5, #66]
 1403 0222 E8E7     		b	.L297
 1404              	.L310:
 1405 0224 002E     		cmp	r6, #0
 1406 0226 67D1     		bne	.L377
 1407 0228 B8F1FF3F 		cmp	r8, #-1
 1408 022c 3FF432AF 		beq	.L314
 1409 0230 FFF7FEFF 		bl	HAL_GetTick
 1410 0234 A0EB0900 		sub	r0, r0, r9
 1411 0238 8045     		cmp	r8, r0
 1412 023a FFF47DAF 		bcc	.L321
 1413 023e B8F1000F 		cmp	r8, #0
 1414 0242 3FF479AF 		beq	.L321
 1415 0246 2868     		ldr	r0, [r5]
 1416 0248 8669     		ldr	r6, [r0, #24]
 1417 024a 16F00206 		ands	r6, r6, #2
 1418 024e 3FF426AF 		beq	.L317
 1419              	.L374:
 1420 0252 696A     		ldr	r1, [r5, #36]
 1421 0254 2B8D     		ldrh	r3, [r5, #40]
 1422 0256 11F8012B 		ldrb	r2, [r1], #1	@ zero_extendqisi2
 1423 025a 8262     		str	r2, [r0, #40]
 1424 025c 6A8D     		ldrh	r2, [r5, #42]
 1425 025e 6962     		str	r1, [r5, #36]
 1426 0260 013A     		subs	r2, r2, #1
 1427 0262 92B2     		uxth	r2, r2
 1428 0264 6A85     		strh	r2, [r5, #42]	@ movhi
 1429 0266 6A8D     		ldrh	r2, [r5, #42]
 1430 0268 013B     		subs	r3, r3, #1
 1431 026a 9BB2     		uxth	r3, r3
 1432 026c 92B2     		uxth	r2, r2
 1433 026e 2B85     		strh	r3, [r5, #40]	@ movhi
 1434 0270 02B1     		cbz	r2, .L320
 1435 0272 53B3     		cbz	r3, .L319
 1436              	.L320:
 1437 0274 6B8D     		ldrh	r3, [r5, #42]
 1438 0276 9BB2     		uxth	r3, r3
 1439 0278 002B     		cmp	r3, #0
 1440 027a 7FF40BAF 		bne	.L314
 1441              	.L327:
 1442 027e 4A46     		mov	r2, r9
 1443 0280 4146     		mov	r1, r8
 1444 0282 2846     		mov	r0, r5
 1445 0284 FFF7FEFF 		bl	I2C_WaitOnSTOPFlagUntilTimeout
 1446 0288 0028     		cmp	r0, #0
ARM GAS  /tmp/ccNejxAl.s 			page 26


 1447 028a 4CD0     		beq	.L378
 1448 028c 0120     		movs	r0, #1
 1449 028e 51E7     		b	.L369
 1450              	.L336:
 1451 0290 3946     		mov	r1, r7
 1452 0292 80E7     		b	.L307
 1453              	.L301:
 1454 0294 002E     		cmp	r6, #0
 1455 0296 3FF416AF 		beq	.L303
 1456              	.L334:
 1457 029a 4FF0060E 		mov	lr, #6
 1458 029e 0C21     		movs	r1, #12
 1459 02a0 0D24     		movs	r4, #13
 1460 02a2 0727     		movs	r7, #7
 1461 02a4 4FF0050C 		mov	ip, #5
 1462 02a8 0423     		movs	r3, #4
 1463 02aa 17E7     		b	.L291
 1464              	.L322:
 1465 02ac 8369     		ldr	r3, [r0, #24]
 1466 02ae 1B06     		lsls	r3, r3, #24
 1467 02b0 11D4     		bmi	.L324
 1468 02b2 FFF7FEFF 		bl	HAL_GetTick
 1469 02b6 A0EB0900 		sub	r0, r0, r9
 1470 02ba 8045     		cmp	r8, r0
 1471 02bc FFF43CAF 		bcc	.L321
 1472 02c0 B8F1000F 		cmp	r8, #0
 1473 02c4 3FF438AF 		beq	.L321
 1474 02c8 2868     		ldr	r0, [r5]
 1475              	.L319:
 1476 02ca B8F1FF3F 		cmp	r8, #-1
 1477 02ce EDD1     		bne	.L322
 1478              	.L323:
 1479 02d0 8369     		ldr	r3, [r0, #24]
 1480 02d2 1A06     		lsls	r2, r3, #24
 1481 02d4 FCD5     		bpl	.L323
 1482              	.L324:
 1483 02d6 6B8D     		ldrh	r3, [r5, #42]
 1484 02d8 9BB2     		uxth	r3, r3
 1485 02da FF2B     		cmp	r3, #255
 1486 02dc 14D9     		bls	.L326
 1487 02de 4368     		ldr	r3, [r0, #4]
 1488 02e0 084A     		ldr	r2, .L379+8
 1489 02e2 1340     		ands	r3, r3, r2
 1490 02e4 43EA0B03 		orr	r3, r3, fp
 1491 02e8 43F0FF73 		orr	r3, r3, #33423360
 1492 02ec 43F48033 		orr	r3, r3, #65536
 1493 02f0 FF22     		movs	r2, #255
 1494 02f2 2A85     		strh	r2, [r5, #40]	@ movhi
 1495 02f4 4360     		str	r3, [r0, #4]
 1496 02f6 BDE7     		b	.L320
 1497              	.L377:
 1498 02f8 1946     		mov	r1, r3
 1499 02fa FCE6     		b	.L308
 1500              	.L380:
 1501              		.align	2
 1502              	.L379:
 1503 02fc 009800FC 		.word	-67069952
ARM GAS  /tmp/ccNejxAl.s 			page 27


 1504 0300 00E800FE 		.word	-33495040
 1505 0304 009C00FC 		.word	-67068928
 1506              	.L326:
 1507 0308 6B8D     		ldrh	r3, [r5, #42]
 1508 030a 0E49     		ldr	r1, .L381
 1509 030c 9BB2     		uxth	r3, r3
 1510 030e 2B85     		strh	r3, [r5, #40]	@ movhi
 1511 0310 DAB2     		uxtb	r2, r3
 1512 0312 4368     		ldr	r3, [r0, #4]
 1513 0314 0B40     		ands	r3, r3, r1
 1514 0316 43EA0B03 		orr	r3, r3, fp
 1515 031a 43EA0243 		orr	r3, r3, r2, lsl #16
 1516 031e 43F00073 		orr	r3, r3, #33554432
 1517 0322 4360     		str	r3, [r0, #4]
 1518 0324 A6E7     		b	.L320
 1519              	.L378:
 1520 0326 2B68     		ldr	r3, [r5]
 1521 0328 074C     		ldr	r4, .L381+4
 1522 032a 2021     		movs	r1, #32
 1523 032c D961     		str	r1, [r3, #28]
 1524 032e 5A68     		ldr	r2, [r3, #4]
 1525 0330 2240     		ands	r2, r2, r4
 1526 0332 5A60     		str	r2, [r3, #4]
 1527 0334 85F84110 		strb	r1, [r5, #65]
 1528 0338 85F84000 		strb	r0, [r5, #64]
 1529 033c 85F84200 		strb	r0, [r5, #66]
 1530 0340 F8E6     		b	.L369
 1531              	.L382:
 1532 0342 00BF     		.align	2
 1533              	.L381:
 1534 0344 009C00FC 		.word	-67068928
 1535 0348 00E800FE 		.word	-33495040
 1537              		.section	.text.HAL_I2C_Master_Receive,"ax",%progbits
 1538              		.align	1
 1539              		.p2align 2,,3
 1540              		.global	HAL_I2C_Master_Receive
 1541              		.syntax unified
 1542              		.thumb
 1543              		.thumb_func
 1544              		.fpu fpv4-sp-d16
 1546              	HAL_I2C_Master_Receive:
 1547              		@ args = 4, pretend = 0, frame = 0
 1548              		@ frame_needed = 0, uses_anonymous_args = 0
 1549 0000 2DE9F047 		push	{r4, r5, r6, r7, r8, r9, r10, lr}
 1550 0004 9846     		mov	r8, r3
 1551 0006 90F84130 		ldrb	r3, [r0, #65]	@ zero_extendqisi2
 1552 000a 089E     		ldr	r6, [sp, #32]
 1553 000c 202B     		cmp	r3, #32
 1554 000e 40F09380 		bne	.L403
 1555 0012 90F84030 		ldrb	r3, [r0, #64]	@ zero_extendqisi2
 1556 0016 012B     		cmp	r3, #1
 1557 0018 0446     		mov	r4, r0
 1558 001a 00F08D80 		beq	.L403
 1559 001e 0123     		movs	r3, #1
 1560 0020 80F84030 		strb	r3, [r0, #64]
 1561 0024 0F46     		mov	r7, r1
 1562 0026 9146     		mov	r9, r2
ARM GAS  /tmp/ccNejxAl.s 			page 28


 1563 0028 FFF7FEFF 		bl	HAL_GetTick
 1564 002c 0546     		mov	r5, r0
 1565 002e 05E0     		b	.L385
 1566              	.L386:
 1567 0030 FFF7FEFF 		bl	HAL_GetTick
 1568 0034 401B     		subs	r0, r0, r5
 1569 0036 1928     		cmp	r0, #25
 1570 0038 00F28B80 		bhi	.L395
 1571              	.L385:
 1572 003c 2368     		ldr	r3, [r4]
 1573 003e 9869     		ldr	r0, [r3, #24]
 1574 0040 10F40040 		ands	r0, r0, #32768
 1575 0044 F4D1     		bne	.L386
 1576 0046 2222     		movs	r2, #34
 1577 0048 84F84120 		strb	r2, [r4, #65]
 1578 004c 1022     		movs	r2, #16
 1579 004e 84F84220 		strb	r2, [r4, #66]
 1580 0052 6064     		str	r0, [r4, #68]
 1581 0054 A4F82A80 		strh	r8, [r4, #42]	@ movhi
 1582 0058 628D     		ldrh	r2, [r4, #42]
 1583 005a C4F82490 		str	r9, [r4, #36]
 1584 005e 92B2     		uxth	r2, r2
 1585 0060 FF2A     		cmp	r2, #255
 1586 0062 6063     		str	r0, [r4, #52]
 1587 0064 C7F30907 		ubfx	r7, r7, #0, #10
 1588 0068 00F28280 		bhi	.L417
 1589 006c 628D     		ldrh	r2, [r4, #42]
 1590 006e 4F48     		ldr	r0, .L418
 1591 0070 5968     		ldr	r1, [r3, #4]
 1592 0072 92B2     		uxth	r2, r2
 1593 0074 2285     		strh	r2, [r4, #40]	@ movhi
 1594 0076 D2B2     		uxtb	r2, r2
 1595 0078 47EA0242 		orr	r2, r7, r2, lsl #16
 1596 007c 0140     		ands	r1, r1, r0
 1597 007e 0A43     		orrs	r2, r2, r1
 1598 0080 42F00072 		orr	r2, r2, #33554432
 1599 0084 42F41052 		orr	r2, r2, #9216
 1600 0088 5A60     		str	r2, [r3, #4]
 1601              	.L388:
 1602 008a 638D     		ldrh	r3, [r4, #42]
 1603 008c 9BB2     		uxth	r3, r3
 1604 008e 002B     		cmp	r3, #0
 1605 0090 3DD0     		beq	.L401
 1606 0092 DFF82081 		ldr	r8, .L418+8
 1607 0096 DFF820A1 		ldr	r10, .L418+12
 1608 009a 4FF0FF09 		mov	r9, #255
 1609 009e 03E0     		b	.L389
 1610              	.L393:
 1611 00a0 638D     		ldrh	r3, [r4, #42]
 1612 00a2 9BB2     		uxth	r3, r3
 1613 00a4 002B     		cmp	r3, #0
 1614 00a6 32D0     		beq	.L401
 1615              	.L389:
 1616 00a8 2A46     		mov	r2, r5
 1617 00aa 3146     		mov	r1, r6
 1618 00ac 2046     		mov	r0, r4
 1619 00ae FFF7FEFF 		bl	I2C_WaitOnRXNEFlagUntilTimeout
ARM GAS  /tmp/ccNejxAl.s 			page 29


 1620 00b2 0028     		cmp	r0, #0
 1621 00b4 76D1     		bne	.L390
 1622 00b6 2268     		ldr	r2, [r4]
 1623 00b8 636A     		ldr	r3, [r4, #36]
 1624 00ba 526A     		ldr	r2, [r2, #36]
 1625 00bc 1A70     		strb	r2, [r3]
 1626 00be 628D     		ldrh	r2, [r4, #42]
 1627 00c0 238D     		ldrh	r3, [r4, #40]
 1628 00c2 616A     		ldr	r1, [r4, #36]
 1629 00c4 013A     		subs	r2, r2, #1
 1630 00c6 92B2     		uxth	r2, r2
 1631 00c8 6285     		strh	r2, [r4, #42]	@ movhi
 1632 00ca 628D     		ldrh	r2, [r4, #42]
 1633 00cc 013B     		subs	r3, r3, #1
 1634 00ce 0131     		adds	r1, r1, #1
 1635 00d0 9BB2     		uxth	r3, r3
 1636 00d2 92B2     		uxth	r2, r2
 1637 00d4 6162     		str	r1, [r4, #36]
 1638 00d6 2385     		strh	r3, [r4, #40]	@ movhi
 1639 00d8 002A     		cmp	r2, #0
 1640 00da E1D0     		beq	.L393
 1641 00dc 002B     		cmp	r3, #0
 1642 00de DFD1     		bne	.L393
 1643              	.L394:
 1644 00e0 701C     		adds	r0, r6, #1
 1645 00e2 2268     		ldr	r2, [r4]
 1646 00e4 2BD1     		bne	.L396
 1647              	.L397:
 1648 00e6 9369     		ldr	r3, [r2, #24]
 1649 00e8 1906     		lsls	r1, r3, #24
 1650 00ea FCD5     		bpl	.L397
 1651              	.L398:
 1652 00ec 638D     		ldrh	r3, [r4, #42]
 1653 00ee 9BB2     		uxth	r3, r3
 1654 00f0 FF2B     		cmp	r3, #255
 1655 00f2 49D9     		bls	.L400
 1656 00f4 5368     		ldr	r3, [r2, #4]
 1657 00f6 A4F82890 		strh	r9, [r4, #40]	@ movhi
 1658 00fa 03EA0803 		and	r3, r3, r8
 1659 00fe 3B43     		orrs	r3, r3, r7
 1660 0100 43EA0A03 		orr	r3, r3, r10
 1661 0104 5360     		str	r3, [r2, #4]
 1662 0106 638D     		ldrh	r3, [r4, #42]
 1663 0108 9BB2     		uxth	r3, r3
 1664 010a 002B     		cmp	r3, #0
 1665 010c CCD1     		bne	.L389
 1666              	.L401:
 1667 010e 2A46     		mov	r2, r5
 1668 0110 3146     		mov	r1, r6
 1669 0112 2046     		mov	r0, r4
 1670 0114 FFF7FEFF 		bl	I2C_WaitOnSTOPFlagUntilTimeout
 1671 0118 0028     		cmp	r0, #0
 1672 011a 43D1     		bne	.L390
 1673 011c 2368     		ldr	r3, [r4]
 1674 011e 244D     		ldr	r5, .L418+4
 1675 0120 2021     		movs	r1, #32
 1676 0122 D961     		str	r1, [r3, #28]
ARM GAS  /tmp/ccNejxAl.s 			page 30


 1677 0124 5A68     		ldr	r2, [r3, #4]
 1678 0126 2A40     		ands	r2, r2, r5
 1679 0128 5A60     		str	r2, [r3, #4]
 1680 012a 84F84110 		strb	r1, [r4, #65]
 1681 012e 84F84000 		strb	r0, [r4, #64]
 1682 0132 84F84200 		strb	r0, [r4, #66]
 1683 0136 00E0     		b	.L384
 1684              	.L403:
 1685 0138 0220     		movs	r0, #2
 1686              	.L384:
 1687 013a BDE8F087 		pop	{r4, r5, r6, r7, r8, r9, r10, pc}
 1688              	.L396:
 1689 013e 9369     		ldr	r3, [r2, #24]
 1690 0140 1B06     		lsls	r3, r3, #24
 1691 0142 D3D4     		bmi	.L398
 1692 0144 FFF7FEFF 		bl	HAL_GetTick
 1693 0148 401B     		subs	r0, r0, r5
 1694 014a 8642     		cmp	r6, r0
 1695 014c 01D3     		bcc	.L395
 1696 014e 002E     		cmp	r6, #0
 1697 0150 C6D1     		bne	.L394
 1698              	.L395:
 1699 0152 636C     		ldr	r3, [r4, #68]
 1700 0154 0022     		movs	r2, #0
 1701 0156 43F02003 		orr	r3, r3, #32
 1702 015a 2021     		movs	r1, #32
 1703 015c 6364     		str	r3, [r4, #68]
 1704 015e 84F84020 		strb	r2, [r4, #64]
 1705 0162 84F84110 		strb	r1, [r4, #65]
 1706 0166 84F84220 		strb	r2, [r4, #66]
 1707 016a 0120     		movs	r0, #1
 1708 016c BDE8F087 		pop	{r4, r5, r6, r7, r8, r9, r10, pc}
 1709              	.L417:
 1710 0170 5A68     		ldr	r2, [r3, #4]
 1711 0172 0E49     		ldr	r1, .L418
 1712 0174 0A40     		ands	r2, r2, r1
 1713 0176 3A43     		orrs	r2, r2, r7
 1714 0178 42F0FF72 		orr	r2, r2, #33423360
 1715 017c 42F49232 		orr	r2, r2, #74752
 1716 0180 FF21     		movs	r1, #255
 1717 0182 2185     		strh	r1, [r4, #40]	@ movhi
 1718 0184 5A60     		str	r2, [r3, #4]
 1719 0186 80E7     		b	.L388
 1720              	.L400:
 1721 0188 638D     		ldrh	r3, [r4, #42]
 1722 018a 9BB2     		uxth	r3, r3
 1723 018c 2385     		strh	r3, [r4, #40]	@ movhi
 1724 018e D9B2     		uxtb	r1, r3
 1725 0190 5368     		ldr	r3, [r2, #4]
 1726 0192 03EA0803 		and	r3, r3, r8
 1727 0196 3B43     		orrs	r3, r3, r7
 1728 0198 43EA0143 		orr	r3, r3, r1, lsl #16
 1729 019c 43F00073 		orr	r3, r3, #33554432
 1730 01a0 5360     		str	r3, [r2, #4]
 1731 01a2 7DE7     		b	.L393
 1732              	.L390:
 1733 01a4 0120     		movs	r0, #1
ARM GAS  /tmp/ccNejxAl.s 			page 31


 1734 01a6 BDE8F087 		pop	{r4, r5, r6, r7, r8, r9, r10, pc}
 1735              	.L419:
 1736 01aa 00BF     		.align	2
 1737              	.L418:
 1738 01ac 009800FC 		.word	-67069952
 1739 01b0 00E800FE 		.word	-33495040
 1740 01b4 009C00FC 		.word	-67068928
 1741 01b8 0000FF01 		.word	33488896
 1743              		.section	.text.HAL_I2C_Slave_Transmit,"ax",%progbits
 1744              		.align	1
 1745              		.p2align 2,,3
 1746              		.global	HAL_I2C_Slave_Transmit
 1747              		.syntax unified
 1748              		.thumb
 1749              		.thumb_func
 1750              		.fpu fpv4-sp-d16
 1752              	HAL_I2C_Slave_Transmit:
 1753              		@ args = 0, pretend = 0, frame = 0
 1754              		@ frame_needed = 0, uses_anonymous_args = 0
 1755 0000 2DE9F843 		push	{r3, r4, r5, r6, r7, r8, r9, lr}
 1756 0004 0446     		mov	r4, r0
 1757 0006 90F84100 		ldrb	r0, [r0, #65]	@ zero_extendqisi2
 1758 000a 2028     		cmp	r0, #32
 1759 000c 7DD1     		bne	.L462
 1760 000e 0D46     		mov	r5, r1
 1761 0010 0029     		cmp	r1, #0
 1762 0012 73D0     		beq	.L422
 1763 0014 1646     		mov	r6, r2
 1764 0016 002A     		cmp	r2, #0
 1765 0018 70D0     		beq	.L422
 1766 001a 1F46     		mov	r7, r3
 1767 001c 94F84030 		ldrb	r3, [r4, #64]	@ zero_extendqisi2
 1768 0020 012B     		cmp	r3, #1
 1769 0022 72D0     		beq	.L462
 1770 0024 0123     		movs	r3, #1
 1771 0026 84F84030 		strb	r3, [r4, #64]
 1772 002a 5FFA80F9 		uxtb	r9, r0
 1773 002e FFF7FEFF 		bl	HAL_GetTick
 1774 0032 0023     		movs	r3, #0
 1775 0034 6562     		str	r5, [r4, #36]
 1776 0036 2122     		movs	r2, #33
 1777 0038 2568     		ldr	r5, [r4]
 1778 003a 84F84120 		strb	r2, [r4, #65]
 1779 003e 84F84290 		strb	r9, [r4, #66]
 1780 0042 6364     		str	r3, [r4, #68]
 1781 0044 6685     		strh	r6, [r4, #42]	@ movhi
 1782 0046 6363     		str	r3, [r4, #52]
 1783 0048 6B68     		ldr	r3, [r5, #4]
 1784 004a 23F40043 		bic	r3, r3, #32768
 1785 004e 8046     		mov	r8, r0
 1786 0050 6B60     		str	r3, [r5, #4]
 1787              	.L424:
 1788 0052 7A1C     		adds	r2, r7, #1
 1789 0054 5DD1     		bne	.L426
 1790              	.L427:
 1791 0056 AE69     		ldr	r6, [r5, #24]
 1792 0058 3307     		lsls	r3, r6, #28
ARM GAS  /tmp/ccNejxAl.s 			page 32


 1793 005a FCD5     		bpl	.L427
 1794 005c 0823     		movs	r3, #8
 1795 005e EB61     		str	r3, [r5, #28]
 1796 0060 E368     		ldr	r3, [r4, #12]
 1797 0062 022B     		cmp	r3, #2
 1798 0064 22D0     		beq	.L433
 1799              	.L439:
 1800 0066 AB69     		ldr	r3, [r5, #24]
 1801 0068 DB03     		lsls	r3, r3, #15
 1802 006a FCD5     		bpl	.L439
 1803              	.L440:
 1804 006c 638D     		ldrh	r3, [r4, #42]
 1805 006e 9BB2     		uxth	r3, r3
 1806 0070 73B9     		cbnz	r3, .L444
 1807 0072 69E0     		b	.L446
 1808              	.L443:
 1809 0074 626A     		ldr	r2, [r4, #36]
 1810 0076 2568     		ldr	r5, [r4]
 1811 0078 12F8013B 		ldrb	r3, [r2], #1	@ zero_extendqisi2
 1812 007c AB62     		str	r3, [r5, #40]
 1813 007e 638D     		ldrh	r3, [r4, #42]
 1814 0080 6262     		str	r2, [r4, #36]
 1815 0082 013B     		subs	r3, r3, #1
 1816 0084 9BB2     		uxth	r3, r3
 1817 0086 6385     		strh	r3, [r4, #42]	@ movhi
 1818 0088 638D     		ldrh	r3, [r4, #42]
 1819 008a 9BB2     		uxth	r3, r3
 1820 008c 002B     		cmp	r3, #0
 1821 008e 5BD0     		beq	.L446
 1822              	.L444:
 1823 0090 4246     		mov	r2, r8
 1824 0092 3946     		mov	r1, r7
 1825 0094 2046     		mov	r0, r4
 1826 0096 FFF7FEFF 		bl	I2C_WaitOnTXISFlagUntilTimeout
 1827 009a 0028     		cmp	r0, #0
 1828 009c EAD0     		beq	.L443
 1829 009e 2268     		ldr	r2, [r4]
 1830 00a0 5368     		ldr	r3, [r2, #4]
 1831 00a2 43F40043 		orr	r3, r3, #32768
 1832 00a6 0125     		movs	r5, #1
 1833 00a8 5360     		str	r3, [r2, #4]
 1834 00aa 2BE0     		b	.L496
 1835              	.L433:
 1836 00ac AB69     		ldr	r3, [r5, #24]
 1837 00ae 1807     		lsls	r0, r3, #28
 1838 00b0 FCD5     		bpl	.L433
 1839              	.L434:
 1840 00b2 0823     		movs	r3, #8
 1841 00b4 EB61     		str	r3, [r5, #28]
 1842              	.L436:
 1843 00b6 7A1C     		adds	r2, r7, #1
 1844 00b8 D5D0     		beq	.L439
 1845 00ba AB69     		ldr	r3, [r5, #24]
 1846 00bc DE03     		lsls	r6, r3, #15
 1847 00be D5D4     		bmi	.L440
 1848 00c0 FFF7FEFF 		bl	HAL_GetTick
 1849 00c4 A0EB0800 		sub	r0, r0, r8
ARM GAS  /tmp/ccNejxAl.s 			page 33


 1850 00c8 8742     		cmp	r7, r0
 1851 00ca 5FD3     		bcc	.L504
 1852 00cc 2568     		ldr	r5, [r4]
 1853 00ce 2B46     		mov	r3, r5
 1854 00d0 002F     		cmp	r7, #0
 1855 00d2 F0D1     		bne	.L436
 1856              	.L455:
 1857 00d4 626C     		ldr	r2, [r4, #68]
 1858 00d6 0021     		movs	r1, #0
 1859 00d8 42F02002 		orr	r2, r2, #32
 1860 00dc 2020     		movs	r0, #32
 1861 00de 6264     		str	r2, [r4, #68]
 1862 00e0 84F84010 		strb	r1, [r4, #64]
 1863 00e4 84F84100 		strb	r0, [r4, #65]
 1864 00e8 84F84210 		strb	r1, [r4, #66]
 1865 00ec 5A68     		ldr	r2, [r3, #4]
 1866 00ee 0125     		movs	r5, #1
 1867 00f0 42F40042 		orr	r2, r2, #32768
 1868 00f4 5A60     		str	r2, [r3, #4]
 1869 00f6 2846     		mov	r0, r5
 1870 00f8 BDE8F883 		pop	{r3, r4, r5, r6, r7, r8, r9, pc}
 1871              	.L422:
 1872 00fc 4FF40073 		mov	r3, #512
 1873 0100 6364     		str	r3, [r4, #68]
 1874 0102 0125     		movs	r5, #1
 1875              	.L496:
 1876 0104 2846     		mov	r0, r5
 1877 0106 BDE8F883 		pop	{r3, r4, r5, r6, r7, r8, r9, pc}
 1878              	.L462:
 1879 010a 0225     		movs	r5, #2
 1880 010c 2846     		mov	r0, r5
 1881 010e BDE8F883 		pop	{r3, r4, r5, r6, r7, r8, r9, pc}
 1882              	.L426:
 1883 0112 AB69     		ldr	r3, [r5, #24]
 1884 0114 1E07     		lsls	r6, r3, #28
 1885 0116 5DD4     		bmi	.L505
 1886 0118 FFF7FEFF 		bl	HAL_GetTick
 1887 011c A0EB0800 		sub	r0, r0, r8
 1888 0120 8742     		cmp	r7, r0
 1889 0122 33D3     		bcc	.L504
 1890 0124 2568     		ldr	r5, [r4]
 1891 0126 2B46     		mov	r3, r5
 1892 0128 002F     		cmp	r7, #0
 1893 012a 92D1     		bne	.L424
 1894 012c D2E7     		b	.L455
 1895              	.L447:
 1896 012e AB69     		ldr	r3, [r5, #24]
 1897 0130 DA06     		lsls	r2, r3, #27
 1898 0132 0ED4     		bmi	.L449
 1899 0134 FFF7FEFF 		bl	HAL_GetTick
 1900 0138 A0EB0800 		sub	r0, r0, r8
 1901 013c 8742     		cmp	r7, r0
 1902 013e 25D3     		bcc	.L504
 1903 0140 2568     		ldr	r5, [r4]
 1904 0142 2B46     		mov	r3, r5
 1905 0144 002F     		cmp	r7, #0
 1906 0146 C5D0     		beq	.L455
ARM GAS  /tmp/ccNejxAl.s 			page 34


 1907              	.L446:
 1908 0148 781C     		adds	r0, r7, #1
 1909 014a F0D1     		bne	.L447
 1910              	.L448:
 1911 014c AB69     		ldr	r3, [r5, #24]
 1912 014e D906     		lsls	r1, r3, #27
 1913 0150 FCD5     		bpl	.L448
 1914              	.L449:
 1915 0152 AB69     		ldr	r3, [r5, #24]
 1916 0154 9B07     		lsls	r3, r3, #30
 1917 0156 44BF     		itt	mi
 1918 0158 0023     		movmi	r3, #0
 1919 015a AB62     		strmi	r3, [r5, #40]
 1920 015c AB69     		ldr	r3, [r5, #24]
 1921 015e DE07     		lsls	r6, r3, #31
 1922 0160 0FD5     		bpl	.L506
 1923              	.L452:
 1924 0162 1023     		movs	r3, #16
 1925 0164 EB61     		str	r3, [r5, #28]
 1926 0166 4246     		mov	r2, r8
 1927 0168 3946     		mov	r1, r7
 1928 016a 2046     		mov	r0, r4
 1929 016c FFF7FEFF 		bl	I2C_WaitOnSTOPFlagUntilTimeout
 1930 0170 2268     		ldr	r2, [r4]
 1931 0172 0546     		mov	r5, r0
 1932 0174 60B1     		cbz	r0, .L453
 1933 0176 5368     		ldr	r3, [r2, #4]
 1934 0178 43F40043 		orr	r3, r3, #32768
 1935 017c 0125     		movs	r5, #1
 1936 017e 5360     		str	r3, [r2, #4]
 1937 0180 C0E7     		b	.L496
 1938              	.L506:
 1939 0182 AB69     		ldr	r3, [r5, #24]
 1940 0184 43F00103 		orr	r3, r3, #1
 1941 0188 AB61     		str	r3, [r5, #24]
 1942 018a EAE7     		b	.L452
 1943              	.L504:
 1944 018c 2368     		ldr	r3, [r4]
 1945 018e A1E7     		b	.L455
 1946              	.L453:
 1947 0190 2023     		movs	r3, #32
 1948 0192 D361     		str	r3, [r2, #28]
 1949              	.L454:
 1950 0194 781C     		adds	r0, r7, #1
 1951 0196 0FD1     		bne	.L456
 1952              	.L457:
 1953 0198 9369     		ldr	r3, [r2, #24]
 1954 019a 1904     		lsls	r1, r3, #16
 1955 019c FCD4     		bmi	.L457
 1956              	.L458:
 1957 019e 5368     		ldr	r3, [r2, #4]
 1958 01a0 0021     		movs	r1, #0
 1959 01a2 43F40043 		orr	r3, r3, #32768
 1960 01a6 2020     		movs	r0, #32
 1961 01a8 5360     		str	r3, [r2, #4]
 1962 01aa 84F84100 		strb	r0, [r4, #65]
 1963 01ae 84F84010 		strb	r1, [r4, #64]
ARM GAS  /tmp/ccNejxAl.s 			page 35


 1964 01b2 84F84210 		strb	r1, [r4, #66]
 1965 01b6 A5E7     		b	.L496
 1966              	.L456:
 1967 01b8 9369     		ldr	r3, [r2, #24]
 1968 01ba 1B04     		lsls	r3, r3, #16
 1969 01bc EFD5     		bpl	.L458
 1970 01be FFF7FEFF 		bl	HAL_GetTick
 1971 01c2 A0EB0800 		sub	r0, r0, r8
 1972 01c6 8742     		cmp	r7, r0
 1973 01c8 E0D3     		bcc	.L504
 1974 01ca 2268     		ldr	r2, [r4]
 1975 01cc 1346     		mov	r3, r2
 1976 01ce 002F     		cmp	r7, #0
 1977 01d0 E0D1     		bne	.L454
 1978 01d2 7FE7     		b	.L455
 1979              	.L505:
 1980 01d4 0823     		movs	r3, #8
 1981 01d6 EB61     		str	r3, [r5, #28]
 1982 01d8 E368     		ldr	r3, [r4, #12]
 1983 01da 022B     		cmp	r3, #2
 1984 01dc 7FF46BAF 		bne	.L436
 1985 01e0 0AE0     		b	.L430
 1986              	.L435:
 1987 01e2 FFF7FEFF 		bl	HAL_GetTick
 1988 01e6 A0EB0800 		sub	r0, r0, r8
 1989 01ea 8742     		cmp	r7, r0
 1990 01ec CED3     		bcc	.L504
 1991 01ee 2568     		ldr	r5, [r4]
 1992 01f0 2B46     		mov	r3, r5
 1993 01f2 002F     		cmp	r7, #0
 1994 01f4 3FF46EAF 		beq	.L455
 1995              	.L430:
 1996 01f8 AB69     		ldr	r3, [r5, #24]
 1997 01fa 1907     		lsls	r1, r3, #28
 1998 01fc F1D5     		bpl	.L435
 1999 01fe 58E7     		b	.L434
 2001              		.section	.text.HAL_I2C_Slave_Receive,"ax",%progbits
 2002              		.align	1
 2003              		.p2align 2,,3
 2004              		.global	HAL_I2C_Slave_Receive
 2005              		.syntax unified
 2006              		.thumb
 2007              		.thumb_func
 2008              		.fpu fpv4-sp-d16
 2010              	HAL_I2C_Slave_Receive:
 2011              		@ args = 0, pretend = 0, frame = 0
 2012              		@ frame_needed = 0, uses_anonymous_args = 0
 2013 0000 2DE9F047 		push	{r4, r5, r6, r7, r8, r9, r10, lr}
 2014 0004 0446     		mov	r4, r0
 2015 0006 90F84100 		ldrb	r0, [r0, #65]	@ zero_extendqisi2
 2016 000a 2028     		cmp	r0, #32
 2017 000c 6BD1     		bne	.L535
 2018 000e 0D46     		mov	r5, r1
 2019 0010 0029     		cmp	r1, #0
 2020 0012 61D0     		beq	.L509
 2021 0014 9146     		mov	r9, r2
 2022 0016 002A     		cmp	r2, #0
ARM GAS  /tmp/ccNejxAl.s 			page 36


 2023 0018 5ED0     		beq	.L509
 2024 001a 1F46     		mov	r7, r3
 2025 001c 94F84030 		ldrb	r3, [r4, #64]	@ zero_extendqisi2
 2026 0020 012B     		cmp	r3, #1
 2027 0022 60D0     		beq	.L535
 2028 0024 0123     		movs	r3, #1
 2029 0026 84F84030 		strb	r3, [r4, #64]
 2030 002a 5FFA80FA 		uxtb	r10, r0
 2031 002e FFF7FEFF 		bl	HAL_GetTick
 2032 0032 0023     		movs	r3, #0
 2033 0034 2222     		movs	r2, #34
 2034 0036 84F84120 		strb	r2, [r4, #65]
 2035 003a 2668     		ldr	r6, [r4]
 2036 003c 84F842A0 		strb	r10, [r4, #66]
 2037 0040 6364     		str	r3, [r4, #68]
 2038 0042 A4F82A90 		strh	r9, [r4, #42]	@ movhi
 2039 0046 6363     		str	r3, [r4, #52]
 2040 0048 638D     		ldrh	r3, [r4, #42]
 2041 004a 2385     		strh	r3, [r4, #40]	@ movhi
 2042 004c 7368     		ldr	r3, [r6, #4]
 2043 004e 6562     		str	r5, [r4, #36]
 2044 0050 23F40043 		bic	r3, r3, #32768
 2045 0054 8046     		mov	r8, r0
 2046 0056 7360     		str	r3, [r6, #4]
 2047              	.L511:
 2048 0058 7D1C     		adds	r5, r7, #1
 2049 005a 48D1     		bne	.L513
 2050              	.L514:
 2051 005c B569     		ldr	r5, [r6, #24]
 2052 005e 2807     		lsls	r0, r5, #28
 2053 0060 FCD5     		bpl	.L514
 2054              	.L515:
 2055 0062 0823     		movs	r3, #8
 2056 0064 F361     		str	r3, [r6, #28]
 2057              	.L517:
 2058 0066 7A1C     		adds	r2, r7, #1
 2059 0068 62D1     		bne	.L519
 2060              	.L520:
 2061 006a B369     		ldr	r3, [r6, #24]
 2062 006c DB03     		lsls	r3, r3, #15
 2063 006e FCD4     		bmi	.L520
 2064              	.L521:
 2065 0070 638D     		ldrh	r3, [r4, #42]
 2066 0072 9BB2     		uxth	r3, r3
 2067 0074 93B9     		cbnz	r3, .L523
 2068 0076 69E0     		b	.L527
 2069              	.L526:
 2070 0078 2268     		ldr	r2, [r4]
 2071 007a 636A     		ldr	r3, [r4, #36]
 2072 007c 526A     		ldr	r2, [r2, #36]
 2073 007e 1A70     		strb	r2, [r3]
 2074 0080 638D     		ldrh	r3, [r4, #42]
 2075 0082 616A     		ldr	r1, [r4, #36]
 2076 0084 228D     		ldrh	r2, [r4, #40]
 2077 0086 013B     		subs	r3, r3, #1
 2078 0088 9BB2     		uxth	r3, r3
 2079 008a 6385     		strh	r3, [r4, #42]	@ movhi
ARM GAS  /tmp/ccNejxAl.s 			page 37


 2080 008c 638D     		ldrh	r3, [r4, #42]
 2081 008e 0131     		adds	r1, r1, #1
 2082 0090 013A     		subs	r2, r2, #1
 2083 0092 9BB2     		uxth	r3, r3
 2084 0094 6162     		str	r1, [r4, #36]
 2085 0096 2285     		strh	r2, [r4, #40]	@ movhi
 2086 0098 002B     		cmp	r3, #0
 2087 009a 57D0     		beq	.L527
 2088              	.L523:
 2089 009c 4246     		mov	r2, r8
 2090 009e 3946     		mov	r1, r7
 2091 00a0 2046     		mov	r0, r4
 2092 00a2 FFF7FEFF 		bl	I2C_WaitOnRXNEFlagUntilTimeout
 2093 00a6 0028     		cmp	r0, #0
 2094 00a8 E6D0     		beq	.L526
 2095 00aa 2368     		ldr	r3, [r4]
 2096 00ac 5A68     		ldr	r2, [r3, #4]
 2097 00ae 42F40042 		orr	r2, r2, #32768
 2098 00b2 5A60     		str	r2, [r3, #4]
 2099 00b4 9A69     		ldr	r2, [r3, #24]
 2100 00b6 5507     		lsls	r5, r2, #29
 2101 00b8 6BD5     		bpl	.L536
 2102 00ba 626A     		ldr	r2, [r4, #36]
 2103 00bc 5B6A     		ldr	r3, [r3, #36]
 2104 00be 1370     		strb	r3, [r2]
 2105 00c0 638D     		ldrh	r3, [r4, #42]
 2106 00c2 616A     		ldr	r1, [r4, #36]
 2107 00c4 228D     		ldrh	r2, [r4, #40]
 2108 00c6 013B     		subs	r3, r3, #1
 2109 00c8 0131     		adds	r1, r1, #1
 2110 00ca 9BB2     		uxth	r3, r3
 2111 00cc 013A     		subs	r2, r2, #1
 2112 00ce 6162     		str	r1, [r4, #36]
 2113 00d0 6385     		strh	r3, [r4, #42]	@ movhi
 2114 00d2 2285     		strh	r2, [r4, #40]	@ movhi
 2115 00d4 0125     		movs	r5, #1
 2116 00d6 03E0     		b	.L508
 2117              	.L509:
 2118 00d8 4FF40073 		mov	r3, #512
 2119 00dc 6364     		str	r3, [r4, #68]
 2120 00de 0125     		movs	r5, #1
 2121              	.L508:
 2122 00e0 2846     		mov	r0, r5
 2123 00e2 BDE8F087 		pop	{r4, r5, r6, r7, r8, r9, r10, pc}
 2124              	.L535:
 2125 00e6 0225     		movs	r5, #2
 2126 00e8 2846     		mov	r0, r5
 2127 00ea BDE8F087 		pop	{r4, r5, r6, r7, r8, r9, r10, pc}
 2128              	.L513:
 2129 00ee B369     		ldr	r3, [r6, #24]
 2130 00f0 1907     		lsls	r1, r3, #28
 2131 00f2 B6D4     		bmi	.L515
 2132 00f4 FFF7FEFF 		bl	HAL_GetTick
 2133 00f8 A0EB0800 		sub	r0, r0, r8
 2134 00fc 8742     		cmp	r7, r0
 2135 00fe 58D3     		bcc	.L557
 2136 0100 2668     		ldr	r6, [r4]
ARM GAS  /tmp/ccNejxAl.s 			page 38


 2137 0102 3346     		mov	r3, r6
 2138 0104 002F     		cmp	r7, #0
 2139 0106 A7D1     		bne	.L511
 2140              	.L529:
 2141 0108 626C     		ldr	r2, [r4, #68]
 2142 010a 0021     		movs	r1, #0
 2143 010c 42F02002 		orr	r2, r2, #32
 2144 0110 2020     		movs	r0, #32
 2145 0112 6264     		str	r2, [r4, #68]
 2146 0114 84F84010 		strb	r1, [r4, #64]
 2147 0118 84F84100 		strb	r0, [r4, #65]
 2148 011c 84F84210 		strb	r1, [r4, #66]
 2149 0120 5A68     		ldr	r2, [r3, #4]
 2150 0122 0125     		movs	r5, #1
 2151 0124 42F40042 		orr	r2, r2, #32768
 2152 0128 5A60     		str	r2, [r3, #4]
 2153 012a 2846     		mov	r0, r5
 2154 012c BDE8F087 		pop	{r4, r5, r6, r7, r8, r9, r10, pc}
 2155              	.L519:
 2156 0130 B369     		ldr	r3, [r6, #24]
 2157 0132 DE03     		lsls	r6, r3, #15
 2158 0134 9CD5     		bpl	.L521
 2159 0136 FFF7FEFF 		bl	HAL_GetTick
 2160 013a A0EB0800 		sub	r0, r0, r8
 2161 013e 8742     		cmp	r7, r0
 2162 0140 37D3     		bcc	.L557
 2163 0142 2668     		ldr	r6, [r4]
 2164 0144 3346     		mov	r3, r6
 2165 0146 002F     		cmp	r7, #0
 2166 0148 8DD1     		bne	.L517
 2167 014a DDE7     		b	.L529
 2168              	.L527:
 2169 014c 4246     		mov	r2, r8
 2170 014e 3946     		mov	r1, r7
 2171 0150 2046     		mov	r0, r4
 2172 0152 FFF7FEFF 		bl	I2C_WaitOnSTOPFlagUntilTimeout
 2173 0156 0546     		mov	r5, r0
 2174 0158 30B1     		cbz	r0, .L558
 2175 015a 2268     		ldr	r2, [r4]
 2176 015c 5368     		ldr	r3, [r2, #4]
 2177 015e 43F40043 		orr	r3, r3, #32768
 2178 0162 0125     		movs	r5, #1
 2179 0164 5360     		str	r3, [r2, #4]
 2180 0166 BBE7     		b	.L508
 2181              	.L558:
 2182 0168 2268     		ldr	r2, [r4]
 2183 016a 2023     		movs	r3, #32
 2184 016c D361     		str	r3, [r2, #28]
 2185              	.L528:
 2186 016e 781C     		adds	r0, r7, #1
 2187 0170 11D1     		bne	.L530
 2188              	.L531:
 2189 0172 9369     		ldr	r3, [r2, #24]
 2190 0174 1904     		lsls	r1, r3, #16
 2191 0176 FCD4     		bmi	.L531
 2192              	.L532:
 2193 0178 5368     		ldr	r3, [r2, #4]
ARM GAS  /tmp/ccNejxAl.s 			page 39


 2194 017a 0021     		movs	r1, #0
 2195 017c 43F40043 		orr	r3, r3, #32768
 2196 0180 2020     		movs	r0, #32
 2197 0182 5360     		str	r3, [r2, #4]
 2198 0184 84F84100 		strb	r0, [r4, #65]
 2199 0188 84F84010 		strb	r1, [r4, #64]
 2200 018c 84F84210 		strb	r1, [r4, #66]
 2201 0190 A6E7     		b	.L508
 2202              	.L536:
 2203 0192 0125     		movs	r5, #1
 2204 0194 A4E7     		b	.L508
 2205              	.L530:
 2206 0196 9369     		ldr	r3, [r2, #24]
 2207 0198 1B04     		lsls	r3, r3, #16
 2208 019a EDD5     		bpl	.L532
 2209 019c FFF7FEFF 		bl	HAL_GetTick
 2210 01a0 A0EB0800 		sub	r0, r0, r8
 2211 01a4 8742     		cmp	r7, r0
 2212 01a6 04D3     		bcc	.L557
 2213 01a8 2268     		ldr	r2, [r4]
 2214 01aa 1346     		mov	r3, r2
 2215 01ac 002F     		cmp	r7, #0
 2216 01ae DED1     		bne	.L528
 2217 01b0 AAE7     		b	.L529
 2218              	.L557:
 2219 01b2 2368     		ldr	r3, [r4]
 2220 01b4 A8E7     		b	.L529
 2222 01b6 00BF     		.section	.text.HAL_I2C_Master_Transmit_IT,"ax",%progbits
 2223              		.align	1
 2224              		.p2align 2,,3
 2225              		.global	HAL_I2C_Master_Transmit_IT
 2226              		.syntax unified
 2227              		.thumb
 2228              		.thumb_func
 2229              		.fpu fpv4-sp-d16
 2231              	HAL_I2C_Master_Transmit_IT:
 2232              		@ args = 0, pretend = 0, frame = 0
 2233              		@ frame_needed = 0, uses_anonymous_args = 0
 2234              		@ link register save eliminated.
 2235 0000 30B4     		push	{r4, r5}
 2236 0002 90F84140 		ldrb	r4, [r0, #65]	@ zero_extendqisi2
 2237 0006 202C     		cmp	r4, #32
 2238 0008 39D1     		bne	.L564
 2239 000a 0568     		ldr	r5, [r0]
 2240 000c AC69     		ldr	r4, [r5, #24]
 2241 000e 14F40044 		ands	r4, r4, #32768
 2242 0012 34D1     		bne	.L564
 2243 0014 90F840C0 		ldrb	ip, [r0, #64]	@ zero_extendqisi2
 2244 0018 BCF1010F 		cmp	ip, #1
 2245 001c 2FD0     		beq	.L564
 2246 001e 4FF0210C 		mov	ip, #33
 2247 0022 80F841C0 		strb	ip, [r0, #65]
 2248 0026 4262     		str	r2, [r0, #36]
 2249 0028 4FF0100C 		mov	ip, #16
 2250 002c 184A     		ldr	r2, .L567
 2251 002e 80F842C0 		strb	ip, [r0, #66]
 2252 0032 4464     		str	r4, [r0, #68]
ARM GAS  /tmp/ccNejxAl.s 			page 40


 2253 0034 4385     		strh	r3, [r0, #42]	@ movhi
 2254 0036 C262     		str	r2, [r0, #44]
 2255 0038 438D     		ldrh	r3, [r0, #42]
 2256 003a 164A     		ldr	r2, .L567+4
 2257 003c 4263     		str	r2, [r0, #52]
 2258 003e 9BB2     		uxth	r3, r3
 2259 0040 FF2B     		cmp	r3, #255
 2260 0042 1FD8     		bhi	.L565
 2261 0044 428D     		ldrh	r2, [r0, #42]
 2262 0046 93B2     		uxth	r3, r2
 2263 0048 D2B2     		uxtb	r2, r2
 2264 004a 02FA0CF2 		lsl	r2, r2, ip
 2265 004e 4FF00074 		mov	r4, #33554432
 2266              	.L561:
 2267 0052 0385     		strh	r3, [r0, #40]	@ movhi
 2268 0054 C1F30903 		ubfx	r3, r1, #0, #10
 2269 0058 1343     		orrs	r3, r3, r2
 2270 005a 0F49     		ldr	r1, .L567+8
 2271 005c 6A68     		ldr	r2, [r5, #4]
 2272 005e 0A40     		ands	r2, r2, r1
 2273 0060 1343     		orrs	r3, r3, r2
 2274 0062 2343     		orrs	r3, r3, r4
 2275 0064 0022     		movs	r2, #0
 2276 0066 43F40053 		orr	r3, r3, #8192
 2277 006a 6B60     		str	r3, [r5, #4]
 2278 006c 80F84020 		strb	r2, [r0, #64]
 2279 0070 2B68     		ldr	r3, [r5]
 2280 0072 43F0F203 		orr	r3, r3, #242
 2281 0076 1046     		mov	r0, r2
 2282 0078 2B60     		str	r3, [r5]
 2283 007a 30BC     		pop	{r4, r5}
 2284 007c 7047     		bx	lr
 2285              	.L564:
 2286 007e 0220     		movs	r0, #2
 2287 0080 30BC     		pop	{r4, r5}
 2288 0082 7047     		bx	lr
 2289              	.L565:
 2290 0084 4FF47F02 		mov	r2, #16711680
 2291 0088 FF23     		movs	r3, #255
 2292 008a 4FF08074 		mov	r4, #16777216
 2293 008e E0E7     		b	.L561
 2294              	.L568:
 2295              		.align	2
 2296              	.L567:
 2297 0090 0000FFFF 		.word	-65536
 2298 0094 00000000 		.word	I2C_Master_ISR_IT
 2299 0098 009800FC 		.word	-67069952
 2301              		.section	.text.HAL_I2C_Master_Receive_IT,"ax",%progbits
 2302              		.align	1
 2303              		.p2align 2,,3
 2304              		.global	HAL_I2C_Master_Receive_IT
 2305              		.syntax unified
 2306              		.thumb
 2307              		.thumb_func
 2308              		.fpu fpv4-sp-d16
 2310              	HAL_I2C_Master_Receive_IT:
 2311              		@ args = 0, pretend = 0, frame = 0
ARM GAS  /tmp/ccNejxAl.s 			page 41


 2312              		@ frame_needed = 0, uses_anonymous_args = 0
 2313              		@ link register save eliminated.
 2314 0000 30B4     		push	{r4, r5}
 2315 0002 90F84140 		ldrb	r4, [r0, #65]	@ zero_extendqisi2
 2316 0006 202C     		cmp	r4, #32
 2317 0008 39D1     		bne	.L574
 2318 000a 0568     		ldr	r5, [r0]
 2319 000c AC69     		ldr	r4, [r5, #24]
 2320 000e 14F40044 		ands	r4, r4, #32768
 2321 0012 34D1     		bne	.L574
 2322 0014 90F840C0 		ldrb	ip, [r0, #64]	@ zero_extendqisi2
 2323 0018 BCF1010F 		cmp	ip, #1
 2324 001c 2FD0     		beq	.L574
 2325 001e 4FF0220C 		mov	ip, #34
 2326 0022 80F841C0 		strb	ip, [r0, #65]
 2327 0026 4262     		str	r2, [r0, #36]
 2328 0028 4FF0100C 		mov	ip, #16
 2329 002c 184A     		ldr	r2, .L577
 2330 002e 80F842C0 		strb	ip, [r0, #66]
 2331 0032 4464     		str	r4, [r0, #68]
 2332 0034 4385     		strh	r3, [r0, #42]	@ movhi
 2333 0036 C262     		str	r2, [r0, #44]
 2334 0038 438D     		ldrh	r3, [r0, #42]
 2335 003a 164A     		ldr	r2, .L577+4
 2336 003c 4263     		str	r2, [r0, #52]
 2337 003e 9BB2     		uxth	r3, r3
 2338 0040 FF2B     		cmp	r3, #255
 2339 0042 1FD8     		bhi	.L575
 2340 0044 428D     		ldrh	r2, [r0, #42]
 2341 0046 93B2     		uxth	r3, r2
 2342 0048 D2B2     		uxtb	r2, r2
 2343 004a 02FA0CF2 		lsl	r2, r2, ip
 2344 004e 4FF00074 		mov	r4, #33554432
 2345              	.L571:
 2346 0052 0385     		strh	r3, [r0, #40]	@ movhi
 2347 0054 C1F30903 		ubfx	r3, r1, #0, #10
 2348 0058 1343     		orrs	r3, r3, r2
 2349 005a 0F49     		ldr	r1, .L577+8
 2350 005c 6A68     		ldr	r2, [r5, #4]
 2351 005e 0A40     		ands	r2, r2, r1
 2352 0060 1343     		orrs	r3, r3, r2
 2353 0062 2343     		orrs	r3, r3, r4
 2354 0064 0022     		movs	r2, #0
 2355 0066 43F41053 		orr	r3, r3, #9216
 2356 006a 6B60     		str	r3, [r5, #4]
 2357 006c 80F84020 		strb	r2, [r0, #64]
 2358 0070 2B68     		ldr	r3, [r5]
 2359 0072 43F0F403 		orr	r3, r3, #244
 2360 0076 1046     		mov	r0, r2
 2361 0078 2B60     		str	r3, [r5]
 2362 007a 30BC     		pop	{r4, r5}
 2363 007c 7047     		bx	lr
 2364              	.L574:
 2365 007e 0220     		movs	r0, #2
 2366 0080 30BC     		pop	{r4, r5}
 2367 0082 7047     		bx	lr
 2368              	.L575:
ARM GAS  /tmp/ccNejxAl.s 			page 42


 2369 0084 4FF47F02 		mov	r2, #16711680
 2370 0088 FF23     		movs	r3, #255
 2371 008a 4FF08074 		mov	r4, #16777216
 2372 008e E0E7     		b	.L571
 2373              	.L578:
 2374              		.align	2
 2375              	.L577:
 2376 0090 0000FFFF 		.word	-65536
 2377 0094 00000000 		.word	I2C_Master_ISR_IT
 2378 0098 009800FC 		.word	-67069952
 2380              		.section	.text.HAL_I2C_Slave_Transmit_IT,"ax",%progbits
 2381              		.align	1
 2382              		.p2align 2,,3
 2383              		.global	HAL_I2C_Slave_Transmit_IT
 2384              		.syntax unified
 2385              		.thumb
 2386              		.thumb_func
 2387              		.fpu fpv4-sp-d16
 2389              	HAL_I2C_Slave_Transmit_IT:
 2390              		@ args = 0, pretend = 0, frame = 0
 2391              		@ frame_needed = 0, uses_anonymous_args = 0
 2392              		@ link register save eliminated.
 2393 0000 90F84130 		ldrb	r3, [r0, #65]	@ zero_extendqisi2
 2394 0004 202B     		cmp	r3, #32
 2395 0006 22D1     		bne	.L581
 2396 0008 30B4     		push	{r4, r5}
 2397 000a DDB2     		uxtb	r5, r3
 2398 000c 90F84030 		ldrb	r3, [r0, #64]	@ zero_extendqisi2
 2399 0010 012B     		cmp	r3, #1
 2400 0012 1ED0     		beq	.L582
 2401 0014 2123     		movs	r3, #33
 2402 0016 80F84130 		strb	r3, [r0, #65]
 2403 001a 0468     		ldr	r4, [r0]
 2404 001c 80F84250 		strb	r5, [r0, #66]
 2405 0020 0023     		movs	r3, #0
 2406 0022 4364     		str	r3, [r0, #68]
 2407 0024 6568     		ldr	r5, [r4, #4]
 2408 0026 25F40045 		bic	r5, r5, #32768
 2409 002a 6560     		str	r5, [r4, #4]
 2410 002c 4285     		strh	r2, [r0, #42]	@ movhi
 2411 002e 428D     		ldrh	r2, [r0, #42]
 2412 0030 0285     		strh	r2, [r0, #40]	@ movhi
 2413 0032 094A     		ldr	r2, .L587
 2414 0034 80F84030 		strb	r3, [r0, #64]
 2415 0038 C262     		str	r2, [r0, #44]
 2416 003a 2268     		ldr	r2, [r4]
 2417 003c 4162     		str	r1, [r0, #36]
 2418 003e 42F0FA02 		orr	r2, r2, #250
 2419 0042 0649     		ldr	r1, .L587+4
 2420 0044 4163     		str	r1, [r0, #52]
 2421 0046 1846     		mov	r0, r3
 2422 0048 2260     		str	r2, [r4]
 2423 004a 30BC     		pop	{r4, r5}
 2424 004c 7047     		bx	lr
 2425              	.L581:
 2426 004e 0220     		movs	r0, #2
 2427 0050 7047     		bx	lr
ARM GAS  /tmp/ccNejxAl.s 			page 43


 2428              	.L582:
 2429 0052 0220     		movs	r0, #2
 2430 0054 30BC     		pop	{r4, r5}
 2431 0056 7047     		bx	lr
 2432              	.L588:
 2433              		.align	2
 2434              	.L587:
 2435 0058 0000FFFF 		.word	-65536
 2436 005c 00000000 		.word	I2C_Slave_ISR_IT
 2438              		.section	.text.HAL_I2C_Slave_Receive_IT,"ax",%progbits
 2439              		.align	1
 2440              		.p2align 2,,3
 2441              		.global	HAL_I2C_Slave_Receive_IT
 2442              		.syntax unified
 2443              		.thumb
 2444              		.thumb_func
 2445              		.fpu fpv4-sp-d16
 2447              	HAL_I2C_Slave_Receive_IT:
 2448              		@ args = 0, pretend = 0, frame = 0
 2449              		@ frame_needed = 0, uses_anonymous_args = 0
 2450              		@ link register save eliminated.
 2451 0000 90F84130 		ldrb	r3, [r0, #65]	@ zero_extendqisi2
 2452 0004 202B     		cmp	r3, #32
 2453 0006 22D1     		bne	.L591
 2454 0008 30B4     		push	{r4, r5}
 2455 000a DDB2     		uxtb	r5, r3
 2456 000c 90F84030 		ldrb	r3, [r0, #64]	@ zero_extendqisi2
 2457 0010 012B     		cmp	r3, #1
 2458 0012 1ED0     		beq	.L592
 2459 0014 2223     		movs	r3, #34
 2460 0016 80F84130 		strb	r3, [r0, #65]
 2461 001a 0468     		ldr	r4, [r0]
 2462 001c 80F84250 		strb	r5, [r0, #66]
 2463 0020 0023     		movs	r3, #0
 2464 0022 4364     		str	r3, [r0, #68]
 2465 0024 6568     		ldr	r5, [r4, #4]
 2466 0026 25F40045 		bic	r5, r5, #32768
 2467 002a 6560     		str	r5, [r4, #4]
 2468 002c 4285     		strh	r2, [r0, #42]	@ movhi
 2469 002e 428D     		ldrh	r2, [r0, #42]
 2470 0030 0285     		strh	r2, [r0, #40]	@ movhi
 2471 0032 094A     		ldr	r2, .L597
 2472 0034 80F84030 		strb	r3, [r0, #64]
 2473 0038 C262     		str	r2, [r0, #44]
 2474 003a 2268     		ldr	r2, [r4]
 2475 003c 4162     		str	r1, [r0, #36]
 2476 003e 42F0FC02 		orr	r2, r2, #252
 2477 0042 0649     		ldr	r1, .L597+4
 2478 0044 4163     		str	r1, [r0, #52]
 2479 0046 1846     		mov	r0, r3
 2480 0048 2260     		str	r2, [r4]
 2481 004a 30BC     		pop	{r4, r5}
 2482 004c 7047     		bx	lr
 2483              	.L591:
 2484 004e 0220     		movs	r0, #2
 2485 0050 7047     		bx	lr
 2486              	.L592:
ARM GAS  /tmp/ccNejxAl.s 			page 44


 2487 0052 0220     		movs	r0, #2
 2488 0054 30BC     		pop	{r4, r5}
 2489 0056 7047     		bx	lr
 2490              	.L598:
 2491              		.align	2
 2492              	.L597:
 2493 0058 0000FFFF 		.word	-65536
 2494 005c 00000000 		.word	I2C_Slave_ISR_IT
 2496              		.section	.text.HAL_I2C_Master_Transmit_DMA,"ax",%progbits
 2497              		.align	1
 2498              		.p2align 2,,3
 2499              		.global	HAL_I2C_Master_Transmit_DMA
 2500              		.syntax unified
 2501              		.thumb
 2502              		.thumb_func
 2503              		.fpu fpv4-sp-d16
 2505              	HAL_I2C_Master_Transmit_DMA:
 2506              		@ args = 0, pretend = 0, frame = 0
 2507              		@ frame_needed = 0, uses_anonymous_args = 0
 2508 0000 2DE9F843 		push	{r3, r4, r5, r6, r7, r8, r9, lr}
 2509 0004 0446     		mov	r4, r0
 2510 0006 90F84100 		ldrb	r0, [r0, #65]	@ zero_extendqisi2
 2511 000a 2028     		cmp	r0, #32
 2512 000c 3BD1     		bne	.L610
 2513 000e 2668     		ldr	r6, [r4]
 2514 0010 B769     		ldr	r7, [r6, #24]
 2515 0012 17F40047 		ands	r7, r7, #32768
 2516 0016 36D1     		bne	.L610
 2517 0018 0D46     		mov	r5, r1
 2518 001a 1146     		mov	r1, r2
 2519 001c 94F84020 		ldrb	r2, [r4, #64]	@ zero_extendqisi2
 2520 0020 012A     		cmp	r2, #1
 2521 0022 30D0     		beq	.L610
 2522 0024 2120     		movs	r0, #33
 2523 0026 84F84100 		strb	r0, [r4, #65]
 2524 002a 474A     		ldr	r2, .L618
 2525 002c DFF82881 		ldr	r8, .L618+16
 2526 0030 6162     		str	r1, [r4, #36]
 2527 0032 1020     		movs	r0, #16
 2528 0034 84F84200 		strb	r0, [r4, #66]
 2529 0038 6764     		str	r7, [r4, #68]
 2530 003a 6385     		strh	r3, [r4, #42]	@ movhi
 2531 003c E262     		str	r2, [r4, #44]
 2532 003e 638D     		ldrh	r3, [r4, #42]
 2533 0040 C4F83480 		str	r8, [r4, #52]
 2534 0044 9BB2     		uxth	r3, r3
 2535 0046 0122     		movs	r2, #1
 2536 0048 FF2B     		cmp	r3, #255
 2537 004a 84F84020 		strb	r2, [r4, #64]
 2538 004e 1DD8     		bhi	.L601
 2539 0050 608D     		ldrh	r0, [r4, #42]
 2540 0052 83B2     		uxth	r3, r0
 2541 0054 2385     		strh	r3, [r4, #40]	@ movhi
 2542 0056 002B     		cmp	r3, #0
 2543 0058 64D1     		bne	.L616
 2544 005a 3C4A     		ldr	r2, .L618+4
 2545 005c 6263     		str	r2, [r4, #52]
ARM GAS  /tmp/ccNejxAl.s 			page 45


 2546 005e 3C49     		ldr	r1, .L618+8
 2547 0060 7268     		ldr	r2, [r6, #4]
 2548 0062 C5F30905 		ubfx	r5, r5, #0, #10
 2549 0066 0A40     		ands	r2, r2, r1
 2550 0068 1543     		orrs	r5, r5, r2
 2551 006a 45F00075 		orr	r5, r5, #33554432
 2552 006e 45F40055 		orr	r5, r5, #8192
 2553 0072 7560     		str	r5, [r6, #4]
 2554 0074 84F84030 		strb	r3, [r4, #64]
 2555 0078 3268     		ldr	r2, [r6]
 2556 007a 42F0F202 		orr	r2, r2, #242
 2557 007e 1846     		mov	r0, r3
 2558 0080 3260     		str	r2, [r6]
 2559 0082 BDE8F883 		pop	{r3, r4, r5, r6, r7, r8, r9, pc}
 2560              	.L610:
 2561 0086 0220     		movs	r0, #2
 2562              	.L614:
 2563 0088 BDE8F883 		pop	{r3, r4, r5, r6, r7, r8, r9, pc}
 2564              	.L601:
 2565 008c FF20     		movs	r0, #255
 2566 008e 2085     		strh	r0, [r4, #40]	@ movhi
 2567 0090 0346     		mov	r3, r0
 2568 0092 4FF08079 		mov	r9, #16777216
 2569              	.L607:
 2570 0096 A06B     		ldr	r0, [r4, #56]
 2571 0098 0028     		cmp	r0, #0
 2572 009a 46D0     		beq	.L603
 2573 009c DFF8BCC0 		ldr	ip, .L618+20
 2574 00a0 C0F82CC0 		str	ip, [r0, #44]
 2575 00a4 06F12802 		add	r2, r6, #40
 2576 00a8 DFF8B4C0 		ldr	ip, .L618+24
 2577 00ac C0F834C0 		str	ip, [r0, #52]
 2578 00b0 0026     		movs	r6, #0
 2579 00b2 0663     		str	r6, [r0, #48]
 2580 00b4 8663     		str	r6, [r0, #56]
 2581 00b6 FFF7FEFF 		bl	HAL_DMA_Start_IT
 2582 00ba 28BB     		cbnz	r0, .L617
 2583 00bc 2268     		ldr	r2, [r4]
 2584 00be C5F30903 		ubfx	r3, r5, #0, #10
 2585 00c2 5168     		ldr	r1, [r2, #4]
 2586 00c4 224D     		ldr	r5, .L618+8
 2587 00c6 43EA0903 		orr	r3, r3, r9
 2588 00ca 2940     		ands	r1, r1, r5
 2589 00cc 0B43     		orrs	r3, r3, r1
 2590 00ce 218D     		ldrh	r1, [r4, #40]
 2591 00d0 656B     		ldr	r5, [r4, #52]
 2592 00d2 CEB2     		uxtb	r6, r1
 2593 00d4 43EA0643 		orr	r3, r3, r6, lsl #16
 2594 00d8 43F40053 		orr	r3, r3, #8192
 2595 00dc 5360     		str	r3, [r2, #4]
 2596 00de 638D     		ldrh	r3, [r4, #42]
 2597 00e0 84F84000 		strb	r0, [r4, #64]
 2598 00e4 5B1A     		subs	r3, r3, r1
 2599 00e6 9BB2     		uxth	r3, r3
 2600 00e8 4545     		cmp	r5, r8
 2601 00ea 6385     		strh	r3, [r4, #42]	@ movhi
 2602 00ec 2AD0     		beq	.L611
ARM GAS  /tmp/ccNejxAl.s 			page 46


 2603 00ee 194B     		ldr	r3, .L618+12
 2604 00f0 9D42     		cmp	r5, r3
 2605 00f2 08BF     		it	eq
 2606 00f4 9027     		moveq	r7, #144
 2607              	.L606:
 2608 00f6 1368     		ldr	r3, [r2]
 2609 00f8 3B43     		orrs	r3, r3, r7
 2610 00fa 1360     		str	r3, [r2]
 2611 00fc 1368     		ldr	r3, [r2]
 2612 00fe 43F48043 		orr	r3, r3, #16384
 2613 0102 1360     		str	r3, [r2]
 2614 0104 BDE8F883 		pop	{r3, r4, r5, r6, r7, r8, r9, pc}
 2615              	.L617:
 2616 0108 2023     		movs	r3, #32
 2617 010a 84F84130 		strb	r3, [r4, #65]
 2618 010e 84F84260 		strb	r6, [r4, #66]
 2619 0112 636C     		ldr	r3, [r4, #68]
 2620 0114 84F84060 		strb	r6, [r4, #64]
 2621 0118 43F01003 		orr	r3, r3, #16
 2622 011c 6364     		str	r3, [r4, #68]
 2623 011e 0120     		movs	r0, #1
 2624 0120 BDE8F883 		pop	{r3, r4, r5, r6, r7, r8, r9, pc}
 2625              	.L616:
 2626 0124 4FF00079 		mov	r9, #33554432
 2627 0128 B5E7     		b	.L607
 2628              	.L603:
 2629 012a 2023     		movs	r3, #32
 2630 012c 84F84130 		strb	r3, [r4, #65]
 2631 0130 84F84200 		strb	r0, [r4, #66]
 2632 0134 636C     		ldr	r3, [r4, #68]
 2633 0136 84F84000 		strb	r0, [r4, #64]
 2634 013a 43F08003 		orr	r3, r3, #128
 2635 013e 6364     		str	r3, [r4, #68]
 2636 0140 0120     		movs	r0, #1
 2637 0142 A1E7     		b	.L614
 2638              	.L611:
 2639 0144 9027     		movs	r7, #144
 2640 0146 D6E7     		b	.L606
 2641              	.L619:
 2642              		.align	2
 2643              	.L618:
 2644 0148 0000FFFF 		.word	-65536
 2645 014c 00000000 		.word	I2C_Master_ISR_IT
 2646 0150 009800FC 		.word	-67069952
 2647 0154 00000000 		.word	I2C_Slave_ISR_DMA
 2648 0158 00000000 		.word	I2C_Master_ISR_DMA
 2649 015c 00000000 		.word	I2C_DMAMasterTransmitCplt
 2650 0160 00000000 		.word	I2C_DMAError
 2652              		.section	.text.HAL_I2C_Master_Receive_DMA,"ax",%progbits
 2653              		.align	1
 2654              		.p2align 2,,3
 2655              		.global	HAL_I2C_Master_Receive_DMA
 2656              		.syntax unified
 2657              		.thumb
 2658              		.thumb_func
 2659              		.fpu fpv4-sp-d16
 2661              	HAL_I2C_Master_Receive_DMA:
ARM GAS  /tmp/ccNejxAl.s 			page 47


 2662              		@ args = 0, pretend = 0, frame = 0
 2663              		@ frame_needed = 0, uses_anonymous_args = 0
 2664 0000 2DE9F843 		push	{r3, r4, r5, r6, r7, r8, r9, lr}
 2665 0004 0446     		mov	r4, r0
 2666 0006 90F84100 		ldrb	r0, [r0, #65]	@ zero_extendqisi2
 2667 000a 2028     		cmp	r0, #32
 2668 000c 38D1     		bne	.L631
 2669 000e 0D46     		mov	r5, r1
 2670 0010 2168     		ldr	r1, [r4]
 2671 0012 8E69     		ldr	r6, [r1, #24]
 2672 0014 16F40046 		ands	r6, r6, #32768
 2673 0018 32D1     		bne	.L631
 2674 001a 94F84000 		ldrb	r0, [r4, #64]	@ zero_extendqisi2
 2675 001e 0128     		cmp	r0, #1
 2676 0020 2ED0     		beq	.L631
 2677 0022 2227     		movs	r7, #34
 2678 0024 84F84170 		strb	r7, [r4, #65]
 2679 0028 4748     		ldr	r0, .L639
 2680 002a 6262     		str	r2, [r4, #36]
 2681 002c 1027     		movs	r7, #16
 2682 002e 84F84270 		strb	r7, [r4, #66]
 2683 0032 6664     		str	r6, [r4, #68]
 2684 0034 6385     		strh	r3, [r4, #42]	@ movhi
 2685 0036 E062     		str	r0, [r4, #44]
 2686 0038 638D     		ldrh	r3, [r4, #42]
 2687 003a 444F     		ldr	r7, .L639+4
 2688 003c 6763     		str	r7, [r4, #52]
 2689 003e 9BB2     		uxth	r3, r3
 2690 0040 0120     		movs	r0, #1
 2691 0042 FF2B     		cmp	r3, #255
 2692 0044 84F84000 		strb	r0, [r4, #64]
 2693 0048 1DD8     		bhi	.L622
 2694 004a 608D     		ldrh	r0, [r4, #42]
 2695 004c 83B2     		uxth	r3, r0
 2696 004e 2385     		strh	r3, [r4, #40]	@ movhi
 2697 0050 002B     		cmp	r3, #0
 2698 0052 67D1     		bne	.L637
 2699 0054 3E4A     		ldr	r2, .L639+8
 2700 0056 6263     		str	r2, [r4, #52]
 2701 0058 3E48     		ldr	r0, .L639+12
 2702 005a 4A68     		ldr	r2, [r1, #4]
 2703 005c C5F30905 		ubfx	r5, r5, #0, #10
 2704 0060 0240     		ands	r2, r2, r0
 2705 0062 1543     		orrs	r5, r5, r2
 2706 0064 45F00075 		orr	r5, r5, #33554432
 2707 0068 45F41055 		orr	r5, r5, #9216
 2708 006c 4D60     		str	r5, [r1, #4]
 2709 006e 84F84030 		strb	r3, [r4, #64]
 2710 0072 0A68     		ldr	r2, [r1]
 2711 0074 42F0F202 		orr	r2, r2, #242
 2712 0078 1846     		mov	r0, r3
 2713 007a 0A60     		str	r2, [r1]
 2714 007c BDE8F883 		pop	{r3, r4, r5, r6, r7, r8, r9, pc}
 2715              	.L631:
 2716 0080 0220     		movs	r0, #2
 2717              	.L635:
 2718 0082 BDE8F883 		pop	{r3, r4, r5, r6, r7, r8, r9, pc}
ARM GAS  /tmp/ccNejxAl.s 			page 48


 2719              	.L622:
 2720 0086 FF20     		movs	r0, #255
 2721 0088 2085     		strh	r0, [r4, #40]	@ movhi
 2722 008a 0346     		mov	r3, r0
 2723 008c 4FF08078 		mov	r8, #16777216
 2724              	.L628:
 2725 0090 E06B     		ldr	r0, [r4, #60]
 2726 0092 0028     		cmp	r0, #0
 2727 0094 49D0     		beq	.L624
 2728 0096 DFF8C4C0 		ldr	ip, .L639+20
 2729 009a C0F82CC0 		str	ip, [r0, #44]
 2730 009e 4FF00009 		mov	r9, #0
 2731 00a2 DFF8BCC0 		ldr	ip, .L639+24
 2732 00a6 C0F83090 		str	r9, [r0, #48]
 2733 00aa 2431     		adds	r1, r1, #36
 2734 00ac C0F83890 		str	r9, [r0, #56]
 2735 00b0 C0F834C0 		str	ip, [r0, #52]
 2736 00b4 FFF7FEFF 		bl	HAL_DMA_Start_IT
 2737 00b8 30BB     		cbnz	r0, .L638
 2738 00ba 2268     		ldr	r2, [r4]
 2739 00bc C5F30903 		ubfx	r3, r5, #0, #10
 2740 00c0 5168     		ldr	r1, [r2, #4]
 2741 00c2 244D     		ldr	r5, .L639+12
 2742 00c4 43EA0803 		orr	r3, r3, r8
 2743 00c8 2940     		ands	r1, r1, r5
 2744 00ca 0B43     		orrs	r3, r3, r1
 2745 00cc 218D     		ldrh	r1, [r4, #40]
 2746 00ce 656B     		ldr	r5, [r4, #52]
 2747 00d0 5FFA81FC 		uxtb	ip, r1
 2748 00d4 43EA0C43 		orr	r3, r3, ip, lsl #16
 2749 00d8 43F41053 		orr	r3, r3, #9216
 2750 00dc 5360     		str	r3, [r2, #4]
 2751 00de 638D     		ldrh	r3, [r4, #42]
 2752 00e0 84F84000 		strb	r0, [r4, #64]
 2753 00e4 5B1A     		subs	r3, r3, r1
 2754 00e6 9BB2     		uxth	r3, r3
 2755 00e8 BD42     		cmp	r5, r7
 2756 00ea 6385     		strh	r3, [r4, #42]	@ movhi
 2757 00ec 2AD0     		beq	.L632
 2758 00ee 1A4B     		ldr	r3, .L639+16
 2759 00f0 9D42     		cmp	r5, r3
 2760 00f2 08BF     		it	eq
 2761 00f4 9026     		moveq	r6, #144
 2762              	.L627:
 2763 00f6 1368     		ldr	r3, [r2]
 2764 00f8 3343     		orrs	r3, r3, r6
 2765 00fa 1360     		str	r3, [r2]
 2766 00fc 1368     		ldr	r3, [r2]
 2767 00fe 43F40043 		orr	r3, r3, #32768
 2768 0102 1360     		str	r3, [r2]
 2769 0104 BDE8F883 		pop	{r3, r4, r5, r6, r7, r8, r9, pc}
 2770              	.L638:
 2771 0108 2023     		movs	r3, #32
 2772 010a 84F84130 		strb	r3, [r4, #65]
 2773 010e 84F84290 		strb	r9, [r4, #66]
 2774 0112 636C     		ldr	r3, [r4, #68]
 2775 0114 84F84090 		strb	r9, [r4, #64]
ARM GAS  /tmp/ccNejxAl.s 			page 49


 2776 0118 43F01003 		orr	r3, r3, #16
 2777 011c 6364     		str	r3, [r4, #68]
 2778 011e 0120     		movs	r0, #1
 2779 0120 BDE8F883 		pop	{r3, r4, r5, r6, r7, r8, r9, pc}
 2780              	.L637:
 2781 0124 4FF00078 		mov	r8, #33554432
 2782 0128 B2E7     		b	.L628
 2783              	.L624:
 2784 012a 2023     		movs	r3, #32
 2785 012c 84F84130 		strb	r3, [r4, #65]
 2786 0130 84F84200 		strb	r0, [r4, #66]
 2787 0134 636C     		ldr	r3, [r4, #68]
 2788 0136 84F84000 		strb	r0, [r4, #64]
 2789 013a 43F08003 		orr	r3, r3, #128
 2790 013e 6364     		str	r3, [r4, #68]
 2791 0140 0120     		movs	r0, #1
 2792 0142 9EE7     		b	.L635
 2793              	.L632:
 2794 0144 9026     		movs	r6, #144
 2795 0146 D6E7     		b	.L627
 2796              	.L640:
 2797              		.align	2
 2798              	.L639:
 2799 0148 0000FFFF 		.word	-65536
 2800 014c 00000000 		.word	I2C_Master_ISR_DMA
 2801 0150 00000000 		.word	I2C_Master_ISR_IT
 2802 0154 009800FC 		.word	-67069952
 2803 0158 00000000 		.word	I2C_Slave_ISR_DMA
 2804 015c 00000000 		.word	I2C_DMAMasterReceiveCplt
 2805 0160 00000000 		.word	I2C_DMAError
 2807              		.section	.text.HAL_I2C_Slave_Transmit_DMA,"ax",%progbits
 2808              		.align	1
 2809              		.p2align 2,,3
 2810              		.global	HAL_I2C_Slave_Transmit_DMA
 2811              		.syntax unified
 2812              		.thumb
 2813              		.thumb_func
 2814              		.fpu fpv4-sp-d16
 2816              	HAL_I2C_Slave_Transmit_DMA:
 2817              		@ args = 0, pretend = 0, frame = 0
 2818              		@ frame_needed = 0, uses_anonymous_args = 0
 2819 0000 F8B5     		push	{r3, r4, r5, r6, r7, lr}
 2820 0002 0446     		mov	r4, r0
 2821 0004 90F84100 		ldrb	r0, [r0, #65]	@ zero_extendqisi2
 2822 0008 2028     		cmp	r0, #32
 2823 000a 3ED1     		bne	.L649
 2824 000c 0029     		cmp	r1, #0
 2825 000e 37D0     		beq	.L643
 2826 0010 002A     		cmp	r2, #0
 2827 0012 35D0     		beq	.L643
 2828 0014 5FFA80FC 		uxtb	ip, r0
 2829 0018 94F84000 		ldrb	r0, [r4, #64]	@ zero_extendqisi2
 2830 001c 0128     		cmp	r0, #1
 2831 001e 34D0     		beq	.L649
 2832 0020 2123     		movs	r3, #33
 2833 0022 0025     		movs	r5, #0
 2834 0024 84F84130 		strb	r3, [r4, #65]
ARM GAS  /tmp/ccNejxAl.s 			page 50


 2835 0028 84F842C0 		strb	ip, [r4, #66]
 2836 002c 6564     		str	r5, [r4, #68]
 2837 002e 6285     		strh	r2, [r4, #42]	@ movhi
 2838 0030 2448     		ldr	r0, .L656
 2839 0032 638D     		ldrh	r3, [r4, #42]
 2840 0034 E062     		str	r0, [r4, #44]
 2841 0036 A06B     		ldr	r0, [r4, #56]
 2842 0038 234A     		ldr	r2, .L656+4
 2843 003a 6162     		str	r1, [r4, #36]
 2844 003c 9BB2     		uxth	r3, r3
 2845 003e 0126     		movs	r6, #1
 2846 0040 2385     		strh	r3, [r4, #40]	@ movhi
 2847 0042 6263     		str	r2, [r4, #52]
 2848 0044 84F84060 		strb	r6, [r4, #64]
 2849 0048 70B3     		cbz	r0, .L645
 2850 004a 2268     		ldr	r2, [r4]
 2851 004c 1F4F     		ldr	r7, .L656+8
 2852 004e C762     		str	r7, [r0, #44]
 2853 0050 1F4F     		ldr	r7, .L656+12
 2854 0052 0563     		str	r5, [r0, #48]
 2855 0054 8563     		str	r5, [r0, #56]
 2856 0056 2832     		adds	r2, r2, #40
 2857 0058 4763     		str	r7, [r0, #52]
 2858 005a FFF7FEFF 		bl	HAL_DMA_Start_IT
 2859 005e B0B9     		cbnz	r0, .L655
 2860 0060 2368     		ldr	r3, [r4]
 2861 0062 5A68     		ldr	r2, [r3, #4]
 2862 0064 22F40042 		bic	r2, r2, #32768
 2863 0068 5A60     		str	r2, [r3, #4]
 2864 006a 84F84000 		strb	r0, [r4, #64]
 2865 006e 1A68     		ldr	r2, [r3]
 2866 0070 42F0B802 		orr	r2, r2, #184
 2867 0074 1A60     		str	r2, [r3]
 2868 0076 1A68     		ldr	r2, [r3]
 2869 0078 42F48042 		orr	r2, r2, #16384
 2870 007c 1A60     		str	r2, [r3]
 2871 007e F8BD     		pop	{r3, r4, r5, r6, r7, pc}
 2872              	.L643:
 2873 0080 4FF40073 		mov	r3, #512
 2874 0084 6364     		str	r3, [r4, #68]
 2875 0086 0120     		movs	r0, #1
 2876 0088 F8BD     		pop	{r3, r4, r5, r6, r7, pc}
 2877              	.L649:
 2878 008a 0220     		movs	r0, #2
 2879 008c F8BD     		pop	{r3, r4, r5, r6, r7, pc}
 2880              	.L655:
 2881 008e 2823     		movs	r3, #40
 2882 0090 84F84130 		strb	r3, [r4, #65]
 2883 0094 84F84250 		strb	r5, [r4, #66]
 2884 0098 636C     		ldr	r3, [r4, #68]
 2885 009a 84F84050 		strb	r5, [r4, #64]
 2886 009e 43F01003 		orr	r3, r3, #16
 2887 00a2 6364     		str	r3, [r4, #68]
 2888 00a4 3046     		mov	r0, r6
 2889 00a6 F8BD     		pop	{r3, r4, r5, r6, r7, pc}
 2890              	.L645:
 2891 00a8 2823     		movs	r3, #40
ARM GAS  /tmp/ccNejxAl.s 			page 51


 2892 00aa 84F84130 		strb	r3, [r4, #65]
 2893 00ae 84F84200 		strb	r0, [r4, #66]
 2894 00b2 636C     		ldr	r3, [r4, #68]
 2895 00b4 84F84000 		strb	r0, [r4, #64]
 2896 00b8 43F08003 		orr	r3, r3, #128
 2897 00bc 6364     		str	r3, [r4, #68]
 2898 00be 3046     		mov	r0, r6
 2899 00c0 F8BD     		pop	{r3, r4, r5, r6, r7, pc}
 2900              	.L657:
 2901 00c2 00BF     		.align	2
 2902              	.L656:
 2903 00c4 0000FFFF 		.word	-65536
 2904 00c8 00000000 		.word	I2C_Slave_ISR_DMA
 2905 00cc 00000000 		.word	I2C_DMASlaveTransmitCplt
 2906 00d0 00000000 		.word	I2C_DMAError
 2908              		.section	.text.HAL_I2C_Slave_Receive_DMA,"ax",%progbits
 2909              		.align	1
 2910              		.p2align 2,,3
 2911              		.global	HAL_I2C_Slave_Receive_DMA
 2912              		.syntax unified
 2913              		.thumb
 2914              		.thumb_func
 2915              		.fpu fpv4-sp-d16
 2917              	HAL_I2C_Slave_Receive_DMA:
 2918              		@ args = 0, pretend = 0, frame = 0
 2919              		@ frame_needed = 0, uses_anonymous_args = 0
 2920 0000 F8B5     		push	{r3, r4, r5, r6, r7, lr}
 2921 0002 90F84130 		ldrb	r3, [r0, #65]	@ zero_extendqisi2
 2922 0006 202B     		cmp	r3, #32
 2923 0008 40D1     		bne	.L666
 2924 000a 0446     		mov	r4, r0
 2925 000c 0029     		cmp	r1, #0
 2926 000e 38D0     		beq	.L660
 2927 0010 002A     		cmp	r2, #0
 2928 0012 36D0     		beq	.L660
 2929 0014 D8B2     		uxtb	r0, r3
 2930 0016 94F84030 		ldrb	r3, [r4, #64]	@ zero_extendqisi2
 2931 001a 012B     		cmp	r3, #1
 2932 001c 36D0     		beq	.L666
 2933 001e 2223     		movs	r3, #34
 2934 0020 0025     		movs	r5, #0
 2935 0022 84F84130 		strb	r3, [r4, #65]
 2936 0026 84F84200 		strb	r0, [r4, #66]
 2937 002a 6564     		str	r5, [r4, #68]
 2938 002c 6285     		strh	r2, [r4, #42]	@ movhi
 2939 002e 638D     		ldrh	r3, [r4, #42]
 2940 0030 244A     		ldr	r2, .L673
 2941 0032 E06B     		ldr	r0, [r4, #60]
 2942 0034 E262     		str	r2, [r4, #44]
 2943 0036 0126     		movs	r6, #1
 2944 0038 234A     		ldr	r2, .L673+4
 2945 003a 84F84060 		strb	r6, [r4, #64]
 2946 003e 9BB2     		uxth	r3, r3
 2947 0040 6162     		str	r1, [r4, #36]
 2948 0042 2385     		strh	r3, [r4, #40]	@ movhi
 2949 0044 6263     		str	r2, [r4, #52]
 2950 0046 0028     		cmp	r0, #0
ARM GAS  /tmp/ccNejxAl.s 			page 52


 2951 0048 2FD0     		beq	.L662
 2952 004a 204F     		ldr	r7, .L673+8
 2953 004c 0563     		str	r5, [r0, #48]
 2954 004e 0A46     		mov	r2, r1
 2955 0050 2168     		ldr	r1, [r4]
 2956 0052 C762     		str	r7, [r0, #44]
 2957 0054 1E4F     		ldr	r7, .L673+12
 2958 0056 8563     		str	r5, [r0, #56]
 2959 0058 2431     		adds	r1, r1, #36
 2960 005a 4763     		str	r7, [r0, #52]
 2961 005c FFF7FEFF 		bl	HAL_DMA_Start_IT
 2962 0060 B0B9     		cbnz	r0, .L672
 2963 0062 2368     		ldr	r3, [r4]
 2964 0064 5A68     		ldr	r2, [r3, #4]
 2965 0066 22F40042 		bic	r2, r2, #32768
 2966 006a 5A60     		str	r2, [r3, #4]
 2967 006c 84F84000 		strb	r0, [r4, #64]
 2968 0070 1A68     		ldr	r2, [r3]
 2969 0072 42F0B802 		orr	r2, r2, #184
 2970 0076 1A60     		str	r2, [r3]
 2971 0078 1A68     		ldr	r2, [r3]
 2972 007a 42F40042 		orr	r2, r2, #32768
 2973 007e 1A60     		str	r2, [r3]
 2974 0080 F8BD     		pop	{r3, r4, r5, r6, r7, pc}
 2975              	.L660:
 2976 0082 4FF40073 		mov	r3, #512
 2977 0086 6364     		str	r3, [r4, #68]
 2978 0088 0120     		movs	r0, #1
 2979 008a F8BD     		pop	{r3, r4, r5, r6, r7, pc}
 2980              	.L666:
 2981 008c 0220     		movs	r0, #2
 2982 008e F8BD     		pop	{r3, r4, r5, r6, r7, pc}
 2983              	.L672:
 2984 0090 2823     		movs	r3, #40
 2985 0092 84F84130 		strb	r3, [r4, #65]
 2986 0096 84F84250 		strb	r5, [r4, #66]
 2987 009a 636C     		ldr	r3, [r4, #68]
 2988 009c 84F84050 		strb	r5, [r4, #64]
 2989 00a0 43F01003 		orr	r3, r3, #16
 2990 00a4 6364     		str	r3, [r4, #68]
 2991 00a6 3046     		mov	r0, r6
 2992 00a8 F8BD     		pop	{r3, r4, r5, r6, r7, pc}
 2993              	.L662:
 2994 00aa 2823     		movs	r3, #40
 2995 00ac 84F84130 		strb	r3, [r4, #65]
 2996 00b0 84F84200 		strb	r0, [r4, #66]
 2997 00b4 636C     		ldr	r3, [r4, #68]
 2998 00b6 84F84000 		strb	r0, [r4, #64]
 2999 00ba 43F08003 		orr	r3, r3, #128
 3000 00be 6364     		str	r3, [r4, #68]
 3001 00c0 3046     		mov	r0, r6
 3002 00c2 F8BD     		pop	{r3, r4, r5, r6, r7, pc}
 3003              	.L674:
 3004              		.align	2
 3005              	.L673:
 3006 00c4 0000FFFF 		.word	-65536
 3007 00c8 00000000 		.word	I2C_Slave_ISR_DMA
ARM GAS  /tmp/ccNejxAl.s 			page 53


 3008 00cc 00000000 		.word	I2C_DMASlaveReceiveCplt
 3009 00d0 00000000 		.word	I2C_DMAError
 3011              		.section	.text.HAL_I2C_Mem_Write,"ax",%progbits
 3012              		.align	1
 3013              		.p2align 2,,3
 3014              		.global	HAL_I2C_Mem_Write
 3015              		.syntax unified
 3016              		.thumb
 3017              		.thumb_func
 3018              		.fpu fpv4-sp-d16
 3020              	HAL_I2C_Mem_Write:
 3021              		@ args = 12, pretend = 0, frame = 0
 3022              		@ frame_needed = 0, uses_anonymous_args = 0
 3023 0000 2DE9F84F 		push	{r3, r4, r5, r6, r7, r8, r9, r10, fp, lr}
 3024 0004 9A46     		mov	r10, r3
 3025 0006 90F84130 		ldrb	r3, [r0, #65]	@ zero_extendqisi2
 3026 000a BDF82CB0 		ldrh	fp, [sp, #44]
 3027 000e DDF83080 		ldr	r8, [sp, #48]
 3028 0012 202B     		cmp	r3, #32
 3029 0014 40F0A280 		bne	.L707
 3030 0018 0A9B     		ldr	r3, [sp, #40]
 3031 001a 0446     		mov	r4, r0
 3032 001c 002B     		cmp	r3, #0
 3033 001e 00F09780 		beq	.L677
 3034 0022 BBF1000F 		cmp	fp, #0
 3035 0026 00F09380 		beq	.L677
 3036 002a 90F84030 		ldrb	r3, [r0, #64]	@ zero_extendqisi2
 3037 002e 012B     		cmp	r3, #1
 3038 0030 00F09480 		beq	.L707
 3039 0034 0123     		movs	r3, #1
 3040 0036 80F84030 		strb	r3, [r0, #64]
 3041 003a 0F46     		mov	r7, r1
 3042 003c 9146     		mov	r9, r2
 3043 003e FFF7FEFF 		bl	HAL_GetTick
 3044 0042 0646     		mov	r6, r0
 3045 0044 05E0     		b	.L679
 3046              	.L680:
 3047 0046 FFF7FEFF 		bl	HAL_GetTick
 3048 004a 801B     		subs	r0, r0, r6
 3049 004c 1928     		cmp	r0, #25
 3050 004e 00F28880 		bhi	.L699
 3051              	.L679:
 3052 0052 2368     		ldr	r3, [r4]
 3053 0054 9D69     		ldr	r5, [r3, #24]
 3054 0056 15F40045 		ands	r5, r5, #32768
 3055 005a F4D1     		bne	.L680
 3056 005c 0A9A     		ldr	r2, [sp, #40]
 3057 005e 6262     		str	r2, [r4, #36]
 3058 0060 2122     		movs	r2, #33
 3059 0062 84F84120 		strb	r2, [r4, #65]
 3060 0066 4022     		movs	r2, #64
 3061 0068 84F84220 		strb	r2, [r4, #66]
 3062 006c 6564     		str	r5, [r4, #68]
 3063 006e A4F82AB0 		strh	fp, [r4, #42]	@ movhi
 3064 0072 5A68     		ldr	r2, [r3, #4]
 3065 0074 7749     		ldr	r1, .L729
 3066 0076 6563     		str	r5, [r4, #52]
ARM GAS  /tmp/ccNejxAl.s 			page 54


 3067 0078 0A40     		ands	r2, r2, r1
 3068 007a 5FFA8AF1 		uxtb	r1, r10
 3069 007e 42EA0142 		orr	r2, r2, r1, lsl #16
 3070 0082 C7F30907 		ubfx	r7, r7, #0, #10
 3071 0086 3A43     		orrs	r2, r2, r7
 3072 0088 42F08072 		orr	r2, r2, #16777216
 3073 008c 42F40052 		orr	r2, r2, #8192
 3074 0090 5A60     		str	r2, [r3, #4]
 3075 0092 4146     		mov	r1, r8
 3076 0094 3246     		mov	r2, r6
 3077 0096 2046     		mov	r0, r4
 3078 0098 FFF7FEFF 		bl	I2C_WaitOnTXISFlagUntilTimeout
 3079 009c 0028     		cmp	r0, #0
 3080 009e 40F0B180 		bne	.L687
 3081 00a2 BAF1010F 		cmp	r10, #1
 3082 00a6 2268     		ldr	r2, [r4]
 3083 00a8 6AD1     		bne	.L682
 3084 00aa 5FFA89F3 		uxtb	r3, r9
 3085 00ae 9362     		str	r3, [r2, #40]
 3086              	.L684:
 3087 00b0 B8F1FF3F 		cmp	r8, #-1
 3088 00b4 40F08D80 		bne	.L688
 3089              	.L689:
 3090 00b8 9369     		ldr	r3, [r2, #24]
 3091 00ba 1D06     		lsls	r5, r3, #24
 3092 00bc FCD5     		bpl	.L689
 3093              	.L690:
 3094 00be 638D     		ldrh	r3, [r4, #42]
 3095 00c0 9BB2     		uxth	r3, r3
 3096 00c2 FF2B     		cmp	r3, #255
 3097 00c4 40F2A380 		bls	.L727
 3098 00c8 5368     		ldr	r3, [r2, #4]
 3099 00ca 6349     		ldr	r1, .L729+4
 3100 00cc 0B40     		ands	r3, r3, r1
 3101 00ce 3B43     		orrs	r3, r3, r7
 3102 00d0 43F0FF73 		orr	r3, r3, #33423360
 3103 00d4 43F48033 		orr	r3, r3, #65536
 3104 00d8 FF21     		movs	r1, #255
 3105 00da 2185     		strh	r1, [r4, #40]	@ movhi
 3106 00dc 5360     		str	r3, [r2, #4]
 3107              	.L695:
 3108 00de 5E4D     		ldr	r5, .L729+4
 3109 00e0 DFF87CA1 		ldr	r10, .L729+12
 3110 00e4 4FF0FF09 		mov	r9, #255
 3111 00e8 04E0     		b	.L694
 3112              	.L697:
 3113 00ea 638D     		ldrh	r3, [r4, #42]
 3114 00ec 9BB2     		uxth	r3, r3
 3115 00ee 002B     		cmp	r3, #0
 3116 00f0 00F09B80 		beq	.L728
 3117              	.L694:
 3118 00f4 3246     		mov	r2, r6
 3119 00f6 4146     		mov	r1, r8
 3120 00f8 2046     		mov	r0, r4
 3121 00fa FFF7FEFF 		bl	I2C_WaitOnTXISFlagUntilTimeout
 3122 00fe 0028     		cmp	r0, #0
 3123 0100 75D1     		bne	.L705
ARM GAS  /tmp/ccNejxAl.s 			page 55


 3124 0102 636A     		ldr	r3, [r4, #36]
 3125 0104 2268     		ldr	r2, [r4]
 3126 0106 13F8011B 		ldrb	r1, [r3], #1	@ zero_extendqisi2
 3127 010a 9162     		str	r1, [r2, #40]
 3128 010c 6362     		str	r3, [r4, #36]
 3129 010e 638D     		ldrh	r3, [r4, #42]
 3130 0110 013B     		subs	r3, r3, #1
 3131 0112 9BB2     		uxth	r3, r3
 3132 0114 6385     		strh	r3, [r4, #42]	@ movhi
 3133 0116 238D     		ldrh	r3, [r4, #40]
 3134 0118 618D     		ldrh	r1, [r4, #42]
 3135 011a 013B     		subs	r3, r3, #1
 3136 011c 9BB2     		uxth	r3, r3
 3137 011e 89B2     		uxth	r1, r1
 3138 0120 2385     		strh	r3, [r4, #40]	@ movhi
 3139 0122 0029     		cmp	r1, #0
 3140 0124 E1D0     		beq	.L697
 3141 0126 002B     		cmp	r3, #0
 3142 0128 DFD1     		bne	.L697
 3143              	.L698:
 3144 012a B8F1FF3F 		cmp	r8, #-1
 3145 012e 36D1     		bne	.L700
 3146              	.L701:
 3147 0130 9369     		ldr	r3, [r2, #24]
 3148 0132 1906     		lsls	r1, r3, #24
 3149 0134 FCD5     		bpl	.L701
 3150              	.L702:
 3151 0136 638D     		ldrh	r3, [r4, #42]
 3152 0138 9BB2     		uxth	r3, r3
 3153 013a FF2B     		cmp	r3, #255
 3154 013c 3CD9     		bls	.L704
 3155 013e 5368     		ldr	r3, [r2, #4]
 3156 0140 A4F82890 		strh	r9, [r4, #40]	@ movhi
 3157 0144 2B40     		ands	r3, r3, r5
 3158 0146 3B43     		orrs	r3, r3, r7
 3159 0148 43EA0A03 		orr	r3, r3, r10
 3160 014c 5360     		str	r3, [r2, #4]
 3161 014e CCE7     		b	.L697
 3162              	.L677:
 3163 0150 4FF40073 		mov	r3, #512
 3164 0154 6364     		str	r3, [r4, #68]
 3165 0156 0120     		movs	r0, #1
 3166              	.L676:
 3167 0158 BDE8F88F 		pop	{r3, r4, r5, r6, r7, r8, r9, r10, fp, pc}
 3168              	.L707:
 3169 015c 0220     		movs	r0, #2
 3170 015e BDE8F88F 		pop	{r3, r4, r5, r6, r7, r8, r9, r10, fp, pc}
 3171              	.L699:
 3172 0162 636C     		ldr	r3, [r4, #68]
 3173 0164 0022     		movs	r2, #0
 3174 0166 43F02003 		orr	r3, r3, #32
 3175 016a 2021     		movs	r1, #32
 3176 016c 6364     		str	r3, [r4, #68]
 3177 016e 84F84020 		strb	r2, [r4, #64]
 3178 0172 84F84110 		strb	r1, [r4, #65]
 3179 0176 84F84220 		strb	r2, [r4, #66]
 3180 017a 0120     		movs	r0, #1
ARM GAS  /tmp/ccNejxAl.s 			page 56


 3181 017c BDE8F88F 		pop	{r3, r4, r5, r6, r7, r8, r9, r10, fp, pc}
 3182              	.L682:
 3183 0180 4FEA1923 		lsr	r3, r9, #8
 3184 0184 9362     		str	r3, [r2, #40]
 3185 0186 4146     		mov	r1, r8
 3186 0188 3246     		mov	r2, r6
 3187 018a 2046     		mov	r0, r4
 3188 018c FFF7FEFF 		bl	I2C_WaitOnTXISFlagUntilTimeout
 3189 0190 0028     		cmp	r0, #0
 3190 0192 37D1     		bne	.L687
 3191 0194 2268     		ldr	r2, [r4]
 3192 0196 5FFA89F3 		uxtb	r3, r9
 3193 019a 9362     		str	r3, [r2, #40]
 3194 019c 88E7     		b	.L684
 3195              	.L700:
 3196 019e 9369     		ldr	r3, [r2, #24]
 3197 01a0 1B06     		lsls	r3, r3, #24
 3198 01a2 C8D4     		bmi	.L702
 3199 01a4 FFF7FEFF 		bl	HAL_GetTick
 3200 01a8 801B     		subs	r0, r0, r6
 3201 01aa 8045     		cmp	r8, r0
 3202 01ac D9D3     		bcc	.L699
 3203 01ae B8F1000F 		cmp	r8, #0
 3204 01b2 D6D0     		beq	.L699
 3205 01b4 2268     		ldr	r2, [r4]
 3206 01b6 B8E7     		b	.L698
 3207              	.L704:
 3208 01b8 638D     		ldrh	r3, [r4, #42]
 3209 01ba 9BB2     		uxth	r3, r3
 3210 01bc 2385     		strh	r3, [r4, #40]	@ movhi
 3211 01be D9B2     		uxtb	r1, r3
 3212 01c0 5368     		ldr	r3, [r2, #4]
 3213 01c2 2B40     		ands	r3, r3, r5
 3214 01c4 3B43     		orrs	r3, r3, r7
 3215 01c6 43EA0143 		orr	r3, r3, r1, lsl #16
 3216 01ca 43F00073 		orr	r3, r3, #33554432
 3217 01ce 5360     		str	r3, [r2, #4]
 3218 01d0 8BE7     		b	.L697
 3219              	.L688:
 3220 01d2 9369     		ldr	r3, [r2, #24]
 3221 01d4 1806     		lsls	r0, r3, #24
 3222 01d6 3FF572AF 		bmi	.L690
 3223 01da FFF7FEFF 		bl	HAL_GetTick
 3224 01de 801B     		subs	r0, r0, r6
 3225 01e0 8045     		cmp	r8, r0
 3226 01e2 06D3     		bcc	.L685
 3227 01e4 B8F1000F 		cmp	r8, #0
 3228 01e8 03D0     		beq	.L685
 3229 01ea 2268     		ldr	r2, [r4]
 3230 01ec 60E7     		b	.L684
 3231              	.L705:
 3232 01ee 0120     		movs	r0, #1
 3233 01f0 B2E7     		b	.L676
 3234              	.L685:
 3235 01f2 636C     		ldr	r3, [r4, #68]
 3236 01f4 2021     		movs	r1, #32
 3237 01f6 0B43     		orrs	r3, r3, r1
ARM GAS  /tmp/ccNejxAl.s 			page 57


 3238 01f8 0022     		movs	r2, #0
 3239 01fa 6364     		str	r3, [r4, #68]
 3240 01fc 84F84110 		strb	r1, [r4, #65]
 3241 0200 84F84220 		strb	r2, [r4, #66]
 3242              	.L687:
 3243 0204 0023     		movs	r3, #0
 3244 0206 84F84030 		strb	r3, [r4, #64]
 3245 020a 0120     		movs	r0, #1
 3246 020c A4E7     		b	.L676
 3247              	.L727:
 3248 020e 638D     		ldrh	r3, [r4, #42]
 3249 0210 1148     		ldr	r0, .L729+4
 3250 0212 9BB2     		uxth	r3, r3
 3251 0214 2385     		strh	r3, [r4, #40]	@ movhi
 3252 0216 D9B2     		uxtb	r1, r3
 3253 0218 5368     		ldr	r3, [r2, #4]
 3254 021a 0340     		ands	r3, r3, r0
 3255 021c 3B43     		orrs	r3, r3, r7
 3256 021e 43EA0143 		orr	r3, r3, r1, lsl #16
 3257 0222 43F00073 		orr	r3, r3, #33554432
 3258 0226 5360     		str	r3, [r2, #4]
 3259 0228 59E7     		b	.L695
 3260              	.L728:
 3261 022a 3246     		mov	r2, r6
 3262 022c 4146     		mov	r1, r8
 3263 022e 2046     		mov	r0, r4
 3264 0230 FFF7FEFF 		bl	I2C_WaitOnSTOPFlagUntilTimeout
 3265 0234 0028     		cmp	r0, #0
 3266 0236 DAD1     		bne	.L705
 3267 0238 2368     		ldr	r3, [r4]
 3268 023a 084D     		ldr	r5, .L729+8
 3269 023c 2021     		movs	r1, #32
 3270 023e D961     		str	r1, [r3, #28]
 3271 0240 5A68     		ldr	r2, [r3, #4]
 3272 0242 2A40     		ands	r2, r2, r5
 3273 0244 5A60     		str	r2, [r3, #4]
 3274 0246 84F84110 		strb	r1, [r4, #65]
 3275 024a 84F84000 		strb	r0, [r4, #64]
 3276 024e 84F84200 		strb	r0, [r4, #66]
 3277 0252 81E7     		b	.L676
 3278              	.L730:
 3279              		.align	2
 3280              	.L729:
 3281 0254 009800FC 		.word	-67069952
 3282 0258 009C00FC 		.word	-67068928
 3283 025c 00E800FE 		.word	-33495040
 3284 0260 0000FF01 		.word	33488896
 3286              		.section	.text.HAL_I2C_Mem_Read,"ax",%progbits
 3287              		.align	1
 3288              		.p2align 2,,3
 3289              		.global	HAL_I2C_Mem_Read
 3290              		.syntax unified
 3291              		.thumb
 3292              		.thumb_func
 3293              		.fpu fpv4-sp-d16
 3295              	HAL_I2C_Mem_Read:
 3296              		@ args = 12, pretend = 0, frame = 0
ARM GAS  /tmp/ccNejxAl.s 			page 58


 3297              		@ frame_needed = 0, uses_anonymous_args = 0
 3298 0000 2DE9F047 		push	{r4, r5, r6, r7, r8, r9, r10, lr}
 3299 0004 9846     		mov	r8, r3
 3300 0006 90F84130 		ldrb	r3, [r0, #65]	@ zero_extendqisi2
 3301 000a BDF824A0 		ldrh	r10, [sp, #36]
 3302 000e 0A9D     		ldr	r5, [sp, #40]
 3303 0010 202B     		cmp	r3, #32
 3304 0012 40F0A480 		bne	.L769
 3305 0016 089B     		ldr	r3, [sp, #32]
 3306 0018 0446     		mov	r4, r0
 3307 001a 002B     		cmp	r3, #0
 3308 001c 00F09980 		beq	.L733
 3309 0020 BAF1000F 		cmp	r10, #0
 3310 0024 00F09580 		beq	.L733
 3311 0028 90F84030 		ldrb	r3, [r0, #64]	@ zero_extendqisi2
 3312 002c 012B     		cmp	r3, #1
 3313 002e 00F09680 		beq	.L769
 3314 0032 0123     		movs	r3, #1
 3315 0034 80F84030 		strb	r3, [r0, #64]
 3316 0038 0F46     		mov	r7, r1
 3317 003a 9146     		mov	r9, r2
 3318 003c FFF7FEFF 		bl	HAL_GetTick
 3319 0040 0646     		mov	r6, r0
 3320 0042 04E0     		b	.L735
 3321              	.L736:
 3322 0044 FFF7FEFF 		bl	HAL_GetTick
 3323 0048 801B     		subs	r0, r0, r6
 3324 004a 1928     		cmp	r0, #25
 3325 004c 72D8     		bhi	.L761
 3326              	.L735:
 3327 004e 2368     		ldr	r3, [r4]
 3328 0050 9869     		ldr	r0, [r3, #24]
 3329 0052 10F40040 		ands	r0, r0, #32768
 3330 0056 F5D1     		bne	.L736
 3331 0058 089A     		ldr	r2, [sp, #32]
 3332 005a 6262     		str	r2, [r4, #36]
 3333 005c 2222     		movs	r2, #34
 3334 005e 84F84120 		strb	r2, [r4, #65]
 3335 0062 4022     		movs	r2, #64
 3336 0064 84F84220 		strb	r2, [r4, #66]
 3337 0068 6064     		str	r0, [r4, #68]
 3338 006a A4F82AA0 		strh	r10, [r4, #42]	@ movhi
 3339 006e 5A68     		ldr	r2, [r3, #4]
 3340 0070 7A49     		ldr	r1, .L791
 3341 0072 6063     		str	r0, [r4, #52]
 3342 0074 0A40     		ands	r2, r2, r1
 3343 0076 5FFA88F1 		uxtb	r1, r8
 3344 007a 42EA0142 		orr	r2, r2, r1, lsl #16
 3345 007e C7F30907 		ubfx	r7, r7, #0, #10
 3346 0082 3A43     		orrs	r2, r2, r7
 3347 0084 42F40052 		orr	r2, r2, #8192
 3348 0088 5A60     		str	r2, [r3, #4]
 3349 008a 2946     		mov	r1, r5
 3350 008c 3246     		mov	r2, r6
 3351 008e 2046     		mov	r0, r4
 3352 0090 FFF7FEFF 		bl	I2C_WaitOnTXISFlagUntilTimeout
 3353 0094 0028     		cmp	r0, #0
ARM GAS  /tmp/ccNejxAl.s 			page 59


 3354 0096 40F0C580 		bne	.L743
 3355 009a B8F1010F 		cmp	r8, #1
 3356 009e 2168     		ldr	r1, [r4]
 3357 00a0 7ED1     		bne	.L738
 3358 00a2 5FFA89F3 		uxtb	r3, r9
 3359 00a6 8B62     		str	r3, [r1, #40]
 3360              	.L740:
 3361 00a8 681C     		adds	r0, r5, #1
 3362 00aa 40F09680 		bne	.L744
 3363              	.L745:
 3364 00ae 8B69     		ldr	r3, [r1, #24]
 3365 00b0 5A06     		lsls	r2, r3, #25
 3366 00b2 FCD5     		bpl	.L745
 3367              	.L746:
 3368 00b4 638D     		ldrh	r3, [r4, #42]
 3369 00b6 9BB2     		uxth	r3, r3
 3370 00b8 FF2B     		cmp	r3, #255
 3371 00ba 40F29A80 		bls	.L789
 3372 00be 4B68     		ldr	r3, [r1, #4]
 3373 00c0 664A     		ldr	r2, .L791
 3374 00c2 1340     		ands	r3, r3, r2
 3375 00c4 3B43     		orrs	r3, r3, r7
 3376 00c6 43F0FF73 		orr	r3, r3, #33423360
 3377 00ca 43F49233 		orr	r3, r3, #74752
 3378 00ce FF22     		movs	r2, #255
 3379 00d0 2285     		strh	r2, [r4, #40]	@ movhi
 3380 00d2 4B60     		str	r3, [r1, #4]
 3381              	.L751:
 3382 00d4 681C     		adds	r0, r5, #1
 3383 00d6 DFF88C81 		ldr	r8, .L791+8
 3384 00da DFF88CA1 		ldr	r10, .L791+12
 3385 00de 4FF0FF09 		mov	r9, #255
 3386 00e2 1DD1     		bne	.L755
 3387              	.L756:
 3388 00e4 8B69     		ldr	r3, [r1, #24]
 3389 00e6 5A07     		lsls	r2, r3, #29
 3390 00e8 FCD5     		bpl	.L756
 3391              	.L757:
 3392 00ea 636A     		ldr	r3, [r4, #36]
 3393 00ec 4A6A     		ldr	r2, [r1, #36]
 3394 00ee 1A70     		strb	r2, [r3]
 3395 00f0 638D     		ldrh	r3, [r4, #42]
 3396 00f2 626A     		ldr	r2, [r4, #36]
 3397 00f4 013B     		subs	r3, r3, #1
 3398 00f6 9BB2     		uxth	r3, r3
 3399 00f8 6385     		strh	r3, [r4, #42]	@ movhi
 3400 00fa 0132     		adds	r2, r2, #1
 3401 00fc 238D     		ldrh	r3, [r4, #40]
 3402 00fe 6262     		str	r2, [r4, #36]
 3403 0100 628D     		ldrh	r2, [r4, #42]
 3404 0102 013B     		subs	r3, r3, #1
 3405 0104 9BB2     		uxth	r3, r3
 3406 0106 92B2     		uxth	r2, r2
 3407 0108 2385     		strh	r3, [r4, #40]	@ movhi
 3408 010a 0AB1     		cbz	r2, .L759
 3409 010c 002B     		cmp	r3, #0
 3410 010e 33D0     		beq	.L760
ARM GAS  /tmp/ccNejxAl.s 			page 60


 3411              	.L759:
 3412 0110 638D     		ldrh	r3, [r4, #42]
 3413 0112 9BB2     		uxth	r3, r3
 3414 0114 002B     		cmp	r3, #0
 3415 0116 00F08A80 		beq	.L790
 3416              	.L754:
 3417 011a 681C     		adds	r0, r5, #1
 3418 011c 2168     		ldr	r1, [r4]
 3419 011e E1D0     		beq	.L756
 3420              	.L755:
 3421 0120 8B69     		ldr	r3, [r1, #24]
 3422 0122 5B07     		lsls	r3, r3, #29
 3423 0124 E1D4     		bmi	.L757
 3424 0126 FFF7FEFF 		bl	HAL_GetTick
 3425 012a 801B     		subs	r0, r0, r6
 3426 012c 8542     		cmp	r5, r0
 3427 012e 01D3     		bcc	.L761
 3428 0130 002D     		cmp	r5, #0
 3429 0132 F2D1     		bne	.L754
 3430              	.L761:
 3431 0134 636C     		ldr	r3, [r4, #68]
 3432 0136 0022     		movs	r2, #0
 3433 0138 43F02003 		orr	r3, r3, #32
 3434 013c 2021     		movs	r1, #32
 3435 013e 6364     		str	r3, [r4, #68]
 3436 0140 84F84020 		strb	r2, [r4, #64]
 3437 0144 84F84110 		strb	r1, [r4, #65]
 3438 0148 84F84220 		strb	r2, [r4, #66]
 3439 014c 0120     		movs	r0, #1
 3440 014e BDE8F087 		pop	{r4, r5, r6, r7, r8, r9, r10, pc}
 3441              	.L733:
 3442 0152 4FF40073 		mov	r3, #512
 3443 0156 6364     		str	r3, [r4, #68]
 3444 0158 0120     		movs	r0, #1
 3445              	.L732:
 3446 015a BDE8F087 		pop	{r4, r5, r6, r7, r8, r9, r10, pc}
 3447              	.L769:
 3448 015e 0220     		movs	r0, #2
 3449 0160 BDE8F087 		pop	{r4, r5, r6, r7, r8, r9, r10, pc}
 3450              	.L762:
 3451 0164 9369     		ldr	r3, [r2, #24]
 3452 0166 1B06     		lsls	r3, r3, #24
 3453 0168 0CD4     		bmi	.L764
 3454 016a FFF7FEFF 		bl	HAL_GetTick
 3455 016e 801B     		subs	r0, r0, r6
 3456 0170 8542     		cmp	r5, r0
 3457 0172 DFD3     		bcc	.L761
 3458 0174 002D     		cmp	r5, #0
 3459 0176 DDD0     		beq	.L761
 3460              	.L760:
 3461 0178 681C     		adds	r0, r5, #1
 3462 017a 2268     		ldr	r2, [r4]
 3463 017c F2D1     		bne	.L762
 3464              	.L763:
 3465 017e 9369     		ldr	r3, [r2, #24]
 3466 0180 1906     		lsls	r1, r3, #24
 3467 0182 FCD5     		bpl	.L763
ARM GAS  /tmp/ccNejxAl.s 			page 61


 3468              	.L764:
 3469 0184 638D     		ldrh	r3, [r4, #42]
 3470 0186 9BB2     		uxth	r3, r3
 3471 0188 FF2B     		cmp	r3, #255
 3472 018a 18D9     		bls	.L766
 3473 018c 5368     		ldr	r3, [r2, #4]
 3474 018e A4F82890 		strh	r9, [r4, #40]	@ movhi
 3475 0192 03EA0803 		and	r3, r3, r8
 3476 0196 3B43     		orrs	r3, r3, r7
 3477 0198 43EA0A03 		orr	r3, r3, r10
 3478 019c 5360     		str	r3, [r2, #4]
 3479 019e B7E7     		b	.L759
 3480              	.L738:
 3481 01a0 4FEA1923 		lsr	r3, r9, #8
 3482 01a4 8B62     		str	r3, [r1, #40]
 3483 01a6 3246     		mov	r2, r6
 3484 01a8 2946     		mov	r1, r5
 3485 01aa 2046     		mov	r0, r4
 3486 01ac FFF7FEFF 		bl	I2C_WaitOnTXISFlagUntilTimeout
 3487 01b0 0028     		cmp	r0, #0
 3488 01b2 37D1     		bne	.L743
 3489 01b4 2168     		ldr	r1, [r4]
 3490 01b6 5FFA89F3 		uxtb	r3, r9
 3491 01ba 8B62     		str	r3, [r1, #40]
 3492 01bc 74E7     		b	.L740
 3493              	.L766:
 3494 01be 638D     		ldrh	r3, [r4, #42]
 3495 01c0 9BB2     		uxth	r3, r3
 3496 01c2 2385     		strh	r3, [r4, #40]	@ movhi
 3497 01c4 D9B2     		uxtb	r1, r3
 3498 01c6 5368     		ldr	r3, [r2, #4]
 3499 01c8 03EA0803 		and	r3, r3, r8
 3500 01cc 3B43     		orrs	r3, r3, r7
 3501 01ce 43EA0143 		orr	r3, r3, r1, lsl #16
 3502 01d2 43F00073 		orr	r3, r3, #33554432
 3503 01d6 5360     		str	r3, [r2, #4]
 3504 01d8 9AE7     		b	.L759
 3505              	.L744:
 3506 01da 8B69     		ldr	r3, [r1, #24]
 3507 01dc 5B06     		lsls	r3, r3, #25
 3508 01de 3FF569AF 		bmi	.L746
 3509 01e2 FFF7FEFF 		bl	HAL_GetTick
 3510 01e6 801B     		subs	r0, r0, r6
 3511 01e8 8542     		cmp	r5, r0
 3512 01ea 12D3     		bcc	.L741
 3513 01ec 8DB1     		cbz	r5, .L741
 3514 01ee 2168     		ldr	r1, [r4]
 3515 01f0 5AE7     		b	.L740
 3516              	.L789:
 3517 01f2 638D     		ldrh	r3, [r4, #42]
 3518 01f4 1948     		ldr	r0, .L791
 3519 01f6 9BB2     		uxth	r3, r3
 3520 01f8 2385     		strh	r3, [r4, #40]	@ movhi
 3521 01fa DAB2     		uxtb	r2, r3
 3522 01fc 4B68     		ldr	r3, [r1, #4]
 3523 01fe 0340     		ands	r3, r3, r0
 3524 0200 3B43     		orrs	r3, r3, r7
ARM GAS  /tmp/ccNejxAl.s 			page 62


 3525 0202 43EA0243 		orr	r3, r3, r2, lsl #16
 3526 0206 43F00073 		orr	r3, r3, #33554432
 3527 020a 43F41053 		orr	r3, r3, #9216
 3528 020e 4B60     		str	r3, [r1, #4]
 3529 0210 60E7     		b	.L751
 3530              	.L741:
 3531 0212 636C     		ldr	r3, [r4, #68]
 3532 0214 2021     		movs	r1, #32
 3533 0216 0B43     		orrs	r3, r3, r1
 3534 0218 0022     		movs	r2, #0
 3535 021a 6364     		str	r3, [r4, #68]
 3536 021c 84F84110 		strb	r1, [r4, #65]
 3537 0220 84F84220 		strb	r2, [r4, #66]
 3538              	.L743:
 3539 0224 0023     		movs	r3, #0
 3540 0226 84F84030 		strb	r3, [r4, #64]
 3541 022a 0120     		movs	r0, #1
 3542 022c 95E7     		b	.L732
 3543              	.L790:
 3544 022e 3246     		mov	r2, r6
 3545 0230 2946     		mov	r1, r5
 3546 0232 2046     		mov	r0, r4
 3547 0234 FFF7FEFF 		bl	I2C_WaitOnSTOPFlagUntilTimeout
 3548 0238 68B9     		cbnz	r0, .L770
 3549 023a 2368     		ldr	r3, [r4]
 3550 023c 084D     		ldr	r5, .L791+4
 3551 023e 2021     		movs	r1, #32
 3552 0240 D961     		str	r1, [r3, #28]
 3553 0242 5A68     		ldr	r2, [r3, #4]
 3554 0244 2A40     		ands	r2, r2, r5
 3555 0246 5A60     		str	r2, [r3, #4]
 3556 0248 84F84110 		strb	r1, [r4, #65]
 3557 024c 84F84000 		strb	r0, [r4, #64]
 3558 0250 84F84200 		strb	r0, [r4, #66]
 3559 0254 81E7     		b	.L732
 3560              	.L770:
 3561 0256 0120     		movs	r0, #1
 3562 0258 7FE7     		b	.L732
 3563              	.L792:
 3564 025a 00BF     		.align	2
 3565              	.L791:
 3566 025c 009800FC 		.word	-67069952
 3567 0260 00E800FE 		.word	-33495040
 3568 0264 009C00FC 		.word	-67068928
 3569 0268 0000FF01 		.word	33488896
 3571              		.section	.text.HAL_I2C_Mem_Write_IT,"ax",%progbits
 3572              		.align	1
 3573              		.p2align 2,,3
 3574              		.global	HAL_I2C_Mem_Write_IT
 3575              		.syntax unified
 3576              		.thumb
 3577              		.thumb_func
 3578              		.fpu fpv4-sp-d16
 3580              	HAL_I2C_Mem_Write_IT:
 3581              		@ args = 8, pretend = 0, frame = 0
 3582              		@ frame_needed = 0, uses_anonymous_args = 0
 3583 0000 2DE9F043 		push	{r4, r5, r6, r7, r8, r9, lr}
ARM GAS  /tmp/ccNejxAl.s 			page 63


 3584 0004 0D46     		mov	r5, r1
 3585 0006 90F84110 		ldrb	r1, [r0, #65]	@ zero_extendqisi2
 3586 000a 83B0     		sub	sp, sp, #12
 3587 000c 2029     		cmp	r1, #32
 3588 000e BDF82C70 		ldrh	r7, [sp, #44]
 3589 0012 42D1     		bne	.L802
 3590 0014 9846     		mov	r8, r3
 3591 0016 0A9B     		ldr	r3, [sp, #40]
 3592 0018 0446     		mov	r4, r0
 3593 001a 002B     		cmp	r3, #0
 3594 001c 36D0     		beq	.L795
 3595 001e 002F     		cmp	r7, #0
 3596 0020 34D0     		beq	.L795
 3597 0022 0368     		ldr	r3, [r0]
 3598 0024 9E69     		ldr	r6, [r3, #24]
 3599 0026 16F40046 		ands	r6, r6, #32768
 3600 002a 36D1     		bne	.L802
 3601 002c 90F84030 		ldrb	r3, [r0, #64]	@ zero_extendqisi2
 3602 0030 012B     		cmp	r3, #1
 3603 0032 32D0     		beq	.L802
 3604 0034 0123     		movs	r3, #1
 3605 0036 80F84030 		strb	r3, [r0, #64]
 3606 003a 9146     		mov	r9, r2
 3607 003c FFF7FEFF 		bl	HAL_GetTick
 3608 0040 0A9B     		ldr	r3, [sp, #40]
 3609 0042 6362     		str	r3, [r4, #36]
 3610 0044 2122     		movs	r2, #33
 3611 0046 84F84120 		strb	r2, [r4, #65]
 3612 004a 264B     		ldr	r3, .L808
 3613 004c 4022     		movs	r2, #64
 3614 004e 84F84220 		strb	r2, [r4, #66]
 3615 0052 6664     		str	r6, [r4, #68]
 3616 0054 6785     		strh	r7, [r4, #42]	@ movhi
 3617 0056 E362     		str	r3, [r4, #44]
 3618 0058 638D     		ldrh	r3, [r4, #42]
 3619 005a 234A     		ldr	r2, .L808+4
 3620 005c 6263     		str	r2, [r4, #52]
 3621 005e 9BB2     		uxth	r3, r3
 3622 0060 FF2B     		cmp	r3, #255
 3623 0062 1ED8     		bhi	.L803
 3624 0064 638D     		ldrh	r3, [r4, #42]
 3625 0066 4FF00077 		mov	r7, #33554432
 3626 006a 9BB2     		uxth	r3, r3
 3627              	.L797:
 3628 006c 2385     		strh	r3, [r4, #40]	@ movhi
 3629 006e 4A46     		mov	r2, r9
 3630 0070 0090     		str	r0, [sp]
 3631 0072 4346     		mov	r3, r8
 3632 0074 2946     		mov	r1, r5
 3633 0076 2046     		mov	r0, r4
 3634 0078 FFF7FEFF 		bl	I2C_RequestMemoryWrite.constprop.0
 3635 007c A8B1     		cbz	r0, .L798
 3636 007e 0023     		movs	r3, #0
 3637 0080 0120     		movs	r0, #1
 3638 0082 84F84030 		strb	r3, [r4, #64]
 3639 0086 03B0     		add	sp, sp, #12
 3640              		@ sp needed
ARM GAS  /tmp/ccNejxAl.s 			page 64


 3641 0088 BDE8F083 		pop	{r4, r5, r6, r7, r8, r9, pc}
 3642              	.L795:
 3643 008c 4FF40073 		mov	r3, #512
 3644 0090 0120     		movs	r0, #1
 3645 0092 6364     		str	r3, [r4, #68]
 3646 0094 03B0     		add	sp, sp, #12
 3647              		@ sp needed
 3648 0096 BDE8F083 		pop	{r4, r5, r6, r7, r8, r9, pc}
 3649              	.L802:
 3650 009a 0220     		movs	r0, #2
 3651 009c 03B0     		add	sp, sp, #12
 3652              		@ sp needed
 3653 009e BDE8F083 		pop	{r4, r5, r6, r7, r8, r9, pc}
 3654              	.L803:
 3655 00a2 FF23     		movs	r3, #255
 3656 00a4 4FF08077 		mov	r7, #16777216
 3657 00a8 E0E7     		b	.L797
 3658              	.L798:
 3659 00aa 2268     		ldr	r2, [r4]
 3660 00ac C5F30903 		ubfx	r3, r5, #0, #10
 3661 00b0 5168     		ldr	r1, [r2, #4]
 3662 00b2 0E4D     		ldr	r5, .L808+8
 3663 00b4 2940     		ands	r1, r1, r5
 3664 00b6 0B43     		orrs	r3, r3, r1
 3665 00b8 94F82810 		ldrb	r1, [r4, #40]	@ zero_extendqisi2
 3666 00bc 43EA0143 		orr	r3, r3, r1, lsl #16
 3667 00c0 3B43     		orrs	r3, r3, r7
 3668 00c2 5360     		str	r3, [r2, #4]
 3669 00c4 0A49     		ldr	r1, .L808+12
 3670 00c6 636B     		ldr	r3, [r4, #52]
 3671 00c8 84F84000 		strb	r0, [r4, #64]
 3672 00cc 8B42     		cmp	r3, r1
 3673 00ce 03D0     		beq	.L799
 3674 00d0 0849     		ldr	r1, .L808+16
 3675 00d2 8B42     		cmp	r3, r1
 3676 00d4 18BF     		it	ne
 3677 00d6 F226     		movne	r6, #242
 3678              	.L799:
 3679 00d8 1368     		ldr	r3, [r2]
 3680 00da 3343     		orrs	r3, r3, r6
 3681 00dc 1360     		str	r3, [r2]
 3682 00de 03B0     		add	sp, sp, #12
 3683              		@ sp needed
 3684 00e0 BDE8F083 		pop	{r4, r5, r6, r7, r8, r9, pc}
 3685              	.L809:
 3686              		.align	2
 3687              	.L808:
 3688 00e4 0000FFFF 		.word	-65536
 3689 00e8 00000000 		.word	I2C_Master_ISR_IT
 3690 00ec 009C00FC 		.word	-67068928
 3691 00f0 00000000 		.word	I2C_Master_ISR_DMA
 3692 00f4 00000000 		.word	I2C_Slave_ISR_DMA
 3694              		.section	.text.HAL_I2C_Mem_Read_IT,"ax",%progbits
 3695              		.align	1
 3696              		.p2align 2,,3
 3697              		.global	HAL_I2C_Mem_Read_IT
 3698              		.syntax unified
ARM GAS  /tmp/ccNejxAl.s 			page 65


 3699              		.thumb
 3700              		.thumb_func
 3701              		.fpu fpv4-sp-d16
 3703              	HAL_I2C_Mem_Read_IT:
 3704              		@ args = 8, pretend = 0, frame = 0
 3705              		@ frame_needed = 0, uses_anonymous_args = 0
 3706 0000 2DE9F043 		push	{r4, r5, r6, r7, r8, r9, lr}
 3707 0004 0446     		mov	r4, r0
 3708 0006 90F84100 		ldrb	r0, [r0, #65]	@ zero_extendqisi2
 3709 000a 83B0     		sub	sp, sp, #12
 3710 000c 2028     		cmp	r0, #32
 3711 000e BDF82C90 		ldrh	r9, [sp, #44]
 3712 0012 44D1     		bne	.L819
 3713 0014 1E46     		mov	r6, r3
 3714 0016 0A9B     		ldr	r3, [sp, #40]
 3715 0018 002B     		cmp	r3, #0
 3716 001a 39D0     		beq	.L812
 3717 001c B9F1000F 		cmp	r9, #0
 3718 0020 36D0     		beq	.L812
 3719 0022 2368     		ldr	r3, [r4]
 3720 0024 9D69     		ldr	r5, [r3, #24]
 3721 0026 15F40045 		ands	r5, r5, #32768
 3722 002a 38D1     		bne	.L819
 3723 002c 94F84030 		ldrb	r3, [r4, #64]	@ zero_extendqisi2
 3724 0030 012B     		cmp	r3, #1
 3725 0032 34D0     		beq	.L819
 3726 0034 0123     		movs	r3, #1
 3727 0036 84F84030 		strb	r3, [r4, #64]
 3728 003a 1746     		mov	r7, r2
 3729 003c 8846     		mov	r8, r1
 3730 003e FFF7FEFF 		bl	HAL_GetTick
 3731 0042 0A9B     		ldr	r3, [sp, #40]
 3732 0044 6362     		str	r3, [r4, #36]
 3733 0046 2222     		movs	r2, #34
 3734 0048 84F84120 		strb	r2, [r4, #65]
 3735 004c 284B     		ldr	r3, .L825
 3736 004e 4022     		movs	r2, #64
 3737 0050 84F84220 		strb	r2, [r4, #66]
 3738 0054 6564     		str	r5, [r4, #68]
 3739 0056 A4F82A90 		strh	r9, [r4, #42]	@ movhi
 3740 005a E362     		str	r3, [r4, #44]
 3741 005c 638D     		ldrh	r3, [r4, #42]
 3742 005e 254A     		ldr	r2, .L825+4
 3743 0060 6263     		str	r2, [r4, #52]
 3744 0062 9BB2     		uxth	r3, r3
 3745 0064 FF2B     		cmp	r3, #255
 3746 0066 1ED8     		bhi	.L820
 3747 0068 638D     		ldrh	r3, [r4, #42]
 3748 006a 4FF00079 		mov	r9, #33554432
 3749 006e 9BB2     		uxth	r3, r3
 3750              	.L814:
 3751 0070 2385     		strh	r3, [r4, #40]	@ movhi
 3752 0072 3A46     		mov	r2, r7
 3753 0074 0090     		str	r0, [sp]
 3754 0076 3346     		mov	r3, r6
 3755 0078 4146     		mov	r1, r8
 3756 007a 2046     		mov	r0, r4
ARM GAS  /tmp/ccNejxAl.s 			page 66


 3757 007c FFF7FEFF 		bl	I2C_RequestMemoryRead.constprop.0
 3758 0080 A8B1     		cbz	r0, .L815
 3759 0082 0023     		movs	r3, #0
 3760 0084 0120     		movs	r0, #1
 3761 0086 84F84030 		strb	r3, [r4, #64]
 3762 008a 03B0     		add	sp, sp, #12
 3763              		@ sp needed
 3764 008c BDE8F083 		pop	{r4, r5, r6, r7, r8, r9, pc}
 3765              	.L812:
 3766 0090 4FF40073 		mov	r3, #512
 3767 0094 0120     		movs	r0, #1
 3768 0096 6364     		str	r3, [r4, #68]
 3769 0098 03B0     		add	sp, sp, #12
 3770              		@ sp needed
 3771 009a BDE8F083 		pop	{r4, r5, r6, r7, r8, r9, pc}
 3772              	.L819:
 3773 009e 0220     		movs	r0, #2
 3774 00a0 03B0     		add	sp, sp, #12
 3775              		@ sp needed
 3776 00a2 BDE8F083 		pop	{r4, r5, r6, r7, r8, r9, pc}
 3777              	.L820:
 3778 00a6 FF23     		movs	r3, #255
 3779 00a8 4FF08079 		mov	r9, #16777216
 3780 00ac E0E7     		b	.L814
 3781              	.L815:
 3782 00ae 2268     		ldr	r2, [r4]
 3783 00b0 114F     		ldr	r7, .L825+8
 3784 00b2 94F82860 		ldrb	r6, [r4, #40]	@ zero_extendqisi2
 3785 00b6 C8F30901 		ubfx	r1, r8, #0, #10
 3786 00ba 41EA0903 		orr	r3, r1, r9
 3787 00be 5168     		ldr	r1, [r2, #4]
 3788 00c0 3940     		ands	r1, r1, r7
 3789 00c2 0B43     		orrs	r3, r3, r1
 3790 00c4 43EA0643 		orr	r3, r3, r6, lsl #16
 3791 00c8 43F41053 		orr	r3, r3, #9216
 3792 00cc 5360     		str	r3, [r2, #4]
 3793 00ce 0B49     		ldr	r1, .L825+12
 3794 00d0 636B     		ldr	r3, [r4, #52]
 3795 00d2 84F84000 		strb	r0, [r4, #64]
 3796 00d6 8B42     		cmp	r3, r1
 3797 00d8 03D0     		beq	.L816
 3798 00da 0949     		ldr	r1, .L825+16
 3799 00dc 8B42     		cmp	r3, r1
 3800 00de 18BF     		it	ne
 3801 00e0 F425     		movne	r5, #244
 3802              	.L816:
 3803 00e2 1368     		ldr	r3, [r2]
 3804 00e4 2B43     		orrs	r3, r3, r5
 3805 00e6 1360     		str	r3, [r2]
 3806 00e8 03B0     		add	sp, sp, #12
 3807              		@ sp needed
 3808 00ea BDE8F083 		pop	{r4, r5, r6, r7, r8, r9, pc}
 3809              	.L826:
 3810 00ee 00BF     		.align	2
 3811              	.L825:
 3812 00f0 0000FFFF 		.word	-65536
 3813 00f4 00000000 		.word	I2C_Master_ISR_IT
ARM GAS  /tmp/ccNejxAl.s 			page 67


 3814 00f8 009800FC 		.word	-67069952
 3815 00fc 00000000 		.word	I2C_Master_ISR_DMA
 3816 0100 00000000 		.word	I2C_Slave_ISR_DMA
 3818              		.section	.text.HAL_I2C_Mem_Write_DMA,"ax",%progbits
 3819              		.align	1
 3820              		.p2align 2,,3
 3821              		.global	HAL_I2C_Mem_Write_DMA
 3822              		.syntax unified
 3823              		.thumb
 3824              		.thumb_func
 3825              		.fpu fpv4-sp-d16
 3827              	HAL_I2C_Mem_Write_DMA:
 3828              		@ args = 8, pretend = 0, frame = 0
 3829              		@ frame_needed = 0, uses_anonymous_args = 0
 3830 0000 2DE9F047 		push	{r4, r5, r6, r7, r8, r9, r10, lr}
 3831 0004 0446     		mov	r4, r0
 3832 0006 90F84100 		ldrb	r0, [r0, #65]	@ zero_extendqisi2
 3833 000a 82B0     		sub	sp, sp, #8
 3834 000c 2028     		cmp	r0, #32
 3835 000e BDF82C90 		ldrh	r9, [sp, #44]
 3836 0012 78D1     		bne	.L839
 3837 0014 1D46     		mov	r5, r3
 3838 0016 0A9B     		ldr	r3, [sp, #40]
 3839 0018 002B     		cmp	r3, #0
 3840 001a 6DD0     		beq	.L829
 3841 001c B9F1000F 		cmp	r9, #0
 3842 0020 6AD0     		beq	.L829
 3843 0022 2368     		ldr	r3, [r4]
 3844 0024 9B69     		ldr	r3, [r3, #24]
 3845 0026 13F40048 		ands	r8, r3, #32768
 3846 002a 6CD1     		bne	.L839
 3847 002c 94F84030 		ldrb	r3, [r4, #64]	@ zero_extendqisi2
 3848 0030 012B     		cmp	r3, #1
 3849 0032 68D0     		beq	.L839
 3850 0034 0123     		movs	r3, #1
 3851 0036 84F84030 		strb	r3, [r4, #64]
 3852 003a 1646     		mov	r6, r2
 3853 003c 0F46     		mov	r7, r1
 3854 003e FFF7FEFF 		bl	HAL_GetTick
 3855 0042 0A9B     		ldr	r3, [sp, #40]
 3856 0044 6362     		str	r3, [r4, #36]
 3857 0046 2122     		movs	r2, #33
 3858 0048 84F84120 		strb	r2, [r4, #65]
 3859 004c 434B     		ldr	r3, .L850
 3860 004e 4022     		movs	r2, #64
 3861 0050 84F84220 		strb	r2, [r4, #66]
 3862 0054 C4F84480 		str	r8, [r4, #68]
 3863 0058 A4F82A90 		strh	r9, [r4, #42]	@ movhi
 3864 005c E362     		str	r3, [r4, #44]
 3865 005e 638D     		ldrh	r3, [r4, #42]
 3866 0060 DFF80C91 		ldr	r9, .L850+20
 3867 0064 C4F83490 		str	r9, [r4, #52]
 3868 0068 9BB2     		uxth	r3, r3
 3869 006a FF2B     		cmp	r3, #255
 3870 006c 4FD8     		bhi	.L840
 3871 006e 638D     		ldrh	r3, [r4, #42]
 3872 0070 4FF0007A 		mov	r10, #33554432
ARM GAS  /tmp/ccNejxAl.s 			page 68


 3873 0074 9BB2     		uxth	r3, r3
 3874              	.L831:
 3875 0076 2385     		strh	r3, [r4, #40]	@ movhi
 3876 0078 3246     		mov	r2, r6
 3877 007a 0090     		str	r0, [sp]
 3878 007c 2B46     		mov	r3, r5
 3879 007e 3946     		mov	r1, r7
 3880 0080 2046     		mov	r0, r4
 3881 0082 FFF7FEFF 		bl	I2C_RequestMemoryWrite.constprop.0
 3882 0086 0546     		mov	r5, r0
 3883 0088 0028     		cmp	r0, #0
 3884 008a 44D1     		bne	.L848
 3885 008c A06B     		ldr	r0, [r4, #56]
 3886 008e 0028     		cmp	r0, #0
 3887 0090 53D0     		beq	.L833
 3888 0092 2268     		ldr	r2, [r4]
 3889 0094 324B     		ldr	r3, .L850+4
 3890 0096 C362     		str	r3, [r0, #44]
 3891 0098 324B     		ldr	r3, .L850+8
 3892 009a 4363     		str	r3, [r0, #52]
 3893 009c 0A99     		ldr	r1, [sp, #40]
 3894 009e 238D     		ldrh	r3, [r4, #40]
 3895 00a0 0563     		str	r5, [r0, #48]
 3896 00a2 8563     		str	r5, [r0, #56]
 3897 00a4 2832     		adds	r2, r2, #40
 3898 00a6 FFF7FEFF 		bl	HAL_DMA_Start_IT
 3899 00aa 0028     		cmp	r0, #0
 3900 00ac 38D1     		bne	.L849
 3901 00ae 2268     		ldr	r2, [r4]
 3902 00b0 2D4D     		ldr	r5, .L850+12
 3903 00b2 5168     		ldr	r1, [r2, #4]
 3904 00b4 C7F30903 		ubfx	r3, r7, #0, #10
 3905 00b8 2940     		ands	r1, r1, r5
 3906 00ba 0B43     		orrs	r3, r3, r1
 3907 00bc 218D     		ldrh	r1, [r4, #40]
 3908 00be 656B     		ldr	r5, [r4, #52]
 3909 00c0 CEB2     		uxtb	r6, r1
 3910 00c2 43EA0643 		orr	r3, r3, r6, lsl #16
 3911 00c6 43EA0A03 		orr	r3, r3, r10
 3912 00ca 5360     		str	r3, [r2, #4]
 3913 00cc 638D     		ldrh	r3, [r4, #42]
 3914 00ce 84F84000 		strb	r0, [r4, #64]
 3915 00d2 5B1A     		subs	r3, r3, r1
 3916 00d4 9BB2     		uxth	r3, r3
 3917 00d6 4D45     		cmp	r5, r9
 3918 00d8 6385     		strh	r3, [r4, #42]	@ movhi
 3919 00da 3BD0     		beq	.L841
 3920 00dc 234B     		ldr	r3, .L850+16
 3921 00de 9D42     		cmp	r5, r3
 3922 00e0 08BF     		it	eq
 3923 00e2 4FF09008 		moveq	r8, #144
 3924              	.L836:
 3925 00e6 1368     		ldr	r3, [r2]
 3926 00e8 43EA0803 		orr	r3, r3, r8
 3927 00ec 1360     		str	r3, [r2]
 3928 00ee 1368     		ldr	r3, [r2]
 3929 00f0 43F48043 		orr	r3, r3, #16384
ARM GAS  /tmp/ccNejxAl.s 			page 69


 3930 00f4 1360     		str	r3, [r2]
 3931 00f6 03E0     		b	.L828
 3932              	.L829:
 3933 00f8 4FF40073 		mov	r3, #512
 3934 00fc 6364     		str	r3, [r4, #68]
 3935 00fe 0120     		movs	r0, #1
 3936              	.L828:
 3937 0100 02B0     		add	sp, sp, #8
 3938              		@ sp needed
 3939 0102 BDE8F087 		pop	{r4, r5, r6, r7, r8, r9, r10, pc}
 3940              	.L839:
 3941 0106 0220     		movs	r0, #2
 3942 0108 02B0     		add	sp, sp, #8
 3943              		@ sp needed
 3944 010a BDE8F087 		pop	{r4, r5, r6, r7, r8, r9, r10, pc}
 3945              	.L840:
 3946 010e FF23     		movs	r3, #255
 3947 0110 4FF0807A 		mov	r10, #16777216
 3948 0114 AFE7     		b	.L831
 3949              	.L848:
 3950 0116 0023     		movs	r3, #0
 3951 0118 84F84030 		strb	r3, [r4, #64]
 3952 011c 0120     		movs	r0, #1
 3953 011e EFE7     		b	.L828
 3954              	.L849:
 3955 0120 2023     		movs	r3, #32
 3956 0122 84F84130 		strb	r3, [r4, #65]
 3957 0126 84F84250 		strb	r5, [r4, #66]
 3958 012a 636C     		ldr	r3, [r4, #68]
 3959 012c 84F84050 		strb	r5, [r4, #64]
 3960 0130 43F01003 		orr	r3, r3, #16
 3961 0134 6364     		str	r3, [r4, #68]
 3962 0136 0120     		movs	r0, #1
 3963 0138 E2E7     		b	.L828
 3964              	.L833:
 3965 013a 2023     		movs	r3, #32
 3966 013c 84F84130 		strb	r3, [r4, #65]
 3967 0140 84F84200 		strb	r0, [r4, #66]
 3968 0144 636C     		ldr	r3, [r4, #68]
 3969 0146 84F84000 		strb	r0, [r4, #64]
 3970 014a 43F08003 		orr	r3, r3, #128
 3971 014e 6364     		str	r3, [r4, #68]
 3972 0150 0120     		movs	r0, #1
 3973 0152 D5E7     		b	.L828
 3974              	.L841:
 3975 0154 4FF09008 		mov	r8, #144
 3976 0158 C5E7     		b	.L836
 3977              	.L851:
 3978 015a 00BF     		.align	2
 3979              	.L850:
 3980 015c 0000FFFF 		.word	-65536
 3981 0160 00000000 		.word	I2C_DMAMasterTransmitCplt
 3982 0164 00000000 		.word	I2C_DMAError
 3983 0168 009C00FC 		.word	-67068928
 3984 016c 00000000 		.word	I2C_Slave_ISR_DMA
 3985 0170 00000000 		.word	I2C_Master_ISR_DMA
 3987              		.section	.text.HAL_I2C_Mem_Read_DMA,"ax",%progbits
ARM GAS  /tmp/ccNejxAl.s 			page 70


 3988              		.align	1
 3989              		.p2align 2,,3
 3990              		.global	HAL_I2C_Mem_Read_DMA
 3991              		.syntax unified
 3992              		.thumb
 3993              		.thumb_func
 3994              		.fpu fpv4-sp-d16
 3996              	HAL_I2C_Mem_Read_DMA:
 3997              		@ args = 8, pretend = 0, frame = 0
 3998              		@ frame_needed = 0, uses_anonymous_args = 0
 3999 0000 2DE9F047 		push	{r4, r5, r6, r7, r8, r9, r10, lr}
 4000 0004 0446     		mov	r4, r0
 4001 0006 90F84100 		ldrb	r0, [r0, #65]	@ zero_extendqisi2
 4002 000a 82B0     		sub	sp, sp, #8
 4003 000c 2028     		cmp	r0, #32
 4004 000e BDF82C90 		ldrh	r9, [sp, #44]
 4005 0012 7AD1     		bne	.L864
 4006 0014 1D46     		mov	r5, r3
 4007 0016 0A9B     		ldr	r3, [sp, #40]
 4008 0018 002B     		cmp	r3, #0
 4009 001a 6FD0     		beq	.L854
 4010 001c B9F1000F 		cmp	r9, #0
 4011 0020 6CD0     		beq	.L854
 4012 0022 2368     		ldr	r3, [r4]
 4013 0024 9B69     		ldr	r3, [r3, #24]
 4014 0026 13F40048 		ands	r8, r3, #32768
 4015 002a 6ED1     		bne	.L864
 4016 002c 94F84030 		ldrb	r3, [r4, #64]	@ zero_extendqisi2
 4017 0030 012B     		cmp	r3, #1
 4018 0032 6AD0     		beq	.L864
 4019 0034 0123     		movs	r3, #1
 4020 0036 84F84030 		strb	r3, [r4, #64]
 4021 003a 1646     		mov	r6, r2
 4022 003c 0F46     		mov	r7, r1
 4023 003e FFF7FEFF 		bl	HAL_GetTick
 4024 0042 0A9B     		ldr	r3, [sp, #40]
 4025 0044 6362     		str	r3, [r4, #36]
 4026 0046 2222     		movs	r2, #34
 4027 0048 84F84120 		strb	r2, [r4, #65]
 4028 004c 444B     		ldr	r3, .L875
 4029 004e 4022     		movs	r2, #64
 4030 0050 84F84220 		strb	r2, [r4, #66]
 4031 0054 C4F84480 		str	r8, [r4, #68]
 4032 0058 A4F82A90 		strh	r9, [r4, #42]	@ movhi
 4033 005c E362     		str	r3, [r4, #44]
 4034 005e 638D     		ldrh	r3, [r4, #42]
 4035 0060 DFF81091 		ldr	r9, .L875+20
 4036 0064 C4F83490 		str	r9, [r4, #52]
 4037 0068 9BB2     		uxth	r3, r3
 4038 006a FF2B     		cmp	r3, #255
 4039 006c 51D8     		bhi	.L865
 4040 006e 638D     		ldrh	r3, [r4, #42]
 4041 0070 4FF0007A 		mov	r10, #33554432
 4042 0074 9BB2     		uxth	r3, r3
 4043              	.L856:
 4044 0076 2385     		strh	r3, [r4, #40]	@ movhi
 4045 0078 3246     		mov	r2, r6
ARM GAS  /tmp/ccNejxAl.s 			page 71


 4046 007a 0090     		str	r0, [sp]
 4047 007c 2B46     		mov	r3, r5
 4048 007e 3946     		mov	r1, r7
 4049 0080 2046     		mov	r0, r4
 4050 0082 FFF7FEFF 		bl	I2C_RequestMemoryRead.constprop.0
 4051 0086 0546     		mov	r5, r0
 4052 0088 0028     		cmp	r0, #0
 4053 008a 46D1     		bne	.L873
 4054 008c E06B     		ldr	r0, [r4, #60]
 4055 008e 0028     		cmp	r0, #0
 4056 0090 55D0     		beq	.L858
 4057 0092 2168     		ldr	r1, [r4]
 4058 0094 334B     		ldr	r3, .L875+4
 4059 0096 C362     		str	r3, [r0, #44]
 4060 0098 334B     		ldr	r3, .L875+8
 4061 009a 4363     		str	r3, [r0, #52]
 4062 009c 0A9A     		ldr	r2, [sp, #40]
 4063 009e 238D     		ldrh	r3, [r4, #40]
 4064 00a0 0563     		str	r5, [r0, #48]
 4065 00a2 8563     		str	r5, [r0, #56]
 4066 00a4 2431     		adds	r1, r1, #36
 4067 00a6 FFF7FEFF 		bl	HAL_DMA_Start_IT
 4068 00aa 0028     		cmp	r0, #0
 4069 00ac 3AD1     		bne	.L874
 4070 00ae 2268     		ldr	r2, [r4]
 4071 00b0 2E4D     		ldr	r5, .L875+12
 4072 00b2 5168     		ldr	r1, [r2, #4]
 4073 00b4 C7F30903 		ubfx	r3, r7, #0, #10
 4074 00b8 2940     		ands	r1, r1, r5
 4075 00ba 43EA0A03 		orr	r3, r3, r10
 4076 00be 0B43     		orrs	r3, r3, r1
 4077 00c0 218D     		ldrh	r1, [r4, #40]
 4078 00c2 656B     		ldr	r5, [r4, #52]
 4079 00c4 CEB2     		uxtb	r6, r1
 4080 00c6 43EA0643 		orr	r3, r3, r6, lsl #16
 4081 00ca 43F41053 		orr	r3, r3, #9216
 4082 00ce 5360     		str	r3, [r2, #4]
 4083 00d0 638D     		ldrh	r3, [r4, #42]
 4084 00d2 84F84000 		strb	r0, [r4, #64]
 4085 00d6 5B1A     		subs	r3, r3, r1
 4086 00d8 9BB2     		uxth	r3, r3
 4087 00da 4D45     		cmp	r5, r9
 4088 00dc 6385     		strh	r3, [r4, #42]	@ movhi
 4089 00de 3BD0     		beq	.L866
 4090 00e0 234B     		ldr	r3, .L875+16
 4091 00e2 9D42     		cmp	r5, r3
 4092 00e4 08BF     		it	eq
 4093 00e6 4FF09008 		moveq	r8, #144
 4094              	.L861:
 4095 00ea 1368     		ldr	r3, [r2]
 4096 00ec 43EA0803 		orr	r3, r3, r8
 4097 00f0 1360     		str	r3, [r2]
 4098 00f2 1368     		ldr	r3, [r2]
 4099 00f4 43F40043 		orr	r3, r3, #32768
 4100 00f8 1360     		str	r3, [r2]
 4101 00fa 03E0     		b	.L853
 4102              	.L854:
ARM GAS  /tmp/ccNejxAl.s 			page 72


 4103 00fc 4FF40073 		mov	r3, #512
 4104 0100 6364     		str	r3, [r4, #68]
 4105 0102 0120     		movs	r0, #1
 4106              	.L853:
 4107 0104 02B0     		add	sp, sp, #8
 4108              		@ sp needed
 4109 0106 BDE8F087 		pop	{r4, r5, r6, r7, r8, r9, r10, pc}
 4110              	.L864:
 4111 010a 0220     		movs	r0, #2
 4112 010c 02B0     		add	sp, sp, #8
 4113              		@ sp needed
 4114 010e BDE8F087 		pop	{r4, r5, r6, r7, r8, r9, r10, pc}
 4115              	.L865:
 4116 0112 FF23     		movs	r3, #255
 4117 0114 4FF0807A 		mov	r10, #16777216
 4118 0118 ADE7     		b	.L856
 4119              	.L873:
 4120 011a 0023     		movs	r3, #0
 4121 011c 84F84030 		strb	r3, [r4, #64]
 4122 0120 0120     		movs	r0, #1
 4123 0122 EFE7     		b	.L853
 4124              	.L874:
 4125 0124 2023     		movs	r3, #32
 4126 0126 84F84130 		strb	r3, [r4, #65]
 4127 012a 84F84250 		strb	r5, [r4, #66]
 4128 012e 636C     		ldr	r3, [r4, #68]
 4129 0130 84F84050 		strb	r5, [r4, #64]
 4130 0134 43F01003 		orr	r3, r3, #16
 4131 0138 6364     		str	r3, [r4, #68]
 4132 013a 0120     		movs	r0, #1
 4133 013c E2E7     		b	.L853
 4134              	.L858:
 4135 013e 2023     		movs	r3, #32
 4136 0140 84F84130 		strb	r3, [r4, #65]
 4137 0144 84F84200 		strb	r0, [r4, #66]
 4138 0148 636C     		ldr	r3, [r4, #68]
 4139 014a 84F84000 		strb	r0, [r4, #64]
 4140 014e 43F08003 		orr	r3, r3, #128
 4141 0152 6364     		str	r3, [r4, #68]
 4142 0154 0120     		movs	r0, #1
 4143 0156 D5E7     		b	.L853
 4144              	.L866:
 4145 0158 4FF09008 		mov	r8, #144
 4146 015c C5E7     		b	.L861
 4147              	.L876:
 4148 015e 00BF     		.align	2
 4149              	.L875:
 4150 0160 0000FFFF 		.word	-65536
 4151 0164 00000000 		.word	I2C_DMAMasterReceiveCplt
 4152 0168 00000000 		.word	I2C_DMAError
 4153 016c 009800FC 		.word	-67069952
 4154 0170 00000000 		.word	I2C_Slave_ISR_DMA
 4155 0174 00000000 		.word	I2C_Master_ISR_DMA
 4157              		.section	.text.HAL_I2C_IsDeviceReady,"ax",%progbits
 4158              		.align	1
 4159              		.p2align 2,,3
 4160              		.global	HAL_I2C_IsDeviceReady
ARM GAS  /tmp/ccNejxAl.s 			page 73


 4161              		.syntax unified
 4162              		.thumb
 4163              		.thumb_func
 4164              		.fpu fpv4-sp-d16
 4166              	HAL_I2C_IsDeviceReady:
 4167              		@ args = 0, pretend = 0, frame = 8
 4168              		@ frame_needed = 0, uses_anonymous_args = 0
 4169 0000 2DE9F047 		push	{r4, r5, r6, r7, r8, r9, r10, lr}
 4170 0004 82B0     		sub	sp, sp, #8
 4171 0006 0546     		mov	r5, r0
 4172 0008 0020     		movs	r0, #0
 4173 000a 0190     		str	r0, [sp, #4]
 4174 000c 95F84100 		ldrb	r0, [r5, #65]	@ zero_extendqisi2
 4175 0010 2028     		cmp	r0, #32
 4176 0012 4AD1     		bne	.L911
 4177 0014 2C68     		ldr	r4, [r5]
 4178 0016 1E46     		mov	r6, r3
 4179 0018 A369     		ldr	r3, [r4, #24]
 4180 001a 13F40043 		ands	r3, r3, #32768
 4181 001e 44D1     		bne	.L911
 4182 0020 9146     		mov	r9, r2
 4183 0022 95F84020 		ldrb	r2, [r5, #64]	@ zero_extendqisi2
 4184 0026 012A     		cmp	r2, #1
 4185 0028 3FD0     		beq	.L911
 4186 002a 0122     		movs	r2, #1
 4187 002c C1F30908 		ubfx	r8, r1, #0, #10
 4188 0030 85F84020 		strb	r2, [r5, #64]
 4189 0034 48F0007A 		orr	r10, r8, #33554432
 4190 0038 2422     		movs	r2, #36
 4191 003a 85F84120 		strb	r2, [r5, #65]
 4192 003e 4AF4005A 		orr	r10, r10, #8192
 4193 0042 6B64     		str	r3, [r5, #68]
 4194              	.L908:
 4195 0044 EB68     		ldr	r3, [r5, #12]
 4196 0046 012B     		cmp	r3, #1
 4197 0048 0CBF     		ite	eq
 4198 004a 5346     		moveq	r3, r10
 4199 004c 48F42053 		orrne	r3, r8, #10240
 4200 0050 6360     		str	r3, [r4, #4]
 4201 0052 FFF7FEFF 		bl	HAL_GetTick
 4202 0056 2C68     		ldr	r4, [r5]
 4203 0058 A369     		ldr	r3, [r4, #24]
 4204 005a A269     		ldr	r2, [r4, #24]
 4205 005c 03F02003 		and	r3, r3, #32
 4206 0060 02F01002 		and	r2, r2, #16
 4207 0064 1343     		orrs	r3, r3, r2
 4208 0066 0746     		mov	r7, r0
 4209 0068 2BD1     		bne	.L881
 4210 006a 711C     		adds	r1, r6, #1
 4211 006c 21D0     		beq	.L883
 4212 006e 4EB9     		cbnz	r6, .L887
 4213 0070 48E0     		b	.L885
 4214              	.L933:
 4215 0072 2C68     		ldr	r4, [r5]
 4216 0074 A369     		ldr	r3, [r4, #24]
 4217 0076 A269     		ldr	r2, [r4, #24]
 4218 0078 03F02003 		and	r3, r3, #32
ARM GAS  /tmp/ccNejxAl.s 			page 74


 4219 007c 02F01002 		and	r2, r2, #16
 4220 0080 1343     		orrs	r3, r3, r2
 4221 0082 1ED1     		bne	.L881
 4222              	.L887:
 4223 0084 FFF7FEFF 		bl	HAL_GetTick
 4224 0088 C01B     		subs	r0, r0, r7
 4225 008a 8642     		cmp	r6, r0
 4226 008c F1D2     		bcs	.L933
 4227              	.L932:
 4228 008e 2023     		movs	r3, #32
 4229 0090 85F84130 		strb	r3, [r5, #65]
 4230 0094 6B6C     		ldr	r3, [r5, #68]
 4231 0096 0022     		movs	r2, #0
 4232 0098 43F02003 		orr	r3, r3, #32
 4233 009c 0120     		movs	r0, #1
 4234 009e 6B64     		str	r3, [r5, #68]
 4235 00a0 85F84020 		strb	r2, [r5, #64]
 4236 00a4 02B0     		add	sp, sp, #8
 4237              		@ sp needed
 4238 00a6 BDE8F087 		pop	{r4, r5, r6, r7, r8, r9, r10, pc}
 4239              	.L911:
 4240 00aa 0220     		movs	r0, #2
 4241              	.L878:
 4242 00ac 02B0     		add	sp, sp, #8
 4243              		@ sp needed
 4244 00ae BDE8F087 		pop	{r4, r5, r6, r7, r8, r9, r10, pc}
 4245              	.L883:
 4246 00b2 A369     		ldr	r3, [r4, #24]
 4247 00b4 A169     		ldr	r1, [r4, #24]
 4248 00b6 03F02003 		and	r3, r3, #32
 4249 00ba 01F01001 		and	r1, r1, #16
 4250 00be 1943     		orrs	r1, r1, r3
 4251 00c0 F7D0     		beq	.L883
 4252              	.L881:
 4253 00c2 A369     		ldr	r3, [r4, #24]
 4254 00c4 DA06     		lsls	r2, r3, #27
 4255 00c6 50D5     		bpl	.L888
 4256              	.L889:
 4257 00c8 721C     		adds	r2, r6, #1
 4258 00ca 10D1     		bne	.L896
 4259              	.L897:
 4260 00cc A369     		ldr	r3, [r4, #24]
 4261 00ce 9B06     		lsls	r3, r3, #26
 4262 00d0 FCD5     		bpl	.L897
 4263              	.L898:
 4264 00d2 1023     		movs	r3, #16
 4265 00d4 E361     		str	r3, [r4, #28]
 4266 00d6 2023     		movs	r3, #32
 4267 00d8 E361     		str	r3, [r4, #28]
 4268 00da 019B     		ldr	r3, [sp, #4]
 4269 00dc 4B45     		cmp	r3, r9
 4270 00de 14D0     		beq	.L934
 4271              	.L900:
 4272 00e0 019B     		ldr	r3, [sp, #4]
 4273 00e2 0133     		adds	r3, r3, #1
 4274 00e4 0193     		str	r3, [sp, #4]
 4275 00e6 019B     		ldr	r3, [sp, #4]
ARM GAS  /tmp/ccNejxAl.s 			page 75


 4276 00e8 4B45     		cmp	r3, r9
 4277 00ea ABD3     		bcc	.L908
 4278 00ec CFE7     		b	.L932
 4279              	.L896:
 4280 00ee A369     		ldr	r3, [r4, #24]
 4281 00f0 9806     		lsls	r0, r3, #26
 4282 00f2 EED4     		bmi	.L898
 4283 00f4 FFF7FEFF 		bl	HAL_GetTick
 4284 00f8 C01B     		subs	r0, r0, r7
 4285 00fa 8642     		cmp	r6, r0
 4286 00fc 1CD3     		bcc	.L902
 4287 00fe DEB1     		cbz	r6, .L902
 4288 0100 2C68     		ldr	r4, [r5]
 4289 0102 E1E7     		b	.L889
 4290              	.L885:
 4291 0104 FFF7FEFF 		bl	HAL_GetTick
 4292 0108 C1E7     		b	.L932
 4293              	.L934:
 4294 010a 6368     		ldr	r3, [r4, #4]
 4295 010c 43F48043 		orr	r3, r3, #16384
 4296 0110 6360     		str	r3, [r4, #4]
 4297              	.L901:
 4298 0112 711C     		adds	r1, r6, #1
 4299 0114 05D1     		bne	.L904
 4300              	.L905:
 4301 0116 A369     		ldr	r3, [r4, #24]
 4302 0118 9A06     		lsls	r2, r3, #26
 4303 011a FCD5     		bpl	.L905
 4304              	.L906:
 4305 011c 2023     		movs	r3, #32
 4306 011e E361     		str	r3, [r4, #28]
 4307 0120 DEE7     		b	.L900
 4308              	.L904:
 4309 0122 A369     		ldr	r3, [r4, #24]
 4310 0124 9B06     		lsls	r3, r3, #26
 4311 0126 F9D4     		bmi	.L906
 4312 0128 FFF7FEFF 		bl	HAL_GetTick
 4313 012c C01B     		subs	r0, r0, r7
 4314 012e 8642     		cmp	r6, r0
 4315 0130 02D3     		bcc	.L902
 4316 0132 0EB1     		cbz	r6, .L902
 4317 0134 2C68     		ldr	r4, [r5]
 4318 0136 ECE7     		b	.L901
 4319              	.L902:
 4320 0138 6B6C     		ldr	r3, [r5, #68]
 4321 013a 0022     		movs	r2, #0
 4322 013c 43F02003 		orr	r3, r3, #32
 4323 0140 2021     		movs	r1, #32
 4324 0142 6B64     		str	r3, [r5, #68]
 4325 0144 85F84020 		strb	r2, [r5, #64]
 4326 0148 85F84110 		strb	r1, [r5, #65]
 4327 014c 0120     		movs	r0, #1
 4328 014e 85F84220 		strb	r2, [r5, #66]
 4329 0152 ABE7     		b	.L878
 4330              	.L891:
 4331 0154 A369     		ldr	r3, [r4, #24]
 4332 0156 9906     		lsls	r1, r3, #26
ARM GAS  /tmp/ccNejxAl.s 			page 76


 4333 0158 0CD4     		bmi	.L893
 4334 015a FFF7FEFF 		bl	HAL_GetTick
 4335 015e C01B     		subs	r0, r0, r7
 4336 0160 8642     		cmp	r6, r0
 4337 0162 E9D3     		bcc	.L902
 4338 0164 002E     		cmp	r6, #0
 4339 0166 E7D0     		beq	.L902
 4340 0168 2C68     		ldr	r4, [r5]
 4341              	.L888:
 4342 016a 731C     		adds	r3, r6, #1
 4343 016c F2D1     		bne	.L891
 4344              	.L892:
 4345 016e A369     		ldr	r3, [r4, #24]
 4346 0170 9806     		lsls	r0, r3, #26
 4347 0172 FCD5     		bpl	.L892
 4348              	.L893:
 4349 0174 2022     		movs	r2, #32
 4350 0176 0023     		movs	r3, #0
 4351 0178 E261     		str	r2, [r4, #28]
 4352 017a 1846     		mov	r0, r3
 4353 017c 85F84120 		strb	r2, [r5, #65]
 4354 0180 85F84030 		strb	r3, [r5, #64]
 4355 0184 92E7     		b	.L878
 4357 0186 00BF     		.section	.text.HAL_I2C_Master_Seq_Transmit_IT,"ax",%progbits
 4358              		.align	1
 4359              		.p2align 2,,3
 4360              		.global	HAL_I2C_Master_Seq_Transmit_IT
 4361              		.syntax unified
 4362              		.thumb
 4363              		.thumb_func
 4364              		.fpu fpv4-sp-d16
 4366              	HAL_I2C_Master_Seq_Transmit_IT:
 4367              		@ args = 4, pretend = 0, frame = 0
 4368              		@ frame_needed = 0, uses_anonymous_args = 0
 4369 0000 8446     		mov	ip, r0
 4370 0002 90F84100 		ldrb	r0, [r0, #65]	@ zero_extendqisi2
 4371 0006 2028     		cmp	r0, #32
 4372 0008 6ED1     		bne	.L943
 4373 000a 9CF84000 		ldrb	r0, [ip, #64]	@ zero_extendqisi2
 4374 000e 0128     		cmp	r0, #1
 4375 0010 6AD0     		beq	.L943
 4376 0012 0120     		movs	r0, #1
 4377 0014 30B5     		push	{r4, r5, lr}
 4378 0016 8CF84000 		strb	r0, [ip, #64]
 4379 001a 2120     		movs	r0, #33
 4380 001c 8CF84100 		strb	r0, [ip, #65]
 4381 0020 1020     		movs	r0, #16
 4382 0022 8CF84200 		strb	r0, [ip, #66]
 4383 0026 0020     		movs	r0, #0
 4384 0028 CCF84400 		str	r0, [ip, #68]
 4385 002c ACF82A30 		strh	r3, [ip, #42]	@ movhi
 4386 0030 039B     		ldr	r3, [sp, #12]
 4387 0032 CCF82C30 		str	r3, [ip, #44]
 4388 0036 BCF82A00 		ldrh	r0, [ip, #42]
 4389 003a 304B     		ldr	r3, .L956
 4390 003c CCF82420 		str	r2, [ip, #36]
 4391 0040 80B2     		uxth	r0, r0
ARM GAS  /tmp/ccNejxAl.s 			page 77


 4392 0042 FF28     		cmp	r0, #255
 4393 0044 CCF83430 		str	r3, [ip, #52]
 4394 0048 3AD8     		bhi	.L944
 4395 004a BCF82A30 		ldrh	r3, [ip, #42]
 4396 004e DCF82C00 		ldr	r0, [ip, #44]
 4397 0052 DAB2     		uxtb	r2, r3
 4398 0054 9BB2     		uxth	r3, r3
 4399 0056 ACF82830 		strh	r3, [ip, #40]	@ movhi
 4400 005a DCF83030 		ldr	r3, [ip, #48]
 4401 005e 112B     		cmp	r3, #17
 4402 0060 4FEA0242 		lsl	r2, r2, #16
 4403 0064 37D0     		beq	.L954
 4404              	.L938:
 4405 0066 DCF82C30 		ldr	r3, [ip, #44]
 4406 006a AA2B     		cmp	r3, #170
 4407 006c 41D0     		beq	.L955
 4408 006e DCF82C30 		ldr	r3, [ip, #44]
 4409 0072 B3F52A4F 		cmp	r3, #43520
 4410 0076 04BF     		itt	eq
 4411 0078 4FF00073 		moveq	r3, #33554432
 4412 007c CCF82C30 		streq	r3, [ip, #44]
 4413              	.L941:
 4414 0080 BCF82A30 		ldrh	r3, [ip, #42]
 4415 0084 9BB2     		uxth	r3, r3
 4416 0086 FF2B     		cmp	r3, #255
 4417 0088 30D8     		bhi	.L946
 4418 008a DCF82C00 		ldr	r0, [ip, #44]
 4419 008e 1C4C     		ldr	r4, .L956+4
 4420 0090 1C4D     		ldr	r5, .L956+8
 4421              	.L939:
 4422 0092 C1F30903 		ubfx	r3, r1, #0, #10
 4423 0096 1343     		orrs	r3, r3, r2
 4424 0098 DCF80020 		ldr	r2, [ip]
 4425 009c 0343     		orrs	r3, r3, r0
 4426 009e 5168     		ldr	r1, [r2, #4]
 4427 00a0 2B43     		orrs	r3, r3, r5
 4428 00a2 2140     		ands	r1, r1, r4
 4429 00a4 23F00043 		bic	r3, r3, #-2147483648
 4430 00a8 4FF0000E 		mov	lr, #0
 4431 00ac 0B43     		orrs	r3, r3, r1
 4432 00ae 5360     		str	r3, [r2, #4]
 4433 00b0 8CF840E0 		strb	lr, [ip, #64]
 4434 00b4 1368     		ldr	r3, [r2]
 4435 00b6 43F0F203 		orr	r3, r3, #242
 4436 00ba 7046     		mov	r0, lr
 4437 00bc 1360     		str	r3, [r2]
 4438 00be 30BD     		pop	{r4, r5, pc}
 4439              	.L944:
 4440 00c0 FF23     		movs	r3, #255
 4441 00c2 ACF82830 		strh	r3, [ip, #40]	@ movhi
 4442 00c6 DCF83030 		ldr	r3, [ip, #48]
 4443 00ca 112B     		cmp	r3, #17
 4444 00cc 4FF47F02 		mov	r2, #16711680
 4445 00d0 4FF08070 		mov	r0, #16777216
 4446 00d4 C7D1     		bne	.L938
 4447              	.L954:
 4448 00d6 039B     		ldr	r3, [sp, #12]
ARM GAS  /tmp/ccNejxAl.s 			page 78


 4449 00d8 AA2B     		cmp	r3, #170
 4450 00da C4D0     		beq	.L938
 4451 00dc B3F52A4F 		cmp	r3, #43520
 4452 00e0 C1D0     		beq	.L938
 4453 00e2 094C     		ldr	r4, .L956+12
 4454 00e4 0025     		movs	r5, #0
 4455 00e6 D4E7     		b	.L939
 4456              	.L943:
 4457 00e8 0220     		movs	r0, #2
 4458 00ea 7047     		bx	lr
 4459              	.L946:
 4460 00ec 044C     		ldr	r4, .L956+4
 4461 00ee 054D     		ldr	r5, .L956+8
 4462 00f0 CFE7     		b	.L939
 4463              	.L955:
 4464 00f2 0023     		movs	r3, #0
 4465 00f4 CCF82C30 		str	r3, [ip, #44]
 4466 00f8 C2E7     		b	.L941
 4467              	.L957:
 4468 00fa 00BF     		.align	2
 4469              	.L956:
 4470 00fc 00000000 		.word	I2C_Master_ISR_IT
 4471 0100 009800FC 		.word	-67069952
 4472 0104 00200080 		.word	-2147475456
 4473 0108 009C00FC 		.word	-67068928
 4475              		.section	.text.HAL_I2C_Master_Seq_Transmit_DMA,"ax",%progbits
 4476              		.align	1
 4477              		.p2align 2,,3
 4478              		.global	HAL_I2C_Master_Seq_Transmit_DMA
 4479              		.syntax unified
 4480              		.thumb
 4481              		.thumb_func
 4482              		.fpu fpv4-sp-d16
 4484              	HAL_I2C_Master_Seq_Transmit_DMA:
 4485              		@ args = 4, pretend = 0, frame = 0
 4486              		@ frame_needed = 0, uses_anonymous_args = 0
 4487 0000 2DE9F047 		push	{r4, r5, r6, r7, r8, r9, r10, lr}
 4488 0004 0446     		mov	r4, r0
 4489 0006 90F84100 		ldrb	r0, [r0, #65]	@ zero_extendqisi2
 4490 000a 2028     		cmp	r0, #32
 4491 000c 40F0A280 		bne	.L971
 4492 0010 0D46     		mov	r5, r1
 4493 0012 94F84010 		ldrb	r1, [r4, #64]	@ zero_extendqisi2
 4494 0016 0129     		cmp	r1, #1
 4495 0018 00F09C80 		beq	.L971
 4496 001c 0121     		movs	r1, #1
 4497 001e 84F84010 		strb	r1, [r4, #64]
 4498 0022 2121     		movs	r1, #33
 4499 0024 84F84110 		strb	r1, [r4, #65]
 4500 0028 1021     		movs	r1, #16
 4501 002a 84F84210 		strb	r1, [r4, #66]
 4502 002e 0021     		movs	r1, #0
 4503 0030 6164     		str	r1, [r4, #68]
 4504 0032 6385     		strh	r3, [r4, #42]	@ movhi
 4505 0034 089B     		ldr	r3, [sp, #32]
 4506 0036 E362     		str	r3, [r4, #44]
 4507 0038 638D     		ldrh	r3, [r4, #42]
ARM GAS  /tmp/ccNejxAl.s 			page 79


 4508 003a 5A4E     		ldr	r6, .L986
 4509 003c 6262     		str	r2, [r4, #36]
 4510 003e 9BB2     		uxth	r3, r3
 4511 0040 FF2B     		cmp	r3, #255
 4512 0042 6663     		str	r6, [r4, #52]
 4513 0044 5DD8     		bhi	.L972
 4514 0046 608D     		ldrh	r0, [r4, #42]
 4515 0048 D4F82C80 		ldr	r8, [r4, #44]
 4516 004c 216B     		ldr	r1, [r4, #48]
 4517 004e 83B2     		uxth	r3, r0
 4518 0050 1129     		cmp	r1, #17
 4519 0052 2385     		strh	r3, [r4, #40]	@ movhi
 4520 0054 5CD0     		beq	.L982
 4521              	.L961:
 4522 0056 E16A     		ldr	r1, [r4, #44]
 4523 0058 AA29     		cmp	r1, #170
 4524 005a 00F09080 		beq	.L983
 4525 005e E16A     		ldr	r1, [r4, #44]
 4526 0060 B1F52A4F 		cmp	r1, #43520
 4527 0064 04BF     		itt	eq
 4528 0066 4FF00071 		moveq	r1, #33554432
 4529 006a E162     		streq	r1, [r4, #44]
 4530              	.L964:
 4531 006c 618D     		ldrh	r1, [r4, #42]
 4532 006e 89B2     		uxth	r1, r1
 4533 0070 FF29     		cmp	r1, #255
 4534 0072 72D8     		bhi	.L974
 4535 0074 D4F82C80 		ldr	r8, [r4, #44]
 4536 0078 4B4F     		ldr	r7, .L986+4
 4537 007a DFF83C91 		ldr	r9, .L986+20
 4538              	.L962:
 4539 007e 002B     		cmp	r3, #0
 4540 0080 51D0     		beq	.L965
 4541              	.L985:
 4542 0082 A06B     		ldr	r0, [r4, #56]
 4543 0084 0028     		cmp	r0, #0
 4544 0086 7DD0     		beq	.L966
 4545 0088 DFF830C1 		ldr	ip, .L986+24
 4546 008c 1146     		mov	r1, r2
 4547 008e 2268     		ldr	r2, [r4]
 4548 0090 C0F82CC0 		str	ip, [r0, #44]
 4549 0094 4FF0000A 		mov	r10, #0
 4550 0098 DFF824C1 		ldr	ip, .L986+28
 4551 009c C0F830A0 		str	r10, [r0, #48]
 4552 00a0 2832     		adds	r2, r2, #40
 4553 00a2 C0F838A0 		str	r10, [r0, #56]
 4554 00a6 C0F834C0 		str	ip, [r0, #52]
 4555 00aa FFF7FEFF 		bl	HAL_DMA_Start_IT
 4556 00ae 0028     		cmp	r0, #0
 4557 00b0 57D1     		bne	.L984
 4558 00b2 218D     		ldrh	r1, [r4, #40]
 4559 00b4 2268     		ldr	r2, [r4]
 4560 00b6 C5F30903 		ubfx	r3, r5, #0, #10
 4561 00ba CDB2     		uxtb	r5, r1
 4562 00bc 43EA0543 		orr	r3, r3, r5, lsl #16
 4563 00c0 43EA0803 		orr	r3, r3, r8
 4564 00c4 5568     		ldr	r5, [r2, #4]
ARM GAS  /tmp/ccNejxAl.s 			page 80


 4565 00c6 43EA0903 		orr	r3, r3, r9
 4566 00ca 23F00043 		bic	r3, r3, #-2147483648
 4567 00ce 2F40     		ands	r7, r7, r5
 4568 00d0 3B43     		orrs	r3, r3, r7
 4569 00d2 5360     		str	r3, [r2, #4]
 4570 00d4 638D     		ldrh	r3, [r4, #42]
 4571 00d6 84F84000 		strb	r0, [r4, #64]
 4572 00da 5B1A     		subs	r3, r3, r1
 4573 00dc 9BB2     		uxth	r3, r3
 4574 00de 6385     		strh	r3, [r4, #42]	@ movhi
 4575 00e0 636B     		ldr	r3, [r4, #52]
 4576 00e2 B342     		cmp	r3, r6
 4577 00e4 5CD0     		beq	.L975
 4578 00e6 3149     		ldr	r1, .L986+8
 4579 00e8 8B42     		cmp	r3, r1
 4580 00ea 0CBF     		ite	eq
 4581 00ec 9023     		moveq	r3, #144
 4582 00ee 0023     		movne	r3, #0
 4583              	.L969:
 4584 00f0 1168     		ldr	r1, [r2]
 4585 00f2 0B43     		orrs	r3, r3, r1
 4586 00f4 1360     		str	r3, [r2]
 4587 00f6 1368     		ldr	r3, [r2]
 4588 00f8 43F48043 		orr	r3, r3, #16384
 4589 00fc 1360     		str	r3, [r2]
 4590 00fe BDE8F087 		pop	{r4, r5, r6, r7, r8, r9, r10, pc}
 4591              	.L972:
 4592 0102 216B     		ldr	r1, [r4, #48]
 4593 0104 FF23     		movs	r3, #255
 4594 0106 1129     		cmp	r1, #17
 4595 0108 4FF08078 		mov	r8, #16777216
 4596 010c 2385     		strh	r3, [r4, #40]	@ movhi
 4597 010e A2D1     		bne	.L961
 4598              	.L982:
 4599 0110 0899     		ldr	r1, [sp, #32]
 4600 0112 AA29     		cmp	r1, #170
 4601 0114 9FD0     		beq	.L961
 4602 0116 B1F52A4F 		cmp	r1, #43520
 4603 011a 9CD0     		beq	.L961
 4604 011c 244F     		ldr	r7, .L986+12
 4605 011e 4FF00009 		mov	r9, #0
 4606 0122 002B     		cmp	r3, #0
 4607 0124 ADD1     		bne	.L985
 4608              	.L965:
 4609 0126 2268     		ldr	r2, [r4]
 4610 0128 2248     		ldr	r0, .L986+16
 4611 012a 5168     		ldr	r1, [r2, #4]
 4612 012c 6063     		str	r0, [r4, #52]
 4613 012e 1E48     		ldr	r0, .L986+4
 4614 0130 C5F30905 		ubfx	r5, r5, #0, #10
 4615 0134 0140     		ands	r1, r1, r0
 4616 0136 0D43     		orrs	r5, r5, r1
 4617 0138 45F00075 		orr	r5, r5, #33554432
 4618 013c 45F40055 		orr	r5, r5, #8192
 4619 0140 5560     		str	r5, [r2, #4]
 4620 0142 84F84030 		strb	r3, [r4, #64]
 4621 0146 1168     		ldr	r1, [r2]
ARM GAS  /tmp/ccNejxAl.s 			page 81


 4622 0148 41F0F201 		orr	r1, r1, #242
 4623 014c 1846     		mov	r0, r3
 4624 014e 1160     		str	r1, [r2]
 4625 0150 BDE8F087 		pop	{r4, r5, r6, r7, r8, r9, r10, pc}
 4626              	.L971:
 4627 0154 0220     		movs	r0, #2
 4628 0156 BDE8F087 		pop	{r4, r5, r6, r7, r8, r9, r10, pc}
 4629              	.L974:
 4630 015a 134F     		ldr	r7, .L986+4
 4631 015c DFF85890 		ldr	r9, .L986+20
 4632 0160 8DE7     		b	.L962
 4633              	.L984:
 4634 0162 2023     		movs	r3, #32
 4635 0164 84F84130 		strb	r3, [r4, #65]
 4636 0168 84F842A0 		strb	r10, [r4, #66]
 4637 016c 636C     		ldr	r3, [r4, #68]
 4638 016e 84F840A0 		strb	r10, [r4, #64]
 4639 0172 43F01003 		orr	r3, r3, #16
 4640 0176 6364     		str	r3, [r4, #68]
 4641 0178 0120     		movs	r0, #1
 4642 017a BDE8F087 		pop	{r4, r5, r6, r7, r8, r9, r10, pc}
 4643              	.L983:
 4644 017e 0021     		movs	r1, #0
 4645 0180 E162     		str	r1, [r4, #44]
 4646 0182 73E7     		b	.L964
 4647              	.L966:
 4648 0184 2023     		movs	r3, #32
 4649 0186 84F84130 		strb	r3, [r4, #65]
 4650 018a 84F84200 		strb	r0, [r4, #66]
 4651 018e 636C     		ldr	r3, [r4, #68]
 4652 0190 84F84000 		strb	r0, [r4, #64]
 4653 0194 43F08003 		orr	r3, r3, #128
 4654 0198 6364     		str	r3, [r4, #68]
 4655 019a 0120     		movs	r0, #1
 4656 019c BDE8F087 		pop	{r4, r5, r6, r7, r8, r9, r10, pc}
 4657              	.L975:
 4658 01a0 9023     		movs	r3, #144
 4659 01a2 A5E7     		b	.L969
 4660              	.L987:
 4661              		.align	2
 4662              	.L986:
 4663 01a4 00000000 		.word	I2C_Master_ISR_DMA
 4664 01a8 009800FC 		.word	-67069952
 4665 01ac 00000000 		.word	I2C_Slave_ISR_DMA
 4666 01b0 009C00FC 		.word	-67068928
 4667 01b4 00000000 		.word	I2C_Master_ISR_IT
 4668 01b8 00200080 		.word	-2147475456
 4669 01bc 00000000 		.word	I2C_DMAMasterTransmitCplt
 4670 01c0 00000000 		.word	I2C_DMAError
 4672              		.section	.text.HAL_I2C_Master_Seq_Receive_IT,"ax",%progbits
 4673              		.align	1
 4674              		.p2align 2,,3
 4675              		.global	HAL_I2C_Master_Seq_Receive_IT
 4676              		.syntax unified
 4677              		.thumb
 4678              		.thumb_func
 4679              		.fpu fpv4-sp-d16
ARM GAS  /tmp/ccNejxAl.s 			page 82


 4681              	HAL_I2C_Master_Seq_Receive_IT:
 4682              		@ args = 4, pretend = 0, frame = 0
 4683              		@ frame_needed = 0, uses_anonymous_args = 0
 4684 0000 8446     		mov	ip, r0
 4685 0002 90F84100 		ldrb	r0, [r0, #65]	@ zero_extendqisi2
 4686 0006 2028     		cmp	r0, #32
 4687 0008 6ED1     		bne	.L996
 4688 000a 9CF84000 		ldrb	r0, [ip, #64]	@ zero_extendqisi2
 4689 000e 0128     		cmp	r0, #1
 4690 0010 6AD0     		beq	.L996
 4691 0012 0120     		movs	r0, #1
 4692 0014 30B5     		push	{r4, r5, lr}
 4693 0016 8CF84000 		strb	r0, [ip, #64]
 4694 001a 2220     		movs	r0, #34
 4695 001c 8CF84100 		strb	r0, [ip, #65]
 4696 0020 1020     		movs	r0, #16
 4697 0022 8CF84200 		strb	r0, [ip, #66]
 4698 0026 0020     		movs	r0, #0
 4699 0028 CCF84400 		str	r0, [ip, #68]
 4700 002c ACF82A30 		strh	r3, [ip, #42]	@ movhi
 4701 0030 039B     		ldr	r3, [sp, #12]
 4702 0032 CCF82C30 		str	r3, [ip, #44]
 4703 0036 BCF82A00 		ldrh	r0, [ip, #42]
 4704 003a 304B     		ldr	r3, .L1009
 4705 003c CCF82420 		str	r2, [ip, #36]
 4706 0040 80B2     		uxth	r0, r0
 4707 0042 FF28     		cmp	r0, #255
 4708 0044 CCF83430 		str	r3, [ip, #52]
 4709 0048 3AD8     		bhi	.L997
 4710 004a BCF82A30 		ldrh	r3, [ip, #42]
 4711 004e DCF82C00 		ldr	r0, [ip, #44]
 4712 0052 DAB2     		uxtb	r2, r3
 4713 0054 9BB2     		uxth	r3, r3
 4714 0056 ACF82830 		strh	r3, [ip, #40]	@ movhi
 4715 005a DCF83030 		ldr	r3, [ip, #48]
 4716 005e 122B     		cmp	r3, #18
 4717 0060 4FEA0242 		lsl	r2, r2, #16
 4718 0064 37D0     		beq	.L1007
 4719              	.L991:
 4720 0066 DCF82C30 		ldr	r3, [ip, #44]
 4721 006a AA2B     		cmp	r3, #170
 4722 006c 41D0     		beq	.L1008
 4723 006e DCF82C30 		ldr	r3, [ip, #44]
 4724 0072 B3F52A4F 		cmp	r3, #43520
 4725 0076 04BF     		itt	eq
 4726 0078 4FF00073 		moveq	r3, #33554432
 4727 007c CCF82C30 		streq	r3, [ip, #44]
 4728              	.L994:
 4729 0080 BCF82A30 		ldrh	r3, [ip, #42]
 4730 0084 9BB2     		uxth	r3, r3
 4731 0086 FF2B     		cmp	r3, #255
 4732 0088 30D8     		bhi	.L999
 4733 008a DCF82C00 		ldr	r0, [ip, #44]
 4734 008e 1C4C     		ldr	r4, .L1009+4
 4735 0090 1C4D     		ldr	r5, .L1009+8
 4736              	.L992:
 4737 0092 C1F30903 		ubfx	r3, r1, #0, #10
ARM GAS  /tmp/ccNejxAl.s 			page 83


 4738 0096 1343     		orrs	r3, r3, r2
 4739 0098 DCF80020 		ldr	r2, [ip]
 4740 009c 0343     		orrs	r3, r3, r0
 4741 009e 5168     		ldr	r1, [r2, #4]
 4742 00a0 2B43     		orrs	r3, r3, r5
 4743 00a2 2140     		ands	r1, r1, r4
 4744 00a4 23F00043 		bic	r3, r3, #-2147483648
 4745 00a8 4FF0000E 		mov	lr, #0
 4746 00ac 0B43     		orrs	r3, r3, r1
 4747 00ae 5360     		str	r3, [r2, #4]
 4748 00b0 8CF840E0 		strb	lr, [ip, #64]
 4749 00b4 1368     		ldr	r3, [r2]
 4750 00b6 43F0F403 		orr	r3, r3, #244
 4751 00ba 7046     		mov	r0, lr
 4752 00bc 1360     		str	r3, [r2]
 4753 00be 30BD     		pop	{r4, r5, pc}
 4754              	.L997:
 4755 00c0 FF23     		movs	r3, #255
 4756 00c2 ACF82830 		strh	r3, [ip, #40]	@ movhi
 4757 00c6 DCF83030 		ldr	r3, [ip, #48]
 4758 00ca 122B     		cmp	r3, #18
 4759 00cc 4FF47F02 		mov	r2, #16711680
 4760 00d0 4FF08070 		mov	r0, #16777216
 4761 00d4 C7D1     		bne	.L991
 4762              	.L1007:
 4763 00d6 039B     		ldr	r3, [sp, #12]
 4764 00d8 AA2B     		cmp	r3, #170
 4765 00da C4D0     		beq	.L991
 4766 00dc B3F52A4F 		cmp	r3, #43520
 4767 00e0 C1D0     		beq	.L991
 4768 00e2 094C     		ldr	r4, .L1009+12
 4769 00e4 0025     		movs	r5, #0
 4770 00e6 D4E7     		b	.L992
 4771              	.L996:
 4772 00e8 0220     		movs	r0, #2
 4773 00ea 7047     		bx	lr
 4774              	.L999:
 4775 00ec 044C     		ldr	r4, .L1009+4
 4776 00ee 054D     		ldr	r5, .L1009+8
 4777 00f0 CFE7     		b	.L992
 4778              	.L1008:
 4779 00f2 0023     		movs	r3, #0
 4780 00f4 CCF82C30 		str	r3, [ip, #44]
 4781 00f8 C2E7     		b	.L994
 4782              	.L1010:
 4783 00fa 00BF     		.align	2
 4784              	.L1009:
 4785 00fc 00000000 		.word	I2C_Master_ISR_IT
 4786 0100 009800FC 		.word	-67069952
 4787 0104 00240080 		.word	-2147474432
 4788 0108 009C00FC 		.word	-67068928
 4790              		.section	.text.HAL_I2C_Master_Seq_Receive_DMA,"ax",%progbits
 4791              		.align	1
 4792              		.p2align 2,,3
 4793              		.global	HAL_I2C_Master_Seq_Receive_DMA
 4794              		.syntax unified
 4795              		.thumb
ARM GAS  /tmp/ccNejxAl.s 			page 84


 4796              		.thumb_func
 4797              		.fpu fpv4-sp-d16
 4799              	HAL_I2C_Master_Seq_Receive_DMA:
 4800              		@ args = 4, pretend = 0, frame = 0
 4801              		@ frame_needed = 0, uses_anonymous_args = 0
 4802 0000 2DE9F047 		push	{r4, r5, r6, r7, r8, r9, r10, lr}
 4803 0004 0446     		mov	r4, r0
 4804 0006 90F84100 		ldrb	r0, [r0, #65]	@ zero_extendqisi2
 4805 000a 2028     		cmp	r0, #32
 4806 000c 40F0A180 		bne	.L1024
 4807 0010 0D46     		mov	r5, r1
 4808 0012 94F84010 		ldrb	r1, [r4, #64]	@ zero_extendqisi2
 4809 0016 0129     		cmp	r1, #1
 4810 0018 00F09B80 		beq	.L1024
 4811 001c 0121     		movs	r1, #1
 4812 001e 84F84010 		strb	r1, [r4, #64]
 4813 0022 2221     		movs	r1, #34
 4814 0024 84F84110 		strb	r1, [r4, #65]
 4815 0028 1021     		movs	r1, #16
 4816 002a 84F84210 		strb	r1, [r4, #66]
 4817 002e 0021     		movs	r1, #0
 4818 0030 6164     		str	r1, [r4, #68]
 4819 0032 6385     		strh	r3, [r4, #42]	@ movhi
 4820 0034 089B     		ldr	r3, [sp, #32]
 4821 0036 E362     		str	r3, [r4, #44]
 4822 0038 638D     		ldrh	r3, [r4, #42]
 4823 003a 5A4E     		ldr	r6, .L1039
 4824 003c 6262     		str	r2, [r4, #36]
 4825 003e 9BB2     		uxth	r3, r3
 4826 0040 FF2B     		cmp	r3, #255
 4827 0042 6663     		str	r6, [r4, #52]
 4828 0044 5CD8     		bhi	.L1025
 4829 0046 608D     		ldrh	r0, [r4, #42]
 4830 0048 D4F82C80 		ldr	r8, [r4, #44]
 4831 004c 216B     		ldr	r1, [r4, #48]
 4832 004e 83B2     		uxth	r3, r0
 4833 0050 1229     		cmp	r1, #18
 4834 0052 2385     		strh	r3, [r4, #40]	@ movhi
 4835 0054 5BD0     		beq	.L1035
 4836              	.L1014:
 4837 0056 E16A     		ldr	r1, [r4, #44]
 4838 0058 AA29     		cmp	r1, #170
 4839 005a 00F08F80 		beq	.L1036
 4840 005e E16A     		ldr	r1, [r4, #44]
 4841 0060 B1F52A4F 		cmp	r1, #43520
 4842 0064 04BF     		itt	eq
 4843 0066 4FF00071 		moveq	r1, #33554432
 4844 006a E162     		streq	r1, [r4, #44]
 4845              	.L1017:
 4846 006c 618D     		ldrh	r1, [r4, #42]
 4847 006e 89B2     		uxth	r1, r1
 4848 0070 FF29     		cmp	r1, #255
 4849 0072 71D8     		bhi	.L1027
 4850 0074 D4F82C80 		ldr	r8, [r4, #44]
 4851 0078 4B4F     		ldr	r7, .L1039+4
 4852 007a DFF83C91 		ldr	r9, .L1039+20
 4853              	.L1015:
ARM GAS  /tmp/ccNejxAl.s 			page 85


 4854 007e 002B     		cmp	r3, #0
 4855 0080 50D0     		beq	.L1018
 4856              	.L1038:
 4857 0082 E06B     		ldr	r0, [r4, #60]
 4858 0084 0028     		cmp	r0, #0
 4859 0086 7CD0     		beq	.L1019
 4860 0088 2168     		ldr	r1, [r4]
 4861 008a DFF830C1 		ldr	ip, .L1039+24
 4862 008e C0F82CC0 		str	ip, [r0, #44]
 4863 0092 4FF0000A 		mov	r10, #0
 4864 0096 DFF828C1 		ldr	ip, .L1039+28
 4865 009a C0F830A0 		str	r10, [r0, #48]
 4866 009e 2431     		adds	r1, r1, #36
 4867 00a0 C0F838A0 		str	r10, [r0, #56]
 4868 00a4 C0F834C0 		str	ip, [r0, #52]
 4869 00a8 FFF7FEFF 		bl	HAL_DMA_Start_IT
 4870 00ac 0028     		cmp	r0, #0
 4871 00ae 57D1     		bne	.L1037
 4872 00b0 218D     		ldrh	r1, [r4, #40]
 4873 00b2 2268     		ldr	r2, [r4]
 4874 00b4 C5F30903 		ubfx	r3, r5, #0, #10
 4875 00b8 CDB2     		uxtb	r5, r1
 4876 00ba 43EA0543 		orr	r3, r3, r5, lsl #16
 4877 00be 43EA0803 		orr	r3, r3, r8
 4878 00c2 5568     		ldr	r5, [r2, #4]
 4879 00c4 43EA0903 		orr	r3, r3, r9
 4880 00c8 23F00043 		bic	r3, r3, #-2147483648
 4881 00cc 2F40     		ands	r7, r7, r5
 4882 00ce 3B43     		orrs	r3, r3, r7
 4883 00d0 5360     		str	r3, [r2, #4]
 4884 00d2 638D     		ldrh	r3, [r4, #42]
 4885 00d4 84F84000 		strb	r0, [r4, #64]
 4886 00d8 5B1A     		subs	r3, r3, r1
 4887 00da 9BB2     		uxth	r3, r3
 4888 00dc 6385     		strh	r3, [r4, #42]	@ movhi
 4889 00de 636B     		ldr	r3, [r4, #52]
 4890 00e0 B342     		cmp	r3, r6
 4891 00e2 5CD0     		beq	.L1028
 4892 00e4 3149     		ldr	r1, .L1039+8
 4893 00e6 8B42     		cmp	r3, r1
 4894 00e8 0CBF     		ite	eq
 4895 00ea 9023     		moveq	r3, #144
 4896 00ec 0023     		movne	r3, #0
 4897              	.L1022:
 4898 00ee 1168     		ldr	r1, [r2]
 4899 00f0 0B43     		orrs	r3, r3, r1
 4900 00f2 1360     		str	r3, [r2]
 4901 00f4 1368     		ldr	r3, [r2]
 4902 00f6 43F40043 		orr	r3, r3, #32768
 4903 00fa 1360     		str	r3, [r2]
 4904 00fc BDE8F087 		pop	{r4, r5, r6, r7, r8, r9, r10, pc}
 4905              	.L1025:
 4906 0100 216B     		ldr	r1, [r4, #48]
 4907 0102 FF23     		movs	r3, #255
 4908 0104 1229     		cmp	r1, #18
 4909 0106 4FF08078 		mov	r8, #16777216
 4910 010a 2385     		strh	r3, [r4, #40]	@ movhi
ARM GAS  /tmp/ccNejxAl.s 			page 86


 4911 010c A3D1     		bne	.L1014
 4912              	.L1035:
 4913 010e 0899     		ldr	r1, [sp, #32]
 4914 0110 AA29     		cmp	r1, #170
 4915 0112 A0D0     		beq	.L1014
 4916 0114 B1F52A4F 		cmp	r1, #43520
 4917 0118 9DD0     		beq	.L1014
 4918 011a 254F     		ldr	r7, .L1039+12
 4919 011c 4FF00009 		mov	r9, #0
 4920 0120 002B     		cmp	r3, #0
 4921 0122 AED1     		bne	.L1038
 4922              	.L1018:
 4923 0124 2268     		ldr	r2, [r4]
 4924 0126 2348     		ldr	r0, .L1039+16
 4925 0128 5168     		ldr	r1, [r2, #4]
 4926 012a 6063     		str	r0, [r4, #52]
 4927 012c 1E48     		ldr	r0, .L1039+4
 4928 012e C5F30905 		ubfx	r5, r5, #0, #10
 4929 0132 0140     		ands	r1, r1, r0
 4930 0134 0D43     		orrs	r5, r5, r1
 4931 0136 45F00075 		orr	r5, r5, #33554432
 4932 013a 45F41055 		orr	r5, r5, #9216
 4933 013e 5560     		str	r5, [r2, #4]
 4934 0140 84F84030 		strb	r3, [r4, #64]
 4935 0144 1168     		ldr	r1, [r2]
 4936 0146 41F0F201 		orr	r1, r1, #242
 4937 014a 1846     		mov	r0, r3
 4938 014c 1160     		str	r1, [r2]
 4939 014e BDE8F087 		pop	{r4, r5, r6, r7, r8, r9, r10, pc}
 4940              	.L1024:
 4941 0152 0220     		movs	r0, #2
 4942 0154 BDE8F087 		pop	{r4, r5, r6, r7, r8, r9, r10, pc}
 4943              	.L1027:
 4944 0158 134F     		ldr	r7, .L1039+4
 4945 015a DFF85C90 		ldr	r9, .L1039+20
 4946 015e 8EE7     		b	.L1015
 4947              	.L1037:
 4948 0160 2023     		movs	r3, #32
 4949 0162 84F84130 		strb	r3, [r4, #65]
 4950 0166 84F842A0 		strb	r10, [r4, #66]
 4951 016a 636C     		ldr	r3, [r4, #68]
 4952 016c 84F840A0 		strb	r10, [r4, #64]
 4953 0170 43F01003 		orr	r3, r3, #16
 4954 0174 6364     		str	r3, [r4, #68]
 4955 0176 0120     		movs	r0, #1
 4956 0178 BDE8F087 		pop	{r4, r5, r6, r7, r8, r9, r10, pc}
 4957              	.L1036:
 4958 017c 0021     		movs	r1, #0
 4959 017e E162     		str	r1, [r4, #44]
 4960 0180 74E7     		b	.L1017
 4961              	.L1019:
 4962 0182 2023     		movs	r3, #32
 4963 0184 84F84130 		strb	r3, [r4, #65]
 4964 0188 84F84200 		strb	r0, [r4, #66]
 4965 018c 636C     		ldr	r3, [r4, #68]
 4966 018e 84F84000 		strb	r0, [r4, #64]
 4967 0192 43F08003 		orr	r3, r3, #128
ARM GAS  /tmp/ccNejxAl.s 			page 87


 4968 0196 6364     		str	r3, [r4, #68]
 4969 0198 0120     		movs	r0, #1
 4970 019a BDE8F087 		pop	{r4, r5, r6, r7, r8, r9, r10, pc}
 4971              	.L1028:
 4972 019e 9023     		movs	r3, #144
 4973 01a0 A5E7     		b	.L1022
 4974              	.L1040:
 4975 01a2 00BF     		.align	2
 4976              	.L1039:
 4977 01a4 00000000 		.word	I2C_Master_ISR_DMA
 4978 01a8 009800FC 		.word	-67069952
 4979 01ac 00000000 		.word	I2C_Slave_ISR_DMA
 4980 01b0 009C00FC 		.word	-67068928
 4981 01b4 00000000 		.word	I2C_Master_ISR_IT
 4982 01b8 00240080 		.word	-2147474432
 4983 01bc 00000000 		.word	I2C_DMAMasterReceiveCplt
 4984 01c0 00000000 		.word	I2C_DMAError
 4986              		.section	.text.HAL_I2C_Slave_Seq_Transmit_IT,"ax",%progbits
 4987              		.align	1
 4988              		.p2align 2,,3
 4989              		.global	HAL_I2C_Slave_Seq_Transmit_IT
 4990              		.syntax unified
 4991              		.thumb
 4992              		.thumb_func
 4993              		.fpu fpv4-sp-d16
 4995              	HAL_I2C_Slave_Seq_Transmit_IT:
 4996              		@ args = 0, pretend = 0, frame = 16
 4997              		@ frame_needed = 0, uses_anonymous_args = 0
 4998 0000 30B5     		push	{r4, r5, lr}
 4999 0002 0446     		mov	r4, r0
 5000 0004 90F84100 		ldrb	r0, [r0, #65]	@ zero_extendqisi2
 5001 0008 00F02800 		and	r0, r0, #40
 5002 000c 2828     		cmp	r0, #40
 5003 000e 85B0     		sub	sp, sp, #20
 5004 0010 39D1     		bne	.L1049
 5005 0012 0029     		cmp	r1, #0
 5006 0014 3AD0     		beq	.L1043
 5007 0016 002A     		cmp	r2, #0
 5008 0018 38D0     		beq	.L1043
 5009 001a 2568     		ldr	r5, [r4]
 5010 001c 94F84100 		ldrb	r0, [r4, #65]	@ zero_extendqisi2
 5011 0020 2868     		ldr	r0, [r5]
 5012 0022 20F0FA00 		bic	r0, r0, #250
 5013 0026 2860     		str	r0, [r5]
 5014 0028 94F84000 		ldrb	r0, [r4, #64]	@ zero_extendqisi2
 5015 002c 0128     		cmp	r0, #1
 5016 002e 58D0     		beq	.L1050
 5017 0030 94F84100 		ldrb	r0, [r4, #65]	@ zero_extendqisi2
 5018 0034 4FF0010C 		mov	ip, #1
 5019 0038 2A28     		cmp	r0, #42
 5020 003a 84F840C0 		strb	ip, [r4, #64]
 5021 003e 2BD0     		beq	.L1065
 5022              	.L1045:
 5023 0040 2920     		movs	r0, #41
 5024 0042 84F84100 		strb	r0, [r4, #65]
 5025 0046 2020     		movs	r0, #32
 5026 0048 84F84200 		strb	r0, [r4, #66]
ARM GAS  /tmp/ccNejxAl.s 			page 88


 5027 004c 0020     		movs	r0, #0
 5028 004e 6064     		str	r0, [r4, #68]
 5029 0050 6868     		ldr	r0, [r5, #4]
 5030 0052 20F40040 		bic	r0, r0, #32768
 5031 0056 6860     		str	r0, [r5, #4]
 5032 0058 6285     		strh	r2, [r4, #42]	@ movhi
 5033 005a 608D     		ldrh	r0, [r4, #42]
 5034 005c E362     		str	r3, [r4, #44]
 5035 005e AB69     		ldr	r3, [r5, #24]
 5036 0060 2085     		strh	r0, [r4, #40]	@ movhi
 5037 0062 DB03     		lsls	r3, r3, #15
 5038 0064 48BF     		it	mi
 5039 0066 0823     		movmi	r3, #8
 5040 0068 4FF00000 		mov	r0, #0
 5041 006c 234A     		ldr	r2, .L1066
 5042 006e 6162     		str	r1, [r4, #36]
 5043 0070 6263     		str	r2, [r4, #52]
 5044 0072 48BF     		it	mi
 5045 0074 EB61     		strmi	r3, [r5, #28]
 5046 0076 84F84000 		strb	r0, [r4, #64]
 5047 007a 2B68     		ldr	r3, [r5]
 5048 007c 43F0FA03 		orr	r3, r3, #250
 5049 0080 2B60     		str	r3, [r5]
 5050 0082 05B0     		add	sp, sp, #20
 5051              		@ sp needed
 5052 0084 30BD     		pop	{r4, r5, pc}
 5053              	.L1049:
 5054 0086 0120     		movs	r0, #1
 5055              	.L1042:
 5056 0088 05B0     		add	sp, sp, #20
 5057              		@ sp needed
 5058 008a 30BD     		pop	{r4, r5, pc}
 5059              	.L1043:
 5060 008c 4FF40073 		mov	r3, #512
 5061 0090 0120     		movs	r0, #1
 5062 0092 6364     		str	r3, [r4, #68]
 5063 0094 05B0     		add	sp, sp, #20
 5064              		@ sp needed
 5065 0096 30BD     		pop	{r4, r5, pc}
 5066              	.L1065:
 5067 0098 94F84100 		ldrb	r0, [r4, #65]	@ zero_extendqisi2
 5068 009c 00F02800 		and	r0, r0, #40
 5069 00a0 2828     		cmp	r0, #40
 5070 00a2 2868     		ldr	r0, [r5]
 5071 00a4 0CBF     		ite	eq
 5072 00a6 6FF0440C 		mvneq	ip, #68
 5073 00aa 6FF0F40C 		mvnne	ip, #244
 5074 00ae 00EA0C00 		and	r0, r0, ip
 5075 00b2 2860     		str	r0, [r5]
 5076 00b4 2868     		ldr	r0, [r5]
 5077 00b6 0004     		lsls	r0, r0, #16
 5078 00b8 C2D5     		bpl	.L1045
 5079 00ba 2868     		ldr	r0, [r5]
 5080 00bc 20F40040 		bic	r0, r0, #32768
 5081 00c0 2860     		str	r0, [r5]
 5082 00c2 E06B     		ldr	r0, [r4, #60]
 5083 00c4 0028     		cmp	r0, #0
ARM GAS  /tmp/ccNejxAl.s 			page 89


 5084 00c6 BBD0     		beq	.L1045
 5085 00c8 0D4D     		ldr	r5, .L1066+4
 5086 00ca 8563     		str	r5, [r0, #56]
 5087 00cc CDE90223 		strd	r2, r3, [sp, #8]
 5088 00d0 0191     		str	r1, [sp, #4]
 5089 00d2 FFF7FEFF 		bl	HAL_DMA_Abort_IT
 5090 00d6 DDE90112 		ldrd	r1, r2, [sp, #4]
 5091 00da 039B     		ldr	r3, [sp, #12]
 5092 00dc 18B9     		cbnz	r0, .L1047
 5093 00de 2568     		ldr	r5, [r4]
 5094 00e0 AEE7     		b	.L1045
 5095              	.L1050:
 5096 00e2 0220     		movs	r0, #2
 5097 00e4 D0E7     		b	.L1042
 5098              	.L1047:
 5099 00e6 E06B     		ldr	r0, [r4, #60]
 5100 00e8 0191     		str	r1, [sp, #4]
 5101 00ea 856B     		ldr	r5, [r0, #56]
 5102 00ec CDE90223 		strd	r2, r3, [sp, #8]
 5103 00f0 A847     		blx	r5
 5104 00f2 DDE90223 		ldrd	r2, r3, [sp, #8]
 5105 00f6 2568     		ldr	r5, [r4]
 5106 00f8 0199     		ldr	r1, [sp, #4]
 5107 00fa A1E7     		b	.L1045
 5108              	.L1067:
 5109              		.align	2
 5110              	.L1066:
 5111 00fc 00000000 		.word	I2C_Slave_ISR_IT
 5112 0100 00000000 		.word	I2C_DMAAbort
 5114              		.section	.text.HAL_I2C_Slave_Seq_Transmit_DMA,"ax",%progbits
 5115              		.align	1
 5116              		.p2align 2,,3
 5117              		.global	HAL_I2C_Slave_Seq_Transmit_DMA
 5118              		.syntax unified
 5119              		.thumb
 5120              		.thumb_func
 5121              		.fpu fpv4-sp-d16
 5123              	HAL_I2C_Slave_Seq_Transmit_DMA:
 5124              		@ args = 0, pretend = 0, frame = 16
 5125              		@ frame_needed = 0, uses_anonymous_args = 0
 5126 0000 F0B5     		push	{r4, r5, r6, r7, lr}
 5127 0002 0446     		mov	r4, r0
 5128 0004 90F84100 		ldrb	r0, [r0, #65]	@ zero_extendqisi2
 5129 0008 00F02800 		and	r0, r0, #40
 5130 000c 2828     		cmp	r0, #40
 5131 000e 85B0     		sub	sp, sp, #20
 5132 0010 57D1     		bne	.L1085
 5133 0012 0029     		cmp	r1, #0
 5134 0014 58D0     		beq	.L1070
 5135 0016 002A     		cmp	r2, #0
 5136 0018 56D0     		beq	.L1070
 5137 001a 94F84000 		ldrb	r0, [r4, #64]	@ zero_extendqisi2
 5138 001e 0128     		cmp	r0, #1
 5139 0020 00F0D680 		beq	.L1086
 5140 0024 2568     		ldr	r5, [r4]
 5141 0026 0120     		movs	r0, #1
 5142 0028 84F84000 		strb	r0, [r4, #64]
ARM GAS  /tmp/ccNejxAl.s 			page 90


 5143 002c 94F84100 		ldrb	r0, [r4, #65]	@ zero_extendqisi2
 5144 0030 2868     		ldr	r0, [r5]
 5145 0032 20F0FA00 		bic	r0, r0, #250
 5146 0036 2860     		str	r0, [r5]
 5147 0038 94F84100 		ldrb	r0, [r4, #65]	@ zero_extendqisi2
 5148 003c 2A28     		cmp	r0, #42
 5149 003e 49D0     		beq	.L1102
 5150 0040 94F84160 		ldrb	r6, [r4, #65]	@ zero_extendqisi2
 5151 0044 A06B     		ldr	r0, [r4, #56]
 5152 0046 292E     		cmp	r6, #41
 5153 0048 F7B2     		uxtb	r7, r6
 5154 004a 00F09F80 		beq	.L1103
 5155              	.L1075:
 5156 004e 2926     		movs	r6, #41
 5157 0050 84F84160 		strb	r6, [r4, #65]
 5158 0054 2026     		movs	r6, #32
 5159 0056 84F84260 		strb	r6, [r4, #66]
 5160 005a 0026     		movs	r6, #0
 5161 005c 6664     		str	r6, [r4, #68]
 5162 005e 6F68     		ldr	r7, [r5, #4]
 5163 0060 27F40047 		bic	r7, r7, #32768
 5164 0064 6F60     		str	r7, [r5, #4]
 5165 0066 6285     		strh	r2, [r4, #42]	@ movhi
 5166 0068 628D     		ldrh	r2, [r4, #42]
 5167 006a E362     		str	r3, [r4, #44]
 5168 006c 93B2     		uxth	r3, r2
 5169 006e 594A     		ldr	r2, .L1105
 5170 0070 6162     		str	r1, [r4, #36]
 5171 0072 2385     		strh	r3, [r4, #40]	@ movhi
 5172 0074 6263     		str	r2, [r4, #52]
 5173 0076 0028     		cmp	r0, #0
 5174 0078 7AD0     		beq	.L1080
 5175 007a 05F12802 		add	r2, r5, #40
 5176 007e 564D     		ldr	r5, .L1105+4
 5177 0080 C562     		str	r5, [r0, #44]
 5178 0082 564D     		ldr	r5, .L1105+8
 5179 0084 0663     		str	r6, [r0, #48]
 5180 0086 8663     		str	r6, [r0, #56]
 5181 0088 4563     		str	r5, [r0, #52]
 5182 008a FFF7FEFF 		bl	HAL_DMA_Start_IT
 5183 008e 0028     		cmp	r0, #0
 5184 0090 50D1     		bne	.L1104
 5185 0092 628D     		ldrh	r2, [r4, #42]
 5186 0094 218D     		ldrh	r1, [r4, #40]
 5187 0096 2368     		ldr	r3, [r4]
 5188 0098 521A     		subs	r2, r2, r1
 5189 009a 92B2     		uxth	r2, r2
 5190 009c 6285     		strh	r2, [r4, #42]	@ movhi
 5191 009e 9A69     		ldr	r2, [r3, #24]
 5192 00a0 2085     		strh	r0, [r4, #40]	@ movhi
 5193 00a2 D203     		lsls	r2, r2, #15
 5194 00a4 01D5     		bpl	.L1084
 5195 00a6 0822     		movs	r2, #8
 5196 00a8 DA61     		str	r2, [r3, #28]
 5197              	.L1084:
 5198 00aa 0022     		movs	r2, #0
 5199 00ac 84F84020 		strb	r2, [r4, #64]
ARM GAS  /tmp/ccNejxAl.s 			page 91


 5200 00b0 1A68     		ldr	r2, [r3]
 5201 00b2 42F48042 		orr	r2, r2, #16384
 5202 00b6 1A60     		str	r2, [r3]
 5203 00b8 1A68     		ldr	r2, [r3]
 5204 00ba 42F0B802 		orr	r2, r2, #184
 5205 00be 1A60     		str	r2, [r3]
 5206 00c0 00E0     		b	.L1097
 5207              	.L1085:
 5208 00c2 0120     		movs	r0, #1
 5209              	.L1097:
 5210 00c4 05B0     		add	sp, sp, #20
 5211              		@ sp needed
 5212 00c6 F0BD     		pop	{r4, r5, r6, r7, pc}
 5213              	.L1070:
 5214 00c8 4FF40073 		mov	r3, #512
 5215 00cc 0120     		movs	r0, #1
 5216 00ce 6364     		str	r3, [r4, #68]
 5217 00d0 05B0     		add	sp, sp, #20
 5218              		@ sp needed
 5219 00d2 F0BD     		pop	{r4, r5, r6, r7, pc}
 5220              	.L1102:
 5221 00d4 94F84100 		ldrb	r0, [r4, #65]	@ zero_extendqisi2
 5222 00d8 00F02800 		and	r0, r0, #40
 5223 00dc 2828     		cmp	r0, #40
 5224 00de 2868     		ldr	r0, [r5]
 5225 00e0 0CBF     		ite	eq
 5226 00e2 6FF04406 		mvneq	r6, #68
 5227 00e6 6FF0F406 		mvnne	r6, #244
 5228 00ea 3040     		ands	r0, r0, r6
 5229 00ec 2860     		str	r0, [r5]
 5230 00ee 2868     		ldr	r0, [r5]
 5231 00f0 0704     		lsls	r7, r0, #16
 5232 00f2 1DD5     		bpl	.L1100
 5233 00f4 E06B     		ldr	r0, [r4, #60]
 5234 00f6 D8B1     		cbz	r0, .L1100
 5235 00f8 2E68     		ldr	r6, [r5]
 5236 00fa 0191     		str	r1, [sp, #4]
 5237 00fc 26F40046 		bic	r6, r6, #32768
 5238 0100 2E60     		str	r6, [r5]
 5239 0102 374D     		ldr	r5, .L1105+12
 5240 0104 8563     		str	r5, [r0, #56]
 5241 0106 CDE90223 		strd	r2, r3, [sp, #8]
 5242 010a FFF7FEFF 		bl	HAL_DMA_Abort_IT
 5243 010e DDE90112 		ldrd	r1, r2, [sp, #4]
 5244 0112 039B     		ldr	r3, [sp, #12]
 5245 0114 58B1     		cbz	r0, .L1101
 5246 0116 E06B     		ldr	r0, [r4, #60]
 5247 0118 0191     		str	r1, [sp, #4]
 5248 011a 856B     		ldr	r5, [r0, #56]
 5249 011c CDE90223 		strd	r2, r3, [sp, #8]
 5250 0120 A847     		blx	r5
 5251 0122 DDE90112 		ldrd	r1, r2, [sp, #4]
 5252 0126 2568     		ldr	r5, [r4]
 5253 0128 A06B     		ldr	r0, [r4, #56]
 5254 012a 039B     		ldr	r3, [sp, #12]
 5255 012c 8FE7     		b	.L1075
 5256              	.L1101:
ARM GAS  /tmp/ccNejxAl.s 			page 92


 5257 012e 2568     		ldr	r5, [r4]
 5258              	.L1100:
 5259 0130 A06B     		ldr	r0, [r4, #56]
 5260 0132 8CE7     		b	.L1075
 5261              	.L1104:
 5262 0134 2823     		movs	r3, #40
 5263 0136 84F84130 		strb	r3, [r4, #65]
 5264 013a 84F84260 		strb	r6, [r4, #66]
 5265 013e 636C     		ldr	r3, [r4, #68]
 5266 0140 84F84060 		strb	r6, [r4, #64]
 5267 0144 43F01003 		orr	r3, r3, #16
 5268 0148 6364     		str	r3, [r4, #68]
 5269 014a 0120     		movs	r0, #1
 5270 014c BAE7     		b	.L1097
 5271              	.L1078:
 5272 014e 2026     		movs	r6, #32
 5273 0150 84F84170 		strb	r7, [r4, #65]
 5274 0154 84F84260 		strb	r6, [r4, #66]
 5275 0158 6064     		str	r0, [r4, #68]
 5276 015a 6868     		ldr	r0, [r5, #4]
 5277 015c 20F40040 		bic	r0, r0, #32768
 5278 0160 6860     		str	r0, [r5, #4]
 5279 0162 6285     		strh	r2, [r4, #42]	@ movhi
 5280 0164 608D     		ldrh	r0, [r4, #42]
 5281 0166 1B4A     		ldr	r2, .L1105
 5282 0168 6162     		str	r1, [r4, #36]
 5283 016a 2085     		strh	r0, [r4, #40]	@ movhi
 5284 016c E362     		str	r3, [r4, #44]
 5285 016e 6263     		str	r2, [r4, #52]
 5286              	.L1080:
 5287 0170 0022     		movs	r2, #0
 5288 0172 2823     		movs	r3, #40
 5289 0174 84F84130 		strb	r3, [r4, #65]
 5290 0178 84F84220 		strb	r2, [r4, #66]
 5291 017c 636C     		ldr	r3, [r4, #68]
 5292 017e 84F84020 		strb	r2, [r4, #64]
 5293 0182 43F08003 		orr	r3, r3, #128
 5294 0186 6364     		str	r3, [r4, #68]
 5295 0188 0120     		movs	r0, #1
 5296 018a 9BE7     		b	.L1097
 5297              	.L1103:
 5298 018c 2E68     		ldr	r6, [r5]
 5299 018e 7604     		lsls	r6, r6, #17
 5300 0190 7FF55DAF 		bpl	.L1075
 5301 0194 2E68     		ldr	r6, [r5]
 5302 0196 26F48046 		bic	r6, r6, #16384
 5303 019a 2E60     		str	r6, [r5]
 5304 019c 0028     		cmp	r0, #0
 5305 019e D6D0     		beq	.L1078
 5306 01a0 0F4D     		ldr	r5, .L1105+12
 5307 01a2 8563     		str	r5, [r0, #56]
 5308 01a4 CDE90223 		strd	r2, r3, [sp, #8]
 5309 01a8 0191     		str	r1, [sp, #4]
 5310 01aa FFF7FEFF 		bl	HAL_DMA_Abort_IT
 5311 01ae DDE90112 		ldrd	r1, r2, [sp, #4]
 5312 01b2 039B     		ldr	r3, [sp, #12]
 5313 01b4 0028     		cmp	r0, #0
ARM GAS  /tmp/ccNejxAl.s 			page 93


 5314 01b6 BAD0     		beq	.L1101
 5315 01b8 A06B     		ldr	r0, [r4, #56]
 5316 01ba 0191     		str	r1, [sp, #4]
 5317 01bc 856B     		ldr	r5, [r0, #56]
 5318 01be CDE90223 		strd	r2, r3, [sp, #8]
 5319 01c2 A847     		blx	r5
 5320 01c4 DDE90223 		ldrd	r2, r3, [sp, #8]
 5321 01c8 2568     		ldr	r5, [r4]
 5322 01ca A06B     		ldr	r0, [r4, #56]
 5323 01cc 0199     		ldr	r1, [sp, #4]
 5324 01ce 3EE7     		b	.L1075
 5325              	.L1086:
 5326 01d0 0220     		movs	r0, #2
 5327 01d2 77E7     		b	.L1097
 5328              	.L1106:
 5329              		.align	2
 5330              	.L1105:
 5331 01d4 00000000 		.word	I2C_Slave_ISR_DMA
 5332 01d8 00000000 		.word	I2C_DMASlaveTransmitCplt
 5333 01dc 00000000 		.word	I2C_DMAError
 5334 01e0 00000000 		.word	I2C_DMAAbort
 5336              		.section	.text.HAL_I2C_Slave_Seq_Receive_IT,"ax",%progbits
 5337              		.align	1
 5338              		.p2align 2,,3
 5339              		.global	HAL_I2C_Slave_Seq_Receive_IT
 5340              		.syntax unified
 5341              		.thumb
 5342              		.thumb_func
 5343              		.fpu fpv4-sp-d16
 5345              	HAL_I2C_Slave_Seq_Receive_IT:
 5346              		@ args = 0, pretend = 0, frame = 16
 5347              		@ frame_needed = 0, uses_anonymous_args = 0
 5348 0000 30B5     		push	{r4, r5, lr}
 5349 0002 0446     		mov	r4, r0
 5350 0004 90F84100 		ldrb	r0, [r0, #65]	@ zero_extendqisi2
 5351 0008 00F02800 		and	r0, r0, #40
 5352 000c 2828     		cmp	r0, #40
 5353 000e 85B0     		sub	sp, sp, #20
 5354 0010 39D1     		bne	.L1115
 5355 0012 0029     		cmp	r1, #0
 5356 0014 3AD0     		beq	.L1109
 5357 0016 002A     		cmp	r2, #0
 5358 0018 38D0     		beq	.L1109
 5359 001a 2568     		ldr	r5, [r4]
 5360 001c 94F84100 		ldrb	r0, [r4, #65]	@ zero_extendqisi2
 5361 0020 2868     		ldr	r0, [r5]
 5362 0022 20F0FC00 		bic	r0, r0, #252
 5363 0026 2860     		str	r0, [r5]
 5364 0028 94F84000 		ldrb	r0, [r4, #64]	@ zero_extendqisi2
 5365 002c 0128     		cmp	r0, #1
 5366 002e 58D0     		beq	.L1116
 5367 0030 94F84100 		ldrb	r0, [r4, #65]	@ zero_extendqisi2
 5368 0034 4FF0010C 		mov	ip, #1
 5369 0038 2928     		cmp	r0, #41
 5370 003a 84F840C0 		strb	ip, [r4, #64]
 5371 003e 2BD0     		beq	.L1128
 5372              	.L1111:
ARM GAS  /tmp/ccNejxAl.s 			page 94


 5373 0040 2A20     		movs	r0, #42
 5374 0042 84F84100 		strb	r0, [r4, #65]
 5375 0046 2020     		movs	r0, #32
 5376 0048 84F84200 		strb	r0, [r4, #66]
 5377 004c 0020     		movs	r0, #0
 5378 004e 6064     		str	r0, [r4, #68]
 5379 0050 6868     		ldr	r0, [r5, #4]
 5380 0052 20F40040 		bic	r0, r0, #32768
 5381 0056 6860     		str	r0, [r5, #4]
 5382 0058 6285     		strh	r2, [r4, #42]	@ movhi
 5383 005a 608D     		ldrh	r0, [r4, #42]
 5384 005c E362     		str	r3, [r4, #44]
 5385 005e AB69     		ldr	r3, [r5, #24]
 5386 0060 2085     		strh	r0, [r4, #40]	@ movhi
 5387 0062 DB03     		lsls	r3, r3, #15
 5388 0064 58BF     		it	pl
 5389 0066 0823     		movpl	r3, #8
 5390 0068 4FF00000 		mov	r0, #0
 5391 006c 234A     		ldr	r2, .L1129
 5392 006e 6162     		str	r1, [r4, #36]
 5393 0070 6263     		str	r2, [r4, #52]
 5394 0072 58BF     		it	pl
 5395 0074 EB61     		strpl	r3, [r5, #28]
 5396 0076 84F84000 		strb	r0, [r4, #64]
 5397 007a 2B68     		ldr	r3, [r5]
 5398 007c 43F0FC03 		orr	r3, r3, #252
 5399 0080 2B60     		str	r3, [r5]
 5400 0082 05B0     		add	sp, sp, #20
 5401              		@ sp needed
 5402 0084 30BD     		pop	{r4, r5, pc}
 5403              	.L1115:
 5404 0086 0120     		movs	r0, #1
 5405              	.L1108:
 5406 0088 05B0     		add	sp, sp, #20
 5407              		@ sp needed
 5408 008a 30BD     		pop	{r4, r5, pc}
 5409              	.L1109:
 5410 008c 4FF40073 		mov	r3, #512
 5411 0090 0120     		movs	r0, #1
 5412 0092 6364     		str	r3, [r4, #68]
 5413 0094 05B0     		add	sp, sp, #20
 5414              		@ sp needed
 5415 0096 30BD     		pop	{r4, r5, pc}
 5416              	.L1128:
 5417 0098 94F84100 		ldrb	r0, [r4, #65]	@ zero_extendqisi2
 5418 009c 00F02800 		and	r0, r0, #40
 5419 00a0 2828     		cmp	r0, #40
 5420 00a2 2868     		ldr	r0, [r5]
 5421 00a4 0CBF     		ite	eq
 5422 00a6 6FF0420C 		mvneq	ip, #66
 5423 00aa 6FF0F20C 		mvnne	ip, #242
 5424 00ae 00EA0C00 		and	r0, r0, ip
 5425 00b2 2860     		str	r0, [r5]
 5426 00b4 2868     		ldr	r0, [r5]
 5427 00b6 4004     		lsls	r0, r0, #17
 5428 00b8 C2D5     		bpl	.L1111
 5429 00ba 2868     		ldr	r0, [r5]
ARM GAS  /tmp/ccNejxAl.s 			page 95


 5430 00bc 20F48040 		bic	r0, r0, #16384
 5431 00c0 2860     		str	r0, [r5]
 5432 00c2 A06B     		ldr	r0, [r4, #56]
 5433 00c4 0028     		cmp	r0, #0
 5434 00c6 BBD0     		beq	.L1111
 5435 00c8 0D4D     		ldr	r5, .L1129+4
 5436 00ca 8563     		str	r5, [r0, #56]
 5437 00cc CDE90223 		strd	r2, r3, [sp, #8]
 5438 00d0 0191     		str	r1, [sp, #4]
 5439 00d2 FFF7FEFF 		bl	HAL_DMA_Abort_IT
 5440 00d6 DDE90112 		ldrd	r1, r2, [sp, #4]
 5441 00da 039B     		ldr	r3, [sp, #12]
 5442 00dc 18B9     		cbnz	r0, .L1113
 5443 00de 2568     		ldr	r5, [r4]
 5444 00e0 AEE7     		b	.L1111
 5445              	.L1116:
 5446 00e2 0220     		movs	r0, #2
 5447 00e4 D0E7     		b	.L1108
 5448              	.L1113:
 5449 00e6 A06B     		ldr	r0, [r4, #56]
 5450 00e8 0191     		str	r1, [sp, #4]
 5451 00ea 856B     		ldr	r5, [r0, #56]
 5452 00ec CDE90223 		strd	r2, r3, [sp, #8]
 5453 00f0 A847     		blx	r5
 5454 00f2 DDE90223 		ldrd	r2, r3, [sp, #8]
 5455 00f6 2568     		ldr	r5, [r4]
 5456 00f8 0199     		ldr	r1, [sp, #4]
 5457 00fa A1E7     		b	.L1111
 5458              	.L1130:
 5459              		.align	2
 5460              	.L1129:
 5461 00fc 00000000 		.word	I2C_Slave_ISR_IT
 5462 0100 00000000 		.word	I2C_DMAAbort
 5464              		.section	.text.HAL_I2C_Slave_Seq_Receive_DMA,"ax",%progbits
 5465              		.align	1
 5466              		.p2align 2,,3
 5467              		.global	HAL_I2C_Slave_Seq_Receive_DMA
 5468              		.syntax unified
 5469              		.thumb
 5470              		.thumb_func
 5471              		.fpu fpv4-sp-d16
 5473              	HAL_I2C_Slave_Seq_Receive_DMA:
 5474              		@ args = 0, pretend = 0, frame = 16
 5475              		@ frame_needed = 0, uses_anonymous_args = 0
 5476 0000 F0B5     		push	{r4, r5, r6, r7, lr}
 5477 0002 0446     		mov	r4, r0
 5478 0004 90F84100 		ldrb	r0, [r0, #65]	@ zero_extendqisi2
 5479 0008 00F02800 		and	r0, r0, #40
 5480 000c 2828     		cmp	r0, #40
 5481 000e 85B0     		sub	sp, sp, #20
 5482 0010 60D1     		bne	.L1149
 5483 0012 0029     		cmp	r1, #0
 5484 0014 61D0     		beq	.L1133
 5485 0016 002A     		cmp	r2, #0
 5486 0018 5FD0     		beq	.L1133
 5487 001a 2568     		ldr	r5, [r4]
 5488 001c 94F84100 		ldrb	r0, [r4, #65]	@ zero_extendqisi2
ARM GAS  /tmp/ccNejxAl.s 			page 96


 5489 0020 2868     		ldr	r0, [r5]
 5490 0022 20F0FC00 		bic	r0, r0, #252
 5491 0026 2860     		str	r0, [r5]
 5492 0028 94F84000 		ldrb	r0, [r4, #64]	@ zero_extendqisi2
 5493 002c 0128     		cmp	r0, #1
 5494 002e 00F0DB80 		beq	.L1150
 5495 0032 94F84100 		ldrb	r0, [r4, #65]	@ zero_extendqisi2
 5496 0036 0126     		movs	r6, #1
 5497 0038 2928     		cmp	r0, #41
 5498 003a 84F84060 		strb	r6, [r4, #64]
 5499 003e 52D0     		beq	.L1168
 5500 0040 94F84160 		ldrb	r6, [r4, #65]	@ zero_extendqisi2
 5501 0044 E06B     		ldr	r0, [r4, #60]
 5502 0046 2A2E     		cmp	r6, #42
 5503 0048 F7B2     		uxtb	r7, r6
 5504 004a 00F0A880 		beq	.L1169
 5505              	.L1138:
 5506 004e 2A26     		movs	r6, #42
 5507 0050 84F84160 		strb	r6, [r4, #65]
 5508 0054 2026     		movs	r6, #32
 5509 0056 84F84260 		strb	r6, [r4, #66]
 5510 005a 0026     		movs	r6, #0
 5511 005c 6664     		str	r6, [r4, #68]
 5512 005e 6F68     		ldr	r7, [r5, #4]
 5513 0060 27F40047 		bic	r7, r7, #32768
 5514 0064 6F60     		str	r7, [r5, #4]
 5515 0066 6285     		strh	r2, [r4, #42]	@ movhi
 5516 0068 628D     		ldrh	r2, [r4, #42]
 5517 006a 614F     		ldr	r7, .L1171
 5518 006c E362     		str	r3, [r4, #44]
 5519 006e 93B2     		uxth	r3, r2
 5520 0070 6162     		str	r1, [r4, #36]
 5521 0072 2385     		strh	r3, [r4, #40]	@ movhi
 5522 0074 6763     		str	r7, [r4, #52]
 5523 0076 0028     		cmp	r0, #0
 5524 0078 00F08380 		beq	.L1143
 5525 007c 0A46     		mov	r2, r1
 5526 007e 05F12401 		add	r1, r5, #36
 5527 0082 5C4D     		ldr	r5, .L1171+4
 5528 0084 C562     		str	r5, [r0, #44]
 5529 0086 5C4D     		ldr	r5, .L1171+8
 5530 0088 0663     		str	r6, [r0, #48]
 5531 008a 8663     		str	r6, [r0, #56]
 5532 008c 4563     		str	r5, [r0, #52]
 5533 008e FFF7FEFF 		bl	HAL_DMA_Start_IT
 5534 0092 0028     		cmp	r0, #0
 5535 0094 57D1     		bne	.L1170
 5536 0096 628D     		ldrh	r2, [r4, #42]
 5537 0098 238D     		ldrh	r3, [r4, #40]
 5538 009a 2085     		strh	r0, [r4, #40]	@ movhi
 5539 009c D21A     		subs	r2, r2, r3
 5540 009e 92B2     		uxth	r2, r2
 5541 00a0 2368     		ldr	r3, [r4]
 5542 00a2 6285     		strh	r2, [r4, #42]	@ movhi
 5543 00a4 9A69     		ldr	r2, [r3, #24]
 5544 00a6 D203     		lsls	r2, r2, #15
 5545 00a8 40F19B80 		bpl	.L1146
ARM GAS  /tmp/ccNejxAl.s 			page 97


 5546              	.L1147:
 5547 00ac 0022     		movs	r2, #0
 5548 00ae 84F84020 		strb	r2, [r4, #64]
 5549 00b2 1968     		ldr	r1, [r3]
 5550 00b4 626B     		ldr	r2, [r4, #52]
 5551 00b6 41F40041 		orr	r1, r1, #32768
 5552 00ba 1960     		str	r1, [r3]
 5553 00bc 4F49     		ldr	r1, .L1171+12
 5554 00be 8A42     		cmp	r2, r1
 5555 00c0 00F09480 		beq	.L1152
 5556 00c4 BA42     		cmp	r2, r7
 5557 00c6 0CBF     		ite	eq
 5558 00c8 B822     		moveq	r2, #184
 5559 00ca FC22     		movne	r2, #252
 5560              	.L1148:
 5561 00cc 1968     		ldr	r1, [r3]
 5562 00ce 0A43     		orrs	r2, r2, r1
 5563 00d0 1A60     		str	r2, [r3]
 5564 00d2 00E0     		b	.L1163
 5565              	.L1149:
 5566 00d4 0120     		movs	r0, #1
 5567              	.L1163:
 5568 00d6 05B0     		add	sp, sp, #20
 5569              		@ sp needed
 5570 00d8 F0BD     		pop	{r4, r5, r6, r7, pc}
 5571              	.L1133:
 5572 00da 4FF40073 		mov	r3, #512
 5573 00de 0120     		movs	r0, #1
 5574 00e0 6364     		str	r3, [r4, #68]
 5575 00e2 05B0     		add	sp, sp, #20
 5576              		@ sp needed
 5577 00e4 F0BD     		pop	{r4, r5, r6, r7, pc}
 5578              	.L1168:
 5579 00e6 94F84100 		ldrb	r0, [r4, #65]	@ zero_extendqisi2
 5580 00ea 00F02800 		and	r0, r0, #40
 5581 00ee 2828     		cmp	r0, #40
 5582 00f0 2868     		ldr	r0, [r5]
 5583 00f2 0CBF     		ite	eq
 5584 00f4 6FF04206 		mvneq	r6, #66
 5585 00f8 6FF0F206 		mvnne	r6, #242
 5586 00fc 3040     		ands	r0, r0, r6
 5587 00fe 2860     		str	r0, [r5]
 5588 0100 2868     		ldr	r0, [r5]
 5589 0102 4704     		lsls	r7, r0, #17
 5590 0104 1DD5     		bpl	.L1166
 5591 0106 A06B     		ldr	r0, [r4, #56]
 5592 0108 D8B1     		cbz	r0, .L1166
 5593 010a 2E68     		ldr	r6, [r5]
 5594 010c 0191     		str	r1, [sp, #4]
 5595 010e 26F48046 		bic	r6, r6, #16384
 5596 0112 2E60     		str	r6, [r5]
 5597 0114 3A4D     		ldr	r5, .L1171+16
 5598 0116 8563     		str	r5, [r0, #56]
 5599 0118 CDE90223 		strd	r2, r3, [sp, #8]
 5600 011c FFF7FEFF 		bl	HAL_DMA_Abort_IT
 5601 0120 DDE90112 		ldrd	r1, r2, [sp, #4]
 5602 0124 039B     		ldr	r3, [sp, #12]
ARM GAS  /tmp/ccNejxAl.s 			page 98


 5603 0126 58B1     		cbz	r0, .L1167
 5604 0128 A06B     		ldr	r0, [r4, #56]
 5605 012a 0191     		str	r1, [sp, #4]
 5606 012c 856B     		ldr	r5, [r0, #56]
 5607 012e CDE90223 		strd	r2, r3, [sp, #8]
 5608 0132 A847     		blx	r5
 5609 0134 DDE90112 		ldrd	r1, r2, [sp, #4]
 5610 0138 2568     		ldr	r5, [r4]
 5611 013a E06B     		ldr	r0, [r4, #60]
 5612 013c 039B     		ldr	r3, [sp, #12]
 5613 013e 86E7     		b	.L1138
 5614              	.L1167:
 5615 0140 2568     		ldr	r5, [r4]
 5616              	.L1166:
 5617 0142 E06B     		ldr	r0, [r4, #60]
 5618 0144 83E7     		b	.L1138
 5619              	.L1170:
 5620 0146 2823     		movs	r3, #40
 5621 0148 84F84130 		strb	r3, [r4, #65]
 5622 014c 84F84260 		strb	r6, [r4, #66]
 5623 0150 636C     		ldr	r3, [r4, #68]
 5624 0152 84F84060 		strb	r6, [r4, #64]
 5625 0156 43F01003 		orr	r3, r3, #16
 5626 015a 6364     		str	r3, [r4, #68]
 5627 015c 0120     		movs	r0, #1
 5628 015e BAE7     		b	.L1163
 5629              	.L1141:
 5630 0160 2026     		movs	r6, #32
 5631 0162 84F84170 		strb	r7, [r4, #65]
 5632 0166 84F84260 		strb	r6, [r4, #66]
 5633 016a 6064     		str	r0, [r4, #68]
 5634 016c 6868     		ldr	r0, [r5, #4]
 5635 016e 20F40040 		bic	r0, r0, #32768
 5636 0172 6860     		str	r0, [r5, #4]
 5637 0174 6285     		strh	r2, [r4, #42]	@ movhi
 5638 0176 608D     		ldrh	r0, [r4, #42]
 5639 0178 1D4A     		ldr	r2, .L1171
 5640 017a 6162     		str	r1, [r4, #36]
 5641 017c 2085     		strh	r0, [r4, #40]	@ movhi
 5642 017e E362     		str	r3, [r4, #44]
 5643 0180 6263     		str	r2, [r4, #52]
 5644              	.L1143:
 5645 0182 0022     		movs	r2, #0
 5646 0184 2823     		movs	r3, #40
 5647 0186 84F84130 		strb	r3, [r4, #65]
 5648 018a 84F84220 		strb	r2, [r4, #66]
 5649 018e 636C     		ldr	r3, [r4, #68]
 5650 0190 84F84020 		strb	r2, [r4, #64]
 5651 0194 43F08003 		orr	r3, r3, #128
 5652 0198 6364     		str	r3, [r4, #68]
 5653 019a 0120     		movs	r0, #1
 5654 019c 9BE7     		b	.L1163
 5655              	.L1169:
 5656 019e 2E68     		ldr	r6, [r5]
 5657 01a0 3604     		lsls	r6, r6, #16
 5658 01a2 7FF554AF 		bpl	.L1138
 5659 01a6 2E68     		ldr	r6, [r5]
ARM GAS  /tmp/ccNejxAl.s 			page 99


 5660 01a8 26F40046 		bic	r6, r6, #32768
 5661 01ac 2E60     		str	r6, [r5]
 5662 01ae 0028     		cmp	r0, #0
 5663 01b0 D6D0     		beq	.L1141
 5664 01b2 134D     		ldr	r5, .L1171+16
 5665 01b4 8563     		str	r5, [r0, #56]
 5666 01b6 CDE90223 		strd	r2, r3, [sp, #8]
 5667 01ba 0191     		str	r1, [sp, #4]
 5668 01bc FFF7FEFF 		bl	HAL_DMA_Abort_IT
 5669 01c0 DDE90112 		ldrd	r1, r2, [sp, #4]
 5670 01c4 039B     		ldr	r3, [sp, #12]
 5671 01c6 0028     		cmp	r0, #0
 5672 01c8 BAD0     		beq	.L1167
 5673 01ca E06B     		ldr	r0, [r4, #60]
 5674 01cc 0191     		str	r1, [sp, #4]
 5675 01ce 856B     		ldr	r5, [r0, #56]
 5676 01d0 CDE90223 		strd	r2, r3, [sp, #8]
 5677 01d4 A847     		blx	r5
 5678 01d6 DDE90223 		ldrd	r2, r3, [sp, #8]
 5679 01da 2568     		ldr	r5, [r4]
 5680 01dc E06B     		ldr	r0, [r4, #60]
 5681 01de 0199     		ldr	r1, [sp, #4]
 5682 01e0 35E7     		b	.L1138
 5683              	.L1146:
 5684 01e2 0822     		movs	r2, #8
 5685 01e4 DA61     		str	r2, [r3, #28]
 5686 01e6 61E7     		b	.L1147
 5687              	.L1150:
 5688 01e8 0220     		movs	r0, #2
 5689 01ea 74E7     		b	.L1163
 5690              	.L1152:
 5691 01ec B822     		movs	r2, #184
 5692 01ee 6DE7     		b	.L1148
 5693              	.L1172:
 5694              		.align	2
 5695              	.L1171:
 5696 01f0 00000000 		.word	I2C_Slave_ISR_DMA
 5697 01f4 00000000 		.word	I2C_DMASlaveReceiveCplt
 5698 01f8 00000000 		.word	I2C_DMAError
 5699 01fc 00000000 		.word	I2C_Master_ISR_DMA
 5700 0200 00000000 		.word	I2C_DMAAbort
 5702              		.section	.text.HAL_I2C_EnableListen_IT,"ax",%progbits
 5703              		.align	1
 5704              		.p2align 2,,3
 5705              		.global	HAL_I2C_EnableListen_IT
 5706              		.syntax unified
 5707              		.thumb
 5708              		.thumb_func
 5709              		.fpu fpv4-sp-d16
 5711              	HAL_I2C_EnableListen_IT:
 5712              		@ args = 0, pretend = 0, frame = 0
 5713              		@ frame_needed = 0, uses_anonymous_args = 0
 5714              		@ link register save eliminated.
 5715 0000 90F84130 		ldrb	r3, [r0, #65]	@ zero_extendqisi2
 5716 0004 202B     		cmp	r3, #32
 5717 0006 01D0     		beq	.L1176
 5718 0008 0220     		movs	r0, #2
ARM GAS  /tmp/ccNejxAl.s 			page 100


 5719 000a 7047     		bx	lr
 5720              	.L1176:
 5721 000c 0268     		ldr	r2, [r0]
 5722 000e 0549     		ldr	r1, .L1177
 5723 0010 2823     		movs	r3, #40
 5724 0012 80F84130 		strb	r3, [r0, #65]
 5725 0016 1368     		ldr	r3, [r2]
 5726 0018 4163     		str	r1, [r0, #52]
 5727 001a 43F0B803 		orr	r3, r3, #184
 5728 001e 0020     		movs	r0, #0
 5729 0020 1360     		str	r3, [r2]
 5730 0022 7047     		bx	lr
 5731              	.L1178:
 5732              		.align	2
 5733              	.L1177:
 5734 0024 00000000 		.word	I2C_Slave_ISR_IT
 5736              		.section	.text.HAL_I2C_DisableListen_IT,"ax",%progbits
 5737              		.align	1
 5738              		.p2align 2,,3
 5739              		.global	HAL_I2C_DisableListen_IT
 5740              		.syntax unified
 5741              		.thumb
 5742              		.thumb_func
 5743              		.fpu fpv4-sp-d16
 5745              	HAL_I2C_DisableListen_IT:
 5746              		@ args = 0, pretend = 0, frame = 0
 5747              		@ frame_needed = 0, uses_anonymous_args = 0
 5748              		@ link register save eliminated.
 5749 0000 90F84130 		ldrb	r3, [r0, #65]	@ zero_extendqisi2
 5750 0004 282B     		cmp	r3, #40
 5751 0006 01D0     		beq	.L1186
 5752 0008 0220     		movs	r0, #2
 5753 000a 7047     		bx	lr
 5754              	.L1186:
 5755 000c 10B4     		push	{r4}
 5756 000e 90F84110 		ldrb	r1, [r0, #65]	@ zero_extendqisi2
 5757 0012 90F84220 		ldrb	r2, [r0, #66]	@ zero_extendqisi2
 5758 0016 0468     		ldr	r4, [r0]
 5759 0018 01F00301 		and	r1, r1, #3
 5760 001c 0023     		movs	r3, #0
 5761 001e 0A43     		orrs	r2, r2, r1
 5762 0020 2021     		movs	r1, #32
 5763 0022 0263     		str	r2, [r0, #48]
 5764 0024 80F84110 		strb	r1, [r0, #65]
 5765 0028 80F84230 		strb	r3, [r0, #66]
 5766 002c 2268     		ldr	r2, [r4]
 5767 002e 4363     		str	r3, [r0, #52]
 5768 0030 22F0B802 		bic	r2, r2, #184
 5769 0034 2260     		str	r2, [r4]
 5770 0036 1846     		mov	r0, r3
 5771 0038 5DF8044B 		ldr	r4, [sp], #4
 5772 003c 7047     		bx	lr
 5774 003e 00BF     		.section	.text.HAL_I2C_Master_Abort_IT,"ax",%progbits
 5775              		.align	1
 5776              		.p2align 2,,3
 5777              		.global	HAL_I2C_Master_Abort_IT
 5778              		.syntax unified
ARM GAS  /tmp/ccNejxAl.s 			page 101


 5779              		.thumb
 5780              		.thumb_func
 5781              		.fpu fpv4-sp-d16
 5783              	HAL_I2C_Master_Abort_IT:
 5784              		@ args = 0, pretend = 0, frame = 0
 5785              		@ frame_needed = 0, uses_anonymous_args = 0
 5786              		@ link register save eliminated.
 5787 0000 90F84230 		ldrb	r3, [r0, #66]	@ zero_extendqisi2
 5788 0004 102B     		cmp	r3, #16
 5789 0006 33D1     		bne	.L1194
 5790 0008 90F84030 		ldrb	r3, [r0, #64]	@ zero_extendqisi2
 5791 000c 012B     		cmp	r3, #1
 5792 000e 31D0     		beq	.L1195
 5793 0010 30B4     		push	{r4, r5}
 5794 0012 90F84130 		ldrb	r3, [r0, #65]	@ zero_extendqisi2
 5795 0016 0122     		movs	r2, #1
 5796 0018 212B     		cmp	r3, #33
 5797 001a 80F84020 		strb	r2, [r0, #64]
 5798 001e 0268     		ldr	r2, [r0]
 5799 0020 3AD0     		beq	.L1204
 5800 0022 90F84130 		ldrb	r3, [r0, #65]	@ zero_extendqisi2
 5801 0026 222B     		cmp	r3, #34
 5802 0028 26D0     		beq	.L1205
 5803              	.L1191:
 5804 002a 6023     		movs	r3, #96
 5805 002c 80F84130 		strb	r3, [r0, #65]
 5806 0030 5468     		ldr	r4, [r2, #4]
 5807 0032 214D     		ldr	r5, .L1206
 5808 0034 C1F30901 		ubfx	r1, r1, #0, #10
 5809 0038 04EA050C 		and	ip, r4, r5
 5810 003c 41EA0C01 		orr	r1, r1, ip
 5811 0040 41F00071 		orr	r1, r1, #33554432
 5812 0044 41F4A031 		orr	r1, r1, #81920
 5813 0048 446B     		ldr	r4, [r0, #52]
 5814 004a 5160     		str	r1, [r2, #4]
 5815 004c 1B49     		ldr	r1, .L1206+4
 5816 004e 4FF0000C 		mov	ip, #0
 5817 0052 8C42     		cmp	r4, r1
 5818 0054 80F840C0 		strb	ip, [r0, #64]
 5819 0058 04D0     		beq	.L1193
 5820 005a 194B     		ldr	r3, .L1206+8
 5821 005c 9C42     		cmp	r4, r3
 5822 005e 0CBF     		ite	eq
 5823 0060 6023     		moveq	r3, #96
 5824 0062 2023     		movne	r3, #32
 5825              	.L1193:
 5826 0064 1168     		ldr	r1, [r2]
 5827 0066 0B43     		orrs	r3, r3, r1
 5828 0068 0020     		movs	r0, #0
 5829 006a 30BC     		pop	{r4, r5}
 5830 006c 1360     		str	r3, [r2]
 5831 006e 7047     		bx	lr
 5832              	.L1194:
 5833 0070 0120     		movs	r0, #1
 5834 0072 7047     		bx	lr
 5835              	.L1195:
 5836 0074 0220     		movs	r0, #2
ARM GAS  /tmp/ccNejxAl.s 			page 102


 5837 0076 7047     		bx	lr
 5838              	.L1205:
 5839 0078 90F84140 		ldrb	r4, [r0, #65]	@ zero_extendqisi2
 5840 007c 1368     		ldr	r3, [r2]
 5841 007e 04F02804 		and	r4, r4, #40
 5842 0082 282C     		cmp	r4, #40
 5843 0084 0CBF     		ite	eq
 5844 0086 6FF04404 		mvneq	r4, #68
 5845 008a 6FF0F404 		mvnne	r4, #244
 5846 008e 2340     		ands	r3, r3, r4
 5847 0090 1224     		movs	r4, #18
 5848 0092 1360     		str	r3, [r2]
 5849 0094 0463     		str	r4, [r0, #48]
 5850 0096 C8E7     		b	.L1191
 5851              	.L1204:
 5852 0098 90F84140 		ldrb	r4, [r0, #65]	@ zero_extendqisi2
 5853 009c 1368     		ldr	r3, [r2]
 5854 009e 04F02804 		and	r4, r4, #40
 5855 00a2 282C     		cmp	r4, #40
 5856 00a4 0CBF     		ite	eq
 5857 00a6 6FF04204 		mvneq	r4, #66
 5858 00aa 6FF0F204 		mvnne	r4, #242
 5859 00ae 2340     		ands	r3, r3, r4
 5860 00b0 1124     		movs	r4, #17
 5861 00b2 1360     		str	r3, [r2]
 5862 00b4 0463     		str	r4, [r0, #48]
 5863 00b6 B8E7     		b	.L1191
 5864              	.L1207:
 5865              		.align	2
 5866              	.L1206:
 5867 00b8 009800FC 		.word	-67069952
 5868 00bc 00000000 		.word	I2C_Master_ISR_DMA
 5869 00c0 00000000 		.word	I2C_Slave_ISR_DMA
 5871              		.section	.text.HAL_I2C_EV_IRQHandler,"ax",%progbits
 5872              		.align	1
 5873              		.p2align 2,,3
 5874              		.global	HAL_I2C_EV_IRQHandler
 5875              		.syntax unified
 5876              		.thumb
 5877              		.thumb_func
 5878              		.fpu fpv4-sp-d16
 5880              	HAL_I2C_EV_IRQHandler:
 5881              		@ args = 0, pretend = 0, frame = 0
 5882              		@ frame_needed = 0, uses_anonymous_args = 0
 5883              		@ link register save eliminated.
 5884 0000 0268     		ldr	r2, [r0]
 5885 0002 436B     		ldr	r3, [r0, #52]
 5886 0004 9169     		ldr	r1, [r2, #24]
 5887 0006 1268     		ldr	r2, [r2]
 5888 0008 03B1     		cbz	r3, .L1208
 5889 000a 1847     		bx	r3
 5890              	.L1208:
 5891 000c 7047     		bx	lr
 5893 000e 00BF     		.section	.text.HAL_I2C_MasterTxCpltCallback,"ax",%progbits
 5894              		.align	1
 5895              		.p2align 2,,3
 5896              		.weak	HAL_I2C_MasterTxCpltCallback
ARM GAS  /tmp/ccNejxAl.s 			page 103


 5897              		.syntax unified
 5898              		.thumb
 5899              		.thumb_func
 5900              		.fpu fpv4-sp-d16
 5902              	HAL_I2C_MasterTxCpltCallback:
 5903              		@ args = 0, pretend = 0, frame = 0
 5904              		@ frame_needed = 0, uses_anonymous_args = 0
 5905              		@ link register save eliminated.
 5906 0000 7047     		bx	lr
 5908 0002 00BF     		.section	.text.HAL_I2C_MasterRxCpltCallback,"ax",%progbits
 5909              		.align	1
 5910              		.p2align 2,,3
 5911              		.weak	HAL_I2C_MasterRxCpltCallback
 5912              		.syntax unified
 5913              		.thumb
 5914              		.thumb_func
 5915              		.fpu fpv4-sp-d16
 5917              	HAL_I2C_MasterRxCpltCallback:
 5918              		@ args = 0, pretend = 0, frame = 0
 5919              		@ frame_needed = 0, uses_anonymous_args = 0
 5920              		@ link register save eliminated.
 5921 0000 7047     		bx	lr
 5923 0002 00BF     		.section	.text.HAL_I2C_SlaveTxCpltCallback,"ax",%progbits
 5924              		.align	1
 5925              		.p2align 2,,3
 5926              		.weak	HAL_I2C_SlaveTxCpltCallback
 5927              		.syntax unified
 5928              		.thumb
 5929              		.thumb_func
 5930              		.fpu fpv4-sp-d16
 5932              	HAL_I2C_SlaveTxCpltCallback:
 5933              		@ args = 0, pretend = 0, frame = 0
 5934              		@ frame_needed = 0, uses_anonymous_args = 0
 5935              		@ link register save eliminated.
 5936 0000 7047     		bx	lr
 5938 0002 00BF     		.section	.text.HAL_I2C_SlaveRxCpltCallback,"ax",%progbits
 5939              		.align	1
 5940              		.p2align 2,,3
 5941              		.weak	HAL_I2C_SlaveRxCpltCallback
 5942              		.syntax unified
 5943              		.thumb
 5944              		.thumb_func
 5945              		.fpu fpv4-sp-d16
 5947              	HAL_I2C_SlaveRxCpltCallback:
 5948              		@ args = 0, pretend = 0, frame = 0
 5949              		@ frame_needed = 0, uses_anonymous_args = 0
 5950              		@ link register save eliminated.
 5951 0000 7047     		bx	lr
 5953 0002 00BF     		.section	.text.I2C_ITSlaveSeqCplt,"ax",%progbits
 5954              		.align	1
 5955              		.p2align 2,,3
 5956              		.syntax unified
 5957              		.thumb
 5958              		.thumb_func
 5959              		.fpu fpv4-sp-d16
 5961              	I2C_ITSlaveSeqCplt:
 5962              		@ args = 0, pretend = 0, frame = 0
ARM GAS  /tmp/ccNejxAl.s 			page 104


 5963              		@ frame_needed = 0, uses_anonymous_args = 0
 5964 0000 0168     		ldr	r1, [r0]
 5965 0002 08B5     		push	{r3, lr}
 5966 0004 0B68     		ldr	r3, [r1]
 5967 0006 0022     		movs	r2, #0
 5968 0008 80F84220 		strb	r2, [r0, #66]
 5969 000c 5A04     		lsls	r2, r3, #17
 5970 000e 24D5     		bpl	.L1215
 5971 0010 0B68     		ldr	r3, [r1]
 5972 0012 23F48043 		bic	r3, r3, #16384
 5973 0016 0B60     		str	r3, [r1]
 5974              	.L1216:
 5975 0018 90F84130 		ldrb	r3, [r0, #65]	@ zero_extendqisi2
 5976 001c 292B     		cmp	r3, #41
 5977 001e 26D0     		beq	.L1227
 5978              	.L1217:
 5979 0020 90F84130 		ldrb	r3, [r0, #65]	@ zero_extendqisi2
 5980 0024 2A2B     		cmp	r3, #42
 5981 0026 00D0     		beq	.L1228
 5982 0028 08BD     		pop	{r3, pc}
 5983              	.L1228:
 5984 002a 2822     		movs	r2, #40
 5985 002c 2223     		movs	r3, #34
 5986 002e 80F84120 		strb	r2, [r0, #65]
 5987 0032 0363     		str	r3, [r0, #48]
 5988 0034 90F84120 		ldrb	r2, [r0, #65]	@ zero_extendqisi2
 5989 0038 0B68     		ldr	r3, [r1]
 5990 003a 02F02802 		and	r2, r2, #40
 5991 003e 282A     		cmp	r2, #40
 5992 0040 0CBF     		ite	eq
 5993 0042 6FF04402 		mvneq	r2, #68
 5994 0046 6FF0F402 		mvnne	r2, #244
 5995 004a 1340     		ands	r3, r3, r2
 5996 004c 0022     		movs	r2, #0
 5997 004e 0B60     		str	r3, [r1]
 5998 0050 80F84020 		strb	r2, [r0, #64]
 5999 0054 FFF7FEFF 		bl	HAL_I2C_SlaveRxCpltCallback
 6000 0058 08BD     		pop	{r3, pc}
 6001              	.L1215:
 6002 005a 1B04     		lsls	r3, r3, #16
 6003 005c DCD5     		bpl	.L1216
 6004 005e 0B68     		ldr	r3, [r1]
 6005 0060 23F40043 		bic	r3, r3, #32768
 6006 0064 0B60     		str	r3, [r1]
 6007 0066 90F84130 		ldrb	r3, [r0, #65]	@ zero_extendqisi2
 6008 006a 292B     		cmp	r3, #41
 6009 006c D8D1     		bne	.L1217
 6010              	.L1227:
 6011 006e 2822     		movs	r2, #40
 6012 0070 2123     		movs	r3, #33
 6013 0072 80F84120 		strb	r2, [r0, #65]
 6014 0076 0363     		str	r3, [r0, #48]
 6015 0078 90F84120 		ldrb	r2, [r0, #65]	@ zero_extendqisi2
 6016 007c 0B68     		ldr	r3, [r1]
 6017 007e 02F02802 		and	r2, r2, #40
 6018 0082 282A     		cmp	r2, #40
 6019 0084 0CBF     		ite	eq
ARM GAS  /tmp/ccNejxAl.s 			page 105


 6020 0086 6FF04202 		mvneq	r2, #66
 6021 008a 6FF0F202 		mvnne	r2, #242
 6022 008e 1340     		ands	r3, r3, r2
 6023 0090 0022     		movs	r2, #0
 6024 0092 0B60     		str	r3, [r1]
 6025 0094 80F84020 		strb	r2, [r0, #64]
 6026 0098 FFF7FEFF 		bl	HAL_I2C_SlaveTxCpltCallback
 6027 009c 08BD     		pop	{r3, pc}
 6029 009e 00BF     		.section	.text.I2C_DMASlaveTransmitCplt,"ax",%progbits
 6030              		.align	1
 6031              		.p2align 2,,3
 6032              		.syntax unified
 6033              		.thumb
 6034              		.thumb_func
 6035              		.fpu fpv4-sp-d16
 6037              	I2C_DMASlaveTransmitCplt:
 6038              		@ args = 0, pretend = 0, frame = 0
 6039              		@ frame_needed = 0, uses_anonymous_args = 0
 6040 0000 806A     		ldr	r0, [r0, #40]
 6041 0002 08B5     		push	{r3, lr}
 6042 0004 C36A     		ldr	r3, [r0, #44]
 6043 0006 33F08073 		bics	r3, r3, #16777216
 6044 000a 15D1     		bne	.L1229
 6045 000c 0268     		ldr	r2, [r0]
 6046 000e 1168     		ldr	r1, [r2]
 6047 0010 21F48041 		bic	r1, r1, #16384
 6048 0014 1160     		str	r1, [r2]
 6049 0016 1168     		ldr	r1, [r2]
 6050 0018 80F84230 		strb	r3, [r0, #66]
 6051 001c 4B04     		lsls	r3, r1, #17
 6052 001e 0CD5     		bpl	.L1232
 6053 0020 1368     		ldr	r3, [r2]
 6054 0022 23F48043 		bic	r3, r3, #16384
 6055 0026 1360     		str	r3, [r2]
 6056              	.L1233:
 6057 0028 90F84130 		ldrb	r3, [r0, #65]	@ zero_extendqisi2
 6058 002c 292B     		cmp	r3, #41
 6059 002e 0ED0     		beq	.L1244
 6060              	.L1234:
 6061 0030 90F84130 		ldrb	r3, [r0, #65]	@ zero_extendqisi2
 6062 0034 2A2B     		cmp	r3, #42
 6063 0036 22D0     		beq	.L1245
 6064              	.L1229:
 6065 0038 08BD     		pop	{r3, pc}
 6066              	.L1232:
 6067 003a 0B04     		lsls	r3, r1, #16
 6068 003c F4D5     		bpl	.L1233
 6069 003e 1368     		ldr	r3, [r2]
 6070 0040 23F40043 		bic	r3, r3, #32768
 6071 0044 1360     		str	r3, [r2]
 6072 0046 90F84130 		ldrb	r3, [r0, #65]	@ zero_extendqisi2
 6073 004a 292B     		cmp	r3, #41
 6074 004c F0D1     		bne	.L1234
 6075              	.L1244:
 6076 004e 2821     		movs	r1, #40
 6077 0050 2123     		movs	r3, #33
 6078 0052 80F84110 		strb	r1, [r0, #65]
ARM GAS  /tmp/ccNejxAl.s 			page 106


 6079 0056 0363     		str	r3, [r0, #48]
 6080 0058 90F84130 		ldrb	r3, [r0, #65]	@ zero_extendqisi2
 6081 005c 1168     		ldr	r1, [r2]
 6082 005e 03F02803 		and	r3, r3, #40
 6083 0062 282B     		cmp	r3, #40
 6084 0064 0CBF     		ite	eq
 6085 0066 6FF04203 		mvneq	r3, #66
 6086 006a 6FF0F203 		mvnne	r3, #242
 6087 006e 0B40     		ands	r3, r3, r1
 6088 0070 0021     		movs	r1, #0
 6089 0072 1360     		str	r3, [r2]
 6090 0074 80F84010 		strb	r1, [r0, #64]
 6091 0078 FFF7FEFF 		bl	HAL_I2C_SlaveTxCpltCallback
 6092 007c 08BD     		pop	{r3, pc}
 6093              	.L1245:
 6094 007e 2821     		movs	r1, #40
 6095 0080 2223     		movs	r3, #34
 6096 0082 80F84110 		strb	r1, [r0, #65]
 6097 0086 0363     		str	r3, [r0, #48]
 6098 0088 90F84110 		ldrb	r1, [r0, #65]	@ zero_extendqisi2
 6099 008c 1368     		ldr	r3, [r2]
 6100 008e 01F02801 		and	r1, r1, #40
 6101 0092 2829     		cmp	r1, #40
 6102 0094 0CBF     		ite	eq
 6103 0096 6FF04401 		mvneq	r1, #68
 6104 009a 6FF0F401 		mvnne	r1, #244
 6105 009e 0B40     		ands	r3, r3, r1
 6106 00a0 0021     		movs	r1, #0
 6107 00a2 1360     		str	r3, [r2]
 6108 00a4 80F84010 		strb	r1, [r0, #64]
 6109 00a8 FFF7FEFF 		bl	HAL_I2C_SlaveRxCpltCallback
 6110 00ac 08BD     		pop	{r3, pc}
 6112 00ae 00BF     		.section	.text.I2C_DMASlaveReceiveCplt,"ax",%progbits
 6113              		.align	1
 6114              		.p2align 2,,3
 6115              		.syntax unified
 6116              		.thumb
 6117              		.thumb_func
 6118              		.fpu fpv4-sp-d16
 6120              	I2C_DMASlaveReceiveCplt:
 6121              		@ args = 0, pretend = 0, frame = 0
 6122              		@ frame_needed = 0, uses_anonymous_args = 0
 6123 0000 806A     		ldr	r0, [r0, #40]
 6124 0002 08B5     		push	{r3, lr}
 6125 0004 C36B     		ldr	r3, [r0, #60]
 6126 0006 C26A     		ldr	r2, [r0, #44]
 6127 0008 1B68     		ldr	r3, [r3]
 6128 000a 5B68     		ldr	r3, [r3, #4]
 6129 000c 13B9     		cbnz	r3, .L1246
 6130 000e 12F5803F 		cmn	r2, #65536
 6131 0012 00D1     		bne	.L1264
 6132              	.L1246:
 6133 0014 08BD     		pop	{r3, pc}
 6134              	.L1264:
 6135 0016 0268     		ldr	r2, [r0]
 6136 0018 1168     		ldr	r1, [r2]
 6137 001a 21F40041 		bic	r1, r1, #32768
ARM GAS  /tmp/ccNejxAl.s 			page 107


 6138 001e 1160     		str	r1, [r2]
 6139 0020 1168     		ldr	r1, [r2]
 6140 0022 80F84230 		strb	r3, [r0, #66]
 6141 0026 4B04     		lsls	r3, r1, #17
 6142 0028 25D4     		bmi	.L1265
 6143 002a 0B04     		lsls	r3, r1, #16
 6144 002c 03D5     		bpl	.L1251
 6145 002e 1368     		ldr	r3, [r2]
 6146 0030 23F40043 		bic	r3, r3, #32768
 6147 0034 1360     		str	r3, [r2]
 6148              	.L1251:
 6149 0036 90F84130 		ldrb	r3, [r0, #65]	@ zero_extendqisi2
 6150 003a 292B     		cmp	r3, #41
 6151 003c 20D0     		beq	.L1266
 6152 003e 90F84130 		ldrb	r3, [r0, #65]	@ zero_extendqisi2
 6153 0042 2A2B     		cmp	r3, #42
 6154 0044 E6D1     		bne	.L1246
 6155 0046 2821     		movs	r1, #40
 6156 0048 2223     		movs	r3, #34
 6157 004a 80F84110 		strb	r1, [r0, #65]
 6158 004e 0363     		str	r3, [r0, #48]
 6159 0050 90F84110 		ldrb	r1, [r0, #65]	@ zero_extendqisi2
 6160 0054 1368     		ldr	r3, [r2]
 6161 0056 01F02801 		and	r1, r1, #40
 6162 005a 2829     		cmp	r1, #40
 6163 005c 0CBF     		ite	eq
 6164 005e 6FF04401 		mvneq	r1, #68
 6165 0062 6FF0F401 		mvnne	r1, #244
 6166 0066 0B40     		ands	r3, r3, r1
 6167 0068 0021     		movs	r1, #0
 6168 006a 1360     		str	r3, [r2]
 6169 006c 80F84010 		strb	r1, [r0, #64]
 6170 0070 FFF7FEFF 		bl	HAL_I2C_SlaveRxCpltCallback
 6171 0074 08BD     		pop	{r3, pc}
 6172              	.L1265:
 6173 0076 1368     		ldr	r3, [r2]
 6174 0078 23F48043 		bic	r3, r3, #16384
 6175 007c 1360     		str	r3, [r2]
 6176 007e DAE7     		b	.L1251
 6177              	.L1266:
 6178 0080 2821     		movs	r1, #40
 6179 0082 2123     		movs	r3, #33
 6180 0084 80F84110 		strb	r1, [r0, #65]
 6181 0088 0363     		str	r3, [r0, #48]
 6182 008a 90F84110 		ldrb	r1, [r0, #65]	@ zero_extendqisi2
 6183 008e 1368     		ldr	r3, [r2]
 6184 0090 01F02801 		and	r1, r1, #40
 6185 0094 2829     		cmp	r1, #40
 6186 0096 0CBF     		ite	eq
 6187 0098 6FF04201 		mvneq	r1, #66
 6188 009c 6FF0F201 		mvnne	r1, #242
 6189 00a0 0B40     		ands	r3, r3, r1
 6190 00a2 0021     		movs	r1, #0
 6191 00a4 1360     		str	r3, [r2]
 6192 00a6 80F84010 		strb	r1, [r0, #64]
 6193 00aa FFF7FEFF 		bl	HAL_I2C_SlaveTxCpltCallback
 6194 00ae 08BD     		pop	{r3, pc}
ARM GAS  /tmp/ccNejxAl.s 			page 108


 6196              		.section	.text.HAL_I2C_AddrCallback,"ax",%progbits
 6197              		.align	1
 6198              		.p2align 2,,3
 6199              		.weak	HAL_I2C_AddrCallback
 6200              		.syntax unified
 6201              		.thumb
 6202              		.thumb_func
 6203              		.fpu fpv4-sp-d16
 6205              	HAL_I2C_AddrCallback:
 6206              		@ args = 0, pretend = 0, frame = 0
 6207              		@ frame_needed = 0, uses_anonymous_args = 0
 6208              		@ link register save eliminated.
 6209 0000 7047     		bx	lr
 6211 0002 00BF     		.section	.text.I2C_ITAddrCplt.part.0,"ax",%progbits
 6212              		.align	1
 6213              		.p2align 2,,3
 6214              		.syntax unified
 6215              		.thumb
 6216              		.thumb_func
 6217              		.fpu fpv4-sp-d16
 6219              	I2C_ITAddrCplt.part.0:
 6220              		@ args = 0, pretend = 0, frame = 0
 6221              		@ frame_needed = 0, uses_anonymous_args = 0
 6222 0000 70B5     		push	{r4, r5, r6, lr}
 6223 0002 0468     		ldr	r4, [r0]
 6224 0004 C368     		ldr	r3, [r0, #12]
 6225 0006 A169     		ldr	r1, [r4, #24]
 6226 0008 A269     		ldr	r2, [r4, #24]
 6227 000a A568     		ldr	r5, [r4, #8]
 6228 000c E668     		ldr	r6, [r4, #12]
 6229 000e 120C     		lsrs	r2, r2, #16
 6230 0010 022B     		cmp	r3, #2
 6231 0012 8446     		mov	ip, r0
 6232 0014 C1F30041 		ubfx	r1, r1, #16, #1
 6233 0018 02F0FE02 		and	r2, r2, #254
 6234 001c 0FD1     		bne	.L1269
 6235 001e 82EAD513 		eor	r3, r2, r5, lsr #7
 6236 0022 13F00603 		ands	r3, r3, #6
 6237 0026 C5F30902 		ubfx	r2, r5, #0, #10
 6238 002a 06D1     		bne	.L1270
 6239 002c 856C     		ldr	r5, [r0, #72]
 6240 002e 0135     		adds	r5, r5, #1
 6241 0030 8564     		str	r5, [r0, #72]
 6242 0032 856C     		ldr	r5, [r0, #72]
 6243 0034 022D     		cmp	r5, #2
 6244 0036 0CD0     		beq	.L1273
 6245 0038 70BD     		pop	{r4, r5, r6, pc}
 6246              	.L1270:
 6247 003a 06F0FE02 		and	r2, r6, #254
 6248              	.L1269:
 6249 003e 2368     		ldr	r3, [r4]
 6250 0040 23F0B803 		bic	r3, r3, #184
 6251 0044 2360     		str	r3, [r4]
 6252 0046 0023     		movs	r3, #0
 6253 0048 8CF84030 		strb	r3, [ip, #64]
 6254 004c FFF7FEFF 		bl	HAL_I2C_AddrCallback
 6255 0050 70BD     		pop	{r4, r5, r6, pc}
ARM GAS  /tmp/ccNejxAl.s 			page 109


 6256              	.L1273:
 6257 0052 0825     		movs	r5, #8
 6258 0054 8364     		str	r3, [r0, #72]
 6259 0056 E561     		str	r5, [r4, #28]
 6260 0058 80F84030 		strb	r3, [r0, #64]
 6261 005c FFF7FEFF 		bl	HAL_I2C_AddrCallback
 6262 0060 70BD     		pop	{r4, r5, r6, pc}
 6264 0062 00BF     		.section	.text.HAL_I2C_ListenCpltCallback,"ax",%progbits
 6265              		.align	1
 6266              		.p2align 2,,3
 6267              		.weak	HAL_I2C_ListenCpltCallback
 6268              		.syntax unified
 6269              		.thumb
 6270              		.thumb_func
 6271              		.fpu fpv4-sp-d16
 6273              	HAL_I2C_ListenCpltCallback:
 6274              		@ args = 0, pretend = 0, frame = 0
 6275              		@ frame_needed = 0, uses_anonymous_args = 0
 6276              		@ link register save eliminated.
 6277 0000 7047     		bx	lr
 6279 0002 00BF     		.section	.text.HAL_I2C_MemTxCpltCallback,"ax",%progbits
 6280              		.align	1
 6281              		.p2align 2,,3
 6282              		.weak	HAL_I2C_MemTxCpltCallback
 6283              		.syntax unified
 6284              		.thumb
 6285              		.thumb_func
 6286              		.fpu fpv4-sp-d16
 6288              	HAL_I2C_MemTxCpltCallback:
 6289              		@ args = 0, pretend = 0, frame = 0
 6290              		@ frame_needed = 0, uses_anonymous_args = 0
 6291              		@ link register save eliminated.
 6292 0000 7047     		bx	lr
 6294 0002 00BF     		.section	.text.HAL_I2C_MemRxCpltCallback,"ax",%progbits
 6295              		.align	1
 6296              		.p2align 2,,3
 6297              		.weak	HAL_I2C_MemRxCpltCallback
 6298              		.syntax unified
 6299              		.thumb
 6300              		.thumb_func
 6301              		.fpu fpv4-sp-d16
 6303              	HAL_I2C_MemRxCpltCallback:
 6304              		@ args = 0, pretend = 0, frame = 0
 6305              		@ frame_needed = 0, uses_anonymous_args = 0
 6306              		@ link register save eliminated.
 6307 0000 7047     		bx	lr
 6309 0002 00BF     		.section	.text.HAL_I2C_ErrorCallback,"ax",%progbits
 6310              		.align	1
 6311              		.p2align 2,,3
 6312              		.weak	HAL_I2C_ErrorCallback
 6313              		.syntax unified
 6314              		.thumb
 6315              		.thumb_func
 6316              		.fpu fpv4-sp-d16
 6318              	HAL_I2C_ErrorCallback:
 6319              		@ args = 0, pretend = 0, frame = 0
 6320              		@ frame_needed = 0, uses_anonymous_args = 0
ARM GAS  /tmp/ccNejxAl.s 			page 110


 6321              		@ link register save eliminated.
 6322 0000 7047     		bx	lr
 6324 0002 00BF     		.section	.text.HAL_I2C_AbortCpltCallback,"ax",%progbits
 6325              		.align	1
 6326              		.p2align 2,,3
 6327              		.weak	HAL_I2C_AbortCpltCallback
 6328              		.syntax unified
 6329              		.thumb
 6330              		.thumb_func
 6331              		.fpu fpv4-sp-d16
 6333              	HAL_I2C_AbortCpltCallback:
 6334              		@ args = 0, pretend = 0, frame = 0
 6335              		@ frame_needed = 0, uses_anonymous_args = 0
 6336              		@ link register save eliminated.
 6337 0000 7047     		bx	lr
 6339 0002 00BF     		.section	.text.I2C_DMAAbort,"ax",%progbits
 6340              		.align	1
 6341              		.p2align 2,,3
 6342              		.syntax unified
 6343              		.thumb
 6344              		.thumb_func
 6345              		.fpu fpv4-sp-d16
 6347              	I2C_DMAAbort:
 6348              		@ args = 0, pretend = 0, frame = 0
 6349              		@ frame_needed = 0, uses_anonymous_args = 0
 6350 0000 806A     		ldr	r0, [r0, #40]
 6351 0002 08B5     		push	{r3, lr}
 6352 0004 836B     		ldr	r3, [r0, #56]
 6353 0006 0BB1     		cbz	r3, .L1280
 6354 0008 0022     		movs	r2, #0
 6355 000a 9A63     		str	r2, [r3, #56]
 6356              	.L1280:
 6357 000c C36B     		ldr	r3, [r0, #60]
 6358 000e 0BB1     		cbz	r3, .L1281
 6359 0010 0022     		movs	r2, #0
 6360 0012 9A63     		str	r2, [r3, #56]
 6361              	.L1281:
 6362 0014 90F84130 		ldrb	r3, [r0, #65]	@ zero_extendqisi2
 6363 0018 602B     		cmp	r3, #96
 6364 001a 4FF00003 		mov	r3, #0
 6365 001e 05D0     		beq	.L1291
 6366 0020 0363     		str	r3, [r0, #48]
 6367 0022 80F84030 		strb	r3, [r0, #64]
 6368 0026 FFF7FEFF 		bl	HAL_I2C_ErrorCallback
 6369 002a 08BD     		pop	{r3, pc}
 6370              	.L1291:
 6371 002c 2022     		movs	r2, #32
 6372 002e 80F84120 		strb	r2, [r0, #65]
 6373 0032 80F84030 		strb	r3, [r0, #64]
 6374 0036 0363     		str	r3, [r0, #48]
 6375 0038 FFF7FEFF 		bl	HAL_I2C_AbortCpltCallback
 6376 003c 08BD     		pop	{r3, pc}
 6378 003e 00BF     		.section	.text.I2C_ITError,"ax",%progbits
 6379              		.align	1
 6380              		.p2align 2,,3
 6381              		.syntax unified
 6382              		.thumb
ARM GAS  /tmp/ccNejxAl.s 			page 111


 6383              		.thumb_func
 6384              		.fpu fpv4-sp-d16
 6386              	I2C_ITError:
 6387              		@ args = 0, pretend = 0, frame = 0
 6388              		@ frame_needed = 0, uses_anonymous_args = 0
 6389 0000 10B5     		push	{r4, lr}
 6390 0002 0446     		mov	r4, r0
 6391 0004 0022     		movs	r2, #0
 6392 0006 4948     		ldr	r0, .L1345
 6393 0008 94F84130 		ldrb	r3, [r4, #65]	@ zero_extendqisi2
 6394 000c 84F84220 		strb	r2, [r4, #66]
 6395 0010 E062     		str	r0, [r4, #44]
 6396 0012 6285     		strh	r2, [r4, #42]	@ movhi
 6397 0014 626C     		ldr	r2, [r4, #68]
 6398 0016 1143     		orrs	r1, r1, r2
 6399 0018 A3F12802 		sub	r2, r3, #40
 6400 001c 6164     		str	r1, [r4, #68]
 6401 001e 022A     		cmp	r2, #2
 6402 0020 2368     		ldr	r3, [r4]
 6403 0022 94F84120 		ldrb	r2, [r4, #65]	@ zero_extendqisi2
 6404 0026 62D8     		bhi	.L1293
 6405 0028 94F84100 		ldrb	r0, [r4, #65]	@ zero_extendqisi2
 6406 002c 02F02802 		and	r2, r2, #40
 6407 0030 282A     		cmp	r2, #40
 6408 0032 00F02800 		and	r0, r0, #40
 6409 0036 18BF     		it	ne
 6410 0038 6FF0F601 		mvnne	r1, #246
 6411 003c 1A68     		ldr	r2, [r3]
 6412 003e 08BF     		it	eq
 6413 0040 6FF04601 		mvneq	r1, #70
 6414 0044 2828     		cmp	r0, #40
 6415 0046 18BF     		it	ne
 6416 0048 6FF0F601 		mvnne	r1, #246
 6417 004c 0A40     		ands	r2, r2, r1
 6418 004e 2820     		movs	r0, #40
 6419 0050 3749     		ldr	r1, .L1345+4
 6420 0052 1A60     		str	r2, [r3]
 6421 0054 84F84100 		strb	r0, [r4, #65]
 6422              	.L1296:
 6423 0058 A06B     		ldr	r0, [r4, #56]
 6424 005a 226B     		ldr	r2, [r4, #48]
 6425 005c 6163     		str	r1, [r4, #52]
 6426 005e 18B1     		cbz	r0, .L1298
 6427 0060 112A     		cmp	r2, #17
 6428 0062 14D0     		beq	.L1299
 6429 0064 212A     		cmp	r2, #33
 6430 0066 12D0     		beq	.L1299
 6431              	.L1298:
 6432 0068 E06B     		ldr	r0, [r4, #60]
 6433 006a 18B1     		cbz	r0, .L1305
 6434 006c 122A     		cmp	r2, #18
 6435 006e 24D0     		beq	.L1306
 6436 0070 222A     		cmp	r2, #34
 6437 0072 22D0     		beq	.L1306
 6438              	.L1305:
 6439 0074 94F84130 		ldrb	r3, [r4, #65]	@ zero_extendqisi2
 6440 0078 602B     		cmp	r3, #96
ARM GAS  /tmp/ccNejxAl.s 			page 112


 6441 007a 4FF00003 		mov	r3, #0
 6442 007e 4AD0     		beq	.L1343
 6443 0080 2363     		str	r3, [r4, #48]
 6444 0082 84F84030 		strb	r3, [r4, #64]
 6445 0086 2046     		mov	r0, r4
 6446 0088 FFF7FEFF 		bl	HAL_I2C_ErrorCallback
 6447              	.L1292:
 6448 008c 10BD     		pop	{r4, pc}
 6449              	.L1299:
 6450 008e 1A68     		ldr	r2, [r3]
 6451 0090 5104     		lsls	r1, r2, #17
 6452 0092 3BD4     		bmi	.L1344
 6453              	.L1300:
 6454 0094 FFF7FEFF 		bl	HAL_DMA_GetState
 6455 0098 0128     		cmp	r0, #1
 6456 009a EBD0     		beq	.L1305
 6457 009c A06B     		ldr	r0, [r4, #56]
 6458 009e 254A     		ldr	r2, .L1345+8
 6459 00a0 8263     		str	r2, [r0, #56]
 6460 00a2 0023     		movs	r3, #0
 6461 00a4 84F84030 		strb	r3, [r4, #64]
 6462 00a8 FFF7FEFF 		bl	HAL_DMA_Abort_IT
 6463 00ac 0028     		cmp	r0, #0
 6464 00ae EDD0     		beq	.L1292
 6465 00b0 A06B     		ldr	r0, [r4, #56]
 6466 00b2 BDE81040 		pop	{r4, lr}
 6467 00b6 836B     		ldr	r3, [r0, #56]
 6468 00b8 1847     		bx	r3	@ indirect register sibling call
 6469              	.L1306:
 6470 00ba 1A68     		ldr	r2, [r3]
 6471 00bc 1204     		lsls	r2, r2, #16
 6472 00be 03D5     		bpl	.L1307
 6473 00c0 1A68     		ldr	r2, [r3]
 6474 00c2 22F40042 		bic	r2, r2, #32768
 6475 00c6 1A60     		str	r2, [r3]
 6476              	.L1307:
 6477 00c8 FFF7FEFF 		bl	HAL_DMA_GetState
 6478 00cc 0128     		cmp	r0, #1
 6479 00ce D1D0     		beq	.L1305
 6480 00d0 E06B     		ldr	r0, [r4, #60]
 6481 00d2 184A     		ldr	r2, .L1345+8
 6482 00d4 8263     		str	r2, [r0, #56]
 6483 00d6 0023     		movs	r3, #0
 6484 00d8 84F84030 		strb	r3, [r4, #64]
 6485 00dc FFF7FEFF 		bl	HAL_DMA_Abort_IT
 6486 00e0 0028     		cmp	r0, #0
 6487 00e2 D3D0     		beq	.L1292
 6488 00e4 E06B     		ldr	r0, [r4, #60]
 6489 00e6 BDE81040 		pop	{r4, lr}
 6490 00ea 836B     		ldr	r3, [r0, #56]
 6491 00ec 1847     		bx	r3	@ indirect register sibling call
 6492              	.L1293:
 6493 00ee 94F84120 		ldrb	r2, [r4, #65]	@ zero_extendqisi2
 6494 00f2 1A68     		ldr	r2, [r3]
 6495 00f4 22F0FE02 		bic	r2, r2, #254
 6496 00f8 1A60     		str	r2, [r3]
 6497 00fa 94F84120 		ldrb	r2, [r4, #65]	@ zero_extendqisi2
ARM GAS  /tmp/ccNejxAl.s 			page 113


 6498 00fe 602A     		cmp	r2, #96
 6499 0100 1CBF     		itt	ne
 6500 0102 2022     		movne	r2, #32
 6501 0104 84F84120 		strbne	r2, [r4, #65]
 6502 0108 0021     		movs	r1, #0
 6503 010a A5E7     		b	.L1296
 6504              	.L1344:
 6505 010c 1A68     		ldr	r2, [r3]
 6506 010e 22F48042 		bic	r2, r2, #16384
 6507 0112 1A60     		str	r2, [r3]
 6508 0114 BEE7     		b	.L1300
 6509              	.L1343:
 6510 0116 2022     		movs	r2, #32
 6511 0118 84F84120 		strb	r2, [r4, #65]
 6512 011c 84F84030 		strb	r3, [r4, #64]
 6513 0120 2363     		str	r3, [r4, #48]
 6514 0122 2046     		mov	r0, r4
 6515 0124 FFF7FEFF 		bl	HAL_I2C_AbortCpltCallback
 6516 0128 10BD     		pop	{r4, pc}
 6517              	.L1346:
 6518 012a 00BF     		.align	2
 6519              	.L1345:
 6520 012c 0000FFFF 		.word	-65536
 6521 0130 00000000 		.word	I2C_Slave_ISR_IT
 6522 0134 00000000 		.word	I2C_DMAAbort
 6524              		.section	.text.I2C_ITMasterCplt,"ax",%progbits
 6525              		.align	1
 6526              		.p2align 2,,3
 6527              		.syntax unified
 6528              		.thumb
 6529              		.thumb_func
 6530              		.fpu fpv4-sp-d16
 6532              	I2C_ITMasterCplt:
 6533              		@ args = 0, pretend = 0, frame = 8
 6534              		@ frame_needed = 0, uses_anonymous_args = 0
 6535 0000 0368     		ldr	r3, [r0]
 6536 0002 30B5     		push	{r4, r5, lr}
 6537 0004 2022     		movs	r2, #32
 6538 0006 DA61     		str	r2, [r3, #28]
 6539 0008 90F84120 		ldrb	r2, [r0, #65]	@ zero_extendqisi2
 6540 000c 212A     		cmp	r2, #33
 6541 000e 83B0     		sub	sp, sp, #12
 6542 0010 50D0     		beq	.L1377
 6543 0012 90F84120 		ldrb	r2, [r0, #65]	@ zero_extendqisi2
 6544 0016 222A     		cmp	r2, #34
 6545 0018 35D0     		beq	.L1378
 6546              	.L1350:
 6547 001a 5A68     		ldr	r2, [r3, #4]
 6548 001c 3F4C     		ldr	r4, .L1384
 6549 001e 0025     		movs	r5, #0
 6550 0020 2240     		ands	r2, r2, r4
 6551 0022 5A60     		str	r2, [r3, #4]
 6552 0024 3E4C     		ldr	r4, .L1384+4
 6553 0026 4563     		str	r5, [r0, #52]
 6554 0028 CD06     		lsls	r5, r1, #27
 6555 002a C462     		str	r4, [r0, #44]
 6556 002c 05D5     		bpl	.L1352
ARM GAS  /tmp/ccNejxAl.s 			page 114


 6557 002e 1022     		movs	r2, #16
 6558 0030 DA61     		str	r2, [r3, #28]
 6559 0032 426C     		ldr	r2, [r0, #68]
 6560 0034 42F00402 		orr	r2, r2, #4
 6561 0038 4264     		str	r2, [r0, #68]
 6562              	.L1352:
 6563 003a 90F84120 		ldrb	r2, [r0, #65]	@ zero_extendqisi2
 6564 003e 602A     		cmp	r2, #96
 6565 0040 31D0     		beq	.L1379
 6566              	.L1353:
 6567 0042 9A69     		ldr	r2, [r3, #24]
 6568 0044 9107     		lsls	r1, r2, #30
 6569 0046 44BF     		itt	mi
 6570 0048 0022     		movmi	r2, #0
 6571 004a 9A62     		strmi	r2, [r3, #40]
 6572 004c 9A69     		ldr	r2, [r3, #24]
 6573 004e D207     		lsls	r2, r2, #31
 6574 0050 03D4     		bmi	.L1355
 6575 0052 9A69     		ldr	r2, [r3, #24]
 6576 0054 42F00102 		orr	r2, r2, #1
 6577 0058 9A61     		str	r2, [r3, #24]
 6578              	.L1355:
 6579 005a 436C     		ldr	r3, [r0, #68]
 6580 005c 90F84120 		ldrb	r2, [r0, #65]	@ zero_extendqisi2
 6581 0060 602A     		cmp	r2, #96
 6582 0062 0AD0     		beq	.L1356
 6583 0064 4BB9     		cbnz	r3, .L1356
 6584 0066 90F84120 		ldrb	r2, [r0, #65]	@ zero_extendqisi2
 6585 006a 212A     		cmp	r2, #33
 6586 006c 41D0     		beq	.L1380
 6587 006e 90F84120 		ldrb	r2, [r0, #65]	@ zero_extendqisi2
 6588 0072 222A     		cmp	r2, #34
 6589 0074 2ED0     		beq	.L1381
 6590              	.L1347:
 6591 0076 03B0     		add	sp, sp, #12
 6592              		@ sp needed
 6593 0078 30BD     		pop	{r4, r5, pc}
 6594              	.L1356:
 6595 007a 416C     		ldr	r1, [r0, #68]
 6596 007c 03B0     		add	sp, sp, #12
 6597              		@ sp needed
 6598 007e BDE83040 		pop	{r4, r5, lr}
 6599 0082 FFF7FEBF 		b	I2C_ITError
 6600              	.L1378:
 6601 0086 90F84140 		ldrb	r4, [r0, #65]	@ zero_extendqisi2
 6602 008a 1A68     		ldr	r2, [r3]
 6603 008c 04F02804 		and	r4, r4, #40
 6604 0090 282C     		cmp	r4, #40
 6605 0092 0CBF     		ite	eq
 6606 0094 6FF04404 		mvneq	r4, #68
 6607 0098 6FF0F404 		mvnne	r4, #244
 6608 009c 2240     		ands	r2, r2, r4
 6609 009e 1224     		movs	r4, #18
 6610 00a0 1A60     		str	r2, [r3]
 6611 00a2 0463     		str	r4, [r0, #48]
 6612 00a4 B9E7     		b	.L1350
 6613              	.L1379:
ARM GAS  /tmp/ccNejxAl.s 			page 115


 6614 00a6 4C07     		lsls	r4, r1, #29
 6615 00a8 CBD5     		bpl	.L1353
 6616 00aa 5A6A     		ldr	r2, [r3, #36]
 6617 00ac D2B2     		uxtb	r2, r2
 6618 00ae 0192     		str	r2, [sp, #4]
 6619 00b0 019A     		ldr	r2, [sp, #4]
 6620 00b2 C6E7     		b	.L1353
 6621              	.L1377:
 6622 00b4 90F84140 		ldrb	r4, [r0, #65]	@ zero_extendqisi2
 6623 00b8 1A68     		ldr	r2, [r3]
 6624 00ba 04F02804 		and	r4, r4, #40
 6625 00be 282C     		cmp	r4, #40
 6626 00c0 0CBF     		ite	eq
 6627 00c2 6FF04204 		mvneq	r4, #66
 6628 00c6 6FF0F204 		mvnne	r4, #242
 6629 00ca 2240     		ands	r2, r2, r4
 6630 00cc 1124     		movs	r4, #17
 6631 00ce 1A60     		str	r2, [r3]
 6632 00d0 0463     		str	r4, [r0, #48]
 6633 00d2 A2E7     		b	.L1350
 6634              	.L1381:
 6635 00d4 2022     		movs	r2, #32
 6636 00d6 80F84120 		strb	r2, [r0, #65]
 6637 00da 0363     		str	r3, [r0, #48]
 6638 00dc 90F84220 		ldrb	r2, [r0, #66]	@ zero_extendqisi2
 6639 00e0 80F84030 		strb	r3, [r0, #64]
 6640 00e4 402A     		cmp	r2, #64
 6641 00e6 80F84230 		strb	r3, [r0, #66]
 6642 00ea 14D0     		beq	.L1382
 6643 00ec FFF7FEFF 		bl	HAL_I2C_MasterRxCpltCallback
 6644 00f0 C1E7     		b	.L1347
 6645              	.L1380:
 6646 00f2 2022     		movs	r2, #32
 6647 00f4 80F84120 		strb	r2, [r0, #65]
 6648 00f8 0363     		str	r3, [r0, #48]
 6649 00fa 90F84220 		ldrb	r2, [r0, #66]	@ zero_extendqisi2
 6650 00fe 80F84030 		strb	r3, [r0, #64]
 6651 0102 402A     		cmp	r2, #64
 6652 0104 80F84230 		strb	r3, [r0, #66]
 6653 0108 02D0     		beq	.L1383
 6654 010a FFF7FEFF 		bl	HAL_I2C_MasterTxCpltCallback
 6655 010e B2E7     		b	.L1347
 6656              	.L1383:
 6657 0110 FFF7FEFF 		bl	HAL_I2C_MemTxCpltCallback
 6658 0114 AFE7     		b	.L1347
 6659              	.L1382:
 6660 0116 FFF7FEFF 		bl	HAL_I2C_MemRxCpltCallback
 6661 011a ACE7     		b	.L1347
 6662              	.L1385:
 6663              		.align	2
 6664              	.L1384:
