ARM GAS  /tmp/ccBlLOuq.s 			page 1


   1              		.cpu cortex-m4
   2              		.eabi_attribute 27, 1
   3              		.eabi_attribute 28, 1
   4              		.eabi_attribute 20, 1
   5              		.eabi_attribute 21, 1
   6              		.eabi_attribute 23, 3
   7              		.eabi_attribute 24, 1
   8              		.eabi_attribute 25, 1
   9              		.eabi_attribute 26, 1
  10              		.eabi_attribute 30, 2
  11              		.eabi_attribute 34, 1
  12              		.eabi_attribute 18, 4
  13              		.file	"stm32l4xx_hal_pwr.c"
  14              		.text
  15              		.section	.text.HAL_PWR_DeInit,"ax",%progbits
  16              		.align	1
  17              		.p2align 2,,3
  18              		.global	HAL_PWR_DeInit
  19              		.arch armv7e-m
  20              		.syntax unified
  21              		.thumb
  22              		.thumb_func
  23              		.fpu fpv4-sp-d16
  25              	HAL_PWR_DeInit:
  26              		@ args = 0, pretend = 0, frame = 0
  27              		@ frame_needed = 0, uses_anonymous_args = 0
  28              		@ link register save eliminated.
  29 0000 044B     		ldr	r3, .L3
  30 0002 9A6B     		ldr	r2, [r3, #56]
  31 0004 42F08052 		orr	r2, r2, #268435456
  32 0008 9A63     		str	r2, [r3, #56]
  33 000a 9A6B     		ldr	r2, [r3, #56]
  34 000c 22F08052 		bic	r2, r2, #268435456
  35 0010 9A63     		str	r2, [r3, #56]
  36 0012 7047     		bx	lr
  37              	.L4:
  38              		.align	2
  39              	.L3:
  40 0014 00100240 		.word	1073876992
  42              		.section	.text.HAL_PWR_EnableBkUpAccess,"ax",%progbits
  43              		.align	1
  44              		.p2align 2,,3
  45              		.global	HAL_PWR_EnableBkUpAccess
  46              		.syntax unified
  47              		.thumb
  48              		.thumb_func
  49              		.fpu fpv4-sp-d16
  51              	HAL_PWR_EnableBkUpAccess:
  52              		@ args = 0, pretend = 0, frame = 0
  53              		@ frame_needed = 0, uses_anonymous_args = 0
  54              		@ link register save eliminated.
  55 0000 024A     		ldr	r2, .L6
  56 0002 1368     		ldr	r3, [r2]
  57 0004 43F48073 		orr	r3, r3, #256
  58 0008 1360     		str	r3, [r2]
  59 000a 7047     		bx	lr
  60              	.L7:
ARM GAS  /tmp/ccBlLOuq.s 			page 2


  61              		.align	2
  62              	.L6:
  63 000c 00700040 		.word	1073770496
  65              		.section	.text.HAL_PWR_DisableBkUpAccess,"ax",%progbits
  66              		.align	1
  67              		.p2align 2,,3
  68              		.global	HAL_PWR_DisableBkUpAccess
  69              		.syntax unified
  70              		.thumb
  71              		.thumb_func
  72              		.fpu fpv4-sp-d16
  74              	HAL_PWR_DisableBkUpAccess:
  75              		@ args = 0, pretend = 0, frame = 0
  76              		@ frame_needed = 0, uses_anonymous_args = 0
  77              		@ link register save eliminated.
  78 0000 024A     		ldr	r2, .L9
  79 0002 1368     		ldr	r3, [r2]
  80 0004 23F48073 		bic	r3, r3, #256
  81 0008 1360     		str	r3, [r2]
  82 000a 7047     		bx	lr
  83              	.L10:
  84              		.align	2
  85              	.L9:
  86 000c 00700040 		.word	1073770496
  88              		.section	.text.HAL_PWR_ConfigPVD,"ax",%progbits
  89              		.align	1
  90              		.p2align 2,,3
  91              		.global	HAL_PWR_ConfigPVD
  92              		.syntax unified
  93              		.thumb
  94              		.thumb_func
  95              		.fpu fpv4-sp-d16
  97              	HAL_PWR_ConfigPVD:
  98              		@ args = 0, pretend = 0, frame = 0
  99              		@ frame_needed = 0, uses_anonymous_args = 0
 100              		@ link register save eliminated.
 101 0000 1C49     		ldr	r1, .L29
 102 0002 1D4B     		ldr	r3, .L29+4
 103 0004 4A68     		ldr	r2, [r1, #4]
 104 0006 10B4     		push	{r4}
 105 0008 0468     		ldr	r4, [r0]
 106 000a 22F00E02 		bic	r2, r2, #14
 107 000e 2243     		orrs	r2, r2, r4
 108 0010 4A60     		str	r2, [r1, #4]
 109 0012 5A68     		ldr	r2, [r3, #4]
 110 0014 22F48032 		bic	r2, r2, #65536
 111 0018 5A60     		str	r2, [r3, #4]
 112 001a 1A68     		ldr	r2, [r3]
 113 001c 22F48032 		bic	r2, r2, #65536
 114 0020 1A60     		str	r2, [r3]
 115 0022 DA68     		ldr	r2, [r3, #12]
 116 0024 22F48032 		bic	r2, r2, #65536
 117 0028 DA60     		str	r2, [r3, #12]
 118 002a 9A68     		ldr	r2, [r3, #8]
 119 002c 22F48032 		bic	r2, r2, #65536
 120 0030 9A60     		str	r2, [r3, #8]
 121 0032 4268     		ldr	r2, [r0, #4]
ARM GAS  /tmp/ccBlLOuq.s 			page 3


 122 0034 D403     		lsls	r4, r2, #15
 123 0036 03D5     		bpl	.L12
 124 0038 1968     		ldr	r1, [r3]
 125 003a 41F48031 		orr	r1, r1, #65536
 126 003e 1960     		str	r1, [r3]
 127              	.L12:
 128 0040 9003     		lsls	r0, r2, #14
 129 0042 04D5     		bpl	.L13
 130 0044 0C49     		ldr	r1, .L29+4
 131 0046 4B68     		ldr	r3, [r1, #4]
 132 0048 43F48033 		orr	r3, r3, #65536
 133 004c 4B60     		str	r3, [r1, #4]
 134              	.L13:
 135 004e D107     		lsls	r1, r2, #31
 136 0050 04D5     		bpl	.L14
 137 0052 0949     		ldr	r1, .L29+4
 138 0054 8B68     		ldr	r3, [r1, #8]
 139 0056 43F48033 		orr	r3, r3, #65536
 140 005a 8B60     		str	r3, [r1, #8]
 141              	.L14:
 142 005c 9307     		lsls	r3, r2, #30
 143 005e 04D5     		bpl	.L15
 144 0060 054A     		ldr	r2, .L29+4
 145 0062 D368     		ldr	r3, [r2, #12]
 146 0064 43F48033 		orr	r3, r3, #65536
 147 0068 D360     		str	r3, [r2, #12]
 148              	.L15:
 149 006a 0020     		movs	r0, #0
 150 006c 5DF8044B 		ldr	r4, [sp], #4
 151 0070 7047     		bx	lr
 152              	.L30:
 153 0072 00BF     		.align	2
 154              	.L29:
 155 0074 00700040 		.word	1073770496
 156 0078 00040140 		.word	1073808384
 158              		.section	.text.HAL_PWR_EnablePVD,"ax",%progbits
 159              		.align	1
 160              		.p2align 2,,3
 161              		.global	HAL_PWR_EnablePVD
 162              		.syntax unified
 163              		.thumb
 164              		.thumb_func
 165              		.fpu fpv4-sp-d16
 167              	HAL_PWR_EnablePVD:
 168              		@ args = 0, pretend = 0, frame = 0
 169              		@ frame_needed = 0, uses_anonymous_args = 0
 170              		@ link register save eliminated.
 171 0000 024A     		ldr	r2, .L32
 172 0002 5368     		ldr	r3, [r2, #4]
 173 0004 43F00103 		orr	r3, r3, #1
 174 0008 5360     		str	r3, [r2, #4]
 175 000a 7047     		bx	lr
 176              	.L33:
 177              		.align	2
 178              	.L32:
 179 000c 00700040 		.word	1073770496
 181              		.section	.text.HAL_PWR_DisablePVD,"ax",%progbits
ARM GAS  /tmp/ccBlLOuq.s 			page 4


 182              		.align	1
 183              		.p2align 2,,3
 184              		.global	HAL_PWR_DisablePVD
 185              		.syntax unified
 186              		.thumb
 187              		.thumb_func
 188              		.fpu fpv4-sp-d16
 190              	HAL_PWR_DisablePVD:
 191              		@ args = 0, pretend = 0, frame = 0
 192              		@ frame_needed = 0, uses_anonymous_args = 0
 193              		@ link register save eliminated.
 194 0000 024A     		ldr	r2, .L35
 195 0002 5368     		ldr	r3, [r2, #4]
 196 0004 23F00103 		bic	r3, r3, #1
 197 0008 5360     		str	r3, [r2, #4]
 198 000a 7047     		bx	lr
 199              	.L36:
 200              		.align	2
 201              	.L35:
 202 000c 00700040 		.word	1073770496
 204              		.section	.text.HAL_PWR_EnableWakeUpPin,"ax",%progbits
 205              		.align	1
 206              		.p2align 2,,3
 207              		.global	HAL_PWR_EnableWakeUpPin
 208              		.syntax unified
 209              		.thumb
 210              		.thumb_func
 211              		.fpu fpv4-sp-d16
 213              	HAL_PWR_EnableWakeUpPin:
 214              		@ args = 0, pretend = 0, frame = 0
 215              		@ frame_needed = 0, uses_anonymous_args = 0
 216              		@ link register save eliminated.
 217 0000 064A     		ldr	r2, .L38
 218 0002 D368     		ldr	r3, [r2, #12]
 219 0004 00F01F01 		and	r1, r0, #31
 220 0008 23EA0103 		bic	r3, r3, r1
 221 000c 43EA5010 		orr	r0, r3, r0, lsr #5
 222 0010 D060     		str	r0, [r2, #12]
 223 0012 9368     		ldr	r3, [r2, #8]
 224 0014 1943     		orrs	r1, r1, r3
 225 0016 9160     		str	r1, [r2, #8]
 226 0018 7047     		bx	lr
 227              	.L39:
 228 001a 00BF     		.align	2
 229              	.L38:
 230 001c 00700040 		.word	1073770496
 232              		.section	.text.HAL_PWR_DisableWakeUpPin,"ax",%progbits
 233              		.align	1
 234              		.p2align 2,,3
 235              		.global	HAL_PWR_DisableWakeUpPin
 236              		.syntax unified
 237              		.thumb
 238              		.thumb_func
 239              		.fpu fpv4-sp-d16
 241              	HAL_PWR_DisableWakeUpPin:
 242              		@ args = 0, pretend = 0, frame = 0
 243              		@ frame_needed = 0, uses_anonymous_args = 0
ARM GAS  /tmp/ccBlLOuq.s 			page 5


 244              		@ link register save eliminated.
 245 0000 034A     		ldr	r2, .L41
 246 0002 9368     		ldr	r3, [r2, #8]
 247 0004 00F01F00 		and	r0, r0, #31
 248 0008 23EA0003 		bic	r3, r3, r0
 249 000c 9360     		str	r3, [r2, #8]
 250 000e 7047     		bx	lr
 251              	.L42:
 252              		.align	2
 253              	.L41:
 254 0010 00700040 		.word	1073770496
 256              		.section	.text.HAL_PWR_EnterSLEEPMode,"ax",%progbits
 257              		.align	1
 258              		.p2align 2,,3
 259              		.global	HAL_PWR_EnterSLEEPMode
 260              		.syntax unified
 261              		.thumb
 262              		.thumb_func
 263              		.fpu fpv4-sp-d16
 265              	HAL_PWR_EnterSLEEPMode:
 266              		@ args = 0, pretend = 0, frame = 0
 267              		@ frame_needed = 0, uses_anonymous_args = 0
 268 0000 0E4B     		ldr	r3, .L53
 269 0002 10B5     		push	{r4, lr}
 270 0004 5B69     		ldr	r3, [r3, #20]
 271 0006 0C46     		mov	r4, r1
 272 0008 60B9     		cbnz	r0, .L44
 273 000a 9A05     		lsls	r2, r3, #22
 274 000c 11D4     		bmi	.L51
 275              	.L46:
 276 000e 0C4A     		ldr	r2, .L53+4
 277 0010 1369     		ldr	r3, [r2, #16]
 278 0012 012C     		cmp	r4, #1
 279 0014 23F00403 		bic	r3, r3, #4
 280 0018 1361     		str	r3, [r2, #16]
 281 001a 08D0     		beq	.L52
 282              		.syntax unified
 283              	@ 485 "Drivers/STM32L4xx_HAL_Driver/Src/stm32l4xx_hal_pwr.c" 1
 284 001c 40BF     		sev
 285              	@ 0 "" 2
 286              	@ 486 "Drivers/STM32L4xx_HAL_Driver/Src/stm32l4xx_hal_pwr.c" 1
 287 001e 20BF     		wfe
 288              	@ 0 "" 2
 289              	@ 487 "Drivers/STM32L4xx_HAL_Driver/Src/stm32l4xx_hal_pwr.c" 1
 290 0020 20BF     		wfe
 291              	@ 0 "" 2
 292              		.thumb
 293              		.syntax unified
 294 0022 10BD     		pop	{r4, pc}
 295              	.L44:
 296 0024 9B05     		lsls	r3, r3, #22
 297 0026 F2D4     		bmi	.L46
 298 0028 FFF7FEFF 		bl	HAL_PWREx_EnableLowPowerRunMode
 299 002c EFE7     		b	.L46
 300              	.L52:
 301              		.syntax unified
 302              	@ 480 "Drivers/STM32L4xx_HAL_Driver/Src/stm32l4xx_hal_pwr.c" 1
ARM GAS  /tmp/ccBlLOuq.s 			page 6


 303 002e 30BF     		wfi
 304              	@ 0 "" 2
 305              		.thumb
 306              		.syntax unified
 307 0030 10BD     		pop	{r4, pc}
 308              	.L51:
 309 0032 FFF7FEFF 		bl	HAL_PWREx_DisableLowPowerRunMode
 310 0036 0028     		cmp	r0, #0
 311 0038 E9D0     		beq	.L46
 312 003a 10BD     		pop	{r4, pc}
 313              	.L54:
 314              		.align	2
 315              	.L53:
 316 003c 00700040 		.word	1073770496
 317 0040 00ED00E0 		.word	-536810240
 319              		.section	.text.HAL_PWR_EnterSTOPMode,"ax",%progbits
 320              		.align	1
 321              		.p2align 2,,3
 322              		.global	HAL_PWR_EnterSTOPMode
 323              		.syntax unified
 324              		.thumb
 325              		.thumb_func
 326              		.fpu fpv4-sp-d16
 328              	HAL_PWR_EnterSTOPMode:
 329              		@ args = 0, pretend = 0, frame = 0
 330              		@ frame_needed = 0, uses_anonymous_args = 0
 331              		@ link register save eliminated.
 332 0000 B0F5804F 		cmp	r0, #16384
 333 0004 0846     		mov	r0, r1
 334 0006 01D0     		beq	.L57
 335 0008 FFF7FEBF 		b	HAL_PWREx_EnterSTOP0Mode
 336              	.L57:
 337 000c FFF7FEBF 		b	HAL_PWREx_EnterSTOP1Mode
 339              		.section	.text.HAL_PWR_EnterSTANDBYMode,"ax",%progbits
 340              		.align	1
 341              		.p2align 2,,3
 342              		.global	HAL_PWR_EnterSTANDBYMode
 343              		.syntax unified
 344              		.thumb
 345              		.thumb_func
 346              		.fpu fpv4-sp-d16
 348              	HAL_PWR_EnterSTANDBYMode:
 349              		@ args = 0, pretend = 0, frame = 0
 350              		@ frame_needed = 0, uses_anonymous_args = 0
 351              		@ link register save eliminated.
 352 0000 0649     		ldr	r1, .L59
 353 0002 074A     		ldr	r2, .L59+4
 354 0004 0B68     		ldr	r3, [r1]
 355 0006 23F00703 		bic	r3, r3, #7
 356 000a 43F00303 		orr	r3, r3, #3
 357 000e 0B60     		str	r3, [r1]
 358 0010 1369     		ldr	r3, [r2, #16]
 359 0012 43F00403 		orr	r3, r3, #4
 360 0016 1361     		str	r3, [r2, #16]
 361              		.syntax unified
 362              	@ 569 "Drivers/STM32L4xx_HAL_Driver/Src/stm32l4xx_hal_pwr.c" 1
 363 0018 30BF     		wfi
ARM GAS  /tmp/ccBlLOuq.s 			page 7


 364              	@ 0 "" 2
 365              		.thumb
 366              		.syntax unified
 367 001a 7047     		bx	lr
 368              	.L60:
 369              		.align	2
 370              	.L59:
 371 001c 00700040 		.word	1073770496
 372 0020 00ED00E0 		.word	-536810240
 374              		.section	.text.HAL_PWR_EnableSleepOnExit,"ax",%progbits
 375              		.align	1
 376              		.p2align 2,,3
 377              		.global	HAL_PWR_EnableSleepOnExit
 378              		.syntax unified
 379              		.thumb
 380              		.thumb_func
 381              		.fpu fpv4-sp-d16
 383              	HAL_PWR_EnableSleepOnExit:
 384              		@ args = 0, pretend = 0, frame = 0
 385              		@ frame_needed = 0, uses_anonymous_args = 0
 386              		@ link register save eliminated.
 387 0000 024A     		ldr	r2, .L62
 388 0002 1369     		ldr	r3, [r2, #16]
 389 0004 43F00203 		orr	r3, r3, #2
 390 0008 1361     		str	r3, [r2, #16]
 391 000a 7047     		bx	lr
 392              	.L63:
 393              		.align	2
 394              	.L62:
 395 000c 00ED00E0 		.word	-536810240
 397              		.section	.text.HAL_PWR_DisableSleepOnExit,"ax",%progbits
 398              		.align	1
 399              		.p2align 2,,3
 400              		.global	HAL_PWR_DisableSleepOnExit
 401              		.syntax unified
 402              		.thumb
 403              		.thumb_func
 404              		.fpu fpv4-sp-d16
 406              	HAL_PWR_DisableSleepOnExit:
 407              		@ args = 0, pretend = 0, frame = 0
 408              		@ frame_needed = 0, uses_anonymous_args = 0
 409              		@ link register save eliminated.
 410 0000 024A     		ldr	r2, .L65
 411 0002 1369     		ldr	r3, [r2, #16]
 412 0004 23F00203 		bic	r3, r3, #2
 413 0008 1361     		str	r3, [r2, #16]
 414 000a 7047     		bx	lr
 415              	.L66:
 416              		.align	2
 417              	.L65:
 418 000c 00ED00E0 		.word	-536810240
 420              		.section	.text.HAL_PWR_EnableSEVOnPend,"ax",%progbits
 421              		.align	1
 422              		.p2align 2,,3
 423              		.global	HAL_PWR_EnableSEVOnPend
 424              		.syntax unified
 425              		.thumb
ARM GAS  /tmp/ccBlLOuq.s 			page 8


 426              		.thumb_func
 427              		.fpu fpv4-sp-d16
 429              	HAL_PWR_EnableSEVOnPend:
 430              		@ args = 0, pretend = 0, frame = 0
 431              		@ frame_needed = 0, uses_anonymous_args = 0
 432              		@ link register save eliminated.
 433 0000 024A     		ldr	r2, .L68
 434 0002 1369     		ldr	r3, [r2, #16]
 435 0004 43F01003 		orr	r3, r3, #16
 436 0008 1361     		str	r3, [r2, #16]
 437 000a 7047     		bx	lr
 438              	.L69:
 439              		.align	2
 440              	.L68:
 441 000c 00ED00E0 		.word	-536810240
 443              		.section	.text.HAL_PWR_DisableSEVOnPend,"ax",%progbits
 444              		.align	1
 445              		.p2align 2,,3
 446              		.global	HAL_PWR_DisableSEVOnPend
 447              		.syntax unified
 448              		.thumb
 449              		.thumb_func
 450              		.fpu fpv4-sp-d16
 452              	HAL_PWR_DisableSEVOnPend:
 453              		@ args = 0, pretend = 0, frame = 0
 454              		@ frame_needed = 0, uses_anonymous_args = 0
 455              		@ link register save eliminated.
 456 0000 024A     		ldr	r2, .L71
 457 0002 1369     		ldr	r3, [r2, #16]
 458 0004 23F01003 		bic	r3, r3, #16
 459 0008 1361     		str	r3, [r2, #16]
 460 000a 7047     		bx	lr
 461              	.L72:
 462              		.align	2
 463              	.L71:
 464 000c 00ED00E0 		.word	-536810240
 466              		.section	.text.HAL_PWR_PVDCallback,"ax",%progbits
 467              		.align	1
 468              		.p2align 2,,3
 469              		.weak	HAL_PWR_PVDCallback
 470              		.syntax unified
 471              		.thumb
 472              		.thumb_func
 473              		.fpu fpv4-sp-d16
 475              	HAL_PWR_PVDCallback:
 476              		@ args = 0, pretend = 0, frame = 0
 477              		@ frame_needed = 0, uses_anonymous_args = 0
 478              		@ link register save eliminated.
 479 0000 7047     		bx	lr
 481 0002 00BF     		.ident	"GCC: (Arch Repository) 11.2.0"
ARM GAS  /tmp/ccBlLOuq.s 			page 9

