ARM GAS  /tmp/ccYmIHxB.s 			page 1


   1              		.cpu cortex-m4
   2              		.eabi_attribute 27, 1
   3              		.eabi_attribute 28, 1
   4              		.eabi_attribute 20, 1
   5              		.eabi_attribute 21, 1
   6              		.eabi_attribute 23, 3
   7              		.eabi_attribute 24, 1
   8              		.eabi_attribute 25, 1
   9              		.eabi_attribute 26, 1
  10              		.eabi_attribute 30, 2
  11              		.eabi_attribute 34, 1
  12              		.eabi_attribute 18, 4
  13              		.file	"stm32l4xx_hal_flash.c"
  14              		.text
  15              		.section	.text.HAL_FLASH_Program,"ax",%progbits
  16              		.align	1
  17              		.p2align 2,,3
  18              		.global	HAL_FLASH_Program
  19              		.arch armv7e-m
  20              		.syntax unified
  21              		.thumb
  22              		.thumb_func
  23              		.fpu fpv4-sp-d16
  25              	HAL_FLASH_Program:
  26              		@ args = 0, pretend = 0, frame = 0
  27              		@ frame_needed = 0, uses_anonymous_args = 0
  28 0000 2DE9F84F 		push	{r3, r4, r5, r6, r7, r8, r9, r10, fp, lr}
  29 0004 DFF84891 		ldr	r9, .L35+4
  30 0008 9B46     		mov	fp, r3
  31 000a 99F80030 		ldrb	r3, [r9]	@ zero_extendqisi2
  32 000e 012B     		cmp	r3, #1
  33 0010 5FD0     		beq	.L18
  34 0012 0123     		movs	r3, #1
  35 0014 8246     		mov	r10, r0
  36 0016 0F46     		mov	r7, r1
  37 0018 1446     		mov	r4, r2
  38 001a 89F80030 		strb	r3, [r9]
  39 001e FFF7FEFF 		bl	HAL_GetTick
  40 0022 4A4E     		ldr	r6, .L35
  41 0024 0546     		mov	r5, r0
  42 0026 4CF24F38 		movw	r8, #49999
  43 002a 04E0     		b	.L3
  44              	.L5:
  45 002c FFF7FEFF 		bl	HAL_GetTick
  46 0030 401B     		subs	r0, r0, r5
  47 0032 4045     		cmp	r0, r8
  48 0034 46D8     		bhi	.L19
  49              	.L3:
  50 0036 3369     		ldr	r3, [r6, #16]
  51 0038 D903     		lsls	r1, r3, #15
  52 003a F7D4     		bmi	.L5
  53 003c 3569     		ldr	r5, [r6, #16]
  54 003e 4CF2FA33 		movw	r3, #50170
  55 0042 1D40     		ands	r5, r5, r3
  56 0044 57D1     		bne	.L31
  57 0046 3369     		ldr	r3, [r6, #16]
  58 0048 DA07     		lsls	r2, r3, #31
ARM GAS  /tmp/ccYmIHxB.s 			page 2


  59 004a 44BF     		itt	mi
  60 004c 0123     		movmi	r3, #1
  61 004e 3361     		strmi	r3, [r6, #16]
  62 0050 3E4A     		ldr	r2, .L35
  63 0052 0023     		movs	r3, #0
  64 0054 C9F80430 		str	r3, [r9, #4]
  65 0058 1368     		ldr	r3, [r2]
  66 005a 13F48063 		ands	r3, r3, #1024
  67 005e 1FBF     		itttt	ne
  68 0060 1368     		ldrne	r3, [r2]
  69 0062 23F48063 		bicne	r3, r3, #1024
  70 0066 1360     		strne	r3, [r2]
  71 0068 0223     		movne	r3, #2
  72 006a 89F81C30 		strb	r3, [r9, #28]
  73 006e BAF1000F 		cmp	r10, #0
  74 0072 32D0     		beq	.L32
  75 0074 0AF1FF33 		add	r3, r10, #-1
  76 0078 012B     		cmp	r3, #1
  77 007a 44D9     		bls	.L33
  78              	.L11:
  79 007c FFF7FEFF 		bl	HAL_GetTick
  80 0080 324E     		ldr	r6, .L35
  81 0082 0446     		mov	r4, r0
  82 0084 4CF24F37 		movw	r7, #49999
  83 0088 04E0     		b	.L13
  84              	.L15:
  85 008a FFF7FEFF 		bl	HAL_GetTick
  86 008e 001B     		subs	r0, r0, r4
  87 0090 B842     		cmp	r0, r7
  88 0092 2ED8     		bhi	.L20
  89              	.L13:
  90 0094 3369     		ldr	r3, [r6, #16]
  91 0096 DB03     		lsls	r3, r3, #15
  92 0098 F7D4     		bmi	.L15
  93 009a 3369     		ldr	r3, [r6, #16]
  94 009c 4CF2FA32 		movw	r2, #50170
  95 00a0 1340     		ands	r3, r3, r2
  96 00a2 4BD1     		bne	.L34
  97 00a4 3469     		ldr	r4, [r6, #16]
  98 00a6 14F00104 		ands	r4, r4, #1
  99 00aa 02D0     		beq	.L14
 100 00ac 0122     		movs	r2, #1
 101 00ae 3261     		str	r2, [r6, #16]
 102 00b0 1C46     		mov	r4, r3
 103              	.L14:
 104 00b2 25B1     		cbz	r5, .L17
 105 00b4 254A     		ldr	r2, .L35
 106 00b6 5369     		ldr	r3, [r2, #20]
 107 00b8 23EA0503 		bic	r3, r3, r5
 108 00bc 5361     		str	r3, [r2, #20]
 109              	.L17:
 110 00be FFF7FEFF 		bl	FLASH_FlushCaches
 111 00c2 00E0     		b	.L4
 112              	.L19:
 113 00c4 0324     		movs	r4, #3
 114              	.L4:
 115 00c6 0023     		movs	r3, #0
ARM GAS  /tmp/ccYmIHxB.s 			page 3


 116 00c8 89F80030 		strb	r3, [r9]
 117 00cc 2046     		mov	r0, r4
 118 00ce BDE8F88F 		pop	{r3, r4, r5, r6, r7, r8, r9, r10, fp, pc}
 119              	.L18:
 120 00d2 0224     		movs	r4, #2
 121 00d4 2046     		mov	r0, r4
 122 00d6 BDE8F88F 		pop	{r3, r4, r5, r6, r7, r8, r9, r10, fp, pc}
 123              	.L32:
 124 00da 1C4A     		ldr	r2, .L35
 125 00dc 5369     		ldr	r3, [r2, #20]
 126 00de 43F00103 		orr	r3, r3, #1
 127 00e2 5361     		str	r3, [r2, #20]
 128 00e4 3C60     		str	r4, [r7]
 129              		.syntax unified
 130              	@ 935 "Drivers/CMSIS/Include/cmsis_gcc.h" 1
 131 00e6 BFF36F8F 		isb 0xF
 132              	@ 0 "" 2
 133              		.thumb
 134              		.syntax unified
 135 00ea 0125     		movs	r5, #1
 136 00ec C7F804B0 		str	fp, [r7, #4]
 137 00f0 C4E7     		b	.L11
 138              	.L20:
 139 00f2 0324     		movs	r4, #3
 140 00f4 DDE7     		b	.L14
 141              	.L31:
 142 00f6 D9F80430 		ldr	r3, [r9, #4]
 143 00fa 2B43     		orrs	r3, r3, r5
 144 00fc C9F80430 		str	r3, [r9, #4]
 145 0100 0124     		movs	r4, #1
 146 0102 3561     		str	r5, [r6, #16]
 147 0104 DFE7     		b	.L4
 148              	.L33:
 149 0106 114A     		ldr	r2, .L35
 150 0108 5369     		ldr	r3, [r2, #20]
 151 010a 43F48023 		orr	r3, r3, #262144
 152 010e 5361     		str	r3, [r2, #20]
 153              		.syntax unified
 154              	@ 453 "Drivers/CMSIS/Include/cmsis_gcc.h" 1
 155 0110 EFF31081 		MRS r1, primask
 156              	@ 0 "" 2
 157              	@ 209 "Drivers/CMSIS/Include/cmsis_gcc.h" 1
 158 0114 72B6     		cpsid i
 159              	@ 0 "" 2
 160              		.thumb
 161              		.syntax unified
 162 0116 3F1B     		subs	r7, r7, r4
 163 0118 04F58072 		add	r2, r4, #256
 164              	.L12:
 165 011c 2368     		ldr	r3, [r4]
 166 011e E351     		str	r3, [r4, r7]
 167 0120 0434     		adds	r4, r4, #4
 168 0122 9442     		cmp	r4, r2
 169 0124 FAD1     		bne	.L12
 170              		.syntax unified
 171              	@ 481 "Drivers/CMSIS/Include/cmsis_gcc.h" 1
 172 0126 81F31088 		MSR primask, r1
ARM GAS  /tmp/ccYmIHxB.s 			page 4


 173              	@ 0 "" 2
 174              		.thumb
 175              		.syntax unified
 176 012a AAF1020A 		sub	r10, r10, #2
 177 012e BAFA8AFA 		clz	r10, r10
 178 0132 4FEA5A1A 		lsr	r10, r10, #5
 179 0136 4FEA8A45 		lsl	r5, r10, #18
 180 013a 9FE7     		b	.L11
 181              	.L34:
 182 013c D9F80420 		ldr	r2, [r9, #4]
 183 0140 1A43     		orrs	r2, r2, r3
 184 0142 C9F80420 		str	r2, [r9, #4]
 185 0146 0124     		movs	r4, #1
 186 0148 3361     		str	r3, [r6, #16]
 187 014a B2E7     		b	.L14
 188              	.L36:
 189              		.align	2
 190              	.L35:
 191 014c 00200240 		.word	1073881088
 192 0150 00000000 		.word	.LANCHOR0
 194              		.section	.text.HAL_FLASH_Program_IT,"ax",%progbits
 195              		.align	1
 196              		.p2align 2,,3
 197              		.global	HAL_FLASH_Program_IT
 198              		.syntax unified
 199              		.thumb
 200              		.thumb_func
 201              		.fpu fpv4-sp-d16
 203              	HAL_FLASH_Program_IT:
 204              		@ args = 0, pretend = 0, frame = 0
 205              		@ frame_needed = 0, uses_anonymous_args = 0
 206              		@ link register save eliminated.
 207 0000 70B4     		push	{r4, r5, r6}
 208 0002 274E     		ldr	r6, .L51
 209 0004 3478     		ldrb	r4, [r6]	@ zero_extendqisi2
 210 0006 012C     		cmp	r4, #1
 211 0008 47D0     		beq	.L45
 212 000a 0124     		movs	r4, #1
 213 000c 3470     		strb	r4, [r6]
 214 000e 254D     		ldr	r5, .L51+4
 215 0010 0024     		movs	r4, #0
 216 0012 7460     		str	r4, [r6, #4]
 217 0014 2C68     		ldr	r4, [r5]
 218 0016 14F48064 		ands	r4, r4, #1024
 219 001a 1FBF     		itttt	ne
 220 001c 2C68     		ldrne	r4, [r5]
 221 001e 24F48064 		bicne	r4, r4, #1024
 222 0022 2C60     		strne	r4, [r5]
 223 0024 0224     		movne	r4, #2
 224 0026 0228     		cmp	r0, #2
 225 0028 3477     		strb	r4, [r6, #28]
 226 002a 19D0     		beq	.L50
 227 002c 1D4C     		ldr	r4, .L51+4
 228 002e 0325     		movs	r5, #3
 229 0030 3572     		strb	r5, [r6, #8]
 230 0032 F160     		str	r1, [r6, #12]
 231 0034 6569     		ldr	r5, [r4, #20]
ARM GAS  /tmp/ccYmIHxB.s 			page 5


 232 0036 45F04075 		orr	r5, r5, #50331648
 233 003a 6561     		str	r5, [r4, #20]
 234 003c 48B9     		cbnz	r0, .L43
 235 003e 6569     		ldr	r5, [r4, #20]
 236 0040 45F00105 		orr	r5, r5, #1
 237 0044 6561     		str	r5, [r4, #20]
 238 0046 0A60     		str	r2, [r1]
 239              		.syntax unified
 240              	@ 935 "Drivers/CMSIS/Include/cmsis_gcc.h" 1
 241 0048 BFF36F8F 		isb 0xF
 242              	@ 0 "" 2
 243              		.thumb
 244              		.syntax unified
 245 004c 70BC     		pop	{r4, r5, r6}
 246 004e 4B60     		str	r3, [r1, #4]
 247 0050 7047     		bx	lr
 248              	.L43:
 249 0052 0138     		subs	r0, r0, #1
 250 0054 0128     		cmp	r0, #1
 251 0056 88BF     		it	hi
 252 0058 0020     		movhi	r0, #0
 253 005a 09D9     		bls	.L42
 254 005c 70BC     		pop	{r4, r5, r6}
 255 005e 7047     		bx	lr
 256              	.L50:
 257 0060 1048     		ldr	r0, .L51+4
 258 0062 0423     		movs	r3, #4
 259 0064 3372     		strb	r3, [r6, #8]
 260 0066 F160     		str	r1, [r6, #12]
 261 0068 4369     		ldr	r3, [r0, #20]
 262 006a 43F04073 		orr	r3, r3, #50331648
 263 006e 4361     		str	r3, [r0, #20]
 264              	.L42:
 265 0070 0C48     		ldr	r0, .L51+4
 266 0072 4369     		ldr	r3, [r0, #20]
 267 0074 43F48023 		orr	r3, r3, #262144
 268 0078 4361     		str	r3, [r0, #20]
 269              		.syntax unified
 270              	@ 453 "Drivers/CMSIS/Include/cmsis_gcc.h" 1
 271 007a EFF31084 		MRS r4, primask
 272              	@ 0 "" 2
 273              	@ 209 "Drivers/CMSIS/Include/cmsis_gcc.h" 1
 274 007e 72B6     		cpsid i
 275              	@ 0 "" 2
 276              		.thumb
 277              		.syntax unified
 278 0080 02F58070 		add	r0, r2, #256
 279 0084 891A     		subs	r1, r1, r2
 280              	.L44:
 281 0086 1368     		ldr	r3, [r2]
 282 0088 5350     		str	r3, [r2, r1]
 283 008a 0432     		adds	r2, r2, #4
 284 008c 8242     		cmp	r2, r0
 285 008e FAD1     		bne	.L44
 286              		.syntax unified
 287              	@ 481 "Drivers/CMSIS/Include/cmsis_gcc.h" 1
 288 0090 84F31088 		MSR primask, r4
ARM GAS  /tmp/ccYmIHxB.s 			page 6


 289              	@ 0 "" 2
 290              		.thumb
 291              		.syntax unified
 292 0094 0020     		movs	r0, #0
 293 0096 70BC     		pop	{r4, r5, r6}
 294 0098 7047     		bx	lr
 295              	.L45:
 296 009a 0220     		movs	r0, #2
 297 009c 70BC     		pop	{r4, r5, r6}
 298 009e 7047     		bx	lr
 299              	.L52:
 300              		.align	2
 301              	.L51:
 302 00a0 00000000 		.word	.LANCHOR0
 303 00a4 00200240 		.word	1073881088
 305              		.section	.text.HAL_FLASH_EndOfOperationCallback,"ax",%progbits
 306              		.align	1
 307              		.p2align 2,,3
 308              		.weak	HAL_FLASH_EndOfOperationCallback
 309              		.syntax unified
 310              		.thumb
 311              		.thumb_func
 312              		.fpu fpv4-sp-d16
 314              	HAL_FLASH_EndOfOperationCallback:
 315              		@ args = 0, pretend = 0, frame = 0
 316              		@ frame_needed = 0, uses_anonymous_args = 0
 317              		@ link register save eliminated.
 318 0000 7047     		bx	lr
 320 0002 00BF     		.section	.text.HAL_FLASH_OperationErrorCallback,"ax",%progbits
 321              		.align	1
 322              		.p2align 2,,3
 323              		.weak	HAL_FLASH_OperationErrorCallback
 324              		.syntax unified
 325              		.thumb
 326              		.thumb_func
 327              		.fpu fpv4-sp-d16
 329              	HAL_FLASH_OperationErrorCallback:
 330              		@ args = 0, pretend = 0, frame = 0
 331              		@ frame_needed = 0, uses_anonymous_args = 0
 332              		@ link register save eliminated.
 333 0000 7047     		bx	lr
 335 0002 00BF     		.section	.text.HAL_FLASH_IRQHandler,"ax",%progbits
 336              		.align	1
 337              		.p2align 2,,3
 338              		.global	HAL_FLASH_IRQHandler
 339              		.syntax unified
 340              		.thumb
 341              		.thumb_func
 342              		.fpu fpv4-sp-d16
 344              	HAL_FLASH_IRQHandler:
 345              		@ args = 0, pretend = 0, frame = 0
 346              		@ frame_needed = 0, uses_anonymous_args = 0
 347 0000 3C4A     		ldr	r2, .L80
 348 0002 5369     		ldr	r3, [r2, #20]
 349 0004 23F4FF63 		bic	r3, r3, #2040
 350 0008 23F00703 		bic	r3, r3, #7
 351 000c 10B5     		push	{r4, lr}
ARM GAS  /tmp/ccYmIHxB.s 			page 7


 352 000e 5361     		str	r3, [r2, #20]
 353 0010 5369     		ldr	r3, [r2, #20]
 354 0012 394C     		ldr	r4, .L80+4
 355 0014 23F40043 		bic	r3, r3, #32768
 356 0018 5361     		str	r3, [r2, #20]
 357 001a 237A     		ldrb	r3, [r4, #8]	@ zero_extendqisi2
 358 001c 042B     		cmp	r3, #4
 359 001e 03D1     		bne	.L56
 360 0020 5369     		ldr	r3, [r2, #20]
 361 0022 23F48023 		bic	r3, r3, #262144
 362 0026 5361     		str	r3, [r2, #20]
 363              	.L56:
 364 0028 3249     		ldr	r1, .L80
 365 002a 0B69     		ldr	r3, [r1, #16]
 366 002c 4CF2FA32 		movw	r2, #50170
 367 0030 1340     		ands	r3, r3, r2
 368 0032 2FD1     		bne	.L75
 369              	.L57:
 370 0034 2F4B     		ldr	r3, .L80
 371 0036 1A69     		ldr	r2, [r3, #16]
 372 0038 D207     		lsls	r2, r2, #31
 373 003a 14D5     		bpl	.L62
 374 003c 0122     		movs	r2, #1
 375 003e 1A61     		str	r2, [r3, #16]
 376 0040 237A     		ldrb	r3, [r4, #8]	@ zero_extendqisi2
 377 0042 9342     		cmp	r3, r2
 378 0044 1AD1     		bne	.L63
 379 0046 A369     		ldr	r3, [r4, #24]
 380 0048 013B     		subs	r3, r3, #1
 381 004a A361     		str	r3, [r4, #24]
 382 004c A369     		ldr	r3, [r4, #24]
 383 004e 002B     		cmp	r3, #0
 384 0050 36D0     		beq	.L64
 385 0052 6069     		ldr	r0, [r4, #20]
 386 0054 FFF7FEFF 		bl	HAL_FLASH_EndOfOperationCallback
 387 0058 6369     		ldr	r3, [r4, #20]
 388 005a 0133     		adds	r3, r3, #1
 389 005c 6361     		str	r3, [r4, #20]
 390 005e 6069     		ldr	r0, [r4, #20]
 391 0060 2169     		ldr	r1, [r4, #16]
 392 0062 FFF7FEFF 		bl	FLASH_PageErase
 393              	.L62:
 394 0066 237A     		ldrb	r3, [r4, #8]	@ zero_extendqisi2
 395 0068 03F0FF02 		and	r2, r3, #255
 396 006c 2BB9     		cbnz	r3, .L55
 397 006e 2149     		ldr	r1, .L80
 398 0070 4B69     		ldr	r3, [r1, #20]
 399 0072 23F04073 		bic	r3, r3, #50331648
 400 0076 4B61     		str	r3, [r1, #20]
 401 0078 2270     		strb	r2, [r4]
 402              	.L55:
 403 007a 10BD     		pop	{r4, pc}
 404              	.L63:
 405 007c FFF7FEFF 		bl	FLASH_FlushCaches
 406 0080 227A     		ldrb	r2, [r4, #8]	@ zero_extendqisi2
 407 0082 022A     		cmp	r2, #2
 408 0084 D3B2     		uxtb	r3, r2
ARM GAS  /tmp/ccYmIHxB.s 			page 8


 409 0086 2DD0     		beq	.L76
 410 0088 033B     		subs	r3, r3, #3
 411 008a 012B     		cmp	r3, #1
 412 008c 2ED9     		bls	.L77
 413              	.L66:
 414 008e 0023     		movs	r3, #0
 415 0090 2372     		strb	r3, [r4, #8]
 416 0092 E8E7     		b	.L62
 417              	.L75:
 418 0094 6268     		ldr	r2, [r4, #4]
 419 0096 1A43     		orrs	r2, r2, r3
 420 0098 6260     		str	r2, [r4, #4]
 421 009a 0B61     		str	r3, [r1, #16]
 422 009c FFF7FEFF 		bl	FLASH_FlushCaches
 423 00a0 227A     		ldrb	r2, [r4, #8]	@ zero_extendqisi2
 424 00a2 012A     		cmp	r2, #1
 425 00a4 D3B2     		uxtb	r3, r2
 426 00a6 15D0     		beq	.L78
 427 00a8 022B     		cmp	r3, #2
 428 00aa 17D0     		beq	.L79
 429 00ac 033B     		subs	r3, r3, #3
 430 00ae 012B     		cmp	r3, #1
 431 00b0 94BF     		ite	ls
 432 00b2 E068     		ldrls	r0, [r4, #12]
 433 00b4 0020     		movhi	r0, #0
 434 00b6 FFF7FEFF 		bl	HAL_FLASH_OperationErrorCallback
 435              	.L59:
 436 00ba 0023     		movs	r3, #0
 437 00bc 2372     		strb	r3, [r4, #8]
 438 00be B9E7     		b	.L57
 439              	.L64:
 440 00c0 4FF0FF32 		mov	r2, #-1
 441 00c4 6261     		str	r2, [r4, #20]
 442 00c6 2372     		strb	r3, [r4, #8]
 443 00c8 FFF7FEFF 		bl	FLASH_FlushCaches
 444 00cc 6069     		ldr	r0, [r4, #20]
 445 00ce FFF7FEFF 		bl	HAL_FLASH_EndOfOperationCallback
 446 00d2 C8E7     		b	.L62
 447              	.L78:
 448 00d4 6069     		ldr	r0, [r4, #20]
 449 00d6 FFF7FEFF 		bl	HAL_FLASH_OperationErrorCallback
 450 00da EEE7     		b	.L59
 451              	.L79:
 452 00dc 2069     		ldr	r0, [r4, #16]
 453 00de FFF7FEFF 		bl	HAL_FLASH_OperationErrorCallback
 454 00e2 EAE7     		b	.L59
 455              	.L76:
 456 00e4 2069     		ldr	r0, [r4, #16]
 457 00e6 FFF7FEFF 		bl	HAL_FLASH_EndOfOperationCallback
 458 00ea D0E7     		b	.L66
 459              	.L77:
 460 00ec E068     		ldr	r0, [r4, #12]
 461 00ee FFF7FEFF 		bl	HAL_FLASH_EndOfOperationCallback
 462 00f2 CCE7     		b	.L66
 463              	.L81:
 464              		.align	2
 465              	.L80:
ARM GAS  /tmp/ccYmIHxB.s 			page 9


 466 00f4 00200240 		.word	1073881088
 467 00f8 00000000 		.word	.LANCHOR0
 469              		.section	.text.HAL_FLASH_Unlock,"ax",%progbits
 470              		.align	1
 471              		.p2align 2,,3
 472              		.global	HAL_FLASH_Unlock
 473              		.syntax unified
 474              		.thumb
 475              		.thumb_func
 476              		.fpu fpv4-sp-d16
 478              	HAL_FLASH_Unlock:
 479              		@ args = 0, pretend = 0, frame = 0
 480              		@ frame_needed = 0, uses_anonymous_args = 0
 481              		@ link register save eliminated.
 482 0000 064B     		ldr	r3, .L86
 483 0002 5A69     		ldr	r2, [r3, #20]
 484 0004 002A     		cmp	r2, #0
 485 0006 01DB     		blt	.L85
 486 0008 0020     		movs	r0, #0
 487 000a 7047     		bx	lr
 488              	.L85:
 489 000c 0449     		ldr	r1, .L86+4
 490 000e 054A     		ldr	r2, .L86+8
 491 0010 9960     		str	r1, [r3, #8]
 492 0012 9A60     		str	r2, [r3, #8]
 493 0014 5869     		ldr	r0, [r3, #20]
 494 0016 C00F     		lsrs	r0, r0, #31
 495 0018 7047     		bx	lr
 496              	.L87:
 497 001a 00BF     		.align	2
 498              	.L86:
 499 001c 00200240 		.word	1073881088
 500 0020 23016745 		.word	1164378403
 501 0024 AB89EFCD 		.word	-839939669
 503              		.section	.text.HAL_FLASH_Lock,"ax",%progbits
 504              		.align	1
 505              		.p2align 2,,3
 506              		.global	HAL_FLASH_Lock
 507              		.syntax unified
 508              		.thumb
 509              		.thumb_func
 510              		.fpu fpv4-sp-d16
 512              	HAL_FLASH_Lock:
 513              		@ args = 0, pretend = 0, frame = 0
 514              		@ frame_needed = 0, uses_anonymous_args = 0
 515              		@ link register save eliminated.
 516 0000 034A     		ldr	r2, .L89
 517 0002 5369     		ldr	r3, [r2, #20]
 518 0004 43F00043 		orr	r3, r3, #-2147483648
 519 0008 0020     		movs	r0, #0
 520 000a 5361     		str	r3, [r2, #20]
 521 000c 7047     		bx	lr
 522              	.L90:
 523 000e 00BF     		.align	2
 524              	.L89:
 525 0010 00200240 		.word	1073881088
 527              		.section	.text.HAL_FLASH_OB_Unlock,"ax",%progbits
ARM GAS  /tmp/ccYmIHxB.s 			page 10


 528              		.align	1
 529              		.p2align 2,,3
 530              		.global	HAL_FLASH_OB_Unlock
 531              		.syntax unified
 532              		.thumb
 533              		.thumb_func
 534              		.fpu fpv4-sp-d16
 536              	HAL_FLASH_OB_Unlock:
 537              		@ args = 0, pretend = 0, frame = 0
 538              		@ frame_needed = 0, uses_anonymous_args = 0
 539              		@ link register save eliminated.
 540 0000 054B     		ldr	r3, .L94
 541 0002 5A69     		ldr	r2, [r3, #20]
 542 0004 5200     		lsls	r2, r2, #1
 543 0006 05D5     		bpl	.L93
 544 0008 0449     		ldr	r1, .L94+4
 545 000a 054A     		ldr	r2, .L94+8
 546 000c D960     		str	r1, [r3, #12]
 547 000e 0020     		movs	r0, #0
 548 0010 DA60     		str	r2, [r3, #12]
 549 0012 7047     		bx	lr
 550              	.L93:
 551 0014 0120     		movs	r0, #1
 552 0016 7047     		bx	lr
 553              	.L95:
 554              		.align	2
 555              	.L94:
 556 0018 00200240 		.word	1073881088
 557 001c 3B2A1908 		.word	135866939
 558 0020 7F6E5D4C 		.word	1281191551
 560              		.section	.text.HAL_FLASH_OB_Lock,"ax",%progbits
 561              		.align	1
 562              		.p2align 2,,3
 563              		.global	HAL_FLASH_OB_Lock
 564              		.syntax unified
 565              		.thumb
 566              		.thumb_func
 567              		.fpu fpv4-sp-d16
 569              	HAL_FLASH_OB_Lock:
 570              		@ args = 0, pretend = 0, frame = 0
 571              		@ frame_needed = 0, uses_anonymous_args = 0
 572              		@ link register save eliminated.
 573 0000 034A     		ldr	r2, .L97
 574 0002 5369     		ldr	r3, [r2, #20]
 575 0004 43F08043 		orr	r3, r3, #1073741824
 576 0008 0020     		movs	r0, #0
 577 000a 5361     		str	r3, [r2, #20]
 578 000c 7047     		bx	lr
 579              	.L98:
 580 000e 00BF     		.align	2
 581              	.L97:
 582 0010 00200240 		.word	1073881088
 584              		.section	.text.HAL_FLASH_OB_Launch,"ax",%progbits
 585              		.align	1
 586              		.p2align 2,,3
 587              		.global	HAL_FLASH_OB_Launch
 588              		.syntax unified
ARM GAS  /tmp/ccYmIHxB.s 			page 11


 589              		.thumb
 590              		.thumb_func
 591              		.fpu fpv4-sp-d16
 593              	HAL_FLASH_OB_Launch:
 594              		@ args = 0, pretend = 0, frame = 0
 595              		@ frame_needed = 0, uses_anonymous_args = 0
 596 0000 70B5     		push	{r4, r5, r6, lr}
 597 0002 144C     		ldr	r4, .L108
 598 0004 6369     		ldr	r3, [r4, #20]
 599 0006 43F00063 		orr	r3, r3, #134217728
 600 000a 6361     		str	r3, [r4, #20]
 601 000c FFF7FEFF 		bl	HAL_GetTick
 602 0010 4CF24F36 		movw	r6, #49999
 603 0014 0546     		mov	r5, r0
 604 0016 04E0     		b	.L100
 605              	.L102:
 606 0018 FFF7FEFF 		bl	HAL_GetTick
 607 001c 401B     		subs	r0, r0, r5
 608 001e B042     		cmp	r0, r6
 609 0020 0FD8     		bhi	.L104
 610              	.L100:
 611 0022 2369     		ldr	r3, [r4, #16]
 612 0024 DB03     		lsls	r3, r3, #15
 613 0026 F7D4     		bmi	.L102
 614 0028 2369     		ldr	r3, [r4, #16]
 615 002a 4CF2FA32 		movw	r2, #50170
 616 002e 1340     		ands	r3, r3, r2
 617 0030 09D1     		bne	.L107
 618 0032 2069     		ldr	r0, [r4, #16]
 619 0034 10F00100 		ands	r0, r0, #1
 620 0038 02D0     		beq	.L101
 621 003a 0122     		movs	r2, #1
 622 003c 2261     		str	r2, [r4, #16]
 623 003e 1846     		mov	r0, r3
 624              	.L101:
 625 0040 70BD     		pop	{r4, r5, r6, pc}
 626              	.L104:
 627 0042 0320     		movs	r0, #3
 628 0044 70BD     		pop	{r4, r5, r6, pc}
 629              	.L107:
 630 0046 0449     		ldr	r1, .L108+4
 631 0048 4A68     		ldr	r2, [r1, #4]
 632 004a 1A43     		orrs	r2, r2, r3
 633 004c 4A60     		str	r2, [r1, #4]
 634 004e 0120     		movs	r0, #1
 635 0050 2361     		str	r3, [r4, #16]
 636 0052 70BD     		pop	{r4, r5, r6, pc}
 637              	.L109:
 638              		.align	2
 639              	.L108:
 640 0054 00200240 		.word	1073881088
 641 0058 00000000 		.word	.LANCHOR0
 643              		.section	.text.HAL_FLASH_GetError,"ax",%progbits
 644              		.align	1
 645              		.p2align 2,,3
 646              		.global	HAL_FLASH_GetError
 647              		.syntax unified
ARM GAS  /tmp/ccYmIHxB.s 			page 12


 648              		.thumb
 649              		.thumb_func
 650              		.fpu fpv4-sp-d16
 652              	HAL_FLASH_GetError:
 653              		@ args = 0, pretend = 0, frame = 0
 654              		@ frame_needed = 0, uses_anonymous_args = 0
 655              		@ link register save eliminated.
 656 0000 014B     		ldr	r3, .L111
 657 0002 5868     		ldr	r0, [r3, #4]
 658 0004 7047     		bx	lr
 659              	.L112:
 660 0006 00BF     		.align	2
 661              	.L111:
 662 0008 00000000 		.word	.LANCHOR0
 664              		.section	.text.FLASH_WaitForLastOperation,"ax",%progbits
 665              		.align	1
 666              		.p2align 2,,3
 667              		.global	FLASH_WaitForLastOperation
 668              		.syntax unified
 669              		.thumb
 670              		.thumb_func
 671              		.fpu fpv4-sp-d16
 673              	FLASH_WaitForLastOperation:
 674              		@ args = 0, pretend = 0, frame = 0
 675              		@ frame_needed = 0, uses_anonymous_args = 0
 676 0000 70B5     		push	{r4, r5, r6, lr}
 677 0002 0446     		mov	r4, r0
 678 0004 FFF7FEFF 		bl	HAL_GetTick
 679 0008 134E     		ldr	r6, .L126
 680 000a 0546     		mov	r5, r0
 681              	.L114:
 682 000c 601C     		adds	r0, r4, #1
 683 000e 11D1     		bne	.L116
 684 0010 114A     		ldr	r2, .L126
 685              	.L117:
 686 0012 1369     		ldr	r3, [r2, #16]
 687 0014 D903     		lsls	r1, r3, #15
 688 0016 FCD4     		bmi	.L117
 689              	.L118:
 690 0018 0F4A     		ldr	r2, .L126
 691 001a 1369     		ldr	r3, [r2, #16]
 692 001c 4CF2FA31 		movw	r1, #50170
 693 0020 0B40     		ands	r3, r3, r1
 694 0022 11D1     		bne	.L125
 695 0024 1069     		ldr	r0, [r2, #16]
 696 0026 10F00100 		ands	r0, r0, #1
 697 002a 02D0     		beq	.L115
 698 002c 0121     		movs	r1, #1
 699 002e 1161     		str	r1, [r2, #16]
 700 0030 1846     		mov	r0, r3
 701              	.L115:
 702 0032 70BD     		pop	{r4, r5, r6, pc}
 703              	.L116:
 704 0034 3369     		ldr	r3, [r6, #16]
 705 0036 DB03     		lsls	r3, r3, #15
 706 0038 EED5     		bpl	.L118
 707 003a FFF7FEFF 		bl	HAL_GetTick
ARM GAS  /tmp/ccYmIHxB.s 			page 13


 708 003e 401B     		subs	r0, r0, r5
 709 0040 A042     		cmp	r0, r4
 710 0042 E3D3     		bcc	.L114
 711 0044 0320     		movs	r0, #3
 712 0046 70BD     		pop	{r4, r5, r6, pc}
 713              	.L125:
 714 0048 044C     		ldr	r4, .L126+4
 715 004a 6168     		ldr	r1, [r4, #4]
 716 004c 1943     		orrs	r1, r1, r3
 717 004e 6160     		str	r1, [r4, #4]
 718 0050 0120     		movs	r0, #1
 719 0052 1361     		str	r3, [r2, #16]
 720 0054 70BD     		pop	{r4, r5, r6, pc}
 721              	.L127:
 722 0056 00BF     		.align	2
 723              	.L126:
 724 0058 00200240 		.word	1073881088
 725 005c 00000000 		.word	.LANCHOR0
 727              		.global	pFlash
 728              		.section	.data.pFlash,"aw"
 729              		.align	2
 730              		.set	.LANCHOR0,. + 0
 733              	pFlash:
 734 0000 00       		.byte	0
 735 0001 000000   		.space	3
 736 0004 00000000 		.word	0
 737 0008 00       		.byte	0
 738 0009 000000   		.space	3
 739 000c 00000000 		.word	0
 740 0010 01000000 		.word	1
 741 0014 00000000 		.word	0
 742 0018 00000000 		.word	0
 743 001c 00       		.byte	0
 744 001d 000000   		.space	3
 745              		.ident	"GCC: (Arch Repository) 11.2.0"
ARM GAS  /tmp/ccYmIHxB.s 			page 14

