ARM GAS  /tmp/ccsCrzSQ.s 			page 1


   1              		.cpu cortex-m4
   2              		.eabi_attribute 27, 1
   3              		.eabi_attribute 28, 1
   4              		.eabi_attribute 20, 1
   5              		.eabi_attribute 21, 1
   6              		.eabi_attribute 23, 3
   7              		.eabi_attribute 24, 1
   8              		.eabi_attribute 25, 1
   9              		.eabi_attribute 26, 1
  10              		.eabi_attribute 30, 2
  11              		.eabi_attribute 34, 1
  12              		.eabi_attribute 18, 4
  13              		.file	"stm32l4xx_hal_uart_ex.c"
  14              		.text
  15              		.section	.text.HAL_RS485Ex_Init,"ax",%progbits
  16              		.align	1
  17              		.p2align 2,,3
  18              		.global	HAL_RS485Ex_Init
  19              		.arch armv7e-m
  20              		.syntax unified
  21              		.thumb
  22              		.thumb_func
  23              		.fpu fpv4-sp-d16
  25              	HAL_RS485Ex_Init:
  26              		@ args = 0, pretend = 0, frame = 0
  27              		@ frame_needed = 0, uses_anonymous_args = 0
  28 0000 0028     		cmp	r0, #0
  29 0002 3CD0     		beq	.L14
  30 0004 F8B5     		push	{r3, r4, r5, r6, r7, lr}
  31 0006 1D46     		mov	r5, r3
  32 0008 836F     		ldr	r3, [r0, #120]
  33 000a 0E46     		mov	r6, r1
  34 000c 1746     		mov	r7, r2
  35 000e 0446     		mov	r4, r0
  36 0010 83B3     		cbz	r3, .L18
  37              	.L4:
  38 0012 2268     		ldr	r2, [r4]
  39 0014 2423     		movs	r3, #36
  40 0016 A367     		str	r3, [r4, #120]
  41 0018 1368     		ldr	r3, [r2]
  42 001a 23F00103 		bic	r3, r3, #1
  43 001e 2046     		mov	r0, r4
  44 0020 1360     		str	r3, [r2]
  45 0022 FFF7FEFF 		bl	UART_SetConfig
  46 0026 0128     		cmp	r0, #1
  47 0028 22D0     		beq	.L3
  48 002a 636A     		ldr	r3, [r4, #36]
  49 002c E3B9     		cbnz	r3, .L19
  50              	.L6:
  51 002e 2368     		ldr	r3, [r4]
  52 0030 9968     		ldr	r1, [r3, #8]
  53 0032 41F48041 		orr	r1, r1, #16384
  54 0036 9960     		str	r1, [r3, #8]
  55 0038 2046     		mov	r0, r4
  56 003a 9C68     		ldr	r4, [r3, #8]
  57 003c 24F40044 		bic	r4, r4, #32768
  58 0040 3443     		orrs	r4, r4, r6
ARM GAS  /tmp/ccsCrzSQ.s 			page 2


  59 0042 9C60     		str	r4, [r3, #8]
  60 0044 1968     		ldr	r1, [r3]
  61 0046 2D04     		lsls	r5, r5, #16
  62 0048 21F07F71 		bic	r1, r1, #66846720
  63 004c 45EA4752 		orr	r2, r5, r7, lsl #21
  64 0050 21F44031 		bic	r1, r1, #196608
  65 0054 0A43     		orrs	r2, r2, r1
  66 0056 1A60     		str	r2, [r3]
  67 0058 1A68     		ldr	r2, [r3]
  68 005a 42F00102 		orr	r2, r2, #1
  69 005e 1A60     		str	r2, [r3]
  70 0060 BDE8F840 		pop	{r3, r4, r5, r6, r7, lr}
  71 0064 FFF7FEBF 		b	UART_CheckIdleState
  72              	.L19:
  73 0068 2046     		mov	r0, r4
  74 006a FFF7FEFF 		bl	UART_AdvFeatureConfig
  75 006e DEE7     		b	.L6
  76              	.L3:
  77 0070 0120     		movs	r0, #1
  78 0072 F8BD     		pop	{r3, r4, r5, r6, r7, pc}
  79              	.L18:
  80 0074 80F87430 		strb	r3, [r0, #116]
  81 0078 FFF7FEFF 		bl	HAL_UART_MspInit
  82 007c C9E7     		b	.L4
  83              	.L14:
  84 007e 0120     		movs	r0, #1
  85 0080 7047     		bx	lr
  87 0082 00BF     		.section	.text.HAL_UARTEx_WakeupCallback,"ax",%progbits
  88              		.align	1
  89              		.p2align 2,,3
  90              		.weak	HAL_UARTEx_WakeupCallback
  91              		.syntax unified
  92              		.thumb
  93              		.thumb_func
  94              		.fpu fpv4-sp-d16
  96              	HAL_UARTEx_WakeupCallback:
  97              		@ args = 0, pretend = 0, frame = 0
  98              		@ frame_needed = 0, uses_anonymous_args = 0
  99              		@ link register save eliminated.
 100 0000 7047     		bx	lr
 102 0002 00BF     		.section	.text.HAL_UARTEx_EnableClockStopMode,"ax",%progbits
 103              		.align	1
 104              		.p2align 2,,3
 105              		.global	HAL_UARTEx_EnableClockStopMode
 106              		.syntax unified
 107              		.thumb
 108              		.thumb_func
 109              		.fpu fpv4-sp-d16
 111              	HAL_UARTEx_EnableClockStopMode:
 112              		@ args = 0, pretend = 0, frame = 0
 113              		@ frame_needed = 0, uses_anonymous_args = 0
 114              		@ link register save eliminated.
 115 0000 90F87430 		ldrb	r3, [r0, #116]	@ zero_extendqisi2
 116 0004 012B     		cmp	r3, #1
 117 0006 13D0     		beq	.L24
 118 0008 0123     		movs	r3, #1
 119 000a 0168     		ldr	r1, [r0]
ARM GAS  /tmp/ccsCrzSQ.s 			page 3


 120 000c 80F87430 		strb	r3, [r0, #116]
 121              	.L23:
 122 0010 01F10803 		add	r3, r1, #8
 123              		.syntax unified
 124              	@ 1155 "Drivers/CMSIS/Include/cmsis_gcc.h" 1
 125 0014 53E8003F 		ldrex r3, [r3]
 126              	@ 0 "" 2
 127              		.thumb
 128              		.syntax unified
 129 0018 43F40003 		orr	r3, r3, #8388608
 130 001c 01F1080C 		add	ip, r1, #8
 131              		.syntax unified
 132              	@ 1206 "Drivers/CMSIS/Include/cmsis_gcc.h" 1
 133 0020 4CE80032 		strex r2, r3, [ip]
 134              	@ 0 "" 2
 135              		.thumb
 136              		.syntax unified
 137 0024 002A     		cmp	r2, #0
 138 0026 F3D1     		bne	.L23
 139 0028 80F87420 		strb	r2, [r0, #116]
 140 002c 1046     		mov	r0, r2
 141 002e 7047     		bx	lr
 142              	.L24:
 143 0030 0220     		movs	r0, #2
 144 0032 7047     		bx	lr
 146              		.section	.text.HAL_UARTEx_DisableClockStopMode,"ax",%progbits
 147              		.align	1
 148              		.p2align 2,,3
 149              		.global	HAL_UARTEx_DisableClockStopMode
 150              		.syntax unified
 151              		.thumb
 152              		.thumb_func
 153              		.fpu fpv4-sp-d16
 155              	HAL_UARTEx_DisableClockStopMode:
 156              		@ args = 0, pretend = 0, frame = 0
 157              		@ frame_needed = 0, uses_anonymous_args = 0
 158              		@ link register save eliminated.
 159 0000 90F87430 		ldrb	r3, [r0, #116]	@ zero_extendqisi2
 160 0004 012B     		cmp	r3, #1
 161 0006 13D0     		beq	.L29
 162 0008 0123     		movs	r3, #1
 163 000a 0168     		ldr	r1, [r0]
 164 000c 80F87430 		strb	r3, [r0, #116]
 165              	.L28:
 166 0010 01F10803 		add	r3, r1, #8
 167              		.syntax unified
 168              	@ 1155 "Drivers/CMSIS/Include/cmsis_gcc.h" 1
 169 0014 53E8003F 		ldrex r3, [r3]
 170              	@ 0 "" 2
 171              		.thumb
 172              		.syntax unified
 173 0018 23F40003 		bic	r3, r3, #8388608
 174 001c 01F1080C 		add	ip, r1, #8
 175              		.syntax unified
 176              	@ 1206 "Drivers/CMSIS/Include/cmsis_gcc.h" 1
 177 0020 4CE80032 		strex r2, r3, [ip]
 178              	@ 0 "" 2
ARM GAS  /tmp/ccsCrzSQ.s 			page 4


 179              		.thumb
 180              		.syntax unified
 181 0024 002A     		cmp	r2, #0
 182 0026 F3D1     		bne	.L28
 183 0028 80F87420 		strb	r2, [r0, #116]
 184 002c 1046     		mov	r0, r2
 185 002e 7047     		bx	lr
 186              	.L29:
 187 0030 0220     		movs	r0, #2
 188 0032 7047     		bx	lr
 190              		.section	.text.HAL_MultiProcessorEx_AddressLength_Set,"ax",%progbits
 191              		.align	1
 192              		.p2align 2,,3
 193              		.global	HAL_MultiProcessorEx_AddressLength_Set
 194              		.syntax unified
 195              		.thumb
 196              		.thumb_func
 197              		.fpu fpv4-sp-d16
 199              	HAL_MultiProcessorEx_AddressLength_Set:
 200              		@ args = 0, pretend = 0, frame = 0
 201              		@ frame_needed = 0, uses_anonymous_args = 0
 202              		@ link register save eliminated.
 203 0000 A0B1     		cbz	r0, .L32
 204 0002 10B4     		push	{r4}
 205 0004 0268     		ldr	r2, [r0]
 206 0006 2424     		movs	r4, #36
 207 0008 8467     		str	r4, [r0, #120]
 208 000a 1368     		ldr	r3, [r2]
 209 000c 5DF8044B 		ldr	r4, [sp], #4
 210 0010 23F00103 		bic	r3, r3, #1
 211 0014 1360     		str	r3, [r2]
 212 0016 5368     		ldr	r3, [r2, #4]
 213 0018 23F01003 		bic	r3, r3, #16
 214 001c 1943     		orrs	r1, r1, r3
 215 001e 5160     		str	r1, [r2, #4]
 216 0020 1368     		ldr	r3, [r2]
 217 0022 43F00103 		orr	r3, r3, #1
 218 0026 1360     		str	r3, [r2]
 219 0028 FFF7FEBF 		b	UART_CheckIdleState
 220              	.L32:
 221 002c 0120     		movs	r0, #1
 222 002e 7047     		bx	lr
 224              		.section	.text.HAL_UARTEx_StopModeWakeUpSourceConfig,"ax",%progbits
 225              		.align	1
 226              		.p2align 2,,3
 227              		.global	HAL_UARTEx_StopModeWakeUpSourceConfig
 228              		.syntax unified
 229              		.thumb
 230              		.thumb_func
 231              		.fpu fpv4-sp-d16
 233              	HAL_UARTEx_StopModeWakeUpSourceConfig:
 234              		@ args = 0, pretend = 0, frame = 8
 235              		@ frame_needed = 0, uses_anonymous_args = 0
 236 0000 10B5     		push	{r4, lr}
 237 0002 84B0     		sub	sp, sp, #16
 238 0004 04AB     		add	r3, sp, #16
 239 0006 03E90600 		stmdb	r3, {r1, r2}
ARM GAS  /tmp/ccsCrzSQ.s 			page 5


 240 000a 90F87430 		ldrb	r3, [r0, #116]	@ zero_extendqisi2
 241 000e 012B     		cmp	r3, #1
 242 0010 39D0     		beq	.L40
 243 0012 0446     		mov	r4, r0
 244 0014 0368     		ldr	r3, [r0]
 245 0016 2422     		movs	r2, #36
 246 0018 0120     		movs	r0, #1
 247 001a 84F87400 		strb	r0, [r4, #116]
 248 001e A267     		str	r2, [r4, #120]
 249 0020 1A68     		ldr	r2, [r3]
 250 0022 22F00102 		bic	r2, r2, #1
 251 0026 1A60     		str	r2, [r3]
 252 0028 9A68     		ldr	r2, [r3, #8]
 253 002a 22F44012 		bic	r2, r2, #3145728
 254 002e 0A43     		orrs	r2, r2, r1
 255 0030 9A60     		str	r2, [r3, #8]
 256 0032 71B9     		cbnz	r1, .L38
 257 0034 5A68     		ldr	r2, [r3, #4]
 258 0036 BDF80C10 		ldrh	r1, [sp, #12]
 259 003a 22F01002 		bic	r2, r2, #16
 260 003e 0A43     		orrs	r2, r2, r1
 261 0040 5A60     		str	r2, [r3, #4]
 262 0042 5A68     		ldr	r2, [r3, #4]
 263 0044 9DF80E10 		ldrb	r1, [sp, #14]	@ zero_extendqisi2
 264 0048 22F07F42 		bic	r2, r2, #-16777216
 265 004c 42EA0162 		orr	r2, r2, r1, lsl #24
 266 0050 5A60     		str	r2, [r3, #4]
 267              	.L38:
 268 0052 1A68     		ldr	r2, [r3]
 269 0054 42F00102 		orr	r2, r2, #1
 270 0058 1A60     		str	r2, [r3]
 271 005a FFF7FEFF 		bl	HAL_GetTick
 272 005e 6FF07E42 		mvn	r2, #-33554432
 273 0062 0346     		mov	r3, r0
 274 0064 0092     		str	r2, [sp]
 275 0066 4FF48001 		mov	r1, #4194304
 276 006a 0022     		movs	r2, #0
 277 006c 2046     		mov	r0, r4
 278 006e FFF7FEFF 		bl	UART_WaitOnFlagUntilTimeout
 279 0072 30B9     		cbnz	r0, .L41
 280 0074 2023     		movs	r3, #32
 281 0076 A367     		str	r3, [r4, #120]
 282              	.L39:
 283 0078 0023     		movs	r3, #0
 284 007a 84F87430 		strb	r3, [r4, #116]
 285 007e 04B0     		add	sp, sp, #16
 286              		@ sp needed
 287 0080 10BD     		pop	{r4, pc}
 288              	.L41:
 289 0082 0320     		movs	r0, #3
 290 0084 F8E7     		b	.L39
 291              	.L40:
 292 0086 0220     		movs	r0, #2
 293 0088 04B0     		add	sp, sp, #16
 294              		@ sp needed
 295 008a 10BD     		pop	{r4, pc}
 297              		.section	.text.HAL_UARTEx_EnableStopMode,"ax",%progbits
ARM GAS  /tmp/ccsCrzSQ.s 			page 6


 298              		.align	1
 299              		.p2align 2,,3
 300              		.global	HAL_UARTEx_EnableStopMode
 301              		.syntax unified
 302              		.thumb
 303              		.thumb_func
 304              		.fpu fpv4-sp-d16
 306              	HAL_UARTEx_EnableStopMode:
 307              		@ args = 0, pretend = 0, frame = 0
 308              		@ frame_needed = 0, uses_anonymous_args = 0
 309              		@ link register save eliminated.
 310 0000 90F87430 		ldrb	r3, [r0, #116]	@ zero_extendqisi2
 311 0004 012B     		cmp	r3, #1
 312 0006 0FD0     		beq	.L46
 313 0008 0123     		movs	r3, #1
 314 000a 0168     		ldr	r1, [r0]
 315 000c 80F87430 		strb	r3, [r0, #116]
 316              	.L45:
 317              		.syntax unified
 318              	@ 1155 "Drivers/CMSIS/Include/cmsis_gcc.h" 1
 319 0010 51E8003F 		ldrex r3, [r1]
 320              	@ 0 "" 2
 321              		.thumb
 322              		.syntax unified
 323 0014 43F00203 		orr	r3, r3, #2
 324              		.syntax unified
 325              	@ 1206 "Drivers/CMSIS/Include/cmsis_gcc.h" 1
 326 0018 41E80032 		strex r2, r3, [r1]
 327              	@ 0 "" 2
 328              		.thumb
 329              		.syntax unified
 330 001c 002A     		cmp	r2, #0
 331 001e F7D1     		bne	.L45
 332 0020 80F87420 		strb	r2, [r0, #116]
 333 0024 1046     		mov	r0, r2
 334 0026 7047     		bx	lr
 335              	.L46:
 336 0028 0220     		movs	r0, #2
 337 002a 7047     		bx	lr
 339              		.section	.text.HAL_UARTEx_DisableStopMode,"ax",%progbits
 340              		.align	1
 341              		.p2align 2,,3
 342              		.global	HAL_UARTEx_DisableStopMode
 343              		.syntax unified
 344              		.thumb
 345              		.thumb_func
 346              		.fpu fpv4-sp-d16
 348              	HAL_UARTEx_DisableStopMode:
 349              		@ args = 0, pretend = 0, frame = 0
 350              		@ frame_needed = 0, uses_anonymous_args = 0
 351              		@ link register save eliminated.
 352 0000 90F87430 		ldrb	r3, [r0, #116]	@ zero_extendqisi2
 353 0004 012B     		cmp	r3, #1
 354 0006 0FD0     		beq	.L51
 355 0008 0123     		movs	r3, #1
 356 000a 0168     		ldr	r1, [r0]
 357 000c 80F87430 		strb	r3, [r0, #116]
ARM GAS  /tmp/ccsCrzSQ.s 			page 7


 358              	.L50:
 359              		.syntax unified
 360              	@ 1155 "Drivers/CMSIS/Include/cmsis_gcc.h" 1
 361 0010 51E8003F 		ldrex r3, [r1]
 362              	@ 0 "" 2
 363              		.thumb
 364              		.syntax unified
 365 0014 23F00203 		bic	r3, r3, #2
 366              		.syntax unified
 367              	@ 1206 "Drivers/CMSIS/Include/cmsis_gcc.h" 1
 368 0018 41E80032 		strex r2, r3, [r1]
 369              	@ 0 "" 2
 370              		.thumb
 371              		.syntax unified
 372 001c 002A     		cmp	r2, #0
 373 001e F7D1     		bne	.L50
 374 0020 80F87420 		strb	r2, [r0, #116]
 375 0024 1046     		mov	r0, r2
 376 0026 7047     		bx	lr
 377              	.L51:
 378 0028 0220     		movs	r0, #2
 379 002a 7047     		bx	lr
 381              		.section	.text.HAL_UARTEx_ReceiveToIdle,"ax",%progbits
 382              		.align	1
 383              		.p2align 2,,3
 384              		.global	HAL_UARTEx_ReceiveToIdle
 385              		.syntax unified
 386              		.thumb
 387              		.thumb_func
 388              		.fpu fpv4-sp-d16
 390              	HAL_UARTEx_ReceiveToIdle:
 391              		@ args = 4, pretend = 0, frame = 0
 392              		@ frame_needed = 0, uses_anonymous_args = 0
 393 0000 2DE9F84F 		push	{r3, r4, r5, r6, r7, r8, r9, r10, fp, lr}
 394 0004 1D46     		mov	r5, r3
 395 0006 C36F     		ldr	r3, [r0, #124]
 396 0008 DDF82890 		ldr	r9, [sp, #40]
 397 000c 202B     		cmp	r3, #32
 398 000e 60D1     		bne	.L87
 399 0010 0E46     		mov	r6, r1
 400 0012 0029     		cmp	r1, #0
 401 0014 5AD0     		beq	.L86
 402 0016 1746     		mov	r7, r2
 403 0018 002A     		cmp	r2, #0
 404 001a 57D0     		beq	.L86
 405 001c 90F87430 		ldrb	r3, [r0, #116]	@ zero_extendqisi2
 406 0020 012B     		cmp	r3, #1
 407 0022 0446     		mov	r4, r0
 408 0024 55D0     		beq	.L87
 409 0026 0123     		movs	r3, #1
 410 0028 2222     		movs	r2, #34
 411 002a 4FF00008 		mov	r8, #0
 412 002e C0F88080 		str	r8, [r0, #128]
 413 0032 80F87430 		strb	r3, [r0, #116]
 414 0036 C267     		str	r2, [r0, #124]
 415 0038 0366     		str	r3, [r0, #96]
 416 003a FFF7FEFF 		bl	HAL_GetTick
ARM GAS  /tmp/ccsCrzSQ.s 			page 8


 417 003e A368     		ldr	r3, [r4, #8]
 418 0040 A4F85870 		strh	r7, [r4, #88]	@ movhi
 419 0044 B3F5805F 		cmp	r3, #4096
 420 0048 A4F85A70 		strh	r7, [r4, #90]	@ movhi
 421 004c 8246     		mov	r10, r0
 422 004e 43D0     		beq	.L115
 423 0050 002B     		cmp	r3, #0
 424 0052 40F0A380 		bne	.L58
 425 0056 2369     		ldr	r3, [r4, #16]
 426 0058 002B     		cmp	r3, #0
 427 005a 0CBF     		ite	eq
 428 005c FF27     		moveq	r7, #255
 429 005e 7F27     		movne	r7, #127
 430              	.L60:
 431 0060 A4F85C70 		strh	r7, [r4, #92]	@ movhi
 432 0064 4FF00008 		mov	r8, #0
 433              	.L83:
 434 0068 0023     		movs	r3, #0
 435 006a 84F87430 		strb	r3, [r4, #116]
 436 006e 2B80     		strh	r3, [r5]	@ movhi
 437 0070 B4F85A30 		ldrh	r3, [r4, #90]
 438 0074 9BB2     		uxth	r3, r3
 439 0076 002B     		cmp	r3, #0
 440 0078 68D0     		beq	.L70
 441 007a B9F1FF3F 		cmp	r9, #-1
 442 007e 35D1     		bne	.L62
 443 0080 1021     		movs	r1, #16
 444 0082 11E0     		b	.L69
 445              	.L112:
 446 0084 9B8C     		ldrh	r3, [r3, #36]
 447 0086 3B40     		ands	r3, r3, r7
 448 0088 06F8013B 		strb	r3, [r6], #1
 449              	.L68:
 450 008c 2B88     		ldrh	r3, [r5]
 451 008e 0133     		adds	r3, r3, #1
 452 0090 2B80     		strh	r3, [r5]	@ movhi
 453 0092 B4F85A30 		ldrh	r3, [r4, #90]
 454 0096 013B     		subs	r3, r3, #1
 455 0098 9BB2     		uxth	r3, r3
 456 009a A4F85A30 		strh	r3, [r4, #90]	@ movhi
 457              	.L65:
 458 009e B4F85A30 		ldrh	r3, [r4, #90]
 459 00a2 9BB2     		uxth	r3, r3
 460 00a4 002B     		cmp	r3, #0
 461 00a6 51D0     		beq	.L70
 462              	.L69:
 463 00a8 2368     		ldr	r3, [r4]
 464 00aa DA69     		ldr	r2, [r3, #28]
 465 00ac D206     		lsls	r2, r2, #27
 466 00ae 03D5     		bpl	.L63
 467 00b0 2A88     		ldrh	r2, [r5]
 468 00b2 1962     		str	r1, [r3, #32]
 469 00b4 002A     		cmp	r2, #0
 470 00b6 76D1     		bne	.L64
 471              	.L63:
 472 00b8 DA69     		ldr	r2, [r3, #28]
 473 00ba 9006     		lsls	r0, r2, #26
ARM GAS  /tmp/ccsCrzSQ.s 			page 9


 474 00bc EFD5     		bpl	.L65
 475 00be 002E     		cmp	r6, #0
 476 00c0 E0D1     		bne	.L112
 477 00c2 9B8C     		ldrh	r3, [r3, #36]
 478 00c4 3B40     		ands	r3, r3, r7
 479 00c6 28F8023B 		strh	r3, [r8], #2	@ movhi
 480 00ca DFE7     		b	.L68
 481              	.L86:
 482 00cc 0120     		movs	r0, #1
 483              	.L111:
 484 00ce BDE8F88F 		pop	{r3, r4, r5, r6, r7, r8, r9, r10, fp, pc}
 485              	.L87:
 486 00d2 0220     		movs	r0, #2
 487 00d4 BDE8F88F 		pop	{r3, r4, r5, r6, r7, r8, r9, r10, fp, pc}
 488              	.L115:
 489 00d8 2369     		ldr	r3, [r4, #16]
 490 00da 002B     		cmp	r3, #0
 491 00dc 67D1     		bne	.L116
 492 00de 40F2FF17 		movw	r7, #511
 493 00e2 B046     		mov	r8, r6
 494 00e4 A4F85C70 		strh	r7, [r4, #92]	@ movhi
 495 00e8 1E46     		mov	r6, r3
 496 00ea BDE7     		b	.L83
 497              	.L62:
 498 00ec B9F1000F 		cmp	r9, #0
 499 00f0 37D0     		beq	.L71
 500 00f2 4FF0100B 		mov	fp, #16
 501 00f6 16E0     		b	.L78
 502              	.L113:
 503 00f8 9B8C     		ldrh	r3, [r3, #36]
 504 00fa 3B40     		ands	r3, r3, r7
 505 00fc 06F8013B 		strb	r3, [r6], #1
 506              	.L76:
 507 0100 2B88     		ldrh	r3, [r5]
 508 0102 0133     		adds	r3, r3, #1
 509 0104 2B80     		strh	r3, [r5]	@ movhi
 510 0106 B4F85A30 		ldrh	r3, [r4, #90]
 511 010a 013B     		subs	r3, r3, #1
 512 010c 9BB2     		uxth	r3, r3
 513 010e A4F85A30 		strh	r3, [r4, #90]	@ movhi
 514              	.L73:
 515 0112 FFF7FEFF 		bl	HAL_GetTick
 516 0116 A0EB0A00 		sub	r0, r0, r10
 517 011a 8145     		cmp	r9, r0
 518 011c 39D3     		bcc	.L77
 519 011e B4F85A30 		ldrh	r3, [r4, #90]
 520 0122 9BB2     		uxth	r3, r3
 521 0124 93B1     		cbz	r3, .L70
 522              	.L78:
 523 0126 2368     		ldr	r3, [r4]
 524 0128 DA69     		ldr	r2, [r3, #28]
 525 012a D206     		lsls	r2, r2, #27
 526 012c 04D5     		bpl	.L72
 527 012e 2A88     		ldrh	r2, [r5]
 528 0130 C3F820B0 		str	fp, [r3, #32]
 529 0134 002A     		cmp	r2, #0
 530 0136 36D1     		bne	.L64
ARM GAS  /tmp/ccsCrzSQ.s 			page 10


 531              	.L72:
 532 0138 DA69     		ldr	r2, [r3, #28]
 533 013a 9006     		lsls	r0, r2, #26
 534 013c E9D5     		bpl	.L73
 535 013e 002E     		cmp	r6, #0
 536 0140 DAD1     		bne	.L113
 537 0142 9B8C     		ldrh	r3, [r3, #36]
 538 0144 3B40     		ands	r3, r3, r7
 539 0146 28F8023B 		strh	r3, [r8], #2	@ movhi
 540 014a D9E7     		b	.L76
 541              	.L70:
 542 014c B4F85A10 		ldrh	r1, [r4, #90]
 543 0150 B4F85830 		ldrh	r3, [r4, #88]
 544 0154 2022     		movs	r2, #32
 545 0156 5B1A     		subs	r3, r3, r1
 546 0158 2B80     		strh	r3, [r5]	@ movhi
 547 015a 0020     		movs	r0, #0
 548 015c E267     		str	r2, [r4, #124]
 549 015e BDE8F88F 		pop	{r3, r4, r5, r6, r7, r8, r9, r10, fp, pc}
 550              	.L71:
 551 0162 2368     		ldr	r3, [r4]
 552 0164 DA69     		ldr	r2, [r3, #28]
 553 0166 D106     		lsls	r1, r2, #27
 554 0168 01D5     		bpl	.L79
 555 016a 1022     		movs	r2, #16
 556 016c 1A62     		str	r2, [r3, #32]
 557              	.L79:
 558 016e DA69     		ldr	r2, [r3, #28]
 559 0170 9206     		lsls	r2, r2, #26
 560 0172 0CD5     		bpl	.L80
 561 0174 9B8C     		ldrh	r3, [r3, #36]
 562 0176 3B40     		ands	r3, r3, r7
 563 0178 1EB3     		cbz	r6, .L117
 564 017a 3370     		strb	r3, [r6]
 565              	.L82:
 566 017c 2B88     		ldrh	r3, [r5]
 567 017e 0133     		adds	r3, r3, #1
 568 0180 2B80     		strh	r3, [r5]	@ movhi
 569 0182 B4F85A30 		ldrh	r3, [r4, #90]
 570 0186 013B     		subs	r3, r3, #1
 571 0188 9BB2     		uxth	r3, r3
 572 018a A4F85A30 		strh	r3, [r4, #90]	@ movhi
 573              	.L80:
 574 018e FFF7FEFF 		bl	HAL_GetTick
 575              	.L77:
 576 0192 2023     		movs	r3, #32
 577 0194 E367     		str	r3, [r4, #124]
 578 0196 0320     		movs	r0, #3
 579 0198 BDE8F88F 		pop	{r3, r4, r5, r6, r7, r8, r9, r10, fp, pc}
 580              	.L58:
 581 019c B3F1805F 		cmp	r3, #268435456
 582 01a0 09D0     		beq	.L118
 583 01a2 4746     		mov	r7, r8
 584 01a4 5CE7     		b	.L60
 585              	.L64:
 586 01a6 2023     		movs	r3, #32
 587 01a8 E367     		str	r3, [r4, #124]
ARM GAS  /tmp/ccsCrzSQ.s 			page 11


 588 01aa 0020     		movs	r0, #0
 589 01ac 8FE7     		b	.L111
 590              	.L116:
 591 01ae FF27     		movs	r7, #255
 592 01b0 A4F85C70 		strh	r7, [r4, #92]	@ movhi
 593 01b4 58E7     		b	.L83
 594              	.L118:
 595 01b6 2369     		ldr	r3, [r4, #16]
 596 01b8 002B     		cmp	r3, #0
 597 01ba 0CBF     		ite	eq
 598 01bc 7F27     		moveq	r7, #127
 599 01be 3F27     		movne	r7, #63
 600 01c0 4EE7     		b	.L60
 601              	.L117:
 602 01c2 A8F80030 		strh	r3, [r8]	@ movhi
 603 01c6 D9E7     		b	.L82
 605              		.section	.text.HAL_UARTEx_ReceiveToIdle_IT,"ax",%progbits
 606              		.align	1
 607              		.p2align 2,,3
 608              		.global	HAL_UARTEx_ReceiveToIdle_IT
 609              		.syntax unified
 610              		.thumb
 611              		.thumb_func
 612              		.fpu fpv4-sp-d16
 614              	HAL_UARTEx_ReceiveToIdle_IT:
 615              		@ args = 0, pretend = 0, frame = 0
 616              		@ frame_needed = 0, uses_anonymous_args = 0
 617 0000 70B5     		push	{r4, r5, r6, lr}
 618 0002 C66F     		ldr	r6, [r0, #124]
 619 0004 202E     		cmp	r6, #32
 620 0006 12D1     		bne	.L126
 621 0008 79B1     		cbz	r1, .L122
 622 000a 72B1     		cbz	r2, .L122
 623 000c 90F87430 		ldrb	r3, [r0, #116]	@ zero_extendqisi2
 624 0010 012B     		cmp	r3, #1
 625 0012 0446     		mov	r4, r0
 626 0014 0BD0     		beq	.L126
 627 0016 0123     		movs	r3, #1
 628 0018 80F87430 		strb	r3, [r0, #116]
 629 001c 0366     		str	r3, [r0, #96]
 630 001e FFF7FEFF 		bl	UART_Start_Receive_IT
 631 0022 18B9     		cbnz	r0, .L120
 632 0024 236E     		ldr	r3, [r4, #96]
 633 0026 012B     		cmp	r3, #1
 634 0028 03D0     		beq	.L135
 635              	.L122:
 636 002a 0120     		movs	r0, #1
 637              	.L120:
 638 002c 70BD     		pop	{r4, r5, r6, pc}
 639              	.L126:
 640 002e 0220     		movs	r0, #2
 641 0030 70BD     		pop	{r4, r5, r6, pc}
 642              	.L135:
 643 0032 2268     		ldr	r2, [r4]
 644 0034 1023     		movs	r3, #16
 645 0036 1362     		str	r3, [r2, #32]
 646              	.L133:
ARM GAS  /tmp/ccsCrzSQ.s 			page 12


 647              		.syntax unified
 648              	@ 1155 "Drivers/CMSIS/Include/cmsis_gcc.h" 1
 649 0038 52E8003F 		ldrex r3, [r2]
 650              	@ 0 "" 2
 651              		.thumb
 652              		.syntax unified
 653 003c 43F01003 		orr	r3, r3, #16
 654              		.syntax unified
 655              	@ 1206 "Drivers/CMSIS/Include/cmsis_gcc.h" 1
 656 0040 42E80031 		strex r1, r3, [r2]
 657              	@ 0 "" 2
 658              		.thumb
 659              		.syntax unified
 660 0044 0029     		cmp	r1, #0
 661 0046 F7D1     		bne	.L133
 662 0048 70BD     		pop	{r4, r5, r6, pc}
 664 004a 00BF     		.section	.text.HAL_UARTEx_ReceiveToIdle_DMA,"ax",%progbits
 665              		.align	1
 666              		.p2align 2,,3
 667              		.global	HAL_UARTEx_ReceiveToIdle_DMA
 668              		.syntax unified
 669              		.thumb
 670              		.thumb_func
 671              		.fpu fpv4-sp-d16
 673              	HAL_UARTEx_ReceiveToIdle_DMA:
 674              		@ args = 0, pretend = 0, frame = 0
 675              		@ frame_needed = 0, uses_anonymous_args = 0
 676 0000 70B5     		push	{r4, r5, r6, lr}
 677 0002 C66F     		ldr	r6, [r0, #124]
 678 0004 202E     		cmp	r6, #32
 679 0006 12D1     		bne	.L143
 680 0008 79B1     		cbz	r1, .L139
 681 000a 72B1     		cbz	r2, .L139
 682 000c 90F87430 		ldrb	r3, [r0, #116]	@ zero_extendqisi2
 683 0010 012B     		cmp	r3, #1
 684 0012 0446     		mov	r4, r0
 685 0014 0BD0     		beq	.L143
 686 0016 0123     		movs	r3, #1
 687 0018 80F87430 		strb	r3, [r0, #116]
 688 001c 0366     		str	r3, [r0, #96]
 689 001e FFF7FEFF 		bl	UART_Start_Receive_DMA
 690 0022 18B9     		cbnz	r0, .L137
 691 0024 236E     		ldr	r3, [r4, #96]
 692 0026 012B     		cmp	r3, #1
 693 0028 03D0     		beq	.L152
 694              	.L139:
 695 002a 0120     		movs	r0, #1
 696              	.L137:
 697 002c 70BD     		pop	{r4, r5, r6, pc}
 698              	.L143:
 699 002e 0220     		movs	r0, #2
 700 0030 70BD     		pop	{r4, r5, r6, pc}
 701              	.L152:
 702 0032 2268     		ldr	r2, [r4]
 703 0034 1023     		movs	r3, #16
 704 0036 1362     		str	r3, [r2, #32]
 705              	.L150:
ARM GAS  /tmp/ccsCrzSQ.s 			page 13


 706              		.syntax unified
 707              	@ 1155 "Drivers/CMSIS/Include/cmsis_gcc.h" 1
 708 0038 52E8003F 		ldrex r3, [r2]
 709              	@ 0 "" 2
 710              		.thumb
 711              		.syntax unified
 712 003c 43F01003 		orr	r3, r3, #16
 713              		.syntax unified
 714              	@ 1206 "Drivers/CMSIS/Include/cmsis_gcc.h" 1
 715 0040 42E80031 		strex r1, r3, [r2]
 716              	@ 0 "" 2
 717              		.thumb
 718              		.syntax unified
 719 0044 0029     		cmp	r1, #0
 720 0046 F7D1     		bne	.L150
 721 0048 70BD     		pop	{r4, r5, r6, pc}
 723 004a 00BF     		.ident	"GCC: (Arch Repository) 11.2.0"
ARM GAS  /tmp/ccsCrzSQ.s 			page 14

