ARM GAS  /tmp/cclXegFU.s 			page 1


   1              		.cpu cortex-m4
   2              		.eabi_attribute 27, 1
   3              		.eabi_attribute 28, 1
   4              		.eabi_attribute 20, 1
   5              		.eabi_attribute 21, 1
   6              		.eabi_attribute 23, 3
   7              		.eabi_attribute 24, 1
   8              		.eabi_attribute 25, 1
   9              		.eabi_attribute 26, 1
  10              		.eabi_attribute 30, 2
  11              		.eabi_attribute 34, 1
  12              		.eabi_attribute 18, 4
  13              		.file	"stm32l4xx_hal.c"
  14              		.text
  15              		.section	.text.HAL_MspInit,"ax",%progbits
  16              		.align	1
  17              		.p2align 2,,3
  18              		.weak	HAL_MspInit
  19              		.arch armv7e-m
  20              		.syntax unified
  21              		.thumb
  22              		.thumb_func
  23              		.fpu fpv4-sp-d16
  25              	HAL_MspInit:
  26              		@ args = 0, pretend = 0, frame = 0
  27              		@ frame_needed = 0, uses_anonymous_args = 0
  28              		@ link register save eliminated.
  29 0000 7047     		bx	lr
  31 0002 00BF     		.section	.text.HAL_MspDeInit,"ax",%progbits
  32              		.align	1
  33              		.p2align 2,,3
  34              		.weak	HAL_MspDeInit
  35              		.syntax unified
  36              		.thumb
  37              		.thumb_func
  38              		.fpu fpv4-sp-d16
  40              	HAL_MspDeInit:
  41              		@ args = 0, pretend = 0, frame = 0
  42              		@ frame_needed = 0, uses_anonymous_args = 0
  43              		@ link register save eliminated.
  44 0000 7047     		bx	lr
  46 0002 00BF     		.section	.text.HAL_DeInit,"ax",%progbits
  47              		.align	1
  48              		.p2align 2,,3
  49              		.global	HAL_DeInit
  50              		.syntax unified
  51              		.thumb
  52              		.thumb_func
  53              		.fpu fpv4-sp-d16
  55              	HAL_DeInit:
  56              		@ args = 0, pretend = 0, frame = 0
  57              		@ frame_needed = 0, uses_anonymous_args = 0
  58 0000 10B5     		push	{r4, lr}
  59 0002 0A4B     		ldr	r3, .L6
  60 0004 0024     		movs	r4, #0
  61 0006 4FF0FF32 		mov	r2, #-1
  62 000a 9A63     		str	r2, [r3, #56]
ARM GAS  /tmp/cclXegFU.s 			page 2


  63 000c DA63     		str	r2, [r3, #60]
  64 000e 9C63     		str	r4, [r3, #56]
  65 0010 DC63     		str	r4, [r3, #60]
  66 0012 1A64     		str	r2, [r3, #64]
  67 0014 1C64     		str	r4, [r3, #64]
  68 0016 9A62     		str	r2, [r3, #40]
  69 0018 9C62     		str	r4, [r3, #40]
  70 001a DA62     		str	r2, [r3, #44]
  71 001c DC62     		str	r4, [r3, #44]
  72 001e 1A63     		str	r2, [r3, #48]
  73 0020 1C63     		str	r4, [r3, #48]
  74 0022 FFF7FEFF 		bl	HAL_MspDeInit
  75 0026 2046     		mov	r0, r4
  76 0028 10BD     		pop	{r4, pc}
  77              	.L7:
  78 002a 00BF     		.align	2
  79              	.L6:
  80 002c 00100240 		.word	1073876992
  82              		.section	.text.HAL_InitTick,"ax",%progbits
  83              		.align	1
  84              		.p2align 2,,3
  85              		.weak	HAL_InitTick
  86              		.syntax unified
  87              		.thumb
  88              		.thumb_func
  89              		.fpu fpv4-sp-d16
  91              	HAL_InitTick:
  92              		@ args = 0, pretend = 0, frame = 0
  93              		@ frame_needed = 0, uses_anonymous_args = 0
  94 0000 38B5     		push	{r3, r4, r5, lr}
  95 0002 0F4B     		ldr	r3, .L13
  96 0004 1B78     		ldrb	r3, [r3]	@ zero_extendqisi2
  97 0006 0BB9     		cbnz	r3, .L9
  98              	.L11:
  99 0008 0120     		movs	r0, #1
 100 000a 38BD     		pop	{r3, r4, r5, pc}
 101              	.L9:
 102 000c 0D49     		ldr	r1, .L13+4
 103 000e 4FF47A72 		mov	r2, #1000
 104 0012 0546     		mov	r5, r0
 105 0014 B2FBF3F3 		udiv	r3, r2, r3
 106 0018 0868     		ldr	r0, [r1]
 107 001a B0FBF3F0 		udiv	r0, r0, r3
 108 001e FFF7FEFF 		bl	HAL_SYSTICK_Config
 109 0022 0446     		mov	r4, r0
 110 0024 0028     		cmp	r0, #0
 111 0026 EFD1     		bne	.L11
 112 0028 0F2D     		cmp	r5, #15
 113 002a EDD8     		bhi	.L11
 114 002c 0246     		mov	r2, r0
 115 002e 2946     		mov	r1, r5
 116 0030 4FF0FF30 		mov	r0, #-1
 117 0034 FFF7FEFF 		bl	HAL_NVIC_SetPriority
 118 0038 034B     		ldr	r3, .L13+8
 119 003a 2046     		mov	r0, r4
 120 003c 1D60     		str	r5, [r3]
 121 003e 38BD     		pop	{r3, r4, r5, pc}
ARM GAS  /tmp/cclXegFU.s 			page 3


 122              	.L14:
 123              		.align	2
 124              	.L13:
 125 0040 00000000 		.word	.LANCHOR0
 126 0044 00000000 		.word	SystemCoreClock
 127 0048 00000000 		.word	.LANCHOR1
 129              		.section	.text.HAL_Init,"ax",%progbits
 130              		.align	1
 131              		.p2align 2,,3
 132              		.global	HAL_Init
 133              		.syntax unified
 134              		.thumb
 135              		.thumb_func
 136              		.fpu fpv4-sp-d16
 138              	HAL_Init:
 139              		@ args = 0, pretend = 0, frame = 0
 140              		@ frame_needed = 0, uses_anonymous_args = 0
 141 0000 0A4A     		ldr	r2, .L20
 142 0002 1368     		ldr	r3, [r2]
 143 0004 43F48073 		orr	r3, r3, #256
 144 0008 10B5     		push	{r4, lr}
 145 000a 0320     		movs	r0, #3
 146 000c 1360     		str	r3, [r2]
 147 000e FFF7FEFF 		bl	HAL_NVIC_SetPriorityGrouping
 148 0012 0020     		movs	r0, #0
 149 0014 FFF7FEFF 		bl	HAL_InitTick
 150 0018 10B1     		cbz	r0, .L19
 151 001a 0124     		movs	r4, #1
 152 001c 2046     		mov	r0, r4
 153 001e 10BD     		pop	{r4, pc}
 154              	.L19:
 155 0020 0446     		mov	r4, r0
 156 0022 FFF7FEFF 		bl	HAL_MspInit
 157 0026 2046     		mov	r0, r4
 158 0028 10BD     		pop	{r4, pc}
 159              	.L21:
 160 002a 00BF     		.align	2
 161              	.L20:
 162 002c 00200240 		.word	1073881088
 164              		.section	.text.HAL_IncTick,"ax",%progbits
 165              		.align	1
 166              		.p2align 2,,3
 167              		.weak	HAL_IncTick
 168              		.syntax unified
 169              		.thumb
 170              		.thumb_func
 171              		.fpu fpv4-sp-d16
 173              	HAL_IncTick:
 174              		@ args = 0, pretend = 0, frame = 0
 175              		@ frame_needed = 0, uses_anonymous_args = 0
 176              		@ link register save eliminated.
 177 0000 034A     		ldr	r2, .L23
 178 0002 044B     		ldr	r3, .L23+4
 179 0004 1168     		ldr	r1, [r2]
 180 0006 1B78     		ldrb	r3, [r3]	@ zero_extendqisi2
 181 0008 0B44     		add	r3, r3, r1
 182 000a 1360     		str	r3, [r2]
ARM GAS  /tmp/cclXegFU.s 			page 4


 183 000c 7047     		bx	lr
 184              	.L24:
 185 000e 00BF     		.align	2
 186              	.L23:
 187 0010 00000000 		.word	.LANCHOR2
 188 0014 00000000 		.word	.LANCHOR0
 190              		.section	.text.HAL_GetTick,"ax",%progbits
 191              		.align	1
 192              		.p2align 2,,3
 193              		.weak	HAL_GetTick
 194              		.syntax unified
 195              		.thumb
 196              		.thumb_func
 197              		.fpu fpv4-sp-d16
 199              	HAL_GetTick:
 200              		@ args = 0, pretend = 0, frame = 0
 201              		@ frame_needed = 0, uses_anonymous_args = 0
 202              		@ link register save eliminated.
 203 0000 014B     		ldr	r3, .L26
 204 0002 1868     		ldr	r0, [r3]
 205 0004 7047     		bx	lr
 206              	.L27:
 207 0006 00BF     		.align	2
 208              	.L26:
 209 0008 00000000 		.word	.LANCHOR2
 211              		.section	.text.HAL_GetTickPrio,"ax",%progbits
 212              		.align	1
 213              		.p2align 2,,3
 214              		.global	HAL_GetTickPrio
 215              		.syntax unified
 216              		.thumb
 217              		.thumb_func
 218              		.fpu fpv4-sp-d16
 220              	HAL_GetTickPrio:
 221              		@ args = 0, pretend = 0, frame = 0
 222              		@ frame_needed = 0, uses_anonymous_args = 0
 223              		@ link register save eliminated.
 224 0000 014B     		ldr	r3, .L29
 225 0002 1868     		ldr	r0, [r3]
 226 0004 7047     		bx	lr
 227              	.L30:
 228 0006 00BF     		.align	2
 229              	.L29:
 230 0008 00000000 		.word	.LANCHOR1
 232              		.section	.text.HAL_SetTickFreq,"ax",%progbits
 233              		.align	1
 234              		.p2align 2,,3
 235              		.global	HAL_SetTickFreq
 236              		.syntax unified
 237              		.thumb
 238              		.thumb_func
 239              		.fpu fpv4-sp-d16
 241              	HAL_SetTickFreq:
 242              		@ args = 0, pretend = 0, frame = 0
 243              		@ frame_needed = 0, uses_anonymous_args = 0
 244 0000 38B5     		push	{r3, r4, r5, lr}
 245 0002 074C     		ldr	r4, .L39
ARM GAS  /tmp/cclXegFU.s 			page 5


 246 0004 2578     		ldrb	r5, [r4]	@ zero_extendqisi2
 247 0006 8542     		cmp	r5, r0
 248 0008 01D1     		bne	.L38
 249 000a 0020     		movs	r0, #0
 250              	.L32:
 251 000c 38BD     		pop	{r3, r4, r5, pc}
 252              	.L38:
 253 000e 054B     		ldr	r3, .L39+4
 254 0010 2070     		strb	r0, [r4]
 255 0012 1868     		ldr	r0, [r3]
 256 0014 FFF7FEFF 		bl	HAL_InitTick
 257 0018 0028     		cmp	r0, #0
 258 001a F7D0     		beq	.L32
 259 001c 2570     		strb	r5, [r4]
 260 001e 38BD     		pop	{r3, r4, r5, pc}
 261              	.L40:
 262              		.align	2
 263              	.L39:
 264 0020 00000000 		.word	.LANCHOR0
 265 0024 00000000 		.word	.LANCHOR1
 267              		.section	.text.HAL_GetTickFreq,"ax",%progbits
 268              		.align	1
 269              		.p2align 2,,3
 270              		.global	HAL_GetTickFreq
 271              		.syntax unified
 272              		.thumb
 273              		.thumb_func
 274              		.fpu fpv4-sp-d16
 276              	HAL_GetTickFreq:
 277              		@ args = 0, pretend = 0, frame = 0
 278              		@ frame_needed = 0, uses_anonymous_args = 0
 279              		@ link register save eliminated.
 280 0000 014B     		ldr	r3, .L42
 281 0002 1878     		ldrb	r0, [r3]	@ zero_extendqisi2
 282 0004 7047     		bx	lr
 283              	.L43:
 284 0006 00BF     		.align	2
 285              	.L42:
 286 0008 00000000 		.word	.LANCHOR0
 288              		.section	.text.HAL_Delay,"ax",%progbits
 289              		.align	1
 290              		.p2align 2,,3
 291              		.weak	HAL_Delay
 292              		.syntax unified
 293              		.thumb
 294              		.thumb_func
 295              		.fpu fpv4-sp-d16
 297              	HAL_Delay:
 298              		@ args = 0, pretend = 0, frame = 0
 299              		@ frame_needed = 0, uses_anonymous_args = 0
 300 0000 38B5     		push	{r3, r4, r5, lr}
 301 0002 0446     		mov	r4, r0
 302 0004 FFF7FEFF 		bl	HAL_GetTick
 303 0008 631C     		adds	r3, r4, #1
 304 000a 0546     		mov	r5, r0
 305 000c 02D0     		beq	.L46
 306 000e 044B     		ldr	r3, .L52
ARM GAS  /tmp/cclXegFU.s 			page 6


 307 0010 1B78     		ldrb	r3, [r3]	@ zero_extendqisi2
 308 0012 1C44     		add	r4, r4, r3
 309              	.L46:
 310 0014 FFF7FEFF 		bl	HAL_GetTick
 311 0018 431B     		subs	r3, r0, r5
 312 001a A342     		cmp	r3, r4
 313 001c FAD3     		bcc	.L46
 314 001e 38BD     		pop	{r3, r4, r5, pc}
 315              	.L53:
 316              		.align	2
 317              	.L52:
 318 0020 00000000 		.word	.LANCHOR0
 320              		.section	.text.HAL_SuspendTick,"ax",%progbits
 321              		.align	1
 322              		.p2align 2,,3
 323              		.weak	HAL_SuspendTick
 324              		.syntax unified
 325              		.thumb
 326              		.thumb_func
 327              		.fpu fpv4-sp-d16
 329              	HAL_SuspendTick:
 330              		@ args = 0, pretend = 0, frame = 0
 331              		@ frame_needed = 0, uses_anonymous_args = 0
 332              		@ link register save eliminated.
 333 0000 4FF0E022 		mov	r2, #-536813568
 334 0004 1369     		ldr	r3, [r2, #16]
 335 0006 23F00203 		bic	r3, r3, #2
 336 000a 1361     		str	r3, [r2, #16]
 337 000c 7047     		bx	lr
 339 000e 00BF     		.section	.text.HAL_ResumeTick,"ax",%progbits
 340              		.align	1
 341              		.p2align 2,,3
 342              		.weak	HAL_ResumeTick
 343              		.syntax unified
 344              		.thumb
 345              		.thumb_func
 346              		.fpu fpv4-sp-d16
 348              	HAL_ResumeTick:
 349              		@ args = 0, pretend = 0, frame = 0
 350              		@ frame_needed = 0, uses_anonymous_args = 0
 351              		@ link register save eliminated.
 352 0000 4FF0E022 		mov	r2, #-536813568
 353 0004 1369     		ldr	r3, [r2, #16]
 354 0006 43F00203 		orr	r3, r3, #2
 355 000a 1361     		str	r3, [r2, #16]
 356 000c 7047     		bx	lr
 358 000e 00BF     		.section	.text.HAL_GetHalVersion,"ax",%progbits
 359              		.align	1
 360              		.p2align 2,,3
 361              		.global	HAL_GetHalVersion
 362              		.syntax unified
 363              		.thumb
 364              		.thumb_func
 365              		.fpu fpv4-sp-d16
 367              	HAL_GetHalVersion:
 368              		@ args = 0, pretend = 0, frame = 0
 369              		@ frame_needed = 0, uses_anonymous_args = 0
ARM GAS  /tmp/cclXegFU.s 			page 7


 370              		@ link register save eliminated.
 371 0000 0048     		ldr	r0, .L57
 372 0002 7047     		bx	lr
 373              	.L58:
 374              		.align	2
 375              	.L57:
 376 0004 00020D01 		.word	17629696
 378              		.section	.text.HAL_GetREVID,"ax",%progbits
 379              		.align	1
 380              		.p2align 2,,3
 381              		.global	HAL_GetREVID
 382              		.syntax unified
 383              		.thumb
 384              		.thumb_func
 385              		.fpu fpv4-sp-d16
 387              	HAL_GetREVID:
 388              		@ args = 0, pretend = 0, frame = 0
 389              		@ frame_needed = 0, uses_anonymous_args = 0
 390              		@ link register save eliminated.
 391 0000 014B     		ldr	r3, .L60
 392 0002 1868     		ldr	r0, [r3]
 393 0004 000C     		lsrs	r0, r0, #16
 394 0006 7047     		bx	lr
 395              	.L61:
 396              		.align	2
 397              	.L60:
 398 0008 002004E0 		.word	-536600576
 400              		.section	.text.HAL_GetDEVID,"ax",%progbits
 401              		.align	1
 402              		.p2align 2,,3
 403              		.global	HAL_GetDEVID
 404              		.syntax unified
 405              		.thumb
 406              		.thumb_func
 407              		.fpu fpv4-sp-d16
 409              	HAL_GetDEVID:
 410              		@ args = 0, pretend = 0, frame = 0
 411              		@ frame_needed = 0, uses_anonymous_args = 0
 412              		@ link register save eliminated.
 413 0000 024B     		ldr	r3, .L63
 414 0002 1868     		ldr	r0, [r3]
 415 0004 C0F30B00 		ubfx	r0, r0, #0, #12
 416 0008 7047     		bx	lr
 417              	.L64:
 418 000a 00BF     		.align	2
 419              	.L63:
 420 000c 002004E0 		.word	-536600576
 422              		.section	.text.HAL_GetUIDw0,"ax",%progbits
 423              		.align	1
 424              		.p2align 2,,3
 425              		.global	HAL_GetUIDw0
 426              		.syntax unified
 427              		.thumb
 428              		.thumb_func
 429              		.fpu fpv4-sp-d16
 431              	HAL_GetUIDw0:
 432              		@ args = 0, pretend = 0, frame = 0
ARM GAS  /tmp/cclXegFU.s 			page 8


 433              		@ frame_needed = 0, uses_anonymous_args = 0
 434              		@ link register save eliminated.
 435 0000 014B     		ldr	r3, .L66
 436 0002 D3F89005 		ldr	r0, [r3, #1424]
 437 0006 7047     		bx	lr
 438              	.L67:
 439              		.align	2
 440              	.L66:
 441 0008 0070FF1F 		.word	536834048
 443              		.section	.text.HAL_GetUIDw1,"ax",%progbits
 444              		.align	1
 445              		.p2align 2,,3
 446              		.global	HAL_GetUIDw1
 447              		.syntax unified
 448              		.thumb
 449              		.thumb_func
 450              		.fpu fpv4-sp-d16
 452              	HAL_GetUIDw1:
 453              		@ args = 0, pretend = 0, frame = 0
 454              		@ frame_needed = 0, uses_anonymous_args = 0
 455              		@ link register save eliminated.
 456 0000 014B     		ldr	r3, .L69
 457 0002 D3F89405 		ldr	r0, [r3, #1428]
 458 0006 7047     		bx	lr
 459              	.L70:
 460              		.align	2
 461              	.L69:
 462 0008 0070FF1F 		.word	536834048
 464              		.section	.text.HAL_GetUIDw2,"ax",%progbits
 465              		.align	1
 466              		.p2align 2,,3
 467              		.global	HAL_GetUIDw2
 468              		.syntax unified
 469              		.thumb
 470              		.thumb_func
 471              		.fpu fpv4-sp-d16
 473              	HAL_GetUIDw2:
 474              		@ args = 0, pretend = 0, frame = 0
 475              		@ frame_needed = 0, uses_anonymous_args = 0
 476              		@ link register save eliminated.
 477 0000 014B     		ldr	r3, .L72
 478 0002 D3F89805 		ldr	r0, [r3, #1432]
 479 0006 7047     		bx	lr
 480              	.L73:
 481              		.align	2
 482              	.L72:
 483 0008 0070FF1F 		.word	536834048
 485              		.section	.text.HAL_DBGMCU_EnableDBGSleepMode,"ax",%progbits
 486              		.align	1
 487              		.p2align 2,,3
 488              		.global	HAL_DBGMCU_EnableDBGSleepMode
 489              		.syntax unified
 490              		.thumb
 491              		.thumb_func
 492              		.fpu fpv4-sp-d16
 494              	HAL_DBGMCU_EnableDBGSleepMode:
 495              		@ args = 0, pretend = 0, frame = 0
ARM GAS  /tmp/cclXegFU.s 			page 9


 496              		@ frame_needed = 0, uses_anonymous_args = 0
 497              		@ link register save eliminated.
 498 0000 024A     		ldr	r2, .L75
 499 0002 5368     		ldr	r3, [r2, #4]
 500 0004 43F00103 		orr	r3, r3, #1
 501 0008 5360     		str	r3, [r2, #4]
 502 000a 7047     		bx	lr
 503              	.L76:
 504              		.align	2
 505              	.L75:
 506 000c 002004E0 		.word	-536600576
 508              		.section	.text.HAL_DBGMCU_DisableDBGSleepMode,"ax",%progbits
 509              		.align	1
 510              		.p2align 2,,3
 511              		.global	HAL_DBGMCU_DisableDBGSleepMode
 512              		.syntax unified
 513              		.thumb
 514              		.thumb_func
 515              		.fpu fpv4-sp-d16
 517              	HAL_DBGMCU_DisableDBGSleepMode:
 518              		@ args = 0, pretend = 0, frame = 0
 519              		@ frame_needed = 0, uses_anonymous_args = 0
 520              		@ link register save eliminated.
 521 0000 024A     		ldr	r2, .L78
 522 0002 5368     		ldr	r3, [r2, #4]
 523 0004 23F00103 		bic	r3, r3, #1
 524 0008 5360     		str	r3, [r2, #4]
 525 000a 7047     		bx	lr
 526              	.L79:
 527              		.align	2
 528              	.L78:
 529 000c 002004E0 		.word	-536600576
 531              		.section	.text.HAL_DBGMCU_EnableDBGStopMode,"ax",%progbits
 532              		.align	1
 533              		.p2align 2,,3
 534              		.global	HAL_DBGMCU_EnableDBGStopMode
 535              		.syntax unified
 536              		.thumb
 537              		.thumb_func
 538              		.fpu fpv4-sp-d16
 540              	HAL_DBGMCU_EnableDBGStopMode:
 541              		@ args = 0, pretend = 0, frame = 0
 542              		@ frame_needed = 0, uses_anonymous_args = 0
 543              		@ link register save eliminated.
 544 0000 024A     		ldr	r2, .L81
 545 0002 5368     		ldr	r3, [r2, #4]
 546 0004 43F00203 		orr	r3, r3, #2
 547 0008 5360     		str	r3, [r2, #4]
 548 000a 7047     		bx	lr
 549              	.L82:
 550              		.align	2
 551              	.L81:
 552 000c 002004E0 		.word	-536600576
 554              		.section	.text.HAL_DBGMCU_DisableDBGStopMode,"ax",%progbits
 555              		.align	1
 556              		.p2align 2,,3
 557              		.global	HAL_DBGMCU_DisableDBGStopMode
ARM GAS  /tmp/cclXegFU.s 			page 10


 558              		.syntax unified
 559              		.thumb
 560              		.thumb_func
 561              		.fpu fpv4-sp-d16
 563              	HAL_DBGMCU_DisableDBGStopMode:
 564              		@ args = 0, pretend = 0, frame = 0
 565              		@ frame_needed = 0, uses_anonymous_args = 0
 566              		@ link register save eliminated.
 567 0000 024A     		ldr	r2, .L84
 568 0002 5368     		ldr	r3, [r2, #4]
 569 0004 23F00203 		bic	r3, r3, #2
 570 0008 5360     		str	r3, [r2, #4]
 571 000a 7047     		bx	lr
 572              	.L85:
 573              		.align	2
 574              	.L84:
 575 000c 002004E0 		.word	-536600576
 577              		.section	.text.HAL_DBGMCU_EnableDBGStandbyMode,"ax",%progbits
 578              		.align	1
 579              		.p2align 2,,3
 580              		.global	HAL_DBGMCU_EnableDBGStandbyMode
 581              		.syntax unified
 582              		.thumb
 583              		.thumb_func
 584              		.fpu fpv4-sp-d16
 586              	HAL_DBGMCU_EnableDBGStandbyMode:
 587              		@ args = 0, pretend = 0, frame = 0
 588              		@ frame_needed = 0, uses_anonymous_args = 0
 589              		@ link register save eliminated.
 590 0000 024A     		ldr	r2, .L87
 591 0002 5368     		ldr	r3, [r2, #4]
 592 0004 43F00403 		orr	r3, r3, #4
 593 0008 5360     		str	r3, [r2, #4]
 594 000a 7047     		bx	lr
 595              	.L88:
 596              		.align	2
 597              	.L87:
 598 000c 002004E0 		.word	-536600576
 600              		.section	.text.HAL_DBGMCU_DisableDBGStandbyMode,"ax",%progbits
 601              		.align	1
 602              		.p2align 2,,3
 603              		.global	HAL_DBGMCU_DisableDBGStandbyMode
 604              		.syntax unified
 605              		.thumb
 606              		.thumb_func
 607              		.fpu fpv4-sp-d16
 609              	HAL_DBGMCU_DisableDBGStandbyMode:
 610              		@ args = 0, pretend = 0, frame = 0
 611              		@ frame_needed = 0, uses_anonymous_args = 0
 612              		@ link register save eliminated.
 613 0000 024A     		ldr	r2, .L90
 614 0002 5368     		ldr	r3, [r2, #4]
 615 0004 23F00403 		bic	r3, r3, #4
 616 0008 5360     		str	r3, [r2, #4]
 617 000a 7047     		bx	lr
 618              	.L91:
 619              		.align	2
ARM GAS  /tmp/cclXegFU.s 			page 11


 620              	.L90:
 621 000c 002004E0 		.word	-536600576
 623              		.section	.text.HAL_SYSCFG_SRAM2Erase,"ax",%progbits
 624              		.align	1
 625              		.p2align 2,,3
 626              		.global	HAL_SYSCFG_SRAM2Erase
 627              		.syntax unified
 628              		.thumb
 629              		.thumb_func
 630              		.fpu fpv4-sp-d16
 632              	HAL_SYSCFG_SRAM2Erase:
 633              		@ args = 0, pretend = 0, frame = 0
 634              		@ frame_needed = 0, uses_anonymous_args = 0
 635              		@ link register save eliminated.
 636 0000 064B     		ldr	r3, .L94
 637 0002 074A     		ldr	r2, .L94+4
 638 0004 10B4     		push	{r4}
 639 0006 5320     		movs	r0, #83
 640 0008 CA24     		movs	r4, #202
 641 000a 0121     		movs	r1, #1
 642 000c 5C62     		str	r4, [r3, #36]
 643 000e 5862     		str	r0, [r3, #36]
 644 0010 5DF8044B 		ldr	r4, [sp], #4
 645 0014 C2F80013 		str	r1, [r2, #768]
 646 0018 7047     		bx	lr
 647              	.L95:
 648 001a 00BF     		.align	2
 649              	.L94:
 650 001c 00000140 		.word	1073807360
 651 0020 00002042 		.word	1109393408
 653              		.section	.text.HAL_SYSCFG_EnableMemorySwappingBank,"ax",%progbits
 654              		.align	1
 655              		.p2align 2,,3
 656              		.global	HAL_SYSCFG_EnableMemorySwappingBank
 657              		.syntax unified
 658              		.thumb
 659              		.thumb_func
 660              		.fpu fpv4-sp-d16
 662              	HAL_SYSCFG_EnableMemorySwappingBank:
 663              		@ args = 0, pretend = 0, frame = 0
 664              		@ frame_needed = 0, uses_anonymous_args = 0
 665              		@ link register save eliminated.
 666 0000 014B     		ldr	r3, .L97
 667 0002 0122     		movs	r2, #1
 668 0004 1A62     		str	r2, [r3, #32]
 669 0006 7047     		bx	lr
 670              	.L98:
 671              		.align	2
 672              	.L97:
 673 0008 00002042 		.word	1109393408
 675              		.section	.text.HAL_SYSCFG_DisableMemorySwappingBank,"ax",%progbits
 676              		.align	1
 677              		.p2align 2,,3
 678              		.global	HAL_SYSCFG_DisableMemorySwappingBank
 679              		.syntax unified
 680              		.thumb
 681              		.thumb_func
ARM GAS  /tmp/cclXegFU.s 			page 12


 682              		.fpu fpv4-sp-d16
 684              	HAL_SYSCFG_DisableMemorySwappingBank:
 685              		@ args = 0, pretend = 0, frame = 0
 686              		@ frame_needed = 0, uses_anonymous_args = 0
 687              		@ link register save eliminated.
 688 0000 014B     		ldr	r3, .L100
 689 0002 0022     		movs	r2, #0
 690 0004 1A62     		str	r2, [r3, #32]
 691 0006 7047     		bx	lr
 692              	.L101:
 693              		.align	2
 694              	.L100:
 695 0008 00002042 		.word	1109393408
 697              		.section	.text.HAL_SYSCFG_VREFBUF_VoltageScalingConfig,"ax",%progbits
 698              		.align	1
 699              		.p2align 2,,3
 700              		.global	HAL_SYSCFG_VREFBUF_VoltageScalingConfig
 701              		.syntax unified
 702              		.thumb
 703              		.thumb_func
 704              		.fpu fpv4-sp-d16
 706              	HAL_SYSCFG_VREFBUF_VoltageScalingConfig:
 707              		@ args = 0, pretend = 0, frame = 0
 708              		@ frame_needed = 0, uses_anonymous_args = 0
 709              		@ link register save eliminated.
 710 0000 034A     		ldr	r2, .L103
 711 0002 136B     		ldr	r3, [r2, #48]
 712 0004 23F00403 		bic	r3, r3, #4
 713 0008 1843     		orrs	r0, r0, r3
 714 000a 1063     		str	r0, [r2, #48]
 715 000c 7047     		bx	lr
 716              	.L104:
 717 000e 00BF     		.align	2
 718              	.L103:
 719 0010 00000140 		.word	1073807360
 721              		.section	.text.HAL_SYSCFG_VREFBUF_HighImpedanceConfig,"ax",%progbits
 722              		.align	1
 723              		.p2align 2,,3
 724              		.global	HAL_SYSCFG_VREFBUF_HighImpedanceConfig
 725              		.syntax unified
 726              		.thumb
 727              		.thumb_func
 728              		.fpu fpv4-sp-d16
 730              	HAL_SYSCFG_VREFBUF_HighImpedanceConfig:
 731              		@ args = 0, pretend = 0, frame = 0
 732              		@ frame_needed = 0, uses_anonymous_args = 0
 733              		@ link register save eliminated.
 734 0000 034A     		ldr	r2, .L106
 735 0002 136B     		ldr	r3, [r2, #48]
 736 0004 23F00203 		bic	r3, r3, #2
 737 0008 1843     		orrs	r0, r0, r3
 738 000a 1063     		str	r0, [r2, #48]
 739 000c 7047     		bx	lr
 740              	.L107:
 741 000e 00BF     		.align	2
 742              	.L106:
 743 0010 00000140 		.word	1073807360
ARM GAS  /tmp/cclXegFU.s 			page 13


 745              		.section	.text.HAL_SYSCFG_VREFBUF_TrimmingConfig,"ax",%progbits
 746              		.align	1
 747              		.p2align 2,,3
 748              		.global	HAL_SYSCFG_VREFBUF_TrimmingConfig
 749              		.syntax unified
 750              		.thumb
 751              		.thumb_func
 752              		.fpu fpv4-sp-d16
 754              	HAL_SYSCFG_VREFBUF_TrimmingConfig:
 755              		@ args = 0, pretend = 0, frame = 0
 756              		@ frame_needed = 0, uses_anonymous_args = 0
 757              		@ link register save eliminated.
 758 0000 034A     		ldr	r2, .L109
 759 0002 536B     		ldr	r3, [r2, #52]
 760 0004 23F03F03 		bic	r3, r3, #63
 761 0008 1843     		orrs	r0, r0, r3
 762 000a 5063     		str	r0, [r2, #52]
 763 000c 7047     		bx	lr
 764              	.L110:
 765 000e 00BF     		.align	2
 766              	.L109:
 767 0010 00000140 		.word	1073807360
 769              		.section	.text.HAL_SYSCFG_EnableVREFBUF,"ax",%progbits
 770              		.align	1
 771              		.p2align 2,,3
 772              		.global	HAL_SYSCFG_EnableVREFBUF
 773              		.syntax unified
 774              		.thumb
 775              		.thumb_func
 776              		.fpu fpv4-sp-d16
 778              	HAL_SYSCFG_EnableVREFBUF:
 779              		@ args = 0, pretend = 0, frame = 0
 780              		@ frame_needed = 0, uses_anonymous_args = 0
 781 0000 38B5     		push	{r3, r4, r5, lr}
 782 0002 0A4C     		ldr	r4, .L117
 783 0004 236B     		ldr	r3, [r4, #48]
 784 0006 43F00103 		orr	r3, r3, #1
 785 000a 2363     		str	r3, [r4, #48]
 786 000c FFF7FEFF 		bl	HAL_GetTick
 787 0010 0546     		mov	r5, r0
 788 0012 04E0     		b	.L112
 789              	.L114:
 790 0014 FFF7FEFF 		bl	HAL_GetTick
 791 0018 401B     		subs	r0, r0, r5
 792 001a 0A28     		cmp	r0, #10
 793 001c 04D8     		bhi	.L115
 794              	.L112:
 795 001e 236B     		ldr	r3, [r4, #48]
 796 0020 1B07     		lsls	r3, r3, #28
 797 0022 F7D5     		bpl	.L114
 798 0024 0020     		movs	r0, #0
 799 0026 38BD     		pop	{r3, r4, r5, pc}
 800              	.L115:
 801 0028 0320     		movs	r0, #3
 802 002a 38BD     		pop	{r3, r4, r5, pc}
 803              	.L118:
 804              		.align	2
ARM GAS  /tmp/cclXegFU.s 			page 14


 805              	.L117:
 806 002c 00000140 		.word	1073807360
 808              		.section	.text.HAL_SYSCFG_DisableVREFBUF,"ax",%progbits
 809              		.align	1
 810              		.p2align 2,,3
 811              		.global	HAL_SYSCFG_DisableVREFBUF
 812              		.syntax unified
 813              		.thumb
 814              		.thumb_func
 815              		.fpu fpv4-sp-d16
 817              	HAL_SYSCFG_DisableVREFBUF:
 818              		@ args = 0, pretend = 0, frame = 0
 819              		@ frame_needed = 0, uses_anonymous_args = 0
 820              		@ link register save eliminated.
 821 0000 024A     		ldr	r2, .L120
 822 0002 136B     		ldr	r3, [r2, #48]
 823 0004 23F00103 		bic	r3, r3, #1
 824 0008 1363     		str	r3, [r2, #48]
 825 000a 7047     		bx	lr
 826              	.L121:
 827              		.align	2
 828              	.L120:
 829 000c 00000140 		.word	1073807360
 831              		.section	.text.HAL_SYSCFG_EnableIOAnalogSwitchBooster,"ax",%progbits
 832              		.align	1
 833              		.p2align 2,,3
 834              		.global	HAL_SYSCFG_EnableIOAnalogSwitchBooster
 835              		.syntax unified
 836              		.thumb
 837              		.thumb_func
 838              		.fpu fpv4-sp-d16
 840              	HAL_SYSCFG_EnableIOAnalogSwitchBooster:
 841              		@ args = 0, pretend = 0, frame = 0
 842              		@ frame_needed = 0, uses_anonymous_args = 0
 843              		@ link register save eliminated.
 844 0000 024A     		ldr	r2, .L123
 845 0002 5368     		ldr	r3, [r2, #4]
 846 0004 43F48073 		orr	r3, r3, #256
 847 0008 5360     		str	r3, [r2, #4]
 848 000a 7047     		bx	lr
 849              	.L124:
 850              		.align	2
 851              	.L123:
 852 000c 00000140 		.word	1073807360
 854              		.section	.text.HAL_SYSCFG_DisableIOAnalogSwitchBooster,"ax",%progbits
 855              		.align	1
 856              		.p2align 2,,3
 857              		.global	HAL_SYSCFG_DisableIOAnalogSwitchBooster
 858              		.syntax unified
 859              		.thumb
 860              		.thumb_func
 861              		.fpu fpv4-sp-d16
 863              	HAL_SYSCFG_DisableIOAnalogSwitchBooster:
 864              		@ args = 0, pretend = 0, frame = 0
 865              		@ frame_needed = 0, uses_anonymous_args = 0
 866              		@ link register save eliminated.
 867 0000 024A     		ldr	r2, .L126
ARM GAS  /tmp/cclXegFU.s 			page 15


 868 0002 5368     		ldr	r3, [r2, #4]
 869 0004 23F48073 		bic	r3, r3, #256
 870 0008 5360     		str	r3, [r2, #4]
 871 000a 7047     		bx	lr
 872              	.L127:
 873              		.align	2
 874              	.L126:
 875 000c 00000140 		.word	1073807360
 877              		.global	uwTickFreq
 878              		.global	uwTickPrio
 879              		.global	uwTick
 880              		.section	.bss.uwTick,"aw",%nobits
 881              		.align	2
 882              		.set	.LANCHOR2,. + 0
 885              	uwTick:
 886 0000 00000000 		.space	4
 887              		.section	.data.uwTickFreq,"aw"
 888              		.set	.LANCHOR0,. + 0
 891              	uwTickFreq:
 892 0000 01       		.byte	1
 893              		.section	.data.uwTickPrio,"aw"
 894              		.align	2
 895              		.set	.LANCHOR1,. + 0
 898              	uwTickPrio:
 899 0000 10000000 		.word	16
 900              		.ident	"GCC: (Arch Repository) 11.2.0"
ARM GAS  /tmp/cclXegFU.s 			page 16

